ARM GAS  /tmp/ccusK9w9.s 			page 1


   1              		.cpu cortex-m4
   2              		.eabi_attribute 27, 1
   3              		.eabi_attribute 28, 1
   4              		.eabi_attribute 20, 1
   5              		.eabi_attribute 21, 1
   6              		.eabi_attribute 23, 3
   7              		.eabi_attribute 24, 1
   8              		.eabi_attribute 25, 1
   9              		.eabi_attribute 26, 1
  10              		.eabi_attribute 30, 1
  11              		.eabi_attribute 34, 1
  12              		.eabi_attribute 18, 4
  13              		.file	"event_manager.c"
  14              		.text
  15              	.Ltext0:
  16              		.cfi_sections	.debug_frame
  17              		.section	.rodata.publishEventToSubscribers.str1.4,"aMS",%progbits,1
  18              		.align	2
  19              	.LC0:
  20 0000 4163746F 		.ascii	"Actor with ID %d subscribed on event %d is not foun"
  20      72207769 
  20      74682049 
  20      44202564 
  20      20737562 
  21 0033 642C2063 		.ascii	"d, check ACTORS_LIST_SystemRegistry\012\000"
  21      6865636B 
  21      20414354 
  21      4F52535F 
  21      4C495354 
  22              		.section	.text.publishEventToSubscribers,"ax",%progbits
  23              		.align	1
  24              		.arch armv7e-m
  25              		.syntax unified
  26              		.thumb
  27              		.thumb_func
  28              		.fpu fpv4-sp-d16
  30              	publishEventToSubscribers:
  31              	.LVL0:
  32              	.LFB141:
  33              		.file 1 "app/tasks/event_manager/event_manager.c"
   1:app/tasks/event_manager/event_manager.c **** /*!
   2:app/tasks/event_manager/event_manager.c ****  * @file event_manager.c
   3:app/tasks/event_manager/event_manager.c ****  * @brief implementation of event_manager
   4:app/tasks/event_manager/event_manager.c ****  *
   5:app/tasks/event_manager/event_manager.c ****  * Detailed description of the implementation file.
   6:app/tasks/event_manager/event_manager.c ****  *
   7:app/tasks/event_manager/event_manager.c ****  * @date 17/07/2024
   8:app/tasks/event_manager/event_manager.c ****  * @author artempolisskyi
   9:app/tasks/event_manager/event_manager.c ****  */
  10:app/tasks/event_manager/event_manager.c **** 
  11:app/tasks/event_manager/event_manager.c **** #include "event_manager.h"
  12:app/tasks/event_manager/event_manager.c **** 
  13:app/tasks/event_manager/event_manager.c **** static osStatus_t handleEvManagerMessage(EV_MANAGER_Actor_t *this, message_t *message);
  14:app/tasks/event_manager/event_manager.c **** static osStatus_t publishEventToSubscribers(message_t *message);
  15:app/tasks/event_manager/event_manager.c **** 
  16:app/tasks/event_manager/event_manager.c **** extern actor_t* ACTORS_LIST_SystemRegistry[MAX_ACTORS];
  17:app/tasks/event_manager/event_manager.c **** 
ARM GAS  /tmp/ccusK9w9.s 			page 2


  18:app/tasks/event_manager/event_manager.c **** /**
  19:app/tasks/event_manager/event_manager.c ****  * @brief Event subscription matrix for the system's global events.
  20:app/tasks/event_manager/event_manager.c ****  *
  21:app/tasks/event_manager/event_manager.c ****  * This 2D array maps each global event to the list of actors that are subscribed to it.
  22:app/tasks/event_manager/event_manager.c ****  * Each row corresponds to a specific global event, and each column contains the IDs of actors
  23:app/tasks/event_manager/event_manager.c ****  * that are interested in that event.
  24:app/tasks/event_manager/event_manager.c ****  *
  25:app/tasks/event_manager/event_manager.c ****  * @note The matrix is initialized at compile-time and stored in Flash memory for efficiency.
  26:app/tasks/event_manager/event_manager.c ****  * @note The matrix includes Actors IDs, not Actors themselves to decouple the event manager from t
  27:app/tasks/event_manager/event_manager.c ****  *
  28:app/tasks/event_manager/event_manager.c ****  * Example usage:
  29:app/tasks/event_manager/event_manager.c ****  * @code
  30:app/tasks/event_manager/event_manager.c ****  * EV_MANAGER_SubscribersIdsMatrix[GLOBAL_CMD_INITIALIZE] = {CRON_ACTOR_ID, PWRM_MANAGER_ACTOR_ID, 
  31:app/tasks/event_manager/event_manager.c ****  * @endcode
  32:app/tasks/event_manager/event_manager.c ****  *
  33:app/tasks/event_manager/event_manager.c ****  * @warning Ensure that the matrix is kept up-to-date whenever new events or actors are added to th
  34:app/tasks/event_manager/event_manager.c ****  */
  35:app/tasks/event_manager/event_manager.c **** const ACTOR_ID EV_MANAGER_SubscribersIdsMatrix[GLOBAL_EVENTS_MAX][MAX_ACTORS] = {
  36:app/tasks/event_manager/event_manager.c ****   [GLOBAL_CMD_INITIALIZE]                           = {CRON_ACTOR_ID, PWRM_MANAGER_ACTOR_ID, NFC_AC
  37:app/tasks/event_manager/event_manager.c ****   [GLOBAL_INITIALIZE_SUCCESS]                       = {},
  38:app/tasks/event_manager/event_manager.c ****   [GLOBAL_WAKE_N_READ]                              = {TEMPERATURE_HUMIDITY_SENSOR_ACTOR_ID, LIGHT_
  39:app/tasks/event_manager/event_manager.c ****   [GLOBAL_TEMPERATURE_HUMIDITY_MEASUREMENTS_READY]  = {MEMORY_ACTOR_ID},
  40:app/tasks/event_manager/event_manager.c ****   [GLOBAL_LIGHT_MEASUREMENTS_READY]                 = {MEMORY_ACTOR_ID},
  41:app/tasks/event_manager/event_manager.c ****   [GLOBAL_CMD_START_CONTINUOUS_SENSING]             = {TEMPERATURE_HUMIDITY_SENSOR_ACTOR_ID, LIGHT_
  42:app/tasks/event_manager/event_manager.c ****   [GLOBAL_CMD_SET_TIME_DATE]                        = {CRON_ACTOR_ID},
  43:app/tasks/event_manager/event_manager.c ****   [GLOBAL_CMD_SET_WAKE_UP_PERIOD]                   = {CRON_ACTOR_ID},
  44:app/tasks/event_manager/event_manager.c ****   [GLOBAL_CMD_TURN_OFF]                             = {TEMPERATURE_HUMIDITY_SENSOR_ACTOR_ID, LIGHT_
  45:app/tasks/event_manager/event_manager.c **** };
  46:app/tasks/event_manager/event_manager.c **** 
  47:app/tasks/event_manager/event_manager.c **** EV_MANAGER_Actor_t EV_MANAGER_Actor = {
  48:app/tasks/event_manager/event_manager.c ****         .super = {
  49:app/tasks/event_manager/event_manager.c ****                 .actorId = EV_MANAGER_ACTOR_ID,
  50:app/tasks/event_manager/event_manager.c ****                 .messageHandler = (messageHandler_t) handleEvManagerMessage,
  51:app/tasks/event_manager/event_manager.c ****                 .osMessageQueueId = NULL,
  52:app/tasks/event_manager/event_manager.c ****                 .osThreadId = NULL,
  53:app/tasks/event_manager/event_manager.c ****         }
  54:app/tasks/event_manager/event_manager.c **** };
  55:app/tasks/event_manager/event_manager.c **** 
  56:app/tasks/event_manager/event_manager.c **** actor_t* EV_MANAGER_ActorInit(osThreadId_t defaultTaskHandle) {
  57:app/tasks/event_manager/event_manager.c ****   EV_MANAGER_Actor.super.osMessageQueueId = osMessageQueueNew(DEFAULT_QUEUE_SIZE, DEFAULT_QUEUE_MES
  58:app/tasks/event_manager/event_manager.c ****           .name = "eventManagerQueue"
  59:app/tasks/event_manager/event_manager.c ****   });
  60:app/tasks/event_manager/event_manager.c ****   EV_MANAGER_Actor.super.osThreadId = defaultTaskHandle;
  61:app/tasks/event_manager/event_manager.c **** 
  62:app/tasks/event_manager/event_manager.c ****   fprintf(stdout, "Event Manager initialized\n");
  63:app/tasks/event_manager/event_manager.c **** 
  64:app/tasks/event_manager/event_manager.c ****   // TODO move to init manager
  65:app/tasks/event_manager/event_manager.c ****   osMessageQueuePut(EV_MANAGER_Actor.super.osMessageQueueId, &(message_t){GLOBAL_CMD_INITIALIZE}, 0
  66:app/tasks/event_manager/event_manager.c **** 
  67:app/tasks/event_manager/event_manager.c ****   return &EV_MANAGER_Actor.super;
  68:app/tasks/event_manager/event_manager.c **** }
  69:app/tasks/event_manager/event_manager.c **** 
  70:app/tasks/event_manager/event_manager.c **** static osStatus_t handleEvManagerMessage(EV_MANAGER_Actor_t *this, message_t *message) {
  71:app/tasks/event_manager/event_manager.c ****   switch (message->event) {
  72:app/tasks/event_manager/event_manager.c ****     case GLOBAL_CMD_INITIALIZE:
  73:app/tasks/event_manager/event_manager.c ****       publishEventToSubscribers(message);
  74:app/tasks/event_manager/event_manager.c ****       // TODO handle initialize event
ARM GAS  /tmp/ccusK9w9.s 			page 3


  75:app/tasks/event_manager/event_manager.c ****       // TODO remove from here
  76:app/tasks/event_manager/event_manager.c ****       osMessageQueuePut(EV_MANAGER_Actor.super.osMessageQueueId, &(message_t){GLOBAL_INITIALIZE_SUC
  77:app/tasks/event_manager/event_manager.c ****       return osOK;
  78:app/tasks/event_manager/event_manager.c ****     case GLOBAL_INITIALIZE_SUCCESS:
  79:app/tasks/event_manager/event_manager.c ****       publishEventToSubscribers(message);
  80:app/tasks/event_manager/event_manager.c ****       // TODO remove from here, emit only in NFC
  81:app/tasks/event_manager/event_manager.c ****       osMessageQueuePut(EV_MANAGER_Actor.super.osMessageQueueId, &(message_t){GLOBAL_CMD_START_CONT
  82:app/tasks/event_manager/event_manager.c ****       return osOK;
  83:app/tasks/event_manager/event_manager.c ****     case GLOBAL_CMD_SET_TIME_DATE:
  84:app/tasks/event_manager/event_manager.c ****     case GLOBAL_CMD_SET_WAKE_UP_PERIOD:
  85:app/tasks/event_manager/event_manager.c ****     case GLOBAL_WAKE_N_READ:
  86:app/tasks/event_manager/event_manager.c ****     case GLOBAL_CMD_TURN_OFF:
  87:app/tasks/event_manager/event_manager.c ****     case GLOBAL_CMD_START_CONTINUOUS_SENSING:
  88:app/tasks/event_manager/event_manager.c ****       publishEventToSubscribers(message);
  89:app/tasks/event_manager/event_manager.c ****       return osOK;
  90:app/tasks/event_manager/event_manager.c ****   }
  91:app/tasks/event_manager/event_manager.c **** 
  92:app/tasks/event_manager/event_manager.c ****   return osOK;
  93:app/tasks/event_manager/event_manager.c **** }
  94:app/tasks/event_manager/event_manager.c **** 
  95:app/tasks/event_manager/event_manager.c **** // TODO explain the system in graph: queueId -> actor -> ACTORS_LIST_SystemRegistry -> EV_MANAGER_S
  96:app/tasks/event_manager/event_manager.c **** /**
  97:app/tasks/event_manager/event_manager.c ****  * @brief Publishes an event to all subscribed actors.
  98:app/tasks/event_manager/event_manager.c ****  *
  99:app/tasks/event_manager/event_manager.c ****  * This function traverses the list of actors subscribed to a given event and dispatches the event 
 100:app/tasks/event_manager/event_manager.c ****  * to each actor's message queue. If an actor does not have a message queue, the message is process
 101:app/tasks/event_manager/event_manager.c ****  * using the actor's message handler.
 102:app/tasks/event_manager/event_manager.c ****  *
 103:app/tasks/event_manager/event_manager.c ****  * @param[in] message Pointer to the message to be published.
 104:app/tasks/event_manager/event_manager.c ****  *
 105:app/tasks/event_manager/event_manager.c ****  * Example usage:
 106:app/tasks/event_manager/event_manager.c ****  * @code
 107:app/tasks/event_manager/event_manager.c ****  * message_t msg = { .event = GLOBAL_CMD_INITIALIZE, .payload.value = 0 };
 108:app/tasks/event_manager/event_manager.c ****  * publishEventToSubscribers(&msg);
 109:app/tasks/event_manager/event_manager.c ****  * @endcode
 110:app/tasks/event_manager/event_manager.c ****  *
 111:app/tasks/event_manager/event_manager.c ****  * @warning This function assumes that the message queue for each actor has been properly initializ
 112:app/tasks/event_manager/event_manager.c ****  *          If the queue is full, the message will be lost.
 113:app/tasks/event_manager/event_manager.c ****  */
 114:app/tasks/event_manager/event_manager.c **** static osStatus_t publishEventToSubscribers(message_t *message) {
  34              		.loc 1 114 65 view -0
  35              		.cfi_startproc
  36              		@ args = 0, pretend = 0, frame = 0
  37              		@ frame_needed = 0, uses_anonymous_args = 0
  38              		.loc 1 114 65 is_stmt 0 view .LVU1
  39 0000 70B5     		push	{r4, r5, r6, lr}
  40              	.LCFI0:
  41              		.cfi_def_cfa_offset 16
  42              		.cfi_offset 4, -16
  43              		.cfi_offset 5, -12
  44              		.cfi_offset 6, -8
  45              		.cfi_offset 14, -4
  46 0002 0646     		mov	r6, r0
 115:app/tasks/event_manager/event_manager.c ****   const ACTOR_ID* subscribersIds = EV_MANAGER_SubscribersIdsMatrix[message->event];
  47              		.loc 1 115 3 is_stmt 1 view .LVU2
  48              		.loc 1 115 75 is_stmt 0 view .LVU3
  49 0004 0578     		ldrb	r5, [r0]	@ zero_extendqisi2
ARM GAS  /tmp/ccusK9w9.s 			page 4


  50              		.loc 1 115 19 view .LVU4
  51 0006 05EB8505 		add	r5, r5, r5, lsl #2
  52 000a 134B     		ldr	r3, .L11
  53 000c 03EB4505 		add	r5, r3, r5, lsl #1
  54              	.LVL1:
 116:app/tasks/event_manager/event_manager.c **** 
 117:app/tasks/event_manager/event_manager.c ****   // traverse all subscribers IDs and put message to their queues/handlers, subscribers are [NO_ACT
 118:app/tasks/event_manager/event_manager.c ****   for (int32_t i = 0; i < MAX_ACTORS; i++) {
  55              		.loc 1 118 3 is_stmt 1 view .LVU5
  56              	.LBB2:
  57              		.loc 1 118 8 view .LVU6
  58              		.loc 1 118 16 is_stmt 0 view .LVU7
  59 0010 0024     		movs	r4, #0
  60              		.loc 1 118 3 view .LVU8
  61 0012 0BE0     		b	.L2
  62              	.LVL2:
  63              	.L9:
  64              	.LBB3:
 119:app/tasks/event_manager/event_manager.c ****     if (subscribersIds[i] == NO_ACTOR_ID)
 120:app/tasks/event_manager/event_manager.c ****       continue;
 121:app/tasks/event_manager/event_manager.c **** 
 122:app/tasks/event_manager/event_manager.c ****     ACTOR_ID subscribedActorId = subscribersIds[i];
 123:app/tasks/event_manager/event_manager.c ****     actor_t* subscribedActor = ACTORS_LIST_SystemRegistry[subscribedActorId];
 124:app/tasks/event_manager/event_manager.c **** 
 125:app/tasks/event_manager/event_manager.c ****     if (subscribedActor == NULL) {
 126:app/tasks/event_manager/event_manager.c ****       fprintf(stderr, "Actor with ID %d subscribed on event %d is not found, check ACTORS_LIST_Syst
  65              		.loc 1 126 7 is_stmt 1 view .LVU9
  66              		.loc 1 126 15 is_stmt 0 view .LVU10
  67 0014 114B     		ldr	r3, .L11+4
  68 0016 1868     		ldr	r0, [r3]
  69              	.LVL3:
  70              		.loc 1 126 7 view .LVU11
  71 0018 3378     		ldrb	r3, [r6]	@ zero_extendqisi2
  72 001a 1149     		ldr	r1, .L11+8
  73 001c C068     		ldr	r0, [r0, #12]
  74 001e FFF7FEFF 		bl	fprintf
  75              	.LVL4:
 127:app/tasks/event_manager/event_manager.c ****       continue;
  76              		.loc 1 127 7 is_stmt 1 view .LVU12
  77 0022 02E0     		b	.L3
  78              	.LVL5:
  79              	.L10:
 128:app/tasks/event_manager/event_manager.c ****     }
 129:app/tasks/event_manager/event_manager.c **** 
 130:app/tasks/event_manager/event_manager.c ****     bool isTask = subscribedActor->osThreadId != NULL;
 131:app/tasks/event_manager/event_manager.c **** 
 132:app/tasks/event_manager/event_manager.c ****     // actor doesn't have task, hence it can simply process message immediately
 133:app/tasks/event_manager/event_manager.c ****     if (!isTask) {
 134:app/tasks/event_manager/event_manager.c ****       subscribedActor->messageHandler(subscribedActor, message);
  80              		.loc 1 134 7 view .LVU13
  81              		.loc 1 134 22 is_stmt 0 view .LVU14
  82 0024 C368     		ldr	r3, [r0, #12]
  83              	.LVL6:
  84              		.loc 1 134 7 view .LVU15
  85 0026 3146     		mov	r1, r6
  86 0028 9847     		blx	r3
  87              	.LVL7:
ARM GAS  /tmp/ccusK9w9.s 			page 5


 135:app/tasks/event_manager/event_manager.c ****       continue;
  88              		.loc 1 135 7 is_stmt 1 view .LVU16
  89              	.L3:
  90              		.loc 1 135 7 is_stmt 0 view .LVU17
  91              	.LBE3:
 118:app/tasks/event_manager/event_manager.c ****     if (subscribersIds[i] == NO_ACTOR_ID)
  92              		.loc 1 118 39 is_stmt 1 discriminator 2 view .LVU18
 118:app/tasks/event_manager/event_manager.c ****     if (subscribersIds[i] == NO_ACTOR_ID)
  93              		.loc 1 118 40 is_stmt 0 discriminator 2 view .LVU19
  94 002a 0134     		adds	r4, r4, #1
  95              	.LVL8:
  96              	.L2:
 118:app/tasks/event_manager/event_manager.c ****     if (subscribersIds[i] == NO_ACTOR_ID)
  97              		.loc 1 118 23 is_stmt 1 discriminator 1 view .LVU20
 118:app/tasks/event_manager/event_manager.c ****     if (subscribersIds[i] == NO_ACTOR_ID)
  98              		.loc 1 118 3 is_stmt 0 discriminator 1 view .LVU21
  99 002c 092C     		cmp	r4, #9
 100 002e 11DC     		bgt	.L8
 101              	.LBB4:
 119:app/tasks/event_manager/event_manager.c ****       continue;
 102              		.loc 1 119 5 is_stmt 1 view .LVU22
 119:app/tasks/event_manager/event_manager.c ****       continue;
 103              		.loc 1 119 23 is_stmt 0 view .LVU23
 104 0030 2A5D     		ldrb	r2, [r5, r4]	@ zero_extendqisi2
 119:app/tasks/event_manager/event_manager.c ****       continue;
 105              		.loc 1 119 8 view .LVU24
 106 0032 002A     		cmp	r2, #0
 107 0034 F9D0     		beq	.L3
 122:app/tasks/event_manager/event_manager.c ****     actor_t* subscribedActor = ACTORS_LIST_SystemRegistry[subscribedActorId];
 108              		.loc 1 122 5 is_stmt 1 view .LVU25
 109              	.LVL9:
 123:app/tasks/event_manager/event_manager.c **** 
 110              		.loc 1 123 5 view .LVU26
 123:app/tasks/event_manager/event_manager.c **** 
 111              		.loc 1 123 14 is_stmt 0 view .LVU27
 112 0036 0B4B     		ldr	r3, .L11+12
 113 0038 53F82200 		ldr	r0, [r3, r2, lsl #2]
 114              	.LVL10:
 125:app/tasks/event_manager/event_manager.c ****       fprintf(stderr, "Actor with ID %d subscribed on event %d is not found, check ACTORS_LIST_Syst
 115              		.loc 1 125 5 is_stmt 1 view .LVU28
 125:app/tasks/event_manager/event_manager.c ****       fprintf(stderr, "Actor with ID %d subscribed on event %d is not found, check ACTORS_LIST_Syst
 116              		.loc 1 125 8 is_stmt 0 view .LVU29
 117 003c 0028     		cmp	r0, #0
 118 003e E9D0     		beq	.L9
 130:app/tasks/event_manager/event_manager.c **** 
 119              		.loc 1 130 5 is_stmt 1 view .LVU30
 130:app/tasks/event_manager/event_manager.c **** 
 120              		.loc 1 130 34 is_stmt 0 view .LVU31
 121 0040 4368     		ldr	r3, [r0, #4]
 122              	.LVL11:
 133:app/tasks/event_manager/event_manager.c ****       subscribedActor->messageHandler(subscribedActor, message);
 123              		.loc 1 133 5 is_stmt 1 view .LVU32
 133:app/tasks/event_manager/event_manager.c ****       subscribedActor->messageHandler(subscribedActor, message);
 124              		.loc 1 133 8 is_stmt 0 view .LVU33
 125 0042 002B     		cmp	r3, #0
 126 0044 EED0     		beq	.L10
 136:app/tasks/event_manager/event_manager.c ****     }
ARM GAS  /tmp/ccusK9w9.s 			page 6


 137:app/tasks/event_manager/event_manager.c **** 
 138:app/tasks/event_manager/event_manager.c ****     // actor has task, hence we should put message to its queue
 139:app/tasks/event_manager/event_manager.c ****     osMessageQueueId_t actorsOsMessageQueueId = subscribedActor->osMessageQueueId;
 127              		.loc 1 139 5 is_stmt 1 view .LVU34
 128              	.LVL12:
 140:app/tasks/event_manager/event_manager.c ****     osMessageQueuePut(actorsOsMessageQueueId, message, 0, 0);
 129              		.loc 1 140 5 view .LVU35
 130 0046 0023     		movs	r3, #0
 131              	.LVL13:
 132              		.loc 1 140 5 is_stmt 0 view .LVU36
 133 0048 1A46     		mov	r2, r3
 134              	.LVL14:
 135              		.loc 1 140 5 view .LVU37
 136 004a 3146     		mov	r1, r6
 137 004c 8068     		ldr	r0, [r0, #8]
 138              	.LVL15:
 139              		.loc 1 140 5 view .LVU38
 140 004e FFF7FEFF 		bl	osMessageQueuePut
 141              	.LVL16:
 142              		.loc 1 140 5 view .LVU39
 143 0052 EAE7     		b	.L3
 144              	.L8:
 145              		.loc 1 140 5 view .LVU40
 146              	.LBE4:
 147              	.LBE2:
 141:app/tasks/event_manager/event_manager.c ****   }
 142:app/tasks/event_manager/event_manager.c **** 
 143:app/tasks/event_manager/event_manager.c ****   return osOK;
 148              		.loc 1 143 3 is_stmt 1 view .LVU41
 144:app/tasks/event_manager/event_manager.c **** }...
 149              		.loc 1 144 1 is_stmt 0 view .LVU42
 150 0054 0020     		movs	r0, #0
 151 0056 70BD     		pop	{r4, r5, r6, pc}
 152              	.LVL17:
 153              	.L12:
 154              		.loc 1 144 1 view .LVU43
 155              		.align	2
 156              	.L11:
 157 0058 00000000 		.word	.LANCHOR0
 158 005c 00000000 		.word	_impure_ptr
 159 0060 00000000 		.word	.LC0
 160 0064 00000000 		.word	ACTORS_LIST_SystemRegistry
 161              		.cfi_endproc
 162              	.LFE141:
 164              		.section	.text.handleEvManagerMessage,"ax",%progbits
 165              		.align	1
 166              		.syntax unified
 167              		.thumb
 168              		.thumb_func
 169              		.fpu fpv4-sp-d16
 171              	handleEvManagerMessage:
 172              	.LVL18:
 173              	.LFB140:
  70:app/tasks/event_manager/event_manager.c **** static osStatus_t handleEvManagerMessage(EV_MANAGER_Actor_t *this, message_t *message) {
 174              		.loc 1 70 88 is_stmt 1 view -0
 175              		.cfi_startproc
 176              		@ args = 0, pretend = 0, frame = 24
ARM GAS  /tmp/ccusK9w9.s 			page 7


 177              		@ frame_needed = 0, uses_anonymous_args = 0
  70:app/tasks/event_manager/event_manager.c **** static osStatus_t handleEvManagerMessage(EV_MANAGER_Actor_t *this, message_t *message) {
 178              		.loc 1 70 88 is_stmt 0 view .LVU45
 179 0000 00B5     		push	{lr}
 180              	.LCFI1:
 181              		.cfi_def_cfa_offset 4
 182              		.cfi_offset 14, -4
 183 0002 87B0     		sub	sp, sp, #28
 184              	.LCFI2:
 185              		.cfi_def_cfa_offset 32
 186 0004 0846     		mov	r0, r1
 187              	.LVL19:
  71:app/tasks/event_manager/event_manager.c ****   switch (message->event) {
 188              		.loc 1 71 3 is_stmt 1 view .LVU46
  71:app/tasks/event_manager/event_manager.c ****   switch (message->event) {
 189              		.loc 1 71 18 is_stmt 0 view .LVU47
 190 0006 0B78     		ldrb	r3, [r1]	@ zero_extendqisi2
  71:app/tasks/event_manager/event_manager.c ****   switch (message->event) {
 191              		.loc 1 71 3 view .LVU48
 192 0008 013B     		subs	r3, r3, #1
 193 000a 0A2B     		cmp	r3, #10
 194 000c 16D8     		bhi	.L14
 195 000e DFE803F0 		tbb	[pc, r3]
 196              	.L16:
 197 0012 06       		.byte	(.L18-.L16)/2
 198 0013 19       		.byte	(.L17-.L16)/2
 199 0014 29       		.byte	(.L15-.L16)/2
 200 0015 15       		.byte	(.L14-.L16)/2
 201 0016 15       		.byte	(.L14-.L16)/2
 202 0017 15       		.byte	(.L14-.L16)/2
 203 0018 15       		.byte	(.L14-.L16)/2
 204 0019 29       		.byte	(.L15-.L16)/2
 205 001a 29       		.byte	(.L15-.L16)/2
 206 001b 29       		.byte	(.L15-.L16)/2
 207 001c 29       		.byte	(.L15-.L16)/2
 208 001d 00       		.p2align 1
 209              	.L18:
 210              	.LBB5:
  73:app/tasks/event_manager/event_manager.c ****       publishEventToSubscribers(message);
 211              		.loc 1 73 7 is_stmt 1 view .LVU49
 212 001e FFF7FEFF 		bl	publishEventToSubscribers
 213              	.LVL20:
  76:app/tasks/event_manager/event_manager.c ****       osMessageQueuePut(EV_MANAGER_Actor.super.osMessageQueueId, &(message_t){GLOBAL_INITIALIZE_SUC
 214              		.loc 1 76 7 view .LVU50
  76:app/tasks/event_manager/event_manager.c ****       osMessageQueuePut(EV_MANAGER_Actor.super.osMessageQueueId, &(message_t){GLOBAL_INITIALIZE_SUC
 215              		.loc 1 76 78 is_stmt 0 view .LVU51
 216 0022 0022     		movs	r2, #0
 217 0024 0092     		str	r2, [sp]
 218 0026 0192     		str	r2, [sp, #4]
 219 0028 0292     		str	r2, [sp, #8]
 220 002a 0223     		movs	r3, #2
 221 002c 8DF80030 		strb	r3, [sp]
  76:app/tasks/event_manager/event_manager.c ****       osMessageQueuePut(EV_MANAGER_Actor.super.osMessageQueueId, &(message_t){GLOBAL_INITIALIZE_SUC
 222              		.loc 1 76 7 view .LVU52
 223 0030 1346     		mov	r3, r2
 224 0032 6946     		mov	r1, sp
 225 0034 0D48     		ldr	r0, .L21
ARM GAS  /tmp/ccusK9w9.s 			page 8


 226 0036 8068     		ldr	r0, [r0, #8]
 227 0038 FFF7FEFF 		bl	osMessageQueuePut
 228              	.LVL21:
  77:app/tasks/event_manager/event_manager.c ****       return osOK;
 229              		.loc 1 77 7 is_stmt 1 view .LVU53
 230              	.L14:
 231              	.LBE5:
  93:app/tasks/event_manager/event_manager.c **** }
 232              		.loc 1 93 1 is_stmt 0 discriminator 1 view .LVU54
 233 003c 0020     		movs	r0, #0
 234 003e 07B0     		add	sp, sp, #28
 235              	.LCFI3:
 236              		.cfi_remember_state
 237              		.cfi_def_cfa_offset 4
 238              		@ sp needed
 239 0040 5DF804FB 		ldr	pc, [sp], #4
 240              	.LVL22:
 241              	.L17:
 242              	.LCFI4:
 243              		.cfi_restore_state
 244              	.LBB6:
  79:app/tasks/event_manager/event_manager.c ****       publishEventToSubscribers(message);
 245              		.loc 1 79 7 is_stmt 1 view .LVU55
 246 0044 FFF7FEFF 		bl	publishEventToSubscribers
 247              	.LVL23:
  81:app/tasks/event_manager/event_manager.c ****       osMessageQueuePut(EV_MANAGER_Actor.super.osMessageQueueId, &(message_t){GLOBAL_CMD_START_CONT
 248              		.loc 1 81 7 view .LVU56
  81:app/tasks/event_manager/event_manager.c ****       osMessageQueuePut(EV_MANAGER_Actor.super.osMessageQueueId, &(message_t){GLOBAL_CMD_START_CONT
 249              		.loc 1 81 78 is_stmt 0 view .LVU57
 250 0048 0022     		movs	r2, #0
 251 004a 0392     		str	r2, [sp, #12]
 252 004c 0492     		str	r2, [sp, #16]
 253 004e 0592     		str	r2, [sp, #20]
 254 0050 0A23     		movs	r3, #10
 255 0052 8DF80C30 		strb	r3, [sp, #12]
  81:app/tasks/event_manager/event_manager.c ****       osMessageQueuePut(EV_MANAGER_Actor.super.osMessageQueueId, &(message_t){GLOBAL_CMD_START_CONT
 256              		.loc 1 81 7 view .LVU58
 257 0056 1346     		mov	r3, r2
 258 0058 03A9     		add	r1, sp, #12
 259 005a 0448     		ldr	r0, .L21
 260 005c 8068     		ldr	r0, [r0, #8]
 261 005e FFF7FEFF 		bl	osMessageQueuePut
 262              	.LVL24:
  82:app/tasks/event_manager/event_manager.c ****       return osOK;
 263              		.loc 1 82 7 is_stmt 1 view .LVU59
  82:app/tasks/event_manager/event_manager.c ****       return osOK;
 264              		.loc 1 82 14 is_stmt 0 view .LVU60
 265 0062 EBE7     		b	.L14
 266              	.LVL25:
 267              	.L15:
  88:app/tasks/event_manager/event_manager.c ****       publishEventToSubscribers(message);
 268              		.loc 1 88 7 is_stmt 1 view .LVU61
 269 0064 FFF7FEFF 		bl	publishEventToSubscribers
 270              	.LVL26:
  89:app/tasks/event_manager/event_manager.c ****       return osOK;
 271              		.loc 1 89 7 view .LVU62
  89:app/tasks/event_manager/event_manager.c ****       return osOK;
ARM GAS  /tmp/ccusK9w9.s 			page 9


 272              		.loc 1 89 14 is_stmt 0 view .LVU63
 273 0068 E8E7     		b	.L14
 274              	.L22:
 275 006a 00BF     		.align	2
 276              	.L21:
 277 006c 00000000 		.word	.LANCHOR1
 278              	.LBE6:
 279              		.cfi_endproc
 280              	.LFE140:
 282              		.section	.rodata.EV_MANAGER_ActorInit.str1.4,"aMS",%progbits,1
 283              		.align	2
 284              	.LC1:
 285 0000 6576656E 		.ascii	"eventManagerQueue\000"
 285      744D616E 
 285      61676572 
 285      51756575 
 285      6500
 286 0012 0000     		.align	2
 287              	.LC2:
 288 0014 4576656E 		.ascii	"Event Manager initialized\012\000"
 288      74204D61 
 288      6E616765 
 288      7220696E 
 288      69746961 
 289              		.section	.text.EV_MANAGER_ActorInit,"ax",%progbits
 290              		.align	1
 291              		.global	EV_MANAGER_ActorInit
 292              		.syntax unified
 293              		.thumb
 294              		.thumb_func
 295              		.fpu fpv4-sp-d16
 297              	EV_MANAGER_ActorInit:
 298              	.LVL27:
 299              	.LFB139:
  56:app/tasks/event_manager/event_manager.c **** actor_t* EV_MANAGER_ActorInit(osThreadId_t defaultTaskHandle) {
 300              		.loc 1 56 63 is_stmt 1 view -0
 301              		.cfi_startproc
 302              		@ args = 0, pretend = 0, frame = 40
 303              		@ frame_needed = 0, uses_anonymous_args = 0
  56:app/tasks/event_manager/event_manager.c **** actor_t* EV_MANAGER_ActorInit(osThreadId_t defaultTaskHandle) {
 304              		.loc 1 56 63 is_stmt 0 view .LVU65
 305 0000 70B5     		push	{r4, r5, r6, lr}
 306              	.LCFI5:
 307              		.cfi_def_cfa_offset 16
 308              		.cfi_offset 4, -16
 309              		.cfi_offset 5, -12
 310              		.cfi_offset 6, -8
 311              		.cfi_offset 14, -4
 312 0002 8AB0     		sub	sp, sp, #40
 313              	.LCFI6:
 314              		.cfi_def_cfa_offset 56
 315 0004 0646     		mov	r6, r0
  57:app/tasks/event_manager/event_manager.c ****   EV_MANAGER_Actor.super.osMessageQueueId = osMessageQueueNew(DEFAULT_QUEUE_SIZE, DEFAULT_QUEUE_MES
 316              		.loc 1 57 3 is_stmt 1 view .LVU66
  57:app/tasks/event_manager/event_manager.c ****   EV_MANAGER_Actor.super.osMessageQueueId = osMessageQueueNew(DEFAULT_QUEUE_SIZE, DEFAULT_QUEUE_MES
 317              		.loc 1 57 134 is_stmt 0 view .LVU67
 318 0006 0024     		movs	r4, #0
ARM GAS  /tmp/ccusK9w9.s 			page 10


 319 0008 0194     		str	r4, [sp, #4]
 320 000a 0294     		str	r4, [sp, #8]
 321 000c 0394     		str	r4, [sp, #12]
 322 000e 0494     		str	r4, [sp, #16]
 323 0010 0594     		str	r4, [sp, #20]
 324 0012 0694     		str	r4, [sp, #24]
 325 0014 104B     		ldr	r3, .L25
 326 0016 0193     		str	r3, [sp, #4]
  57:app/tasks/event_manager/event_manager.c ****   EV_MANAGER_Actor.super.osMessageQueueId = osMessageQueueNew(DEFAULT_QUEUE_SIZE, DEFAULT_QUEUE_MES
 327              		.loc 1 57 45 view .LVU68
 328 0018 01AA     		add	r2, sp, #4
 329 001a 0C21     		movs	r1, #12
 330 001c 0820     		movs	r0, #8
 331              	.LVL28:
  57:app/tasks/event_manager/event_manager.c ****   EV_MANAGER_Actor.super.osMessageQueueId = osMessageQueueNew(DEFAULT_QUEUE_SIZE, DEFAULT_QUEUE_MES
 332              		.loc 1 57 45 view .LVU69
 333 001e FFF7FEFF 		bl	osMessageQueueNew
 334              	.LVL29:
  57:app/tasks/event_manager/event_manager.c ****   EV_MANAGER_Actor.super.osMessageQueueId = osMessageQueueNew(DEFAULT_QUEUE_SIZE, DEFAULT_QUEUE_MES
 335              		.loc 1 57 43 view .LVU70
 336 0022 0E4D     		ldr	r5, .L25+4
 337 0024 A860     		str	r0, [r5, #8]
  60:app/tasks/event_manager/event_manager.c ****   EV_MANAGER_Actor.super.osThreadId = defaultTaskHandle;
 338              		.loc 1 60 3 is_stmt 1 view .LVU71
  60:app/tasks/event_manager/event_manager.c ****   EV_MANAGER_Actor.super.osThreadId = defaultTaskHandle;
 339              		.loc 1 60 37 is_stmt 0 view .LVU72
 340 0026 6E60     		str	r6, [r5, #4]
  62:app/tasks/event_manager/event_manager.c ****   fprintf(stdout, "Event Manager initialized\n");
 341              		.loc 1 62 3 is_stmt 1 view .LVU73
  62:app/tasks/event_manager/event_manager.c ****   fprintf(stdout, "Event Manager initialized\n");
 342              		.loc 1 62 11 is_stmt 0 view .LVU74
 343 0028 0D4B     		ldr	r3, .L25+8
 344 002a 1B68     		ldr	r3, [r3]
  62:app/tasks/event_manager/event_manager.c ****   fprintf(stdout, "Event Manager initialized\n");
 345              		.loc 1 62 3 view .LVU75
 346 002c 9B68     		ldr	r3, [r3, #8]
 347 002e 1A22     		movs	r2, #26
 348 0030 0121     		movs	r1, #1
 349 0032 0C48     		ldr	r0, .L25+12
 350 0034 FFF7FEFF 		bl	fwrite
 351              	.LVL30:
  65:app/tasks/event_manager/event_manager.c ****   osMessageQueuePut(EV_MANAGER_Actor.super.osMessageQueueId, &(message_t){GLOBAL_CMD_INITIALIZE}, 0
 352              		.loc 1 65 3 is_stmt 1 view .LVU76
  65:app/tasks/event_manager/event_manager.c ****   osMessageQueuePut(EV_MANAGER_Actor.super.osMessageQueueId, &(message_t){GLOBAL_CMD_INITIALIZE}, 0
 353              		.loc 1 65 74 is_stmt 0 view .LVU77
 354 0038 0794     		str	r4, [sp, #28]
 355 003a 0894     		str	r4, [sp, #32]
 356 003c 0994     		str	r4, [sp, #36]
 357 003e 0123     		movs	r3, #1
 358 0040 8DF81C30 		strb	r3, [sp, #28]
  65:app/tasks/event_manager/event_manager.c ****   osMessageQueuePut(EV_MANAGER_Actor.super.osMessageQueueId, &(message_t){GLOBAL_CMD_INITIALIZE}, 0
 359              		.loc 1 65 3 view .LVU78
 360 0044 2346     		mov	r3, r4
 361 0046 2246     		mov	r2, r4
 362 0048 07A9     		add	r1, sp, #28
 363 004a A868     		ldr	r0, [r5, #8]
 364 004c FFF7FEFF 		bl	osMessageQueuePut
ARM GAS  /tmp/ccusK9w9.s 			page 11


 365              	.LVL31:
  67:app/tasks/event_manager/event_manager.c ****   return &EV_MANAGER_Actor.super;
 366              		.loc 1 67 3 is_stmt 1 view .LVU79
  68:app/tasks/event_manager/event_manager.c **** }
 367              		.loc 1 68 1 is_stmt 0 view .LVU80
 368 0050 2846     		mov	r0, r5
 369 0052 0AB0     		add	sp, sp, #40
 370              	.LCFI7:
 371              		.cfi_def_cfa_offset 16
 372              		@ sp needed
 373 0054 70BD     		pop	{r4, r5, r6, pc}
 374              	.LVL32:
 375              	.L26:
  68:app/tasks/event_manager/event_manager.c **** }
 376              		.loc 1 68 1 view .LVU81
 377 0056 00BF     		.align	2
 378              	.L25:
 379 0058 00000000 		.word	.LC1
 380 005c 00000000 		.word	.LANCHOR1
 381 0060 00000000 		.word	_impure_ptr
 382 0064 14000000 		.word	.LC2
 383              		.cfi_endproc
 384              	.LFE139:
 386              		.global	EV_MANAGER_Actor
 387              		.global	EV_MANAGER_SubscribersIdsMatrix
 388              		.section	.data.EV_MANAGER_Actor,"aw"
 389              		.align	2
 390              		.set	.LANCHOR1,. + 0
 393              	EV_MANAGER_Actor:
 394 0000 01000000 		.word	1
 395 0004 00000000 		.word	0
 396 0008 00000000 		.word	0
 397 000c 00000000 		.word	handleEvManagerMessage
 398              		.section	.rodata.EV_MANAGER_SubscribersIdsMatrix,"a"
 399              		.align	2
 400              		.set	.LANCHOR0,. + 0
 403              	EV_MANAGER_SubscribersIdsMatrix:
 404 0000 00000000 		.space	10
 404      00000000 
 404      0000
 405 000a 02       		.byte	2
 406 000b 03       		.byte	3
 407 000c 04       		.byte	4
 408 000d 05       		.byte	5
 409 000e 06       		.byte	6
 410 000f 07       		.byte	7
 411 0010 08       		.byte	8
 412 0011 000000   		.space	3
 413 0014 00000000 		.space	10
 413      00000000 
 413      0000
 414 001e 06       		.byte	6
 415 001f 07       		.byte	7
 416 0020 00000000 		.space	8
 416      00000000 
 417 0028 08       		.byte	8
 418 0029 00000000 		.space	9
ARM GAS  /tmp/ccusK9w9.s 			page 12


 418      00000000 
 418      00
 419 0032 08       		.byte	8
 420 0033 00000000 		.space	9
 420      00000000 
 420      00
 421 003c 00000000 		.space	20
 421      00000000 
 421      00000000 
 421      00000000 
 421      00000000 
 422 0050 02       		.byte	2
 423 0051 00000000 		.space	9
 423      00000000 
 423      00
 424 005a 02       		.byte	2
 425 005b 00000000 		.space	9
 425      00000000 
 425      00
 426 0064 06       		.byte	6
 427 0065 07       		.byte	7
 428 0066 00000000 		.space	8
 428      00000000 
 429 006e 06       		.byte	6
 430 006f 07       		.byte	7
 431 0070 03       		.byte	3
 432 0071 00000000 		.space	7
 432      000000
 433 0078 00000000 		.space	10
 433      00000000 
 433      0000
 434              		.text
 435              	.Letext0:
 436              		.file 2 "/usr/include/newlib/machine/_default_types.h"
 437              		.file 3 "/usr/lib/gcc/arm-none-eabi/10.3.1/include/stddef.h"
 438              		.file 4 "/usr/include/newlib/sys/_types.h"
 439              		.file 5 "/usr/include/newlib/sys/reent.h"
 440              		.file 6 "/usr/include/newlib/sys/lock.h"
 441              		.file 7 "/usr/include/newlib/sys/_stdint.h"
 442              		.file 8 "/usr/include/newlib/sys/types.h"
 443              		.file 9 "Middlewares/Third_Party/FreeRTOS/Source/CMSIS_RTOS_V2/cmsis_os2.h"
 444              		.file 10 "app/core/actor/../config/events_list/events_list.h"
 445              		.file 11 "app/core/actor/../config/actors_list/actors_list.h"
 446              		.file 12 "app/core/actor/actor.h"
 447              		.file 13 "app/tasks/event_manager/event_manager.h"
 448              		.file 14 "/usr/include/newlib/stdio.h"
 449              		.file 15 "<built-in>"
ARM GAS  /tmp/ccusK9w9.s 			page 13


DEFINED SYMBOLS
                            *ABS*:0000000000000000 event_manager.c
     /tmp/ccusK9w9.s:18     .rodata.publishEventToSubscribers.str1.4:0000000000000000 $d
     /tmp/ccusK9w9.s:23     .text.publishEventToSubscribers:0000000000000000 $t
     /tmp/ccusK9w9.s:30     .text.publishEventToSubscribers:0000000000000000 publishEventToSubscribers
     /tmp/ccusK9w9.s:157    .text.publishEventToSubscribers:0000000000000058 $d
     /tmp/ccusK9w9.s:165    .text.handleEvManagerMessage:0000000000000000 $t
     /tmp/ccusK9w9.s:171    .text.handleEvManagerMessage:0000000000000000 handleEvManagerMessage
     /tmp/ccusK9w9.s:197    .text.handleEvManagerMessage:0000000000000012 $d
     /tmp/ccusK9w9.s:277    .text.handleEvManagerMessage:000000000000006c $d
     /tmp/ccusK9w9.s:283    .rodata.EV_MANAGER_ActorInit.str1.4:0000000000000000 $d
     /tmp/ccusK9w9.s:290    .text.EV_MANAGER_ActorInit:0000000000000000 $t
     /tmp/ccusK9w9.s:297    .text.EV_MANAGER_ActorInit:0000000000000000 EV_MANAGER_ActorInit
     /tmp/ccusK9w9.s:379    .text.EV_MANAGER_ActorInit:0000000000000058 $d
     /tmp/ccusK9w9.s:393    .data.EV_MANAGER_Actor:0000000000000000 EV_MANAGER_Actor
     /tmp/ccusK9w9.s:403    .rodata.EV_MANAGER_SubscribersIdsMatrix:0000000000000000 EV_MANAGER_SubscribersIdsMatrix
     /tmp/ccusK9w9.s:389    .data.EV_MANAGER_Actor:0000000000000000 $d
     /tmp/ccusK9w9.s:399    .rodata.EV_MANAGER_SubscribersIdsMatrix:0000000000000000 $d
     /tmp/ccusK9w9.s:208    .text.handleEvManagerMessage:000000000000001d $d
     /tmp/ccusK9w9.s:208    .text.handleEvManagerMessage:000000000000001e $t

UNDEFINED SYMBOLS
fprintf
osMessageQueuePut
_impure_ptr
ACTORS_LIST_SystemRegistry
osMessageQueueNew
fwrite
