ARM GAS  /tmp/ccEdQILT.s 			page 1


   1              		.cpu cortex-m4
   2              		.eabi_attribute 27, 1
   3              		.eabi_attribute 28, 1
   4              		.eabi_attribute 20, 1
   5              		.eabi_attribute 21, 1
   6              		.eabi_attribute 23, 3
   7              		.eabi_attribute 24, 1
   8              		.eabi_attribute 25, 1
   9              		.eabi_attribute 26, 1
  10              		.eabi_attribute 30, 1
  11              		.eabi_attribute 34, 1
  12              		.eabi_attribute 18, 4
  13              		.file	"lis2dw12_reg.c"
  14              		.text
  15              	.Ltext0:
  16              		.cfi_sections	.debug_frame
  17              		.section	.text.lis2dw12_read_reg,"ax",%progbits
  18              		.align	1
  19              		.global	lis2dw12_read_reg
  20              		.arch armv7e-m
  21              		.syntax unified
  22              		.thumb
  23              		.thumb_func
  24              		.fpu fpv4-sp-d16
  26              	lis2dw12_read_reg:
  27              	.LVL0:
  28              	.LFB0:
  29              		.file 1 "Drivers/BSP/Components/lis2dw12/lis2dw12_reg.c"
   1:Drivers/BSP/Components/lis2dw12/lis2dw12_reg.c **** /**
   2:Drivers/BSP/Components/lis2dw12/lis2dw12_reg.c ****   ******************************************************************************
   3:Drivers/BSP/Components/lis2dw12/lis2dw12_reg.c ****   * @file    lis2dw12_reg.c
   4:Drivers/BSP/Components/lis2dw12/lis2dw12_reg.c ****   * @author  Sensors Software Solution Team
   5:Drivers/BSP/Components/lis2dw12/lis2dw12_reg.c ****   * @brief   LIS2DW12 driver file
   6:Drivers/BSP/Components/lis2dw12/lis2dw12_reg.c ****   ******************************************************************************
   7:Drivers/BSP/Components/lis2dw12/lis2dw12_reg.c ****   * @attention
   8:Drivers/BSP/Components/lis2dw12/lis2dw12_reg.c ****   *
   9:Drivers/BSP/Components/lis2dw12/lis2dw12_reg.c ****   * Copyright (c) 2019 STMicroelectronics.
  10:Drivers/BSP/Components/lis2dw12/lis2dw12_reg.c ****   * All rights reserved.
  11:Drivers/BSP/Components/lis2dw12/lis2dw12_reg.c ****   *
  12:Drivers/BSP/Components/lis2dw12/lis2dw12_reg.c ****   * This software is licensed under terms that can be found in the LICENSE file
  13:Drivers/BSP/Components/lis2dw12/lis2dw12_reg.c ****   * in the root directory of this software component.
  14:Drivers/BSP/Components/lis2dw12/lis2dw12_reg.c ****   * If no LICENSE file comes with this software, it is provided AS-IS.
  15:Drivers/BSP/Components/lis2dw12/lis2dw12_reg.c ****   *
  16:Drivers/BSP/Components/lis2dw12/lis2dw12_reg.c ****   ******************************************************************************
  17:Drivers/BSP/Components/lis2dw12/lis2dw12_reg.c ****   */
  18:Drivers/BSP/Components/lis2dw12/lis2dw12_reg.c **** 
  19:Drivers/BSP/Components/lis2dw12/lis2dw12_reg.c **** #include "lis2dw12_reg.h"
  20:Drivers/BSP/Components/lis2dw12/lis2dw12_reg.c **** 
  21:Drivers/BSP/Components/lis2dw12/lis2dw12_reg.c **** /**
  22:Drivers/BSP/Components/lis2dw12/lis2dw12_reg.c ****   * @defgroup  LIS2DW12
  23:Drivers/BSP/Components/lis2dw12/lis2dw12_reg.c ****   * @brief     This file provides a set of functions needed to drive the
  24:Drivers/BSP/Components/lis2dw12/lis2dw12_reg.c ****   *            lis2dw12 enhanced inertial module.
  25:Drivers/BSP/Components/lis2dw12/lis2dw12_reg.c ****   * @{
  26:Drivers/BSP/Components/lis2dw12/lis2dw12_reg.c ****   *
  27:Drivers/BSP/Components/lis2dw12/lis2dw12_reg.c ****   */
  28:Drivers/BSP/Components/lis2dw12/lis2dw12_reg.c **** 
  29:Drivers/BSP/Components/lis2dw12/lis2dw12_reg.c **** /**
ARM GAS  /tmp/ccEdQILT.s 			page 2


  30:Drivers/BSP/Components/lis2dw12/lis2dw12_reg.c ****   * @defgroup  LIS2DW12_Interfaces_Functions
  31:Drivers/BSP/Components/lis2dw12/lis2dw12_reg.c ****   * @brief     This section provide a set of functions used to read and
  32:Drivers/BSP/Components/lis2dw12/lis2dw12_reg.c ****   *            write a generic register of the device.
  33:Drivers/BSP/Components/lis2dw12/lis2dw12_reg.c ****   *            MANDATORY: return 0 -> no Error.
  34:Drivers/BSP/Components/lis2dw12/lis2dw12_reg.c ****   * @{
  35:Drivers/BSP/Components/lis2dw12/lis2dw12_reg.c ****   *
  36:Drivers/BSP/Components/lis2dw12/lis2dw12_reg.c ****   */
  37:Drivers/BSP/Components/lis2dw12/lis2dw12_reg.c **** 
  38:Drivers/BSP/Components/lis2dw12/lis2dw12_reg.c **** /**
  39:Drivers/BSP/Components/lis2dw12/lis2dw12_reg.c ****   * @brief  Read generic device register
  40:Drivers/BSP/Components/lis2dw12/lis2dw12_reg.c ****   *
  41:Drivers/BSP/Components/lis2dw12/lis2dw12_reg.c ****   * @param  ctx   read / write interface definitions(ptr)
  42:Drivers/BSP/Components/lis2dw12/lis2dw12_reg.c ****   * @param  reg   register to read
  43:Drivers/BSP/Components/lis2dw12/lis2dw12_reg.c ****   * @param  data  pointer to buffer that store the data read(ptr)
  44:Drivers/BSP/Components/lis2dw12/lis2dw12_reg.c ****   * @param  len   number of consecutive register to read
  45:Drivers/BSP/Components/lis2dw12/lis2dw12_reg.c ****   * @retval          interface status (MANDATORY: return 0 -> no Error)
  46:Drivers/BSP/Components/lis2dw12/lis2dw12_reg.c ****   *
  47:Drivers/BSP/Components/lis2dw12/lis2dw12_reg.c ****   */
  48:Drivers/BSP/Components/lis2dw12/lis2dw12_reg.c **** int32_t lis2dw12_read_reg(stmdev_ctx_t *ctx, uint8_t reg,
  49:Drivers/BSP/Components/lis2dw12/lis2dw12_reg.c ****                           uint8_t *data,
  50:Drivers/BSP/Components/lis2dw12/lis2dw12_reg.c ****                           uint16_t len)
  51:Drivers/BSP/Components/lis2dw12/lis2dw12_reg.c **** {
  30              		.loc 1 51 1 view -0
  31              		.cfi_startproc
  32              		@ args = 0, pretend = 0, frame = 0
  33              		@ frame_needed = 0, uses_anonymous_args = 0
  34              		.loc 1 51 1 is_stmt 0 view .LVU1
  35 0000 10B5     		push	{r4, lr}
  36              	.LCFI0:
  37              		.cfi_def_cfa_offset 8
  38              		.cfi_offset 4, -8
  39              		.cfi_offset 14, -4
  52:Drivers/BSP/Components/lis2dw12/lis2dw12_reg.c ****   int32_t ret;
  40              		.loc 1 52 3 is_stmt 1 view .LVU2
  53:Drivers/BSP/Components/lis2dw12/lis2dw12_reg.c **** 
  54:Drivers/BSP/Components/lis2dw12/lis2dw12_reg.c ****   ret = ctx->read_reg(ctx->handle, reg, data, len);
  41              		.loc 1 54 3 view .LVU3
  42              		.loc 1 54 12 is_stmt 0 view .LVU4
  43 0002 4468     		ldr	r4, [r0, #4]
  44              		.loc 1 54 9 view .LVU5
  45 0004 C068     		ldr	r0, [r0, #12]
  46              	.LVL1:
  47              		.loc 1 54 9 view .LVU6
  48 0006 A047     		blx	r4
  49              	.LVL2:
  55:Drivers/BSP/Components/lis2dw12/lis2dw12_reg.c **** 
  56:Drivers/BSP/Components/lis2dw12/lis2dw12_reg.c ****   return ret;
  50              		.loc 1 56 3 is_stmt 1 view .LVU7
  57:Drivers/BSP/Components/lis2dw12/lis2dw12_reg.c **** }
  51              		.loc 1 57 1 is_stmt 0 view .LVU8
  52 0008 10BD     		pop	{r4, pc}
  53              		.cfi_endproc
  54              	.LFE0:
  56              		.section	.text.lis2dw12_write_reg,"ax",%progbits
  57              		.align	1
  58              		.global	lis2dw12_write_reg
  59              		.syntax unified
ARM GAS  /tmp/ccEdQILT.s 			page 3


  60              		.thumb
  61              		.thumb_func
  62              		.fpu fpv4-sp-d16
  64              	lis2dw12_write_reg:
  65              	.LVL3:
  66              	.LFB1:
  58:Drivers/BSP/Components/lis2dw12/lis2dw12_reg.c **** 
  59:Drivers/BSP/Components/lis2dw12/lis2dw12_reg.c **** /**
  60:Drivers/BSP/Components/lis2dw12/lis2dw12_reg.c ****   * @brief  Write generic device register
  61:Drivers/BSP/Components/lis2dw12/lis2dw12_reg.c ****   *
  62:Drivers/BSP/Components/lis2dw12/lis2dw12_reg.c ****   * @param  ctx   read / write interface definitions(ptr)
  63:Drivers/BSP/Components/lis2dw12/lis2dw12_reg.c ****   * @param  reg   register to write
  64:Drivers/BSP/Components/lis2dw12/lis2dw12_reg.c ****   * @param  data  pointer to data to write in register reg(ptr)
  65:Drivers/BSP/Components/lis2dw12/lis2dw12_reg.c ****   * @param  len   number of consecutive register to write
  66:Drivers/BSP/Components/lis2dw12/lis2dw12_reg.c ****   * @retval          interface status (MANDATORY: return 0 -> no Error)
  67:Drivers/BSP/Components/lis2dw12/lis2dw12_reg.c ****   *
  68:Drivers/BSP/Components/lis2dw12/lis2dw12_reg.c ****   */
  69:Drivers/BSP/Components/lis2dw12/lis2dw12_reg.c **** int32_t lis2dw12_write_reg(stmdev_ctx_t *ctx, uint8_t reg,
  70:Drivers/BSP/Components/lis2dw12/lis2dw12_reg.c ****                            uint8_t *data,
  71:Drivers/BSP/Components/lis2dw12/lis2dw12_reg.c ****                            uint16_t len)
  72:Drivers/BSP/Components/lis2dw12/lis2dw12_reg.c **** {
  67              		.loc 1 72 1 is_stmt 1 view -0
  68              		.cfi_startproc
  69              		@ args = 0, pretend = 0, frame = 0
  70              		@ frame_needed = 0, uses_anonymous_args = 0
  71              		.loc 1 72 1 is_stmt 0 view .LVU10
  72 0000 10B5     		push	{r4, lr}
  73              	.LCFI1:
  74              		.cfi_def_cfa_offset 8
  75              		.cfi_offset 4, -8
  76              		.cfi_offset 14, -4
  73:Drivers/BSP/Components/lis2dw12/lis2dw12_reg.c ****   int32_t ret;
  77              		.loc 1 73 3 is_stmt 1 view .LVU11
  74:Drivers/BSP/Components/lis2dw12/lis2dw12_reg.c **** 
  75:Drivers/BSP/Components/lis2dw12/lis2dw12_reg.c ****   ret = ctx->write_reg(ctx->handle, reg, data, len);
  78              		.loc 1 75 3 view .LVU12
  79              		.loc 1 75 12 is_stmt 0 view .LVU13
  80 0002 0468     		ldr	r4, [r0]
  81              		.loc 1 75 9 view .LVU14
  82 0004 C068     		ldr	r0, [r0, #12]
  83              	.LVL4:
  84              		.loc 1 75 9 view .LVU15
  85 0006 A047     		blx	r4
  86              	.LVL5:
  76:Drivers/BSP/Components/lis2dw12/lis2dw12_reg.c **** 
  77:Drivers/BSP/Components/lis2dw12/lis2dw12_reg.c ****   return ret;
  87              		.loc 1 77 3 is_stmt 1 view .LVU16
  78:Drivers/BSP/Components/lis2dw12/lis2dw12_reg.c **** }
  88              		.loc 1 78 1 is_stmt 0 view .LVU17
  89 0008 10BD     		pop	{r4, pc}
  90              		.cfi_endproc
  91              	.LFE1:
  93              		.section	.text.lis2dw12_from_fs2_to_mg,"ax",%progbits
  94              		.align	1
  95              		.global	lis2dw12_from_fs2_to_mg
  96              		.syntax unified
  97              		.thumb
ARM GAS  /tmp/ccEdQILT.s 			page 4


  98              		.thumb_func
  99              		.fpu fpv4-sp-d16
 101              	lis2dw12_from_fs2_to_mg:
 102              	.LVL6:
 103              	.LFB2:
  79:Drivers/BSP/Components/lis2dw12/lis2dw12_reg.c **** 
  80:Drivers/BSP/Components/lis2dw12/lis2dw12_reg.c **** /**
  81:Drivers/BSP/Components/lis2dw12/lis2dw12_reg.c ****   * @}
  82:Drivers/BSP/Components/lis2dw12/lis2dw12_reg.c ****   *
  83:Drivers/BSP/Components/lis2dw12/lis2dw12_reg.c ****   */
  84:Drivers/BSP/Components/lis2dw12/lis2dw12_reg.c **** 
  85:Drivers/BSP/Components/lis2dw12/lis2dw12_reg.c **** /**
  86:Drivers/BSP/Components/lis2dw12/lis2dw12_reg.c ****   * @defgroup    LIS2DW12_Sensitivity
  87:Drivers/BSP/Components/lis2dw12/lis2dw12_reg.c ****   * @brief       These functions convert raw-data into engineering units.
  88:Drivers/BSP/Components/lis2dw12/lis2dw12_reg.c ****   * @{
  89:Drivers/BSP/Components/lis2dw12/lis2dw12_reg.c ****   *
  90:Drivers/BSP/Components/lis2dw12/lis2dw12_reg.c ****   */
  91:Drivers/BSP/Components/lis2dw12/lis2dw12_reg.c **** 
  92:Drivers/BSP/Components/lis2dw12/lis2dw12_reg.c **** float_t lis2dw12_from_fs2_to_mg(int16_t lsb)
  93:Drivers/BSP/Components/lis2dw12/lis2dw12_reg.c **** {
 104              		.loc 1 93 1 is_stmt 1 view -0
 105              		.cfi_startproc
 106              		@ args = 0, pretend = 0, frame = 0
 107              		@ frame_needed = 0, uses_anonymous_args = 0
 108              		@ link register save eliminated.
 109              		.loc 1 93 1 is_stmt 0 view .LVU19
 110 0000 07EE900A 		vmov	s15, r0	@ int
  94:Drivers/BSP/Components/lis2dw12/lis2dw12_reg.c ****   return ((float_t)lsb) * 0.061f;
 111              		.loc 1 94 3 is_stmt 1 view .LVU20
 112              		.loc 1 94 11 is_stmt 0 view .LVU21
 113 0004 F8EEE77A 		vcvt.f32.s32	s15, s15
  95:Drivers/BSP/Components/lis2dw12/lis2dw12_reg.c **** }
 114              		.loc 1 95 1 view .LVU22
 115 0008 9FED020A 		vldr.32	s0, .L6
 116 000c 27EE800A 		vmul.f32	s0, s15, s0
 117 0010 7047     		bx	lr
 118              	.L7:
 119 0012 00BF     		.align	2
 120              	.L6:
 121 0014 23DB793D 		.word	1031396131
 122              		.cfi_endproc
 123              	.LFE2:
 125              		.section	.text.lis2dw12_from_fs4_to_mg,"ax",%progbits
 126              		.align	1
 127              		.global	lis2dw12_from_fs4_to_mg
 128              		.syntax unified
 129              		.thumb
 130              		.thumb_func
 131              		.fpu fpv4-sp-d16
 133              	lis2dw12_from_fs4_to_mg:
 134              	.LVL7:
 135              	.LFB3:
  96:Drivers/BSP/Components/lis2dw12/lis2dw12_reg.c **** 
  97:Drivers/BSP/Components/lis2dw12/lis2dw12_reg.c **** float_t lis2dw12_from_fs4_to_mg(int16_t lsb)
  98:Drivers/BSP/Components/lis2dw12/lis2dw12_reg.c **** {
 136              		.loc 1 98 1 is_stmt 1 view -0
 137              		.cfi_startproc
ARM GAS  /tmp/ccEdQILT.s 			page 5


 138              		@ args = 0, pretend = 0, frame = 0
 139              		@ frame_needed = 0, uses_anonymous_args = 0
 140              		@ link register save eliminated.
 141              		.loc 1 98 1 is_stmt 0 view .LVU24
 142 0000 07EE900A 		vmov	s15, r0	@ int
  99:Drivers/BSP/Components/lis2dw12/lis2dw12_reg.c ****   return ((float_t)lsb) * 0.122f;
 143              		.loc 1 99 3 is_stmt 1 view .LVU25
 144              		.loc 1 99 11 is_stmt 0 view .LVU26
 145 0004 F8EEE77A 		vcvt.f32.s32	s15, s15
 100:Drivers/BSP/Components/lis2dw12/lis2dw12_reg.c **** }
 146              		.loc 1 100 1 view .LVU27
 147 0008 9FED020A 		vldr.32	s0, .L9
 148 000c 27EE800A 		vmul.f32	s0, s15, s0
 149 0010 7047     		bx	lr
 150              	.L10:
 151 0012 00BF     		.align	2
 152              	.L9:
 153 0014 23DBF93D 		.word	1039784739
 154              		.cfi_endproc
 155              	.LFE3:
 157              		.section	.text.lis2dw12_from_fs8_to_mg,"ax",%progbits
 158              		.align	1
 159              		.global	lis2dw12_from_fs8_to_mg
 160              		.syntax unified
 161              		.thumb
 162              		.thumb_func
 163              		.fpu fpv4-sp-d16
 165              	lis2dw12_from_fs8_to_mg:
 166              	.LVL8:
 167              	.LFB4:
 101:Drivers/BSP/Components/lis2dw12/lis2dw12_reg.c **** 
 102:Drivers/BSP/Components/lis2dw12/lis2dw12_reg.c **** float_t lis2dw12_from_fs8_to_mg(int16_t lsb)
 103:Drivers/BSP/Components/lis2dw12/lis2dw12_reg.c **** {
 168              		.loc 1 103 1 is_stmt 1 view -0
 169              		.cfi_startproc
 170              		@ args = 0, pretend = 0, frame = 0
 171              		@ frame_needed = 0, uses_anonymous_args = 0
 172              		@ link register save eliminated.
 173              		.loc 1 103 1 is_stmt 0 view .LVU29
 174 0000 07EE900A 		vmov	s15, r0	@ int
 104:Drivers/BSP/Components/lis2dw12/lis2dw12_reg.c ****   return ((float_t)lsb) * 0.244f;
 175              		.loc 1 104 3 is_stmt 1 view .LVU30
 176              		.loc 1 104 11 is_stmt 0 view .LVU31
 177 0004 F8EEE77A 		vcvt.f32.s32	s15, s15
 105:Drivers/BSP/Components/lis2dw12/lis2dw12_reg.c **** }
 178              		.loc 1 105 1 view .LVU32
 179 0008 9FED020A 		vldr.32	s0, .L12
 180 000c 27EE800A 		vmul.f32	s0, s15, s0
 181 0010 7047     		bx	lr
 182              	.L13:
 183 0012 00BF     		.align	2
 184              	.L12:
 185 0014 23DB793E 		.word	1048173347
 186              		.cfi_endproc
 187              	.LFE4:
 189              		.section	.text.lis2dw12_from_fs16_to_mg,"ax",%progbits
 190              		.align	1
ARM GAS  /tmp/ccEdQILT.s 			page 6


 191              		.global	lis2dw12_from_fs16_to_mg
 192              		.syntax unified
 193              		.thumb
 194              		.thumb_func
 195              		.fpu fpv4-sp-d16
 197              	lis2dw12_from_fs16_to_mg:
 198              	.LVL9:
 199              	.LFB5:
 106:Drivers/BSP/Components/lis2dw12/lis2dw12_reg.c **** 
 107:Drivers/BSP/Components/lis2dw12/lis2dw12_reg.c **** float_t lis2dw12_from_fs16_to_mg(int16_t lsb)
 108:Drivers/BSP/Components/lis2dw12/lis2dw12_reg.c **** {
 200              		.loc 1 108 1 is_stmt 1 view -0
 201              		.cfi_startproc
 202              		@ args = 0, pretend = 0, frame = 0
 203              		@ frame_needed = 0, uses_anonymous_args = 0
 204              		@ link register save eliminated.
 205              		.loc 1 108 1 is_stmt 0 view .LVU34
 206 0000 07EE900A 		vmov	s15, r0	@ int
 109:Drivers/BSP/Components/lis2dw12/lis2dw12_reg.c ****   return ((float_t)lsb) * 0.488f;
 207              		.loc 1 109 3 is_stmt 1 view .LVU35
 208              		.loc 1 109 11 is_stmt 0 view .LVU36
 209 0004 F8EEE77A 		vcvt.f32.s32	s15, s15
 110:Drivers/BSP/Components/lis2dw12/lis2dw12_reg.c **** }
 210              		.loc 1 110 1 view .LVU37
 211 0008 9FED020A 		vldr.32	s0, .L15
 212 000c 27EE800A 		vmul.f32	s0, s15, s0
 213 0010 7047     		bx	lr
 214              	.L16:
 215 0012 00BF     		.align	2
 216              	.L15:
 217 0014 23DBF93E 		.word	1056561955
 218              		.cfi_endproc
 219              	.LFE5:
 221              		.section	.text.lis2dw12_from_fs2_lp1_to_mg,"ax",%progbits
 222              		.align	1
 223              		.global	lis2dw12_from_fs2_lp1_to_mg
 224              		.syntax unified
 225              		.thumb
 226              		.thumb_func
 227              		.fpu fpv4-sp-d16
 229              	lis2dw12_from_fs2_lp1_to_mg:
 230              	.LVL10:
 231              	.LFB6:
 111:Drivers/BSP/Components/lis2dw12/lis2dw12_reg.c **** 
 112:Drivers/BSP/Components/lis2dw12/lis2dw12_reg.c **** float_t lis2dw12_from_fs2_lp1_to_mg(int16_t lsb)
 113:Drivers/BSP/Components/lis2dw12/lis2dw12_reg.c **** {
 232              		.loc 1 113 1 is_stmt 1 view -0
 233              		.cfi_startproc
 234              		@ args = 0, pretend = 0, frame = 0
 235              		@ frame_needed = 0, uses_anonymous_args = 0
 236              		@ link register save eliminated.
 237              		.loc 1 113 1 is_stmt 0 view .LVU39
 238 0000 07EE900A 		vmov	s15, r0	@ int
 114:Drivers/BSP/Components/lis2dw12/lis2dw12_reg.c ****   return ((float_t)lsb) * 0.061f;
 239              		.loc 1 114 3 is_stmt 1 view .LVU40
 240              		.loc 1 114 11 is_stmt 0 view .LVU41
 241 0004 F8EEE77A 		vcvt.f32.s32	s15, s15
ARM GAS  /tmp/ccEdQILT.s 			page 7


 115:Drivers/BSP/Components/lis2dw12/lis2dw12_reg.c **** }
 242              		.loc 1 115 1 view .LVU42
 243 0008 9FED020A 		vldr.32	s0, .L18
 244 000c 27EE800A 		vmul.f32	s0, s15, s0
 245 0010 7047     		bx	lr
 246              	.L19:
 247 0012 00BF     		.align	2
 248              	.L18:
 249 0014 23DB793D 		.word	1031396131
 250              		.cfi_endproc
 251              	.LFE6:
 253              		.section	.text.lis2dw12_from_fs4_lp1_to_mg,"ax",%progbits
 254              		.align	1
 255              		.global	lis2dw12_from_fs4_lp1_to_mg
 256              		.syntax unified
 257              		.thumb
 258              		.thumb_func
 259              		.fpu fpv4-sp-d16
 261              	lis2dw12_from_fs4_lp1_to_mg:
 262              	.LVL11:
 263              	.LFB7:
 116:Drivers/BSP/Components/lis2dw12/lis2dw12_reg.c **** 
 117:Drivers/BSP/Components/lis2dw12/lis2dw12_reg.c **** float_t lis2dw12_from_fs4_lp1_to_mg(int16_t lsb)
 118:Drivers/BSP/Components/lis2dw12/lis2dw12_reg.c **** {
 264              		.loc 1 118 1 is_stmt 1 view -0
 265              		.cfi_startproc
 266              		@ args = 0, pretend = 0, frame = 0
 267              		@ frame_needed = 0, uses_anonymous_args = 0
 268              		@ link register save eliminated.
 269              		.loc 1 118 1 is_stmt 0 view .LVU44
 270 0000 07EE900A 		vmov	s15, r0	@ int
 119:Drivers/BSP/Components/lis2dw12/lis2dw12_reg.c ****   return ((float_t)lsb) * 0.122f;
 271              		.loc 1 119 3 is_stmt 1 view .LVU45
 272              		.loc 1 119 11 is_stmt 0 view .LVU46
 273 0004 F8EEE77A 		vcvt.f32.s32	s15, s15
 120:Drivers/BSP/Components/lis2dw12/lis2dw12_reg.c **** }
 274              		.loc 1 120 1 view .LVU47
 275 0008 9FED020A 		vldr.32	s0, .L21
 276 000c 27EE800A 		vmul.f32	s0, s15, s0
 277 0010 7047     		bx	lr
 278              	.L22:
 279 0012 00BF     		.align	2
 280              	.L21:
 281 0014 23DBF93D 		.word	1039784739
 282              		.cfi_endproc
 283              	.LFE7:
 285              		.section	.text.lis2dw12_from_fs8_lp1_to_mg,"ax",%progbits
 286              		.align	1
 287              		.global	lis2dw12_from_fs8_lp1_to_mg
 288              		.syntax unified
 289              		.thumb
 290              		.thumb_func
 291              		.fpu fpv4-sp-d16
 293              	lis2dw12_from_fs8_lp1_to_mg:
 294              	.LVL12:
 295              	.LFB8:
 121:Drivers/BSP/Components/lis2dw12/lis2dw12_reg.c **** 
ARM GAS  /tmp/ccEdQILT.s 			page 8


 122:Drivers/BSP/Components/lis2dw12/lis2dw12_reg.c **** float_t lis2dw12_from_fs8_lp1_to_mg(int16_t lsb)
 123:Drivers/BSP/Components/lis2dw12/lis2dw12_reg.c **** {
 296              		.loc 1 123 1 is_stmt 1 view -0
 297              		.cfi_startproc
 298              		@ args = 0, pretend = 0, frame = 0
 299              		@ frame_needed = 0, uses_anonymous_args = 0
 300              		@ link register save eliminated.
 301              		.loc 1 123 1 is_stmt 0 view .LVU49
 302 0000 07EE900A 		vmov	s15, r0	@ int
 124:Drivers/BSP/Components/lis2dw12/lis2dw12_reg.c ****   return ((float_t)lsb) * 0.244f;
 303              		.loc 1 124 3 is_stmt 1 view .LVU50
 304              		.loc 1 124 11 is_stmt 0 view .LVU51
 305 0004 F8EEE77A 		vcvt.f32.s32	s15, s15
 125:Drivers/BSP/Components/lis2dw12/lis2dw12_reg.c **** }
 306              		.loc 1 125 1 view .LVU52
 307 0008 9FED020A 		vldr.32	s0, .L24
 308 000c 27EE800A 		vmul.f32	s0, s15, s0
 309 0010 7047     		bx	lr
 310              	.L25:
 311 0012 00BF     		.align	2
 312              	.L24:
 313 0014 23DB793E 		.word	1048173347
 314              		.cfi_endproc
 315              	.LFE8:
 317              		.section	.text.lis2dw12_from_fs16_lp1_to_mg,"ax",%progbits
 318              		.align	1
 319              		.global	lis2dw12_from_fs16_lp1_to_mg
 320              		.syntax unified
 321              		.thumb
 322              		.thumb_func
 323              		.fpu fpv4-sp-d16
 325              	lis2dw12_from_fs16_lp1_to_mg:
 326              	.LVL13:
 327              	.LFB9:
 126:Drivers/BSP/Components/lis2dw12/lis2dw12_reg.c **** 
 127:Drivers/BSP/Components/lis2dw12/lis2dw12_reg.c **** float_t lis2dw12_from_fs16_lp1_to_mg(int16_t lsb)
 128:Drivers/BSP/Components/lis2dw12/lis2dw12_reg.c **** {
 328              		.loc 1 128 1 is_stmt 1 view -0
 329              		.cfi_startproc
 330              		@ args = 0, pretend = 0, frame = 0
 331              		@ frame_needed = 0, uses_anonymous_args = 0
 332              		@ link register save eliminated.
 333              		.loc 1 128 1 is_stmt 0 view .LVU54
 334 0000 07EE900A 		vmov	s15, r0	@ int
 129:Drivers/BSP/Components/lis2dw12/lis2dw12_reg.c ****   return ((float_t)lsb) * 0.488f;
 335              		.loc 1 129 3 is_stmt 1 view .LVU55
 336              		.loc 1 129 11 is_stmt 0 view .LVU56
 337 0004 F8EEE77A 		vcvt.f32.s32	s15, s15
 130:Drivers/BSP/Components/lis2dw12/lis2dw12_reg.c **** }
 338              		.loc 1 130 1 view .LVU57
 339 0008 9FED020A 		vldr.32	s0, .L27
 340 000c 27EE800A 		vmul.f32	s0, s15, s0
 341 0010 7047     		bx	lr
 342              	.L28:
 343 0012 00BF     		.align	2
 344              	.L27:
 345 0014 23DBF93E 		.word	1056561955
ARM GAS  /tmp/ccEdQILT.s 			page 9


 346              		.cfi_endproc
 347              	.LFE9:
 349              		.section	.text.lis2dw12_from_lsb_to_celsius,"ax",%progbits
 350              		.align	1
 351              		.global	lis2dw12_from_lsb_to_celsius
 352              		.syntax unified
 353              		.thumb
 354              		.thumb_func
 355              		.fpu fpv4-sp-d16
 357              	lis2dw12_from_lsb_to_celsius:
 358              	.LVL14:
 359              	.LFB10:
 131:Drivers/BSP/Components/lis2dw12/lis2dw12_reg.c **** 
 132:Drivers/BSP/Components/lis2dw12/lis2dw12_reg.c **** float_t lis2dw12_from_lsb_to_celsius(int16_t lsb)
 133:Drivers/BSP/Components/lis2dw12/lis2dw12_reg.c **** {
 360              		.loc 1 133 1 is_stmt 1 view -0
 361              		.cfi_startproc
 362              		@ args = 0, pretend = 0, frame = 0
 363              		@ frame_needed = 0, uses_anonymous_args = 0
 364              		@ link register save eliminated.
 365              		.loc 1 133 1 is_stmt 0 view .LVU59
 366 0000 07EE900A 		vmov	s15, r0	@ int
 134:Drivers/BSP/Components/lis2dw12/lis2dw12_reg.c ****   return (((float_t)lsb / 256.0f) + 25.0f);
 367              		.loc 1 134 3 is_stmt 1 view .LVU60
 368              		.loc 1 134 12 is_stmt 0 view .LVU61
 369 0004 F8EEE77A 		vcvt.f32.s32	s15, s15
 370              		.loc 1 134 25 view .LVU62
 371 0008 9FED040A 		vldr.32	s0, .L30
 372 000c 67EE807A 		vmul.f32	s15, s15, s0
 135:Drivers/BSP/Components/lis2dw12/lis2dw12_reg.c **** }
 373              		.loc 1 135 1 view .LVU63
 374 0010 B3EE090A 		vmov.f32	s0, #2.5e+1
 375 0014 37EE800A 		vadd.f32	s0, s15, s0
 376 0018 7047     		bx	lr
 377              	.L31:
 378 001a 00BF     		.align	2
 379              	.L30:
 380 001c 0000803B 		.word	998244352
 381              		.cfi_endproc
 382              	.LFE10:
 384              		.section	.text.lis2dw12_power_mode_set,"ax",%progbits
 385              		.align	1
 386              		.global	lis2dw12_power_mode_set
 387              		.syntax unified
 388              		.thumb
 389              		.thumb_func
 390              		.fpu fpv4-sp-d16
 392              	lis2dw12_power_mode_set:
 393              	.LVL15:
 394              	.LFB11:
 136:Drivers/BSP/Components/lis2dw12/lis2dw12_reg.c **** 
 137:Drivers/BSP/Components/lis2dw12/lis2dw12_reg.c **** /**
 138:Drivers/BSP/Components/lis2dw12/lis2dw12_reg.c ****   * @}
 139:Drivers/BSP/Components/lis2dw12/lis2dw12_reg.c ****   *
 140:Drivers/BSP/Components/lis2dw12/lis2dw12_reg.c ****   */
 141:Drivers/BSP/Components/lis2dw12/lis2dw12_reg.c **** 
 142:Drivers/BSP/Components/lis2dw12/lis2dw12_reg.c **** /**
ARM GAS  /tmp/ccEdQILT.s 			page 10


 143:Drivers/BSP/Components/lis2dw12/lis2dw12_reg.c ****   * @defgroup  LIS2DW12_Data_Generation
 144:Drivers/BSP/Components/lis2dw12/lis2dw12_reg.c ****   * @brief     This section groups all the functions concerning
 145:Drivers/BSP/Components/lis2dw12/lis2dw12_reg.c ****   *            data generation
 146:Drivers/BSP/Components/lis2dw12/lis2dw12_reg.c ****   * @{
 147:Drivers/BSP/Components/lis2dw12/lis2dw12_reg.c ****   *
 148:Drivers/BSP/Components/lis2dw12/lis2dw12_reg.c ****   */
 149:Drivers/BSP/Components/lis2dw12/lis2dw12_reg.c **** 
 150:Drivers/BSP/Components/lis2dw12/lis2dw12_reg.c **** /**
 151:Drivers/BSP/Components/lis2dw12/lis2dw12_reg.c ****   * @brief  Select accelerometer operating modes.[set]
 152:Drivers/BSP/Components/lis2dw12/lis2dw12_reg.c ****   *
 153:Drivers/BSP/Components/lis2dw12/lis2dw12_reg.c ****   * @param  ctx      read / write interface definitions
 154:Drivers/BSP/Components/lis2dw12/lis2dw12_reg.c ****   * @param  val      change the values of mode / lp_mode in reg CTRL1
 155:Drivers/BSP/Components/lis2dw12/lis2dw12_reg.c ****   *                  and low_noise in reg CTRL6
 156:Drivers/BSP/Components/lis2dw12/lis2dw12_reg.c ****   * @retval          interface status (MANDATORY: return 0 -> no Error)
 157:Drivers/BSP/Components/lis2dw12/lis2dw12_reg.c ****   *
 158:Drivers/BSP/Components/lis2dw12/lis2dw12_reg.c ****   */
 159:Drivers/BSP/Components/lis2dw12/lis2dw12_reg.c **** int32_t lis2dw12_power_mode_set(stmdev_ctx_t *ctx,
 160:Drivers/BSP/Components/lis2dw12/lis2dw12_reg.c ****                                 lis2dw12_mode_t val)
 161:Drivers/BSP/Components/lis2dw12/lis2dw12_reg.c **** {
 395              		.loc 1 161 1 is_stmt 1 view -0
 396              		.cfi_startproc
 397              		@ args = 0, pretend = 0, frame = 8
 398              		@ frame_needed = 0, uses_anonymous_args = 0
 399              		.loc 1 161 1 is_stmt 0 view .LVU65
 400 0000 30B5     		push	{r4, r5, lr}
 401              	.LCFI2:
 402              		.cfi_def_cfa_offset 12
 403              		.cfi_offset 4, -12
 404              		.cfi_offset 5, -8
 405              		.cfi_offset 14, -4
 406 0002 83B0     		sub	sp, sp, #12
 407              	.LCFI3:
 408              		.cfi_def_cfa_offset 24
 409 0004 0546     		mov	r5, r0
 410 0006 0C46     		mov	r4, r1
 162:Drivers/BSP/Components/lis2dw12/lis2dw12_reg.c ****   lis2dw12_ctrl1_t ctrl1;
 411              		.loc 1 162 3 is_stmt 1 view .LVU66
 163:Drivers/BSP/Components/lis2dw12/lis2dw12_reg.c ****   lis2dw12_ctrl6_t ctrl6;
 412              		.loc 1 163 3 view .LVU67
 164:Drivers/BSP/Components/lis2dw12/lis2dw12_reg.c ****   int32_t ret;
 413              		.loc 1 164 3 view .LVU68
 165:Drivers/BSP/Components/lis2dw12/lis2dw12_reg.c **** 
 166:Drivers/BSP/Components/lis2dw12/lis2dw12_reg.c ****   ret = lis2dw12_read_reg(ctx, LIS2DW12_CTRL1, (uint8_t *) &ctrl1, 1);
 414              		.loc 1 166 3 view .LVU69
 415              		.loc 1 166 9 is_stmt 0 view .LVU70
 416 0008 0123     		movs	r3, #1
 417 000a 01AA     		add	r2, sp, #4
 418 000c 2021     		movs	r1, #32
 419              	.LVL16:
 420              		.loc 1 166 9 view .LVU71
 421 000e FFF7FEFF 		bl	lis2dw12_read_reg
 422              	.LVL17:
 167:Drivers/BSP/Components/lis2dw12/lis2dw12_reg.c **** 
 168:Drivers/BSP/Components/lis2dw12/lis2dw12_reg.c ****   if (ret == 0)
 423              		.loc 1 168 3 is_stmt 1 view .LVU72
 424              		.loc 1 168 6 is_stmt 0 view .LVU73
 425 0012 18B1     		cbz	r0, .L37
ARM GAS  /tmp/ccEdQILT.s 			page 11


 426              	.LVL18:
 427              	.L33:
 169:Drivers/BSP/Components/lis2dw12/lis2dw12_reg.c ****   {
 170:Drivers/BSP/Components/lis2dw12/lis2dw12_reg.c ****     ctrl1.mode = ((uint8_t) val & 0x0CU) >> 2;
 171:Drivers/BSP/Components/lis2dw12/lis2dw12_reg.c ****     ctrl1.lp_mode = (uint8_t) val & 0x03U ;
 172:Drivers/BSP/Components/lis2dw12/lis2dw12_reg.c ****     ret = lis2dw12_write_reg(ctx, LIS2DW12_CTRL1, (uint8_t *) &ctrl1, 1);
 173:Drivers/BSP/Components/lis2dw12/lis2dw12_reg.c ****   }
 174:Drivers/BSP/Components/lis2dw12/lis2dw12_reg.c **** 
 175:Drivers/BSP/Components/lis2dw12/lis2dw12_reg.c ****   if (ret == 0)
 428              		.loc 1 175 3 is_stmt 1 view .LVU74
 429              		.loc 1 175 6 is_stmt 0 view .LVU75
 430 0014 B0B1     		cbz	r0, .L38
 431              	.L34:
 176:Drivers/BSP/Components/lis2dw12/lis2dw12_reg.c ****   {
 177:Drivers/BSP/Components/lis2dw12/lis2dw12_reg.c ****     ret = lis2dw12_read_reg(ctx, LIS2DW12_CTRL6, (uint8_t *) &ctrl6, 1);
 178:Drivers/BSP/Components/lis2dw12/lis2dw12_reg.c ****   }
 179:Drivers/BSP/Components/lis2dw12/lis2dw12_reg.c **** 
 180:Drivers/BSP/Components/lis2dw12/lis2dw12_reg.c ****   if (ret == 0)
 432              		.loc 1 180 3 is_stmt 1 view .LVU76
 433              		.loc 1 180 6 is_stmt 0 view .LVU77
 434 0016 E0B1     		cbz	r0, .L39
 435              	.L32:
 181:Drivers/BSP/Components/lis2dw12/lis2dw12_reg.c ****   {
 182:Drivers/BSP/Components/lis2dw12/lis2dw12_reg.c ****     ctrl6.low_noise = ((uint8_t) val & 0x10U) >> 4;
 183:Drivers/BSP/Components/lis2dw12/lis2dw12_reg.c ****     ret = lis2dw12_write_reg(ctx, LIS2DW12_CTRL6, (uint8_t *) &ctrl6, 1);
 184:Drivers/BSP/Components/lis2dw12/lis2dw12_reg.c ****   }
 185:Drivers/BSP/Components/lis2dw12/lis2dw12_reg.c **** 
 186:Drivers/BSP/Components/lis2dw12/lis2dw12_reg.c ****   return ret;
 187:Drivers/BSP/Components/lis2dw12/lis2dw12_reg.c **** }
 436              		.loc 1 187 1 view .LVU78
 437 0018 03B0     		add	sp, sp, #12
 438              	.LCFI4:
 439              		.cfi_remember_state
 440              		.cfi_def_cfa_offset 12
 441              		@ sp needed
 442 001a 30BD     		pop	{r4, r5, pc}
 443              	.LVL19:
 444              	.L37:
 445              	.LCFI5:
 446              		.cfi_restore_state
 170:Drivers/BSP/Components/lis2dw12/lis2dw12_reg.c ****     ctrl1.lp_mode = (uint8_t) val & 0x03U ;
 447              		.loc 1 170 5 is_stmt 1 view .LVU79
 170:Drivers/BSP/Components/lis2dw12/lis2dw12_reg.c ****     ctrl1.lp_mode = (uint8_t) val & 0x03U ;
 448              		.loc 1 170 42 is_stmt 0 view .LVU80
 449 001c C4F38103 		ubfx	r3, r4, #2, #2
 170:Drivers/BSP/Components/lis2dw12/lis2dw12_reg.c ****     ctrl1.lp_mode = (uint8_t) val & 0x03U ;
 450              		.loc 1 170 16 view .LVU81
 451 0020 9DF80420 		ldrb	r2, [sp, #4]	@ zero_extendqisi2
 452 0024 63F38302 		bfi	r2, r3, #2, #2
 453 0028 8DF80420 		strb	r2, [sp, #4]
 171:Drivers/BSP/Components/lis2dw12/lis2dw12_reg.c ****     ret = lis2dw12_write_reg(ctx, LIS2DW12_CTRL1, (uint8_t *) &ctrl1, 1);
 454              		.loc 1 171 5 is_stmt 1 view .LVU82
 171:Drivers/BSP/Components/lis2dw12/lis2dw12_reg.c ****     ret = lis2dw12_write_reg(ctx, LIS2DW12_CTRL1, (uint8_t *) &ctrl1, 1);
 455              		.loc 1 171 19 is_stmt 0 view .LVU83
 456 002c D3B2     		uxtb	r3, r2
 457 002e 64F30103 		bfi	r3, r4, #0, #2
 458 0032 8DF80430 		strb	r3, [sp, #4]
ARM GAS  /tmp/ccEdQILT.s 			page 12


 172:Drivers/BSP/Components/lis2dw12/lis2dw12_reg.c ****   }
 459              		.loc 1 172 5 is_stmt 1 view .LVU84
 172:Drivers/BSP/Components/lis2dw12/lis2dw12_reg.c ****   }
 460              		.loc 1 172 11 is_stmt 0 view .LVU85
 461 0036 0123     		movs	r3, #1
 462              	.LVL20:
 172:Drivers/BSP/Components/lis2dw12/lis2dw12_reg.c ****   }
 463              		.loc 1 172 11 view .LVU86
 464 0038 01AA     		add	r2, sp, #4
 465 003a 2021     		movs	r1, #32
 466 003c 2846     		mov	r0, r5
 467 003e FFF7FEFF 		bl	lis2dw12_write_reg
 468              	.LVL21:
 172:Drivers/BSP/Components/lis2dw12/lis2dw12_reg.c ****   }
 469              		.loc 1 172 11 view .LVU87
 470 0042 E7E7     		b	.L33
 471              	.L38:
 177:Drivers/BSP/Components/lis2dw12/lis2dw12_reg.c ****   }
 472              		.loc 1 177 5 is_stmt 1 view .LVU88
 177:Drivers/BSP/Components/lis2dw12/lis2dw12_reg.c ****   }
 473              		.loc 1 177 11 is_stmt 0 view .LVU89
 474 0044 0123     		movs	r3, #1
 475 0046 6A46     		mov	r2, sp
 476 0048 2521     		movs	r1, #37
 477 004a 2846     		mov	r0, r5
 478              	.LVL22:
 177:Drivers/BSP/Components/lis2dw12/lis2dw12_reg.c ****   }
 479              		.loc 1 177 11 view .LVU90
 480 004c FFF7FEFF 		bl	lis2dw12_read_reg
 481              	.LVL23:
 177:Drivers/BSP/Components/lis2dw12/lis2dw12_reg.c ****   }
 482              		.loc 1 177 11 view .LVU91
 483 0050 E1E7     		b	.L34
 484              	.L39:
 182:Drivers/BSP/Components/lis2dw12/lis2dw12_reg.c ****     ret = lis2dw12_write_reg(ctx, LIS2DW12_CTRL6, (uint8_t *) &ctrl6, 1);
 485              		.loc 1 182 5 is_stmt 1 view .LVU92
 182:Drivers/BSP/Components/lis2dw12/lis2dw12_reg.c ****     ret = lis2dw12_write_reg(ctx, LIS2DW12_CTRL6, (uint8_t *) &ctrl6, 1);
 486              		.loc 1 182 47 is_stmt 0 view .LVU93
 487 0052 C4F30011 		ubfx	r1, r4, #4, #1
 182:Drivers/BSP/Components/lis2dw12/lis2dw12_reg.c ****     ret = lis2dw12_write_reg(ctx, LIS2DW12_CTRL6, (uint8_t *) &ctrl6, 1);
 488              		.loc 1 182 21 view .LVU94
 489 0056 9DF80030 		ldrb	r3, [sp]	@ zero_extendqisi2
 490 005a 61F38203 		bfi	r3, r1, #2, #1
 491 005e 8DF80030 		strb	r3, [sp]
 183:Drivers/BSP/Components/lis2dw12/lis2dw12_reg.c ****   }
 492              		.loc 1 183 5 is_stmt 1 view .LVU95
 183:Drivers/BSP/Components/lis2dw12/lis2dw12_reg.c ****   }
 493              		.loc 1 183 11 is_stmt 0 view .LVU96
 494 0062 0123     		movs	r3, #1
 495 0064 6A46     		mov	r2, sp
 496 0066 2521     		movs	r1, #37
 497 0068 2846     		mov	r0, r5
 498              	.LVL24:
 183:Drivers/BSP/Components/lis2dw12/lis2dw12_reg.c ****   }
 499              		.loc 1 183 11 view .LVU97
 500 006a FFF7FEFF 		bl	lis2dw12_write_reg
 501              	.LVL25:
ARM GAS  /tmp/ccEdQILT.s 			page 13


 186:Drivers/BSP/Components/lis2dw12/lis2dw12_reg.c **** }
 502              		.loc 1 186 3 is_stmt 1 view .LVU98
 186:Drivers/BSP/Components/lis2dw12/lis2dw12_reg.c **** }
 503              		.loc 1 186 10 is_stmt 0 view .LVU99
 504 006e D3E7     		b	.L32
 505              		.cfi_endproc
 506              	.LFE11:
 508              		.section	.text.lis2dw12_power_mode_get,"ax",%progbits
 509              		.align	1
 510              		.global	lis2dw12_power_mode_get
 511              		.syntax unified
 512              		.thumb
 513              		.thumb_func
 514              		.fpu fpv4-sp-d16
 516              	lis2dw12_power_mode_get:
 517              	.LVL26:
 518              	.LFB12:
 188:Drivers/BSP/Components/lis2dw12/lis2dw12_reg.c **** 
 189:Drivers/BSP/Components/lis2dw12/lis2dw12_reg.c **** /**
 190:Drivers/BSP/Components/lis2dw12/lis2dw12_reg.c ****   * @brief  Select accelerometer operating modes.[get]
 191:Drivers/BSP/Components/lis2dw12/lis2dw12_reg.c ****   *
 192:Drivers/BSP/Components/lis2dw12/lis2dw12_reg.c ****   * @param  ctx      read / write interface definitions
 193:Drivers/BSP/Components/lis2dw12/lis2dw12_reg.c ****   * @param  val      change the values of mode / lp_mode in reg CTRL1
 194:Drivers/BSP/Components/lis2dw12/lis2dw12_reg.c ****   *                  and low_noise in reg CTRL6
 195:Drivers/BSP/Components/lis2dw12/lis2dw12_reg.c ****   * @retval          interface status (MANDATORY: return 0 -> no Error)
 196:Drivers/BSP/Components/lis2dw12/lis2dw12_reg.c ****   *
 197:Drivers/BSP/Components/lis2dw12/lis2dw12_reg.c ****   */
 198:Drivers/BSP/Components/lis2dw12/lis2dw12_reg.c **** int32_t lis2dw12_power_mode_get(stmdev_ctx_t *ctx,
 199:Drivers/BSP/Components/lis2dw12/lis2dw12_reg.c ****                                 lis2dw12_mode_t *val)
 200:Drivers/BSP/Components/lis2dw12/lis2dw12_reg.c **** {
 519              		.loc 1 200 1 is_stmt 1 view -0
 520              		.cfi_startproc
 521              		@ args = 0, pretend = 0, frame = 8
 522              		@ frame_needed = 0, uses_anonymous_args = 0
 523              		.loc 1 200 1 is_stmt 0 view .LVU101
 524 0000 30B5     		push	{r4, r5, lr}
 525              	.LCFI6:
 526              		.cfi_def_cfa_offset 12
 527              		.cfi_offset 4, -12
 528              		.cfi_offset 5, -8
 529              		.cfi_offset 14, -4
 530 0002 83B0     		sub	sp, sp, #12
 531              	.LCFI7:
 532              		.cfi_def_cfa_offset 24
 533 0004 0446     		mov	r4, r0
 534 0006 0D46     		mov	r5, r1
 201:Drivers/BSP/Components/lis2dw12/lis2dw12_reg.c ****   lis2dw12_ctrl1_t ctrl1;
 535              		.loc 1 201 3 is_stmt 1 view .LVU102
 202:Drivers/BSP/Components/lis2dw12/lis2dw12_reg.c ****   lis2dw12_ctrl6_t ctrl6;
 536              		.loc 1 202 3 view .LVU103
 203:Drivers/BSP/Components/lis2dw12/lis2dw12_reg.c ****   int32_t ret;
 537              		.loc 1 203 3 view .LVU104
 204:Drivers/BSP/Components/lis2dw12/lis2dw12_reg.c **** 
 205:Drivers/BSP/Components/lis2dw12/lis2dw12_reg.c ****   ret = lis2dw12_read_reg(ctx, LIS2DW12_CTRL1, (uint8_t *) &ctrl1, 1);
 538              		.loc 1 205 3 view .LVU105
 539              		.loc 1 205 9 is_stmt 0 view .LVU106
 540 0008 0123     		movs	r3, #1
ARM GAS  /tmp/ccEdQILT.s 			page 14


 541 000a 01AA     		add	r2, sp, #4
 542 000c 2021     		movs	r1, #32
 543              	.LVL27:
 544              		.loc 1 205 9 view .LVU107
 545 000e FFF7FEFF 		bl	lis2dw12_read_reg
 546              	.LVL28:
 206:Drivers/BSP/Components/lis2dw12/lis2dw12_reg.c **** 
 207:Drivers/BSP/Components/lis2dw12/lis2dw12_reg.c ****   if (ret == 0)
 547              		.loc 1 207 3 is_stmt 1 view .LVU108
 548              		.loc 1 207 6 is_stmt 0 view .LVU109
 549 0012 08B1     		cbz	r0, .L63
 550              	.LVL29:
 551              	.L40:
 208:Drivers/BSP/Components/lis2dw12/lis2dw12_reg.c ****   {
 209:Drivers/BSP/Components/lis2dw12/lis2dw12_reg.c ****     ret = lis2dw12_read_reg(ctx, LIS2DW12_CTRL6, (uint8_t *) &ctrl6, 1);
 210:Drivers/BSP/Components/lis2dw12/lis2dw12_reg.c **** 
 211:Drivers/BSP/Components/lis2dw12/lis2dw12_reg.c ****     switch (((ctrl6.low_noise << 4) + (ctrl1.mode << 2) +
 212:Drivers/BSP/Components/lis2dw12/lis2dw12_reg.c ****              ctrl1.lp_mode))
 213:Drivers/BSP/Components/lis2dw12/lis2dw12_reg.c ****     {
 214:Drivers/BSP/Components/lis2dw12/lis2dw12_reg.c ****       case LIS2DW12_HIGH_PERFORMANCE:
 215:Drivers/BSP/Components/lis2dw12/lis2dw12_reg.c ****         *val = LIS2DW12_HIGH_PERFORMANCE;
 216:Drivers/BSP/Components/lis2dw12/lis2dw12_reg.c ****         break;
 217:Drivers/BSP/Components/lis2dw12/lis2dw12_reg.c **** 
 218:Drivers/BSP/Components/lis2dw12/lis2dw12_reg.c ****       case LIS2DW12_CONT_LOW_PWR_4:
 219:Drivers/BSP/Components/lis2dw12/lis2dw12_reg.c ****         *val = LIS2DW12_CONT_LOW_PWR_4;
 220:Drivers/BSP/Components/lis2dw12/lis2dw12_reg.c ****         break;
 221:Drivers/BSP/Components/lis2dw12/lis2dw12_reg.c **** 
 222:Drivers/BSP/Components/lis2dw12/lis2dw12_reg.c ****       case LIS2DW12_CONT_LOW_PWR_3:
 223:Drivers/BSP/Components/lis2dw12/lis2dw12_reg.c ****         *val = LIS2DW12_CONT_LOW_PWR_3;
 224:Drivers/BSP/Components/lis2dw12/lis2dw12_reg.c ****         break;
 225:Drivers/BSP/Components/lis2dw12/lis2dw12_reg.c **** 
 226:Drivers/BSP/Components/lis2dw12/lis2dw12_reg.c ****       case LIS2DW12_CONT_LOW_PWR_2:
 227:Drivers/BSP/Components/lis2dw12/lis2dw12_reg.c ****         *val = LIS2DW12_CONT_LOW_PWR_2;
 228:Drivers/BSP/Components/lis2dw12/lis2dw12_reg.c ****         break;
 229:Drivers/BSP/Components/lis2dw12/lis2dw12_reg.c **** 
 230:Drivers/BSP/Components/lis2dw12/lis2dw12_reg.c ****       case LIS2DW12_CONT_LOW_PWR_12bit:
 231:Drivers/BSP/Components/lis2dw12/lis2dw12_reg.c ****         *val = LIS2DW12_CONT_LOW_PWR_12bit;
 232:Drivers/BSP/Components/lis2dw12/lis2dw12_reg.c ****         break;
 233:Drivers/BSP/Components/lis2dw12/lis2dw12_reg.c **** 
 234:Drivers/BSP/Components/lis2dw12/lis2dw12_reg.c ****       case LIS2DW12_SINGLE_LOW_PWR_4:
 235:Drivers/BSP/Components/lis2dw12/lis2dw12_reg.c ****         *val = LIS2DW12_SINGLE_LOW_PWR_4;
 236:Drivers/BSP/Components/lis2dw12/lis2dw12_reg.c ****         break;
 237:Drivers/BSP/Components/lis2dw12/lis2dw12_reg.c **** 
 238:Drivers/BSP/Components/lis2dw12/lis2dw12_reg.c ****       case LIS2DW12_SINGLE_LOW_PWR_3:
 239:Drivers/BSP/Components/lis2dw12/lis2dw12_reg.c ****         *val = LIS2DW12_SINGLE_LOW_PWR_3;
 240:Drivers/BSP/Components/lis2dw12/lis2dw12_reg.c ****         break;
 241:Drivers/BSP/Components/lis2dw12/lis2dw12_reg.c **** 
 242:Drivers/BSP/Components/lis2dw12/lis2dw12_reg.c ****       case LIS2DW12_SINGLE_LOW_PWR_2:
 243:Drivers/BSP/Components/lis2dw12/lis2dw12_reg.c ****         *val = LIS2DW12_SINGLE_LOW_PWR_2;
 244:Drivers/BSP/Components/lis2dw12/lis2dw12_reg.c ****         break;
 245:Drivers/BSP/Components/lis2dw12/lis2dw12_reg.c **** 
 246:Drivers/BSP/Components/lis2dw12/lis2dw12_reg.c ****       case LIS2DW12_SINGLE_LOW_PWR_12bit:
 247:Drivers/BSP/Components/lis2dw12/lis2dw12_reg.c ****         *val = LIS2DW12_SINGLE_LOW_PWR_12bit;
 248:Drivers/BSP/Components/lis2dw12/lis2dw12_reg.c ****         break;
 249:Drivers/BSP/Components/lis2dw12/lis2dw12_reg.c **** 
 250:Drivers/BSP/Components/lis2dw12/lis2dw12_reg.c ****       case LIS2DW12_HIGH_PERFORMANCE_LOW_NOISE:
 251:Drivers/BSP/Components/lis2dw12/lis2dw12_reg.c ****         *val = LIS2DW12_HIGH_PERFORMANCE_LOW_NOISE;
ARM GAS  /tmp/ccEdQILT.s 			page 15


 252:Drivers/BSP/Components/lis2dw12/lis2dw12_reg.c ****         break;
 253:Drivers/BSP/Components/lis2dw12/lis2dw12_reg.c **** 
 254:Drivers/BSP/Components/lis2dw12/lis2dw12_reg.c ****       case LIS2DW12_CONT_LOW_PWR_LOW_NOISE_4:
 255:Drivers/BSP/Components/lis2dw12/lis2dw12_reg.c ****         *val = LIS2DW12_CONT_LOW_PWR_LOW_NOISE_4;
 256:Drivers/BSP/Components/lis2dw12/lis2dw12_reg.c ****         break;
 257:Drivers/BSP/Components/lis2dw12/lis2dw12_reg.c **** 
 258:Drivers/BSP/Components/lis2dw12/lis2dw12_reg.c ****       case LIS2DW12_CONT_LOW_PWR_LOW_NOISE_3:
 259:Drivers/BSP/Components/lis2dw12/lis2dw12_reg.c ****         *val = LIS2DW12_CONT_LOW_PWR_LOW_NOISE_3;
 260:Drivers/BSP/Components/lis2dw12/lis2dw12_reg.c ****         break;
 261:Drivers/BSP/Components/lis2dw12/lis2dw12_reg.c **** 
 262:Drivers/BSP/Components/lis2dw12/lis2dw12_reg.c ****       case LIS2DW12_CONT_LOW_PWR_LOW_NOISE_2:
 263:Drivers/BSP/Components/lis2dw12/lis2dw12_reg.c ****         *val = LIS2DW12_CONT_LOW_PWR_LOW_NOISE_2;
 264:Drivers/BSP/Components/lis2dw12/lis2dw12_reg.c ****         break;
 265:Drivers/BSP/Components/lis2dw12/lis2dw12_reg.c **** 
 266:Drivers/BSP/Components/lis2dw12/lis2dw12_reg.c ****       case LIS2DW12_CONT_LOW_PWR_LOW_NOISE_12bit:
 267:Drivers/BSP/Components/lis2dw12/lis2dw12_reg.c ****         *val = LIS2DW12_CONT_LOW_PWR_LOW_NOISE_12bit;
 268:Drivers/BSP/Components/lis2dw12/lis2dw12_reg.c ****         break;
 269:Drivers/BSP/Components/lis2dw12/lis2dw12_reg.c **** 
 270:Drivers/BSP/Components/lis2dw12/lis2dw12_reg.c ****       case LIS2DW12_SINGLE_LOW_PWR_LOW_NOISE_4:
 271:Drivers/BSP/Components/lis2dw12/lis2dw12_reg.c ****         *val = LIS2DW12_SINGLE_LOW_PWR_LOW_NOISE_4;
 272:Drivers/BSP/Components/lis2dw12/lis2dw12_reg.c ****         break;
 273:Drivers/BSP/Components/lis2dw12/lis2dw12_reg.c **** 
 274:Drivers/BSP/Components/lis2dw12/lis2dw12_reg.c ****       case LIS2DW12_SINGLE_LOW_PWR_LOW_NOISE_3:
 275:Drivers/BSP/Components/lis2dw12/lis2dw12_reg.c ****         *val = LIS2DW12_SINGLE_LOW_PWR_LOW_NOISE_3;
 276:Drivers/BSP/Components/lis2dw12/lis2dw12_reg.c ****         break;
 277:Drivers/BSP/Components/lis2dw12/lis2dw12_reg.c **** 
 278:Drivers/BSP/Components/lis2dw12/lis2dw12_reg.c ****       case LIS2DW12_SINGLE_LOW_PWR_LOW_NOISE_2:
 279:Drivers/BSP/Components/lis2dw12/lis2dw12_reg.c ****         *val = LIS2DW12_SINGLE_LOW_PWR_LOW_NOISE_2;
 280:Drivers/BSP/Components/lis2dw12/lis2dw12_reg.c ****         break;
 281:Drivers/BSP/Components/lis2dw12/lis2dw12_reg.c **** 
 282:Drivers/BSP/Components/lis2dw12/lis2dw12_reg.c ****       case LIS2DW12_SINGLE_LOW_LOW_NOISE_PWR_12bit:
 283:Drivers/BSP/Components/lis2dw12/lis2dw12_reg.c ****         *val = LIS2DW12_SINGLE_LOW_LOW_NOISE_PWR_12bit;
 284:Drivers/BSP/Components/lis2dw12/lis2dw12_reg.c ****         break;
 285:Drivers/BSP/Components/lis2dw12/lis2dw12_reg.c **** 
 286:Drivers/BSP/Components/lis2dw12/lis2dw12_reg.c ****       default:
 287:Drivers/BSP/Components/lis2dw12/lis2dw12_reg.c ****         *val = LIS2DW12_HIGH_PERFORMANCE;
 288:Drivers/BSP/Components/lis2dw12/lis2dw12_reg.c ****         break;
 289:Drivers/BSP/Components/lis2dw12/lis2dw12_reg.c ****     }
 290:Drivers/BSP/Components/lis2dw12/lis2dw12_reg.c ****   }
 291:Drivers/BSP/Components/lis2dw12/lis2dw12_reg.c **** 
 292:Drivers/BSP/Components/lis2dw12/lis2dw12_reg.c ****   return ret;
 293:Drivers/BSP/Components/lis2dw12/lis2dw12_reg.c **** }
 552              		.loc 1 293 1 view .LVU110
 553 0014 03B0     		add	sp, sp, #12
 554              	.LCFI8:
 555              		.cfi_remember_state
 556              		.cfi_def_cfa_offset 12
 557              		@ sp needed
 558 0016 30BD     		pop	{r4, r5, pc}
 559              	.LVL30:
 560              	.L63:
 561              	.LCFI9:
 562              		.cfi_restore_state
 209:Drivers/BSP/Components/lis2dw12/lis2dw12_reg.c **** 
 563              		.loc 1 209 5 is_stmt 1 view .LVU111
 209:Drivers/BSP/Components/lis2dw12/lis2dw12_reg.c **** 
 564              		.loc 1 209 11 is_stmt 0 view .LVU112
ARM GAS  /tmp/ccEdQILT.s 			page 16


 565 0018 0123     		movs	r3, #1
 566              	.LVL31:
 209:Drivers/BSP/Components/lis2dw12/lis2dw12_reg.c **** 
 567              		.loc 1 209 11 view .LVU113
 568 001a 6A46     		mov	r2, sp
 569 001c 2521     		movs	r1, #37
 570 001e 2046     		mov	r0, r4
 571 0020 FFF7FEFF 		bl	lis2dw12_read_reg
 572              	.LVL32:
 211:Drivers/BSP/Components/lis2dw12/lis2dw12_reg.c ****              ctrl1.lp_mode))
 573              		.loc 1 211 5 is_stmt 1 view .LVU114
 211:Drivers/BSP/Components/lis2dw12/lis2dw12_reg.c ****              ctrl1.lp_mode))
 574              		.loc 1 211 20 is_stmt 0 view .LVU115
 575 0024 9DF80030 		ldrb	r3, [sp]	@ zero_extendqisi2
 576 0028 C3F38001 		ubfx	r1, r3, #2, #1
 211:Drivers/BSP/Components/lis2dw12/lis2dw12_reg.c ****              ctrl1.lp_mode))
 577              		.loc 1 211 45 view .LVU116
 578 002c 9DF80420 		ldrb	r2, [sp, #4]	@ zero_extendqisi2
 211:Drivers/BSP/Components/lis2dw12/lis2dw12_reg.c ****              ctrl1.lp_mode))
 579              		.loc 1 211 51 view .LVU117
 580 0030 02F00C03 		and	r3, r2, #12
 211:Drivers/BSP/Components/lis2dw12/lis2dw12_reg.c ****              ctrl1.lp_mode))
 581              		.loc 1 211 37 view .LVU118
 582 0034 03EB0113 		add	r3, r3, r1, lsl #4
 212:Drivers/BSP/Components/lis2dw12/lis2dw12_reg.c ****     {
 583              		.loc 1 212 19 view .LVU119
 584 0038 02F00302 		and	r2, r2, #3
 211:Drivers/BSP/Components/lis2dw12/lis2dw12_reg.c ****              ctrl1.lp_mode))
 585              		.loc 1 211 57 view .LVU120
 586 003c 1344     		add	r3, r3, r2
 211:Drivers/BSP/Components/lis2dw12/lis2dw12_reg.c ****              ctrl1.lp_mode))
 587              		.loc 1 211 5 view .LVU121
 588 003e 1B2B     		cmp	r3, #27
 589 0040 45D8     		bhi	.L42
 590 0042 DFE803F0 		tbb	[pc, r3]
 591              	.L44:
 592 0046 1A       		.byte	(.L61-.L44)/2
 593 0047 17       		.byte	(.L60-.L44)/2
 594 0048 14       		.byte	(.L59-.L44)/2
 595 0049 11       		.byte	(.L58-.L44)/2
 596 004a 0E       		.byte	(.L57-.L44)/2
 597 004b 44       		.byte	(.L42-.L44)/2
 598 004c 44       		.byte	(.L42-.L44)/2
 599 004d 44       		.byte	(.L42-.L44)/2
 600 004e 26       		.byte	(.L56-.L44)/2
 601 004f 23       		.byte	(.L55-.L44)/2
 602 0050 20       		.byte	(.L54-.L44)/2
 603 0051 1D       		.byte	(.L53-.L44)/2
 604 0052 44       		.byte	(.L42-.L44)/2
 605 0053 44       		.byte	(.L42-.L44)/2
 606 0054 44       		.byte	(.L42-.L44)/2
 607 0055 44       		.byte	(.L42-.L44)/2
 608 0056 35       		.byte	(.L52-.L44)/2
 609 0057 32       		.byte	(.L51-.L44)/2
 610 0058 2F       		.byte	(.L50-.L44)/2
 611 0059 2C       		.byte	(.L49-.L44)/2
 612 005a 29       		.byte	(.L48-.L44)/2
ARM GAS  /tmp/ccEdQILT.s 			page 17


 613 005b 44       		.byte	(.L42-.L44)/2
 614 005c 44       		.byte	(.L42-.L44)/2
 615 005d 44       		.byte	(.L42-.L44)/2
 616 005e 41       		.byte	(.L47-.L44)/2
 617 005f 3E       		.byte	(.L46-.L44)/2
 618 0060 3B       		.byte	(.L45-.L44)/2
 619 0061 38       		.byte	(.L43-.L44)/2
 620              		.p2align 1
 621              	.L57:
 215:Drivers/BSP/Components/lis2dw12/lis2dw12_reg.c ****         break;
 622              		.loc 1 215 9 is_stmt 1 view .LVU122
 215:Drivers/BSP/Components/lis2dw12/lis2dw12_reg.c ****         break;
 623              		.loc 1 215 14 is_stmt 0 view .LVU123
 624 0062 0423     		movs	r3, #4
 625 0064 2B70     		strb	r3, [r5]
 216:Drivers/BSP/Components/lis2dw12/lis2dw12_reg.c **** 
 626              		.loc 1 216 9 is_stmt 1 view .LVU124
 627 0066 D5E7     		b	.L40
 628              	.L58:
 219:Drivers/BSP/Components/lis2dw12/lis2dw12_reg.c ****         break;
 629              		.loc 1 219 9 view .LVU125
 219:Drivers/BSP/Components/lis2dw12/lis2dw12_reg.c ****         break;
 630              		.loc 1 219 14 is_stmt 0 view .LVU126
 631 0068 0323     		movs	r3, #3
 632 006a 2B70     		strb	r3, [r5]
 220:Drivers/BSP/Components/lis2dw12/lis2dw12_reg.c **** 
 633              		.loc 1 220 9 is_stmt 1 view .LVU127
 634 006c D2E7     		b	.L40
 635              	.L59:
 223:Drivers/BSP/Components/lis2dw12/lis2dw12_reg.c ****         break;
 636              		.loc 1 223 9 view .LVU128
 223:Drivers/BSP/Components/lis2dw12/lis2dw12_reg.c ****         break;
 637              		.loc 1 223 14 is_stmt 0 view .LVU129
 638 006e 0223     		movs	r3, #2
 639 0070 2B70     		strb	r3, [r5]
 224:Drivers/BSP/Components/lis2dw12/lis2dw12_reg.c **** 
 640              		.loc 1 224 9 is_stmt 1 view .LVU130
 641 0072 CFE7     		b	.L40
 642              	.L60:
 227:Drivers/BSP/Components/lis2dw12/lis2dw12_reg.c ****         break;
 643              		.loc 1 227 9 view .LVU131
 227:Drivers/BSP/Components/lis2dw12/lis2dw12_reg.c ****         break;
 644              		.loc 1 227 14 is_stmt 0 view .LVU132
 645 0074 0123     		movs	r3, #1
 646 0076 2B70     		strb	r3, [r5]
 228:Drivers/BSP/Components/lis2dw12/lis2dw12_reg.c **** 
 647              		.loc 1 228 9 is_stmt 1 view .LVU133
 648 0078 CCE7     		b	.L40
 649              	.L61:
 231:Drivers/BSP/Components/lis2dw12/lis2dw12_reg.c ****         break;
 650              		.loc 1 231 9 view .LVU134
 231:Drivers/BSP/Components/lis2dw12/lis2dw12_reg.c ****         break;
 651              		.loc 1 231 14 is_stmt 0 view .LVU135
 652 007a 0023     		movs	r3, #0
 653 007c 2B70     		strb	r3, [r5]
 232:Drivers/BSP/Components/lis2dw12/lis2dw12_reg.c **** 
 654              		.loc 1 232 9 is_stmt 1 view .LVU136
ARM GAS  /tmp/ccEdQILT.s 			page 18


 655 007e C9E7     		b	.L40
 656              	.L53:
 235:Drivers/BSP/Components/lis2dw12/lis2dw12_reg.c ****         break;
 657              		.loc 1 235 9 view .LVU137
 235:Drivers/BSP/Components/lis2dw12/lis2dw12_reg.c ****         break;
 658              		.loc 1 235 14 is_stmt 0 view .LVU138
 659 0080 0B23     		movs	r3, #11
 660 0082 2B70     		strb	r3, [r5]
 236:Drivers/BSP/Components/lis2dw12/lis2dw12_reg.c **** 
 661              		.loc 1 236 9 is_stmt 1 view .LVU139
 662 0084 C6E7     		b	.L40
 663              	.L54:
 239:Drivers/BSP/Components/lis2dw12/lis2dw12_reg.c ****         break;
 664              		.loc 1 239 9 view .LVU140
 239:Drivers/BSP/Components/lis2dw12/lis2dw12_reg.c ****         break;
 665              		.loc 1 239 14 is_stmt 0 view .LVU141
 666 0086 0A23     		movs	r3, #10
 667 0088 2B70     		strb	r3, [r5]
 240:Drivers/BSP/Components/lis2dw12/lis2dw12_reg.c **** 
 668              		.loc 1 240 9 is_stmt 1 view .LVU142
 669 008a C3E7     		b	.L40
 670              	.L55:
 243:Drivers/BSP/Components/lis2dw12/lis2dw12_reg.c ****         break;
 671              		.loc 1 243 9 view .LVU143
 243:Drivers/BSP/Components/lis2dw12/lis2dw12_reg.c ****         break;
 672              		.loc 1 243 14 is_stmt 0 view .LVU144
 673 008c 0923     		movs	r3, #9
 674 008e 2B70     		strb	r3, [r5]
 244:Drivers/BSP/Components/lis2dw12/lis2dw12_reg.c **** 
 675              		.loc 1 244 9 is_stmt 1 view .LVU145
 676 0090 C0E7     		b	.L40
 677              	.L56:
 247:Drivers/BSP/Components/lis2dw12/lis2dw12_reg.c ****         break;
 678              		.loc 1 247 9 view .LVU146
 247:Drivers/BSP/Components/lis2dw12/lis2dw12_reg.c ****         break;
 679              		.loc 1 247 14 is_stmt 0 view .LVU147
 680 0092 0823     		movs	r3, #8
 681 0094 2B70     		strb	r3, [r5]
 248:Drivers/BSP/Components/lis2dw12/lis2dw12_reg.c **** 
 682              		.loc 1 248 9 is_stmt 1 view .LVU148
 683 0096 BDE7     		b	.L40
 684              	.L48:
 251:Drivers/BSP/Components/lis2dw12/lis2dw12_reg.c ****         break;
 685              		.loc 1 251 9 view .LVU149
 251:Drivers/BSP/Components/lis2dw12/lis2dw12_reg.c ****         break;
 686              		.loc 1 251 14 is_stmt 0 view .LVU150
 687 0098 1423     		movs	r3, #20
 688 009a 2B70     		strb	r3, [r5]
 252:Drivers/BSP/Components/lis2dw12/lis2dw12_reg.c **** 
 689              		.loc 1 252 9 is_stmt 1 view .LVU151
 690 009c BAE7     		b	.L40
 691              	.L49:
 255:Drivers/BSP/Components/lis2dw12/lis2dw12_reg.c ****         break;
 692              		.loc 1 255 9 view .LVU152
 255:Drivers/BSP/Components/lis2dw12/lis2dw12_reg.c ****         break;
 693              		.loc 1 255 14 is_stmt 0 view .LVU153
 694 009e 1323     		movs	r3, #19
ARM GAS  /tmp/ccEdQILT.s 			page 19


 695 00a0 2B70     		strb	r3, [r5]
 256:Drivers/BSP/Components/lis2dw12/lis2dw12_reg.c **** 
 696              		.loc 1 256 9 is_stmt 1 view .LVU154
 697 00a2 B7E7     		b	.L40
 698              	.L50:
 259:Drivers/BSP/Components/lis2dw12/lis2dw12_reg.c ****         break;
 699              		.loc 1 259 9 view .LVU155
 259:Drivers/BSP/Components/lis2dw12/lis2dw12_reg.c ****         break;
 700              		.loc 1 259 14 is_stmt 0 view .LVU156
 701 00a4 1223     		movs	r3, #18
 702 00a6 2B70     		strb	r3, [r5]
 260:Drivers/BSP/Components/lis2dw12/lis2dw12_reg.c **** 
 703              		.loc 1 260 9 is_stmt 1 view .LVU157
 704 00a8 B4E7     		b	.L40
 705              	.L51:
 263:Drivers/BSP/Components/lis2dw12/lis2dw12_reg.c ****         break;
 706              		.loc 1 263 9 view .LVU158
 263:Drivers/BSP/Components/lis2dw12/lis2dw12_reg.c ****         break;
 707              		.loc 1 263 14 is_stmt 0 view .LVU159
 708 00aa 1123     		movs	r3, #17
 709 00ac 2B70     		strb	r3, [r5]
 264:Drivers/BSP/Components/lis2dw12/lis2dw12_reg.c **** 
 710              		.loc 1 264 9 is_stmt 1 view .LVU160
 711 00ae B1E7     		b	.L40
 712              	.L52:
 267:Drivers/BSP/Components/lis2dw12/lis2dw12_reg.c ****         break;
 713              		.loc 1 267 9 view .LVU161
 267:Drivers/BSP/Components/lis2dw12/lis2dw12_reg.c ****         break;
 714              		.loc 1 267 14 is_stmt 0 view .LVU162
 715 00b0 1023     		movs	r3, #16
 716 00b2 2B70     		strb	r3, [r5]
 268:Drivers/BSP/Components/lis2dw12/lis2dw12_reg.c **** 
 717              		.loc 1 268 9 is_stmt 1 view .LVU163
 718 00b4 AEE7     		b	.L40
 719              	.L43:
 271:Drivers/BSP/Components/lis2dw12/lis2dw12_reg.c ****         break;
 720              		.loc 1 271 9 view .LVU164
 271:Drivers/BSP/Components/lis2dw12/lis2dw12_reg.c ****         break;
 721              		.loc 1 271 14 is_stmt 0 view .LVU165
 722 00b6 1B23     		movs	r3, #27
 723 00b8 2B70     		strb	r3, [r5]
 272:Drivers/BSP/Components/lis2dw12/lis2dw12_reg.c **** 
 724              		.loc 1 272 9 is_stmt 1 view .LVU166
 725 00ba ABE7     		b	.L40
 726              	.L45:
 275:Drivers/BSP/Components/lis2dw12/lis2dw12_reg.c ****         break;
 727              		.loc 1 275 9 view .LVU167
 275:Drivers/BSP/Components/lis2dw12/lis2dw12_reg.c ****         break;
 728              		.loc 1 275 14 is_stmt 0 view .LVU168
 729 00bc 1A23     		movs	r3, #26
 730 00be 2B70     		strb	r3, [r5]
 276:Drivers/BSP/Components/lis2dw12/lis2dw12_reg.c **** 
 731              		.loc 1 276 9 is_stmt 1 view .LVU169
 732 00c0 A8E7     		b	.L40
 733              	.L46:
 279:Drivers/BSP/Components/lis2dw12/lis2dw12_reg.c ****         break;
 734              		.loc 1 279 9 view .LVU170
ARM GAS  /tmp/ccEdQILT.s 			page 20


 279:Drivers/BSP/Components/lis2dw12/lis2dw12_reg.c ****         break;
 735              		.loc 1 279 14 is_stmt 0 view .LVU171
 736 00c2 1923     		movs	r3, #25
 737 00c4 2B70     		strb	r3, [r5]
 280:Drivers/BSP/Components/lis2dw12/lis2dw12_reg.c **** 
 738              		.loc 1 280 9 is_stmt 1 view .LVU172
 739 00c6 A5E7     		b	.L40
 740              	.L47:
 283:Drivers/BSP/Components/lis2dw12/lis2dw12_reg.c ****         break;
 741              		.loc 1 283 9 view .LVU173
 283:Drivers/BSP/Components/lis2dw12/lis2dw12_reg.c ****         break;
 742              		.loc 1 283 14 is_stmt 0 view .LVU174
 743 00c8 1823     		movs	r3, #24
 744 00ca 2B70     		strb	r3, [r5]
 284:Drivers/BSP/Components/lis2dw12/lis2dw12_reg.c **** 
 745              		.loc 1 284 9 is_stmt 1 view .LVU175
 746 00cc A2E7     		b	.L40
 747              	.L42:
 287:Drivers/BSP/Components/lis2dw12/lis2dw12_reg.c ****         break;
 748              		.loc 1 287 9 view .LVU176
 287:Drivers/BSP/Components/lis2dw12/lis2dw12_reg.c ****         break;
 749              		.loc 1 287 14 is_stmt 0 view .LVU177
 750 00ce 0423     		movs	r3, #4
 751 00d0 2B70     		strb	r3, [r5]
 288:Drivers/BSP/Components/lis2dw12/lis2dw12_reg.c ****     }
 752              		.loc 1 288 9 is_stmt 1 view .LVU178
 292:Drivers/BSP/Components/lis2dw12/lis2dw12_reg.c **** }
 753              		.loc 1 292 3 view .LVU179
 292:Drivers/BSP/Components/lis2dw12/lis2dw12_reg.c **** }
 754              		.loc 1 292 10 is_stmt 0 view .LVU180
 755 00d2 9FE7     		b	.L40
 756              		.cfi_endproc
 757              	.LFE12:
 759              		.section	.text.lis2dw12_data_rate_set,"ax",%progbits
 760              		.align	1
 761              		.global	lis2dw12_data_rate_set
 762              		.syntax unified
 763              		.thumb
 764              		.thumb_func
 765              		.fpu fpv4-sp-d16
 767              	lis2dw12_data_rate_set:
 768              	.LVL33:
 769              	.LFB13:
 294:Drivers/BSP/Components/lis2dw12/lis2dw12_reg.c **** 
 295:Drivers/BSP/Components/lis2dw12/lis2dw12_reg.c **** /**
 296:Drivers/BSP/Components/lis2dw12/lis2dw12_reg.c ****   * @brief  Accelerometer data rate selection.[set]
 297:Drivers/BSP/Components/lis2dw12/lis2dw12_reg.c ****   *
 298:Drivers/BSP/Components/lis2dw12/lis2dw12_reg.c ****   * @param  ctx      read / write interface definitions
 299:Drivers/BSP/Components/lis2dw12/lis2dw12_reg.c ****   * @param  val      change the values of odr in reg CTRL1
 300:Drivers/BSP/Components/lis2dw12/lis2dw12_reg.c ****   * @retval          interface status (MANDATORY: return 0 -> no Error)
 301:Drivers/BSP/Components/lis2dw12/lis2dw12_reg.c ****   *
 302:Drivers/BSP/Components/lis2dw12/lis2dw12_reg.c ****   */
 303:Drivers/BSP/Components/lis2dw12/lis2dw12_reg.c **** int32_t lis2dw12_data_rate_set(stmdev_ctx_t *ctx, lis2dw12_odr_t val)
 304:Drivers/BSP/Components/lis2dw12/lis2dw12_reg.c **** {
 770              		.loc 1 304 1 is_stmt 1 view -0
 771              		.cfi_startproc
 772              		@ args = 0, pretend = 0, frame = 8
ARM GAS  /tmp/ccEdQILT.s 			page 21


 773              		@ frame_needed = 0, uses_anonymous_args = 0
 774              		.loc 1 304 1 is_stmt 0 view .LVU182
 775 0000 30B5     		push	{r4, r5, lr}
 776              	.LCFI10:
 777              		.cfi_def_cfa_offset 12
 778              		.cfi_offset 4, -12
 779              		.cfi_offset 5, -8
 780              		.cfi_offset 14, -4
 781 0002 83B0     		sub	sp, sp, #12
 782              	.LCFI11:
 783              		.cfi_def_cfa_offset 24
 784 0004 0546     		mov	r5, r0
 785 0006 0C46     		mov	r4, r1
 305:Drivers/BSP/Components/lis2dw12/lis2dw12_reg.c ****   lis2dw12_ctrl1_t ctrl1;
 786              		.loc 1 305 3 is_stmt 1 view .LVU183
 306:Drivers/BSP/Components/lis2dw12/lis2dw12_reg.c ****   lis2dw12_ctrl3_t ctrl3;
 787              		.loc 1 306 3 view .LVU184
 307:Drivers/BSP/Components/lis2dw12/lis2dw12_reg.c ****   int32_t ret;
 788              		.loc 1 307 3 view .LVU185
 308:Drivers/BSP/Components/lis2dw12/lis2dw12_reg.c **** 
 309:Drivers/BSP/Components/lis2dw12/lis2dw12_reg.c ****   ret = lis2dw12_read_reg(ctx, LIS2DW12_CTRL1, (uint8_t *) &ctrl1, 1);
 789              		.loc 1 309 3 view .LVU186
 790              		.loc 1 309 9 is_stmt 0 view .LVU187
 791 0008 0123     		movs	r3, #1
 792 000a 01AA     		add	r2, sp, #4
 793 000c 2021     		movs	r1, #32
 794              	.LVL34:
 795              		.loc 1 309 9 view .LVU188
 796 000e FFF7FEFF 		bl	lis2dw12_read_reg
 797              	.LVL35:
 310:Drivers/BSP/Components/lis2dw12/lis2dw12_reg.c **** 
 311:Drivers/BSP/Components/lis2dw12/lis2dw12_reg.c ****   if (ret == 0)
 798              		.loc 1 311 3 is_stmt 1 view .LVU189
 799              		.loc 1 311 6 is_stmt 0 view .LVU190
 800 0012 18B1     		cbz	r0, .L69
 801              	.LVL36:
 802              	.L65:
 312:Drivers/BSP/Components/lis2dw12/lis2dw12_reg.c ****   {
 313:Drivers/BSP/Components/lis2dw12/lis2dw12_reg.c ****     ctrl1.odr = (uint8_t) val;
 314:Drivers/BSP/Components/lis2dw12/lis2dw12_reg.c ****     ret = lis2dw12_write_reg(ctx, LIS2DW12_CTRL1, (uint8_t *) &ctrl1, 1);
 315:Drivers/BSP/Components/lis2dw12/lis2dw12_reg.c ****   }
 316:Drivers/BSP/Components/lis2dw12/lis2dw12_reg.c **** 
 317:Drivers/BSP/Components/lis2dw12/lis2dw12_reg.c ****   if (ret == 0)
 803              		.loc 1 317 3 is_stmt 1 view .LVU191
 804              		.loc 1 317 6 is_stmt 0 view .LVU192
 805 0014 78B1     		cbz	r0, .L70
 806              	.L66:
 318:Drivers/BSP/Components/lis2dw12/lis2dw12_reg.c ****   {
 319:Drivers/BSP/Components/lis2dw12/lis2dw12_reg.c ****     ret = lis2dw12_read_reg(ctx, LIS2DW12_CTRL3, (uint8_t *) &ctrl3, 1);
 320:Drivers/BSP/Components/lis2dw12/lis2dw12_reg.c ****   }
 321:Drivers/BSP/Components/lis2dw12/lis2dw12_reg.c **** 
 322:Drivers/BSP/Components/lis2dw12/lis2dw12_reg.c ****   if (ret == 0)
 807              		.loc 1 322 3 is_stmt 1 view .LVU193
 808              		.loc 1 322 6 is_stmt 0 view .LVU194
 809 0016 A8B1     		cbz	r0, .L71
 810              	.L64:
 323:Drivers/BSP/Components/lis2dw12/lis2dw12_reg.c ****   {
ARM GAS  /tmp/ccEdQILT.s 			page 22


 324:Drivers/BSP/Components/lis2dw12/lis2dw12_reg.c ****     ctrl3.slp_mode = ((uint8_t) val & 0x30U) >> 4;
 325:Drivers/BSP/Components/lis2dw12/lis2dw12_reg.c ****     ret = lis2dw12_write_reg(ctx, LIS2DW12_CTRL3, (uint8_t *) &ctrl3, 1);
 326:Drivers/BSP/Components/lis2dw12/lis2dw12_reg.c ****   }
 327:Drivers/BSP/Components/lis2dw12/lis2dw12_reg.c **** 
 328:Drivers/BSP/Components/lis2dw12/lis2dw12_reg.c ****   return ret;
 329:Drivers/BSP/Components/lis2dw12/lis2dw12_reg.c **** }
 811              		.loc 1 329 1 view .LVU195
 812 0018 03B0     		add	sp, sp, #12
 813              	.LCFI12:
 814              		.cfi_remember_state
 815              		.cfi_def_cfa_offset 12
 816              		@ sp needed
 817 001a 30BD     		pop	{r4, r5, pc}
 818              	.LVL37:
 819              	.L69:
 820              	.LCFI13:
 821              		.cfi_restore_state
 313:Drivers/BSP/Components/lis2dw12/lis2dw12_reg.c ****     ret = lis2dw12_write_reg(ctx, LIS2DW12_CTRL1, (uint8_t *) &ctrl1, 1);
 822              		.loc 1 313 5 is_stmt 1 view .LVU196
 313:Drivers/BSP/Components/lis2dw12/lis2dw12_reg.c ****     ret = lis2dw12_write_reg(ctx, LIS2DW12_CTRL1, (uint8_t *) &ctrl1, 1);
 823              		.loc 1 313 15 is_stmt 0 view .LVU197
 824 001c 9DF80430 		ldrb	r3, [sp, #4]	@ zero_extendqisi2
 825 0020 64F30713 		bfi	r3, r4, #4, #4
 826 0024 8DF80430 		strb	r3, [sp, #4]
 314:Drivers/BSP/Components/lis2dw12/lis2dw12_reg.c ****   }
 827              		.loc 1 314 5 is_stmt 1 view .LVU198
 314:Drivers/BSP/Components/lis2dw12/lis2dw12_reg.c ****   }
 828              		.loc 1 314 11 is_stmt 0 view .LVU199
 829 0028 0123     		movs	r3, #1
 830              	.LVL38:
 314:Drivers/BSP/Components/lis2dw12/lis2dw12_reg.c ****   }
 831              		.loc 1 314 11 view .LVU200
 832 002a 01AA     		add	r2, sp, #4
 833 002c 2021     		movs	r1, #32
 834 002e 2846     		mov	r0, r5
 835 0030 FFF7FEFF 		bl	lis2dw12_write_reg
 836              	.LVL39:
 314:Drivers/BSP/Components/lis2dw12/lis2dw12_reg.c ****   }
 837              		.loc 1 314 11 view .LVU201
 838 0034 EEE7     		b	.L65
 839              	.L70:
 319:Drivers/BSP/Components/lis2dw12/lis2dw12_reg.c ****   }
 840              		.loc 1 319 5 is_stmt 1 view .LVU202
 319:Drivers/BSP/Components/lis2dw12/lis2dw12_reg.c ****   }
 841              		.loc 1 319 11 is_stmt 0 view .LVU203
 842 0036 0123     		movs	r3, #1
 843 0038 6A46     		mov	r2, sp
 844 003a 2221     		movs	r1, #34
 845 003c 2846     		mov	r0, r5
 846              	.LVL40:
 319:Drivers/BSP/Components/lis2dw12/lis2dw12_reg.c ****   }
 847              		.loc 1 319 11 view .LVU204
 848 003e FFF7FEFF 		bl	lis2dw12_read_reg
 849              	.LVL41:
 319:Drivers/BSP/Components/lis2dw12/lis2dw12_reg.c ****   }
 850              		.loc 1 319 11 view .LVU205
 851 0042 E8E7     		b	.L66
ARM GAS  /tmp/ccEdQILT.s 			page 23


 852              	.L71:
 324:Drivers/BSP/Components/lis2dw12/lis2dw12_reg.c ****     ret = lis2dw12_write_reg(ctx, LIS2DW12_CTRL3, (uint8_t *) &ctrl3, 1);
 853              		.loc 1 324 5 is_stmt 1 view .LVU206
 324:Drivers/BSP/Components/lis2dw12/lis2dw12_reg.c ****     ret = lis2dw12_write_reg(ctx, LIS2DW12_CTRL3, (uint8_t *) &ctrl3, 1);
 854              		.loc 1 324 46 is_stmt 0 view .LVU207
 855 0044 C4F30111 		ubfx	r1, r4, #4, #2
 324:Drivers/BSP/Components/lis2dw12/lis2dw12_reg.c ****     ret = lis2dw12_write_reg(ctx, LIS2DW12_CTRL3, (uint8_t *) &ctrl3, 1);
 856              		.loc 1 324 20 view .LVU208
 857 0048 9DF80030 		ldrb	r3, [sp]	@ zero_extendqisi2
 858 004c 61F30103 		bfi	r3, r1, #0, #2
 859 0050 8DF80030 		strb	r3, [sp]
 325:Drivers/BSP/Components/lis2dw12/lis2dw12_reg.c ****   }
 860              		.loc 1 325 5 is_stmt 1 view .LVU209
 325:Drivers/BSP/Components/lis2dw12/lis2dw12_reg.c ****   }
 861              		.loc 1 325 11 is_stmt 0 view .LVU210
 862 0054 0123     		movs	r3, #1
 863 0056 6A46     		mov	r2, sp
 864 0058 2221     		movs	r1, #34
 865 005a 2846     		mov	r0, r5
 866              	.LVL42:
 325:Drivers/BSP/Components/lis2dw12/lis2dw12_reg.c ****   }
 867              		.loc 1 325 11 view .LVU211
 868 005c FFF7FEFF 		bl	lis2dw12_write_reg
 869              	.LVL43:
 328:Drivers/BSP/Components/lis2dw12/lis2dw12_reg.c **** }
 870              		.loc 1 328 3 is_stmt 1 view .LVU212
 328:Drivers/BSP/Components/lis2dw12/lis2dw12_reg.c **** }
 871              		.loc 1 328 10 is_stmt 0 view .LVU213
 872 0060 DAE7     		b	.L64
 873              		.cfi_endproc
 874              	.LFE13:
 876              		.section	.text.lis2dw12_data_rate_get,"ax",%progbits
 877              		.align	1
 878              		.global	lis2dw12_data_rate_get
 879              		.syntax unified
 880              		.thumb
 881              		.thumb_func
 882              		.fpu fpv4-sp-d16
 884              	lis2dw12_data_rate_get:
 885              	.LVL44:
 886              	.LFB14:
 330:Drivers/BSP/Components/lis2dw12/lis2dw12_reg.c **** 
 331:Drivers/BSP/Components/lis2dw12/lis2dw12_reg.c **** /**
 332:Drivers/BSP/Components/lis2dw12/lis2dw12_reg.c ****   * @brief  Accelerometer data rate selection.[get]
 333:Drivers/BSP/Components/lis2dw12/lis2dw12_reg.c ****   *
 334:Drivers/BSP/Components/lis2dw12/lis2dw12_reg.c ****   * @param  ctx      read / write interface definitions
 335:Drivers/BSP/Components/lis2dw12/lis2dw12_reg.c ****   * @param  val      Get the values of odr in reg CTRL1
 336:Drivers/BSP/Components/lis2dw12/lis2dw12_reg.c ****   * @retval          interface status (MANDATORY: return 0 -> no Error)
 337:Drivers/BSP/Components/lis2dw12/lis2dw12_reg.c ****   *
 338:Drivers/BSP/Components/lis2dw12/lis2dw12_reg.c ****   */
 339:Drivers/BSP/Components/lis2dw12/lis2dw12_reg.c **** int32_t lis2dw12_data_rate_get(stmdev_ctx_t *ctx, lis2dw12_odr_t *val)
 340:Drivers/BSP/Components/lis2dw12/lis2dw12_reg.c **** {
 887              		.loc 1 340 1 is_stmt 1 view -0
 888              		.cfi_startproc
 889              		@ args = 0, pretend = 0, frame = 8
 890              		@ frame_needed = 0, uses_anonymous_args = 0
 891              		.loc 1 340 1 is_stmt 0 view .LVU215
ARM GAS  /tmp/ccEdQILT.s 			page 24


 892 0000 30B5     		push	{r4, r5, lr}
 893              	.LCFI14:
 894              		.cfi_def_cfa_offset 12
 895              		.cfi_offset 4, -12
 896              		.cfi_offset 5, -8
 897              		.cfi_offset 14, -4
 898 0002 83B0     		sub	sp, sp, #12
 899              	.LCFI15:
 900              		.cfi_def_cfa_offset 24
 901 0004 0446     		mov	r4, r0
 902 0006 0D46     		mov	r5, r1
 341:Drivers/BSP/Components/lis2dw12/lis2dw12_reg.c ****   lis2dw12_ctrl1_t ctrl1;
 903              		.loc 1 341 3 is_stmt 1 view .LVU216
 342:Drivers/BSP/Components/lis2dw12/lis2dw12_reg.c ****   lis2dw12_ctrl3_t ctrl3;
 904              		.loc 1 342 3 view .LVU217
 343:Drivers/BSP/Components/lis2dw12/lis2dw12_reg.c ****   int32_t ret;
 905              		.loc 1 343 3 view .LVU218
 344:Drivers/BSP/Components/lis2dw12/lis2dw12_reg.c **** 
 345:Drivers/BSP/Components/lis2dw12/lis2dw12_reg.c ****   ret = lis2dw12_read_reg(ctx, LIS2DW12_CTRL1, (uint8_t *) &ctrl1, 1);
 906              		.loc 1 345 3 view .LVU219
 907              		.loc 1 345 9 is_stmt 0 view .LVU220
 908 0008 0123     		movs	r3, #1
 909 000a 01AA     		add	r2, sp, #4
 910 000c 2021     		movs	r1, #32
 911              	.LVL45:
 912              		.loc 1 345 9 view .LVU221
 913 000e FFF7FEFF 		bl	lis2dw12_read_reg
 914              	.LVL46:
 346:Drivers/BSP/Components/lis2dw12/lis2dw12_reg.c **** 
 347:Drivers/BSP/Components/lis2dw12/lis2dw12_reg.c ****   if (ret == 0)
 915              		.loc 1 347 3 is_stmt 1 view .LVU222
 916              		.loc 1 347 6 is_stmt 0 view .LVU223
 917 0012 08B1     		cbz	r0, .L89
 918              	.LVL47:
 919              	.L72:
 348:Drivers/BSP/Components/lis2dw12/lis2dw12_reg.c ****   {
 349:Drivers/BSP/Components/lis2dw12/lis2dw12_reg.c ****     ret = lis2dw12_read_reg(ctx, LIS2DW12_CTRL3, (uint8_t *) &ctrl3, 1);
 350:Drivers/BSP/Components/lis2dw12/lis2dw12_reg.c **** 
 351:Drivers/BSP/Components/lis2dw12/lis2dw12_reg.c ****     switch ((ctrl3.slp_mode << 4) + ctrl1.odr)
 352:Drivers/BSP/Components/lis2dw12/lis2dw12_reg.c ****     {
 353:Drivers/BSP/Components/lis2dw12/lis2dw12_reg.c ****       case LIS2DW12_XL_ODR_OFF:
 354:Drivers/BSP/Components/lis2dw12/lis2dw12_reg.c ****         *val = LIS2DW12_XL_ODR_OFF;
 355:Drivers/BSP/Components/lis2dw12/lis2dw12_reg.c ****         break;
 356:Drivers/BSP/Components/lis2dw12/lis2dw12_reg.c **** 
 357:Drivers/BSP/Components/lis2dw12/lis2dw12_reg.c ****       case LIS2DW12_XL_ODR_1Hz6_LP_ONLY:
 358:Drivers/BSP/Components/lis2dw12/lis2dw12_reg.c ****         *val = LIS2DW12_XL_ODR_1Hz6_LP_ONLY;
 359:Drivers/BSP/Components/lis2dw12/lis2dw12_reg.c ****         break;
 360:Drivers/BSP/Components/lis2dw12/lis2dw12_reg.c **** 
 361:Drivers/BSP/Components/lis2dw12/lis2dw12_reg.c ****       case LIS2DW12_XL_ODR_12Hz5:
 362:Drivers/BSP/Components/lis2dw12/lis2dw12_reg.c ****         *val = LIS2DW12_XL_ODR_12Hz5;
 363:Drivers/BSP/Components/lis2dw12/lis2dw12_reg.c ****         break;
 364:Drivers/BSP/Components/lis2dw12/lis2dw12_reg.c **** 
 365:Drivers/BSP/Components/lis2dw12/lis2dw12_reg.c ****       case LIS2DW12_XL_ODR_25Hz:
 366:Drivers/BSP/Components/lis2dw12/lis2dw12_reg.c ****         *val = LIS2DW12_XL_ODR_25Hz;
 367:Drivers/BSP/Components/lis2dw12/lis2dw12_reg.c ****         break;
 368:Drivers/BSP/Components/lis2dw12/lis2dw12_reg.c **** 
 369:Drivers/BSP/Components/lis2dw12/lis2dw12_reg.c ****       case LIS2DW12_XL_ODR_50Hz:
ARM GAS  /tmp/ccEdQILT.s 			page 25


 370:Drivers/BSP/Components/lis2dw12/lis2dw12_reg.c ****         *val = LIS2DW12_XL_ODR_50Hz;
 371:Drivers/BSP/Components/lis2dw12/lis2dw12_reg.c ****         break;
 372:Drivers/BSP/Components/lis2dw12/lis2dw12_reg.c **** 
 373:Drivers/BSP/Components/lis2dw12/lis2dw12_reg.c ****       case LIS2DW12_XL_ODR_100Hz:
 374:Drivers/BSP/Components/lis2dw12/lis2dw12_reg.c ****         *val = LIS2DW12_XL_ODR_100Hz;
 375:Drivers/BSP/Components/lis2dw12/lis2dw12_reg.c ****         break;
 376:Drivers/BSP/Components/lis2dw12/lis2dw12_reg.c **** 
 377:Drivers/BSP/Components/lis2dw12/lis2dw12_reg.c ****       case LIS2DW12_XL_ODR_200Hz:
 378:Drivers/BSP/Components/lis2dw12/lis2dw12_reg.c ****         *val = LIS2DW12_XL_ODR_200Hz;
 379:Drivers/BSP/Components/lis2dw12/lis2dw12_reg.c ****         break;
 380:Drivers/BSP/Components/lis2dw12/lis2dw12_reg.c **** 
 381:Drivers/BSP/Components/lis2dw12/lis2dw12_reg.c ****       case LIS2DW12_XL_ODR_400Hz:
 382:Drivers/BSP/Components/lis2dw12/lis2dw12_reg.c ****         *val = LIS2DW12_XL_ODR_400Hz;
 383:Drivers/BSP/Components/lis2dw12/lis2dw12_reg.c ****         break;
 384:Drivers/BSP/Components/lis2dw12/lis2dw12_reg.c **** 
 385:Drivers/BSP/Components/lis2dw12/lis2dw12_reg.c ****       case LIS2DW12_XL_ODR_800Hz:
 386:Drivers/BSP/Components/lis2dw12/lis2dw12_reg.c ****         *val = LIS2DW12_XL_ODR_800Hz;
 387:Drivers/BSP/Components/lis2dw12/lis2dw12_reg.c ****         break;
 388:Drivers/BSP/Components/lis2dw12/lis2dw12_reg.c **** 
 389:Drivers/BSP/Components/lis2dw12/lis2dw12_reg.c ****       case LIS2DW12_XL_ODR_1k6Hz:
 390:Drivers/BSP/Components/lis2dw12/lis2dw12_reg.c ****         *val = LIS2DW12_XL_ODR_1k6Hz;
 391:Drivers/BSP/Components/lis2dw12/lis2dw12_reg.c ****         break;
 392:Drivers/BSP/Components/lis2dw12/lis2dw12_reg.c **** 
 393:Drivers/BSP/Components/lis2dw12/lis2dw12_reg.c ****       case LIS2DW12_XL_SET_SW_TRIG:
 394:Drivers/BSP/Components/lis2dw12/lis2dw12_reg.c ****         *val = LIS2DW12_XL_SET_SW_TRIG;
 395:Drivers/BSP/Components/lis2dw12/lis2dw12_reg.c ****         break;
 396:Drivers/BSP/Components/lis2dw12/lis2dw12_reg.c **** 
 397:Drivers/BSP/Components/lis2dw12/lis2dw12_reg.c ****       case LIS2DW12_XL_SET_PIN_TRIG:
 398:Drivers/BSP/Components/lis2dw12/lis2dw12_reg.c ****         *val = LIS2DW12_XL_SET_PIN_TRIG;
 399:Drivers/BSP/Components/lis2dw12/lis2dw12_reg.c ****         break;
 400:Drivers/BSP/Components/lis2dw12/lis2dw12_reg.c **** 
 401:Drivers/BSP/Components/lis2dw12/lis2dw12_reg.c ****       default:
 402:Drivers/BSP/Components/lis2dw12/lis2dw12_reg.c ****         *val = LIS2DW12_XL_ODR_OFF;
 403:Drivers/BSP/Components/lis2dw12/lis2dw12_reg.c ****         break;
 404:Drivers/BSP/Components/lis2dw12/lis2dw12_reg.c ****     }
 405:Drivers/BSP/Components/lis2dw12/lis2dw12_reg.c ****   }
 406:Drivers/BSP/Components/lis2dw12/lis2dw12_reg.c **** 
 407:Drivers/BSP/Components/lis2dw12/lis2dw12_reg.c ****   return ret;
 408:Drivers/BSP/Components/lis2dw12/lis2dw12_reg.c **** }
 920              		.loc 1 408 1 view .LVU224
 921 0014 03B0     		add	sp, sp, #12
 922              	.LCFI16:
 923              		.cfi_remember_state
 924              		.cfi_def_cfa_offset 12
 925              		@ sp needed
 926 0016 30BD     		pop	{r4, r5, pc}
 927              	.LVL48:
 928              	.L89:
 929              	.LCFI17:
 930              		.cfi_restore_state
 349:Drivers/BSP/Components/lis2dw12/lis2dw12_reg.c **** 
 931              		.loc 1 349 5 is_stmt 1 view .LVU225
 349:Drivers/BSP/Components/lis2dw12/lis2dw12_reg.c **** 
 932              		.loc 1 349 11 is_stmt 0 view .LVU226
 933 0018 0123     		movs	r3, #1
 934              	.LVL49:
 349:Drivers/BSP/Components/lis2dw12/lis2dw12_reg.c **** 
ARM GAS  /tmp/ccEdQILT.s 			page 26


 935              		.loc 1 349 11 view .LVU227
 936 001a 6A46     		mov	r2, sp
 937 001c 2221     		movs	r1, #34
 938 001e 2046     		mov	r0, r4
 939 0020 FFF7FEFF 		bl	lis2dw12_read_reg
 940              	.LVL50:
 351:Drivers/BSP/Components/lis2dw12/lis2dw12_reg.c ****     {
 941              		.loc 1 351 5 is_stmt 1 view .LVU228
 351:Drivers/BSP/Components/lis2dw12/lis2dw12_reg.c ****     {
 942              		.loc 1 351 19 is_stmt 0 view .LVU229
 943 0024 9DF80030 		ldrb	r3, [sp]	@ zero_extendqisi2
 944 0028 03F00302 		and	r2, r3, #3
 351:Drivers/BSP/Components/lis2dw12/lis2dw12_reg.c ****     {
 945              		.loc 1 351 42 view .LVU230
 946 002c 9DF80430 		ldrb	r3, [sp, #4]	@ zero_extendqisi2
 947 0030 1B09     		lsrs	r3, r3, #4
 351:Drivers/BSP/Components/lis2dw12/lis2dw12_reg.c ****     {
 948              		.loc 1 351 35 view .LVU231
 949 0032 03EB0213 		add	r3, r3, r2, lsl #4
 351:Drivers/BSP/Components/lis2dw12/lis2dw12_reg.c ****     {
 950              		.loc 1 351 5 view .LVU232
 951 0036 322B     		cmp	r3, #50
 952 0038 3FD8     		bhi	.L74
 953 003a DFE803F0 		tbb	[pc, r3]
 954              	.L76:
 955 003e 1A       		.byte	(.L87-.L76)/2
 956 003f 1D       		.byte	(.L86-.L76)/2
 957 0040 20       		.byte	(.L85-.L76)/2
 958 0041 23       		.byte	(.L84-.L76)/2
 959 0042 26       		.byte	(.L83-.L76)/2
 960 0043 29       		.byte	(.L82-.L76)/2
 961 0044 2C       		.byte	(.L81-.L76)/2
 962 0045 2F       		.byte	(.L80-.L76)/2
 963 0046 32       		.byte	(.L79-.L76)/2
 964 0047 35       		.byte	(.L78-.L76)/2
 965 0048 3E       		.byte	(.L74-.L76)/2
 966 0049 3E       		.byte	(.L74-.L76)/2
 967 004a 3E       		.byte	(.L74-.L76)/2
 968 004b 3E       		.byte	(.L74-.L76)/2
 969 004c 3E       		.byte	(.L74-.L76)/2
 970 004d 3E       		.byte	(.L74-.L76)/2
 971 004e 3E       		.byte	(.L74-.L76)/2
 972 004f 3E       		.byte	(.L74-.L76)/2
 973 0050 3B       		.byte	(.L77-.L76)/2
 974 0051 3E       		.byte	(.L74-.L76)/2
 975 0052 3E       		.byte	(.L74-.L76)/2
 976 0053 3E       		.byte	(.L74-.L76)/2
 977 0054 3E       		.byte	(.L74-.L76)/2
 978 0055 3E       		.byte	(.L74-.L76)/2
 979 0056 3E       		.byte	(.L74-.L76)/2
 980 0057 3E       		.byte	(.L74-.L76)/2
 981 0058 3E       		.byte	(.L74-.L76)/2
 982 0059 3E       		.byte	(.L74-.L76)/2
 983 005a 3E       		.byte	(.L74-.L76)/2
 984 005b 3E       		.byte	(.L74-.L76)/2
 985 005c 3E       		.byte	(.L74-.L76)/2
 986 005d 3E       		.byte	(.L74-.L76)/2
ARM GAS  /tmp/ccEdQILT.s 			page 27


 987 005e 3E       		.byte	(.L74-.L76)/2
 988 005f 3E       		.byte	(.L74-.L76)/2
 989 0060 3E       		.byte	(.L74-.L76)/2
 990 0061 3E       		.byte	(.L74-.L76)/2
 991 0062 3E       		.byte	(.L74-.L76)/2
 992 0063 3E       		.byte	(.L74-.L76)/2
 993 0064 3E       		.byte	(.L74-.L76)/2
 994 0065 3E       		.byte	(.L74-.L76)/2
 995 0066 3E       		.byte	(.L74-.L76)/2
 996 0067 3E       		.byte	(.L74-.L76)/2
 997 0068 3E       		.byte	(.L74-.L76)/2
 998 0069 3E       		.byte	(.L74-.L76)/2
 999 006a 3E       		.byte	(.L74-.L76)/2
 1000 006b 3E       		.byte	(.L74-.L76)/2
 1001 006c 3E       		.byte	(.L74-.L76)/2
 1002 006d 3E       		.byte	(.L74-.L76)/2
 1003 006e 3E       		.byte	(.L74-.L76)/2
 1004 006f 3E       		.byte	(.L74-.L76)/2
 1005 0070 38       		.byte	(.L75-.L76)/2
 1006 0071 00       		.p2align 1
 1007              	.L87:
 354:Drivers/BSP/Components/lis2dw12/lis2dw12_reg.c ****         break;
 1008              		.loc 1 354 9 is_stmt 1 view .LVU233
 354:Drivers/BSP/Components/lis2dw12/lis2dw12_reg.c ****         break;
 1009              		.loc 1 354 14 is_stmt 0 view .LVU234
 1010 0072 0023     		movs	r3, #0
 1011 0074 2B70     		strb	r3, [r5]
 355:Drivers/BSP/Components/lis2dw12/lis2dw12_reg.c **** 
 1012              		.loc 1 355 9 is_stmt 1 view .LVU235
 1013 0076 CDE7     		b	.L72
 1014              	.L86:
 358:Drivers/BSP/Components/lis2dw12/lis2dw12_reg.c ****         break;
 1015              		.loc 1 358 9 view .LVU236
 358:Drivers/BSP/Components/lis2dw12/lis2dw12_reg.c ****         break;
 1016              		.loc 1 358 14 is_stmt 0 view .LVU237
 1017 0078 0123     		movs	r3, #1
 1018 007a 2B70     		strb	r3, [r5]
 359:Drivers/BSP/Components/lis2dw12/lis2dw12_reg.c **** 
 1019              		.loc 1 359 9 is_stmt 1 view .LVU238
 1020 007c CAE7     		b	.L72
 1021              	.L85:
 362:Drivers/BSP/Components/lis2dw12/lis2dw12_reg.c ****         break;
 1022              		.loc 1 362 9 view .LVU239
 362:Drivers/BSP/Components/lis2dw12/lis2dw12_reg.c ****         break;
 1023              		.loc 1 362 14 is_stmt 0 view .LVU240
 1024 007e 0223     		movs	r3, #2
 1025 0080 2B70     		strb	r3, [r5]
 363:Drivers/BSP/Components/lis2dw12/lis2dw12_reg.c **** 
 1026              		.loc 1 363 9 is_stmt 1 view .LVU241
 1027 0082 C7E7     		b	.L72
 1028              	.L84:
 366:Drivers/BSP/Components/lis2dw12/lis2dw12_reg.c ****         break;
 1029              		.loc 1 366 9 view .LVU242
 366:Drivers/BSP/Components/lis2dw12/lis2dw12_reg.c ****         break;
 1030              		.loc 1 366 14 is_stmt 0 view .LVU243
 1031 0084 0323     		movs	r3, #3
 1032 0086 2B70     		strb	r3, [r5]
ARM GAS  /tmp/ccEdQILT.s 			page 28


 367:Drivers/BSP/Components/lis2dw12/lis2dw12_reg.c **** 
 1033              		.loc 1 367 9 is_stmt 1 view .LVU244
 1034 0088 C4E7     		b	.L72
 1035              	.L83:
 370:Drivers/BSP/Components/lis2dw12/lis2dw12_reg.c ****         break;
 1036              		.loc 1 370 9 view .LVU245
 370:Drivers/BSP/Components/lis2dw12/lis2dw12_reg.c ****         break;
 1037              		.loc 1 370 14 is_stmt 0 view .LVU246
 1038 008a 0423     		movs	r3, #4
 1039 008c 2B70     		strb	r3, [r5]
 371:Drivers/BSP/Components/lis2dw12/lis2dw12_reg.c **** 
 1040              		.loc 1 371 9 is_stmt 1 view .LVU247
 1041 008e C1E7     		b	.L72
 1042              	.L82:
 374:Drivers/BSP/Components/lis2dw12/lis2dw12_reg.c ****         break;
 1043              		.loc 1 374 9 view .LVU248
 374:Drivers/BSP/Components/lis2dw12/lis2dw12_reg.c ****         break;
 1044              		.loc 1 374 14 is_stmt 0 view .LVU249
 1045 0090 0523     		movs	r3, #5
 1046 0092 2B70     		strb	r3, [r5]
 375:Drivers/BSP/Components/lis2dw12/lis2dw12_reg.c **** 
 1047              		.loc 1 375 9 is_stmt 1 view .LVU250
 1048 0094 BEE7     		b	.L72
 1049              	.L81:
 378:Drivers/BSP/Components/lis2dw12/lis2dw12_reg.c ****         break;
 1050              		.loc 1 378 9 view .LVU251
 378:Drivers/BSP/Components/lis2dw12/lis2dw12_reg.c ****         break;
 1051              		.loc 1 378 14 is_stmt 0 view .LVU252
 1052 0096 0623     		movs	r3, #6
 1053 0098 2B70     		strb	r3, [r5]
 379:Drivers/BSP/Components/lis2dw12/lis2dw12_reg.c **** 
 1054              		.loc 1 379 9 is_stmt 1 view .LVU253
 1055 009a BBE7     		b	.L72
 1056              	.L80:
 382:Drivers/BSP/Components/lis2dw12/lis2dw12_reg.c ****         break;
 1057              		.loc 1 382 9 view .LVU254
 382:Drivers/BSP/Components/lis2dw12/lis2dw12_reg.c ****         break;
 1058              		.loc 1 382 14 is_stmt 0 view .LVU255
 1059 009c 0723     		movs	r3, #7
 1060 009e 2B70     		strb	r3, [r5]
 383:Drivers/BSP/Components/lis2dw12/lis2dw12_reg.c **** 
 1061              		.loc 1 383 9 is_stmt 1 view .LVU256
 1062 00a0 B8E7     		b	.L72
 1063              	.L79:
 386:Drivers/BSP/Components/lis2dw12/lis2dw12_reg.c ****         break;
 1064              		.loc 1 386 9 view .LVU257
 386:Drivers/BSP/Components/lis2dw12/lis2dw12_reg.c ****         break;
 1065              		.loc 1 386 14 is_stmt 0 view .LVU258
 1066 00a2 0823     		movs	r3, #8
 1067 00a4 2B70     		strb	r3, [r5]
 387:Drivers/BSP/Components/lis2dw12/lis2dw12_reg.c **** 
 1068              		.loc 1 387 9 is_stmt 1 view .LVU259
 1069 00a6 B5E7     		b	.L72
 1070              	.L78:
 390:Drivers/BSP/Components/lis2dw12/lis2dw12_reg.c ****         break;
 1071              		.loc 1 390 9 view .LVU260
 390:Drivers/BSP/Components/lis2dw12/lis2dw12_reg.c ****         break;
ARM GAS  /tmp/ccEdQILT.s 			page 29


 1072              		.loc 1 390 14 is_stmt 0 view .LVU261
 1073 00a8 0923     		movs	r3, #9
 1074 00aa 2B70     		strb	r3, [r5]
 391:Drivers/BSP/Components/lis2dw12/lis2dw12_reg.c **** 
 1075              		.loc 1 391 9 is_stmt 1 view .LVU262
 1076 00ac B2E7     		b	.L72
 1077              	.L75:
 394:Drivers/BSP/Components/lis2dw12/lis2dw12_reg.c ****         break;
 1078              		.loc 1 394 9 view .LVU263
 394:Drivers/BSP/Components/lis2dw12/lis2dw12_reg.c ****         break;
 1079              		.loc 1 394 14 is_stmt 0 view .LVU264
 1080 00ae 3223     		movs	r3, #50
 1081 00b0 2B70     		strb	r3, [r5]
 395:Drivers/BSP/Components/lis2dw12/lis2dw12_reg.c **** 
 1082              		.loc 1 395 9 is_stmt 1 view .LVU265
 1083 00b2 AFE7     		b	.L72
 1084              	.L77:
 398:Drivers/BSP/Components/lis2dw12/lis2dw12_reg.c ****         break;
 1085              		.loc 1 398 9 view .LVU266
 398:Drivers/BSP/Components/lis2dw12/lis2dw12_reg.c ****         break;
 1086              		.loc 1 398 14 is_stmt 0 view .LVU267
 1087 00b4 1223     		movs	r3, #18
 1088 00b6 2B70     		strb	r3, [r5]
 399:Drivers/BSP/Components/lis2dw12/lis2dw12_reg.c **** 
 1089              		.loc 1 399 9 is_stmt 1 view .LVU268
 1090 00b8 ACE7     		b	.L72
 1091              	.L74:
 402:Drivers/BSP/Components/lis2dw12/lis2dw12_reg.c ****         break;
 1092              		.loc 1 402 9 view .LVU269
 402:Drivers/BSP/Components/lis2dw12/lis2dw12_reg.c ****         break;
 1093              		.loc 1 402 14 is_stmt 0 view .LVU270
 1094 00ba 0023     		movs	r3, #0
 1095 00bc 2B70     		strb	r3, [r5]
 403:Drivers/BSP/Components/lis2dw12/lis2dw12_reg.c ****     }
 1096              		.loc 1 403 9 is_stmt 1 view .LVU271
 407:Drivers/BSP/Components/lis2dw12/lis2dw12_reg.c **** }
 1097              		.loc 1 407 3 view .LVU272
 407:Drivers/BSP/Components/lis2dw12/lis2dw12_reg.c **** }
 1098              		.loc 1 407 10 is_stmt 0 view .LVU273
 1099 00be A9E7     		b	.L72
 1100              		.cfi_endproc
 1101              	.LFE14:
 1103              		.section	.text.lis2dw12_block_data_update_set,"ax",%progbits
 1104              		.align	1
 1105              		.global	lis2dw12_block_data_update_set
 1106              		.syntax unified
 1107              		.thumb
 1108              		.thumb_func
 1109              		.fpu fpv4-sp-d16
 1111              	lis2dw12_block_data_update_set:
 1112              	.LVL51:
 1113              	.LFB15:
 409:Drivers/BSP/Components/lis2dw12/lis2dw12_reg.c **** 
 410:Drivers/BSP/Components/lis2dw12/lis2dw12_reg.c **** /**
 411:Drivers/BSP/Components/lis2dw12/lis2dw12_reg.c ****   * @brief  Block data update.[set]
 412:Drivers/BSP/Components/lis2dw12/lis2dw12_reg.c ****   *
 413:Drivers/BSP/Components/lis2dw12/lis2dw12_reg.c ****   * @param  ctx      read / write interface definitions
ARM GAS  /tmp/ccEdQILT.s 			page 30


 414:Drivers/BSP/Components/lis2dw12/lis2dw12_reg.c ****   * @param  val      change the values of bdu in reg CTRL2
 415:Drivers/BSP/Components/lis2dw12/lis2dw12_reg.c ****   * @retval          interface status (MANDATORY: return 0 -> no Error)
 416:Drivers/BSP/Components/lis2dw12/lis2dw12_reg.c ****   *
 417:Drivers/BSP/Components/lis2dw12/lis2dw12_reg.c ****   */
 418:Drivers/BSP/Components/lis2dw12/lis2dw12_reg.c **** int32_t lis2dw12_block_data_update_set(stmdev_ctx_t *ctx, uint8_t val)
 419:Drivers/BSP/Components/lis2dw12/lis2dw12_reg.c **** {
 1114              		.loc 1 419 1 is_stmt 1 view -0
 1115              		.cfi_startproc
 1116              		@ args = 0, pretend = 0, frame = 8
 1117              		@ frame_needed = 0, uses_anonymous_args = 0
 1118              		.loc 1 419 1 is_stmt 0 view .LVU275
 1119 0000 30B5     		push	{r4, r5, lr}
 1120              	.LCFI18:
 1121              		.cfi_def_cfa_offset 12
 1122              		.cfi_offset 4, -12
 1123              		.cfi_offset 5, -8
 1124              		.cfi_offset 14, -4
 1125 0002 83B0     		sub	sp, sp, #12
 1126              	.LCFI19:
 1127              		.cfi_def_cfa_offset 24
 1128 0004 0446     		mov	r4, r0
 1129 0006 0D46     		mov	r5, r1
 420:Drivers/BSP/Components/lis2dw12/lis2dw12_reg.c ****   lis2dw12_ctrl2_t reg;
 1130              		.loc 1 420 3 is_stmt 1 view .LVU276
 421:Drivers/BSP/Components/lis2dw12/lis2dw12_reg.c ****   int32_t ret;
 1131              		.loc 1 421 3 view .LVU277
 422:Drivers/BSP/Components/lis2dw12/lis2dw12_reg.c **** 
 423:Drivers/BSP/Components/lis2dw12/lis2dw12_reg.c ****   ret = lis2dw12_read_reg(ctx, LIS2DW12_CTRL2, (uint8_t *) &reg, 1);
 1132              		.loc 1 423 3 view .LVU278
 1133              		.loc 1 423 9 is_stmt 0 view .LVU279
 1134 0008 0123     		movs	r3, #1
 1135 000a 01AA     		add	r2, sp, #4
 1136 000c 2121     		movs	r1, #33
 1137              	.LVL52:
 1138              		.loc 1 423 9 view .LVU280
 1139 000e FFF7FEFF 		bl	lis2dw12_read_reg
 1140              	.LVL53:
 424:Drivers/BSP/Components/lis2dw12/lis2dw12_reg.c **** 
 425:Drivers/BSP/Components/lis2dw12/lis2dw12_reg.c ****   if (ret == 0)
 1141              		.loc 1 425 3 is_stmt 1 view .LVU281
 1142              		.loc 1 425 6 is_stmt 0 view .LVU282
 1143 0012 08B1     		cbz	r0, .L93
 1144              	.LVL54:
 1145              	.L90:
 426:Drivers/BSP/Components/lis2dw12/lis2dw12_reg.c ****   {
 427:Drivers/BSP/Components/lis2dw12/lis2dw12_reg.c ****     reg.bdu = val;
 428:Drivers/BSP/Components/lis2dw12/lis2dw12_reg.c ****     ret = lis2dw12_write_reg(ctx, LIS2DW12_CTRL2, (uint8_t *) &reg, 1);
 429:Drivers/BSP/Components/lis2dw12/lis2dw12_reg.c ****   }
 430:Drivers/BSP/Components/lis2dw12/lis2dw12_reg.c **** 
 431:Drivers/BSP/Components/lis2dw12/lis2dw12_reg.c ****   return ret;
 432:Drivers/BSP/Components/lis2dw12/lis2dw12_reg.c **** }
 1146              		.loc 1 432 1 view .LVU283
 1147 0014 03B0     		add	sp, sp, #12
 1148              	.LCFI20:
 1149              		.cfi_remember_state
 1150              		.cfi_def_cfa_offset 12
 1151              		@ sp needed
ARM GAS  /tmp/ccEdQILT.s 			page 31


 1152 0016 30BD     		pop	{r4, r5, pc}
 1153              	.LVL55:
 1154              	.L93:
 1155              	.LCFI21:
 1156              		.cfi_restore_state
 427:Drivers/BSP/Components/lis2dw12/lis2dw12_reg.c ****     ret = lis2dw12_write_reg(ctx, LIS2DW12_CTRL2, (uint8_t *) &reg, 1);
 1157              		.loc 1 427 5 is_stmt 1 view .LVU284
 427:Drivers/BSP/Components/lis2dw12/lis2dw12_reg.c ****     ret = lis2dw12_write_reg(ctx, LIS2DW12_CTRL2, (uint8_t *) &reg, 1);
 1158              		.loc 1 427 13 is_stmt 0 view .LVU285
 1159 0018 9DF80430 		ldrb	r3, [sp, #4]	@ zero_extendqisi2
 1160 001c 65F3C303 		bfi	r3, r5, #3, #1
 1161 0020 8DF80430 		strb	r3, [sp, #4]
 428:Drivers/BSP/Components/lis2dw12/lis2dw12_reg.c ****   }
 1162              		.loc 1 428 5 is_stmt 1 view .LVU286
 428:Drivers/BSP/Components/lis2dw12/lis2dw12_reg.c ****   }
 1163              		.loc 1 428 11 is_stmt 0 view .LVU287
 1164 0024 0123     		movs	r3, #1
 1165              	.LVL56:
 428:Drivers/BSP/Components/lis2dw12/lis2dw12_reg.c ****   }
 1166              		.loc 1 428 11 view .LVU288
 1167 0026 01AA     		add	r2, sp, #4
 1168 0028 2121     		movs	r1, #33
 1169 002a 2046     		mov	r0, r4
 1170 002c FFF7FEFF 		bl	lis2dw12_write_reg
 1171              	.LVL57:
 431:Drivers/BSP/Components/lis2dw12/lis2dw12_reg.c **** }
 1172              		.loc 1 431 3 is_stmt 1 view .LVU289
 431:Drivers/BSP/Components/lis2dw12/lis2dw12_reg.c **** }
 1173              		.loc 1 431 10 is_stmt 0 view .LVU290
 1174 0030 F0E7     		b	.L90
 1175              		.cfi_endproc
 1176              	.LFE15:
 1178              		.section	.text.lis2dw12_block_data_update_get,"ax",%progbits
 1179              		.align	1
 1180              		.global	lis2dw12_block_data_update_get
 1181              		.syntax unified
 1182              		.thumb
 1183              		.thumb_func
 1184              		.fpu fpv4-sp-d16
 1186              	lis2dw12_block_data_update_get:
 1187              	.LVL58:
 1188              	.LFB16:
 433:Drivers/BSP/Components/lis2dw12/lis2dw12_reg.c **** 
 434:Drivers/BSP/Components/lis2dw12/lis2dw12_reg.c **** /**
 435:Drivers/BSP/Components/lis2dw12/lis2dw12_reg.c ****   * @brief  Block data update.[get]
 436:Drivers/BSP/Components/lis2dw12/lis2dw12_reg.c ****   *
 437:Drivers/BSP/Components/lis2dw12/lis2dw12_reg.c ****   * @param  ctx      read / write interface definitions
 438:Drivers/BSP/Components/lis2dw12/lis2dw12_reg.c ****   * @param  val      change the values of bdu in reg CTRL2
 439:Drivers/BSP/Components/lis2dw12/lis2dw12_reg.c ****   * @retval          interface status (MANDATORY: return 0 -> no Error)
 440:Drivers/BSP/Components/lis2dw12/lis2dw12_reg.c ****   *
 441:Drivers/BSP/Components/lis2dw12/lis2dw12_reg.c ****   */
 442:Drivers/BSP/Components/lis2dw12/lis2dw12_reg.c **** int32_t lis2dw12_block_data_update_get(stmdev_ctx_t *ctx,
 443:Drivers/BSP/Components/lis2dw12/lis2dw12_reg.c ****                                        uint8_t *val)
 444:Drivers/BSP/Components/lis2dw12/lis2dw12_reg.c **** {
 1189              		.loc 1 444 1 is_stmt 1 view -0
 1190              		.cfi_startproc
 1191              		@ args = 0, pretend = 0, frame = 8
ARM GAS  /tmp/ccEdQILT.s 			page 32


 1192              		@ frame_needed = 0, uses_anonymous_args = 0
 1193              		.loc 1 444 1 is_stmt 0 view .LVU292
 1194 0000 10B5     		push	{r4, lr}
 1195              	.LCFI22:
 1196              		.cfi_def_cfa_offset 8
 1197              		.cfi_offset 4, -8
 1198              		.cfi_offset 14, -4
 1199 0002 82B0     		sub	sp, sp, #8
 1200              	.LCFI23:
 1201              		.cfi_def_cfa_offset 16
 1202 0004 0C46     		mov	r4, r1
 445:Drivers/BSP/Components/lis2dw12/lis2dw12_reg.c ****   lis2dw12_ctrl2_t reg;
 1203              		.loc 1 445 3 is_stmt 1 view .LVU293
 446:Drivers/BSP/Components/lis2dw12/lis2dw12_reg.c ****   int32_t ret;
 1204              		.loc 1 446 3 view .LVU294
 447:Drivers/BSP/Components/lis2dw12/lis2dw12_reg.c **** 
 448:Drivers/BSP/Components/lis2dw12/lis2dw12_reg.c ****   ret = lis2dw12_read_reg(ctx, LIS2DW12_CTRL2, (uint8_t *) &reg, 1);
 1205              		.loc 1 448 3 view .LVU295
 1206              		.loc 1 448 9 is_stmt 0 view .LVU296
 1207 0006 0123     		movs	r3, #1
 1208 0008 01AA     		add	r2, sp, #4
 1209 000a 2121     		movs	r1, #33
 1210              	.LVL59:
 1211              		.loc 1 448 9 view .LVU297
 1212 000c FFF7FEFF 		bl	lis2dw12_read_reg
 1213              	.LVL60:
 449:Drivers/BSP/Components/lis2dw12/lis2dw12_reg.c ****   *val = reg.bdu;
 1214              		.loc 1 449 3 is_stmt 1 view .LVU298
 1215              		.loc 1 449 13 is_stmt 0 view .LVU299
 1216 0010 9DF80430 		ldrb	r3, [sp, #4]	@ zero_extendqisi2
 1217 0014 C3F3C003 		ubfx	r3, r3, #3, #1
 1218              		.loc 1 449 8 view .LVU300
 1219 0018 2370     		strb	r3, [r4]
 450:Drivers/BSP/Components/lis2dw12/lis2dw12_reg.c **** 
 451:Drivers/BSP/Components/lis2dw12/lis2dw12_reg.c ****   return ret;
 1220              		.loc 1 451 3 is_stmt 1 view .LVU301
 452:Drivers/BSP/Components/lis2dw12/lis2dw12_reg.c **** }
 1221              		.loc 1 452 1 is_stmt 0 view .LVU302
 1222 001a 02B0     		add	sp, sp, #8
 1223              	.LCFI24:
 1224              		.cfi_def_cfa_offset 8
 1225              		@ sp needed
 1226 001c 10BD     		pop	{r4, pc}
 1227              		.loc 1 452 1 view .LVU303
 1228              		.cfi_endproc
 1229              	.LFE16:
 1231              		.section	.text.lis2dw12_full_scale_set,"ax",%progbits
 1232              		.align	1
 1233              		.global	lis2dw12_full_scale_set
 1234              		.syntax unified
 1235              		.thumb
 1236              		.thumb_func
 1237              		.fpu fpv4-sp-d16
 1239              	lis2dw12_full_scale_set:
 1240              	.LVL61:
 1241              	.LFB17:
 453:Drivers/BSP/Components/lis2dw12/lis2dw12_reg.c **** 
ARM GAS  /tmp/ccEdQILT.s 			page 33


 454:Drivers/BSP/Components/lis2dw12/lis2dw12_reg.c **** /**
 455:Drivers/BSP/Components/lis2dw12/lis2dw12_reg.c ****   * @brief  Accelerometer full-scale selection.[set]
 456:Drivers/BSP/Components/lis2dw12/lis2dw12_reg.c ****   *
 457:Drivers/BSP/Components/lis2dw12/lis2dw12_reg.c ****   * @param  ctx      read / write interface definitions
 458:Drivers/BSP/Components/lis2dw12/lis2dw12_reg.c ****   * @param  val      change the values of fs in reg CTRL6
 459:Drivers/BSP/Components/lis2dw12/lis2dw12_reg.c ****   * @retval          interface status (MANDATORY: return 0 -> no Error)
 460:Drivers/BSP/Components/lis2dw12/lis2dw12_reg.c ****   *
 461:Drivers/BSP/Components/lis2dw12/lis2dw12_reg.c ****   */
 462:Drivers/BSP/Components/lis2dw12/lis2dw12_reg.c **** int32_t lis2dw12_full_scale_set(stmdev_ctx_t *ctx, lis2dw12_fs_t val)
 463:Drivers/BSP/Components/lis2dw12/lis2dw12_reg.c **** {
 1242              		.loc 1 463 1 is_stmt 1 view -0
 1243              		.cfi_startproc
 1244              		@ args = 0, pretend = 0, frame = 8
 1245              		@ frame_needed = 0, uses_anonymous_args = 0
 1246              		.loc 1 463 1 is_stmt 0 view .LVU305
 1247 0000 30B5     		push	{r4, r5, lr}
 1248              	.LCFI25:
 1249              		.cfi_def_cfa_offset 12
 1250              		.cfi_offset 4, -12
 1251              		.cfi_offset 5, -8
 1252              		.cfi_offset 14, -4
 1253 0002 83B0     		sub	sp, sp, #12
 1254              	.LCFI26:
 1255              		.cfi_def_cfa_offset 24
 1256 0004 0446     		mov	r4, r0
 1257 0006 0D46     		mov	r5, r1
 464:Drivers/BSP/Components/lis2dw12/lis2dw12_reg.c ****   lis2dw12_ctrl6_t reg;
 1258              		.loc 1 464 3 is_stmt 1 view .LVU306
 465:Drivers/BSP/Components/lis2dw12/lis2dw12_reg.c ****   int32_t ret;
 1259              		.loc 1 465 3 view .LVU307
 466:Drivers/BSP/Components/lis2dw12/lis2dw12_reg.c **** 
 467:Drivers/BSP/Components/lis2dw12/lis2dw12_reg.c ****   ret = lis2dw12_read_reg(ctx, LIS2DW12_CTRL6, (uint8_t *) &reg, 1);
 1260              		.loc 1 467 3 view .LVU308
 1261              		.loc 1 467 9 is_stmt 0 view .LVU309
 1262 0008 0123     		movs	r3, #1
 1263 000a 01AA     		add	r2, sp, #4
 1264 000c 2521     		movs	r1, #37
 1265              	.LVL62:
 1266              		.loc 1 467 9 view .LVU310
 1267 000e FFF7FEFF 		bl	lis2dw12_read_reg
 1268              	.LVL63:
 468:Drivers/BSP/Components/lis2dw12/lis2dw12_reg.c **** 
 469:Drivers/BSP/Components/lis2dw12/lis2dw12_reg.c ****   if (ret == 0)
 1269              		.loc 1 469 3 is_stmt 1 view .LVU311
 1270              		.loc 1 469 6 is_stmt 0 view .LVU312
 1271 0012 08B1     		cbz	r0, .L99
 1272              	.LVL64:
 1273              	.L96:
 470:Drivers/BSP/Components/lis2dw12/lis2dw12_reg.c ****   {
 471:Drivers/BSP/Components/lis2dw12/lis2dw12_reg.c ****     reg.fs = (uint8_t) val;
 472:Drivers/BSP/Components/lis2dw12/lis2dw12_reg.c ****     ret = lis2dw12_write_reg(ctx, LIS2DW12_CTRL6, (uint8_t *) &reg, 1);
 473:Drivers/BSP/Components/lis2dw12/lis2dw12_reg.c ****   }
 474:Drivers/BSP/Components/lis2dw12/lis2dw12_reg.c **** 
 475:Drivers/BSP/Components/lis2dw12/lis2dw12_reg.c ****   return ret;
 476:Drivers/BSP/Components/lis2dw12/lis2dw12_reg.c **** }
 1274              		.loc 1 476 1 view .LVU313
 1275 0014 03B0     		add	sp, sp, #12
ARM GAS  /tmp/ccEdQILT.s 			page 34


 1276              	.LCFI27:
 1277              		.cfi_remember_state
 1278              		.cfi_def_cfa_offset 12
 1279              		@ sp needed
 1280 0016 30BD     		pop	{r4, r5, pc}
 1281              	.LVL65:
 1282              	.L99:
 1283              	.LCFI28:
 1284              		.cfi_restore_state
 471:Drivers/BSP/Components/lis2dw12/lis2dw12_reg.c ****     ret = lis2dw12_write_reg(ctx, LIS2DW12_CTRL6, (uint8_t *) &reg, 1);
 1285              		.loc 1 471 5 is_stmt 1 view .LVU314
 471:Drivers/BSP/Components/lis2dw12/lis2dw12_reg.c ****     ret = lis2dw12_write_reg(ctx, LIS2DW12_CTRL6, (uint8_t *) &reg, 1);
 1286              		.loc 1 471 12 is_stmt 0 view .LVU315
 1287 0018 9DF80430 		ldrb	r3, [sp, #4]	@ zero_extendqisi2
 1288 001c 65F30513 		bfi	r3, r5, #4, #2
 1289 0020 8DF80430 		strb	r3, [sp, #4]
 472:Drivers/BSP/Components/lis2dw12/lis2dw12_reg.c ****   }
 1290              		.loc 1 472 5 is_stmt 1 view .LVU316
 472:Drivers/BSP/Components/lis2dw12/lis2dw12_reg.c ****   }
 1291              		.loc 1 472 11 is_stmt 0 view .LVU317
 1292 0024 0123     		movs	r3, #1
 1293              	.LVL66:
 472:Drivers/BSP/Components/lis2dw12/lis2dw12_reg.c ****   }
 1294              		.loc 1 472 11 view .LVU318
 1295 0026 01AA     		add	r2, sp, #4
 1296 0028 2521     		movs	r1, #37
 1297 002a 2046     		mov	r0, r4
 1298 002c FFF7FEFF 		bl	lis2dw12_write_reg
 1299              	.LVL67:
 475:Drivers/BSP/Components/lis2dw12/lis2dw12_reg.c **** }
 1300              		.loc 1 475 3 is_stmt 1 view .LVU319
 475:Drivers/BSP/Components/lis2dw12/lis2dw12_reg.c **** }
 1301              		.loc 1 475 10 is_stmt 0 view .LVU320
 1302 0030 F0E7     		b	.L96
 1303              		.cfi_endproc
 1304              	.LFE17:
 1306              		.section	.text.lis2dw12_full_scale_get,"ax",%progbits
 1307              		.align	1
 1308              		.global	lis2dw12_full_scale_get
 1309              		.syntax unified
 1310              		.thumb
 1311              		.thumb_func
 1312              		.fpu fpv4-sp-d16
 1314              	lis2dw12_full_scale_get:
 1315              	.LVL68:
 1316              	.LFB18:
 477:Drivers/BSP/Components/lis2dw12/lis2dw12_reg.c **** 
 478:Drivers/BSP/Components/lis2dw12/lis2dw12_reg.c **** /**
 479:Drivers/BSP/Components/lis2dw12/lis2dw12_reg.c ****   * @brief  Accelerometer full-scale selection.[get]
 480:Drivers/BSP/Components/lis2dw12/lis2dw12_reg.c ****   *
 481:Drivers/BSP/Components/lis2dw12/lis2dw12_reg.c ****   * @param  ctx      read / write interface definitions
 482:Drivers/BSP/Components/lis2dw12/lis2dw12_reg.c ****   * @param  val      Get the values of fs in reg CTRL6
 483:Drivers/BSP/Components/lis2dw12/lis2dw12_reg.c ****   * @retval          interface status (MANDATORY: return 0 -> no Error)
 484:Drivers/BSP/Components/lis2dw12/lis2dw12_reg.c ****   *
 485:Drivers/BSP/Components/lis2dw12/lis2dw12_reg.c ****   */
 486:Drivers/BSP/Components/lis2dw12/lis2dw12_reg.c **** int32_t lis2dw12_full_scale_get(stmdev_ctx_t *ctx, lis2dw12_fs_t *val)
 487:Drivers/BSP/Components/lis2dw12/lis2dw12_reg.c **** {
ARM GAS  /tmp/ccEdQILT.s 			page 35


 1317              		.loc 1 487 1 is_stmt 1 view -0
 1318              		.cfi_startproc
 1319              		@ args = 0, pretend = 0, frame = 8
 1320              		@ frame_needed = 0, uses_anonymous_args = 0
 1321              		.loc 1 487 1 is_stmt 0 view .LVU322
 1322 0000 10B5     		push	{r4, lr}
 1323              	.LCFI29:
 1324              		.cfi_def_cfa_offset 8
 1325              		.cfi_offset 4, -8
 1326              		.cfi_offset 14, -4
 1327 0002 82B0     		sub	sp, sp, #8
 1328              	.LCFI30:
 1329              		.cfi_def_cfa_offset 16
 1330 0004 0C46     		mov	r4, r1
 488:Drivers/BSP/Components/lis2dw12/lis2dw12_reg.c ****   lis2dw12_ctrl6_t reg;
 1331              		.loc 1 488 3 is_stmt 1 view .LVU323
 489:Drivers/BSP/Components/lis2dw12/lis2dw12_reg.c ****   int32_t ret;
 1332              		.loc 1 489 3 view .LVU324
 490:Drivers/BSP/Components/lis2dw12/lis2dw12_reg.c **** 
 491:Drivers/BSP/Components/lis2dw12/lis2dw12_reg.c ****   ret = lis2dw12_read_reg(ctx, LIS2DW12_CTRL6, (uint8_t *) &reg, 1);
 1333              		.loc 1 491 3 view .LVU325
 1334              		.loc 1 491 9 is_stmt 0 view .LVU326
 1335 0006 0123     		movs	r3, #1
 1336 0008 01AA     		add	r2, sp, #4
 1337 000a 2521     		movs	r1, #37
 1338              	.LVL69:
 1339              		.loc 1 491 9 view .LVU327
 1340 000c FFF7FEFF 		bl	lis2dw12_read_reg
 1341              	.LVL70:
 492:Drivers/BSP/Components/lis2dw12/lis2dw12_reg.c **** 
 493:Drivers/BSP/Components/lis2dw12/lis2dw12_reg.c ****   switch (reg.fs)
 1342              		.loc 1 493 3 is_stmt 1 view .LVU328
 1343              		.loc 1 493 14 is_stmt 0 view .LVU329
 1344 0010 9DF80430 		ldrb	r3, [sp, #4]	@ zero_extendqisi2
 1345 0014 C3F30113 		ubfx	r3, r3, #4, #2
 1346              		.loc 1 493 3 view .LVU330
 1347 0018 032B     		cmp	r3, #3
 1348 001a 10D8     		bhi	.L101
 1349 001c DFE803F0 		tbb	[pc, r3]
 1350              	.L103:
 1351 0020 02       		.byte	(.L106-.L103)/2
 1352 0021 06       		.byte	(.L105-.L103)/2
 1353 0022 09       		.byte	(.L104-.L103)/2
 1354 0023 0C       		.byte	(.L102-.L103)/2
 1355              		.p2align 1
 1356              	.L106:
 494:Drivers/BSP/Components/lis2dw12/lis2dw12_reg.c ****   {
 495:Drivers/BSP/Components/lis2dw12/lis2dw12_reg.c ****     case LIS2DW12_2g:
 496:Drivers/BSP/Components/lis2dw12/lis2dw12_reg.c ****       *val = LIS2DW12_2g;
 1357              		.loc 1 496 7 is_stmt 1 view .LVU331
 1358              		.loc 1 496 12 is_stmt 0 view .LVU332
 1359 0024 0023     		movs	r3, #0
 1360 0026 2370     		strb	r3, [r4]
 497:Drivers/BSP/Components/lis2dw12/lis2dw12_reg.c ****       break;
 1361              		.loc 1 497 7 is_stmt 1 view .LVU333
 1362              	.L100:
 498:Drivers/BSP/Components/lis2dw12/lis2dw12_reg.c **** 
ARM GAS  /tmp/ccEdQILT.s 			page 36


 499:Drivers/BSP/Components/lis2dw12/lis2dw12_reg.c ****     case LIS2DW12_4g:
 500:Drivers/BSP/Components/lis2dw12/lis2dw12_reg.c ****       *val = LIS2DW12_4g;
 501:Drivers/BSP/Components/lis2dw12/lis2dw12_reg.c ****       break;
 502:Drivers/BSP/Components/lis2dw12/lis2dw12_reg.c **** 
 503:Drivers/BSP/Components/lis2dw12/lis2dw12_reg.c ****     case LIS2DW12_8g:
 504:Drivers/BSP/Components/lis2dw12/lis2dw12_reg.c ****       *val = LIS2DW12_8g;
 505:Drivers/BSP/Components/lis2dw12/lis2dw12_reg.c ****       break;
 506:Drivers/BSP/Components/lis2dw12/lis2dw12_reg.c **** 
 507:Drivers/BSP/Components/lis2dw12/lis2dw12_reg.c ****     case LIS2DW12_16g:
 508:Drivers/BSP/Components/lis2dw12/lis2dw12_reg.c ****       *val = LIS2DW12_16g;
 509:Drivers/BSP/Components/lis2dw12/lis2dw12_reg.c ****       break;
 510:Drivers/BSP/Components/lis2dw12/lis2dw12_reg.c **** 
 511:Drivers/BSP/Components/lis2dw12/lis2dw12_reg.c ****     default:
 512:Drivers/BSP/Components/lis2dw12/lis2dw12_reg.c ****       *val = LIS2DW12_2g;
 513:Drivers/BSP/Components/lis2dw12/lis2dw12_reg.c ****       break;
 514:Drivers/BSP/Components/lis2dw12/lis2dw12_reg.c ****   }
 515:Drivers/BSP/Components/lis2dw12/lis2dw12_reg.c **** 
 516:Drivers/BSP/Components/lis2dw12/lis2dw12_reg.c ****   return ret;
 517:Drivers/BSP/Components/lis2dw12/lis2dw12_reg.c **** }
 1363              		.loc 1 517 1 is_stmt 0 view .LVU334
 1364 0028 02B0     		add	sp, sp, #8
 1365              	.LCFI31:
 1366              		.cfi_remember_state
 1367              		.cfi_def_cfa_offset 8
 1368              		@ sp needed
 1369 002a 10BD     		pop	{r4, pc}
 1370              	.LVL71:
 1371              	.L105:
 1372              	.LCFI32:
 1373              		.cfi_restore_state
 500:Drivers/BSP/Components/lis2dw12/lis2dw12_reg.c ****       break;
 1374              		.loc 1 500 7 is_stmt 1 view .LVU335
 500:Drivers/BSP/Components/lis2dw12/lis2dw12_reg.c ****       break;
 1375              		.loc 1 500 12 is_stmt 0 view .LVU336
 1376 002c 0123     		movs	r3, #1
 1377 002e 2370     		strb	r3, [r4]
 501:Drivers/BSP/Components/lis2dw12/lis2dw12_reg.c **** 
 1378              		.loc 1 501 7 is_stmt 1 view .LVU337
 1379 0030 FAE7     		b	.L100
 1380              	.L104:
 504:Drivers/BSP/Components/lis2dw12/lis2dw12_reg.c ****       break;
 1381              		.loc 1 504 7 view .LVU338
 504:Drivers/BSP/Components/lis2dw12/lis2dw12_reg.c ****       break;
 1382              		.loc 1 504 12 is_stmt 0 view .LVU339
 1383 0032 0223     		movs	r3, #2
 1384 0034 2370     		strb	r3, [r4]
 505:Drivers/BSP/Components/lis2dw12/lis2dw12_reg.c **** 
 1385              		.loc 1 505 7 is_stmt 1 view .LVU340
 1386 0036 F7E7     		b	.L100
 1387              	.L102:
 508:Drivers/BSP/Components/lis2dw12/lis2dw12_reg.c ****       break;
 1388              		.loc 1 508 7 view .LVU341
 508:Drivers/BSP/Components/lis2dw12/lis2dw12_reg.c ****       break;
 1389              		.loc 1 508 12 is_stmt 0 view .LVU342
 1390 0038 0323     		movs	r3, #3
 1391 003a 2370     		strb	r3, [r4]
 509:Drivers/BSP/Components/lis2dw12/lis2dw12_reg.c **** 
ARM GAS  /tmp/ccEdQILT.s 			page 37


 1392              		.loc 1 509 7 is_stmt 1 view .LVU343
 1393 003c F4E7     		b	.L100
 1394              	.L101:
 512:Drivers/BSP/Components/lis2dw12/lis2dw12_reg.c ****       break;
 1395              		.loc 1 512 7 view .LVU344
 512:Drivers/BSP/Components/lis2dw12/lis2dw12_reg.c ****       break;
 1396              		.loc 1 512 12 is_stmt 0 view .LVU345
 1397 003e 0023     		movs	r3, #0
 1398 0040 2370     		strb	r3, [r4]
 513:Drivers/BSP/Components/lis2dw12/lis2dw12_reg.c ****   }
 1399              		.loc 1 513 7 is_stmt 1 view .LVU346
 516:Drivers/BSP/Components/lis2dw12/lis2dw12_reg.c **** }
 1400              		.loc 1 516 3 view .LVU347
 516:Drivers/BSP/Components/lis2dw12/lis2dw12_reg.c **** }
 1401              		.loc 1 516 10 is_stmt 0 view .LVU348
 1402 0042 F1E7     		b	.L100
 1403              		.cfi_endproc
 1404              	.LFE18:
 1406              		.section	.text.lis2dw12_status_reg_get,"ax",%progbits
 1407              		.align	1
 1408              		.global	lis2dw12_status_reg_get
 1409              		.syntax unified
 1410              		.thumb
 1411              		.thumb_func
 1412              		.fpu fpv4-sp-d16
 1414              	lis2dw12_status_reg_get:
 1415              	.LVL72:
 1416              	.LFB19:
 518:Drivers/BSP/Components/lis2dw12/lis2dw12_reg.c **** 
 519:Drivers/BSP/Components/lis2dw12/lis2dw12_reg.c **** /**
 520:Drivers/BSP/Components/lis2dw12/lis2dw12_reg.c ****   * @brief  The STATUS_REG register of the device.[get]
 521:Drivers/BSP/Components/lis2dw12/lis2dw12_reg.c ****   *
 522:Drivers/BSP/Components/lis2dw12/lis2dw12_reg.c ****   * @param  ctx      read / write interface definitions
 523:Drivers/BSP/Components/lis2dw12/lis2dw12_reg.c ****   * @param  val      union of registers from STATUS to
 524:Drivers/BSP/Components/lis2dw12/lis2dw12_reg.c ****   * @retval          interface status (MANDATORY: return 0 -> no Error)
 525:Drivers/BSP/Components/lis2dw12/lis2dw12_reg.c ****   *
 526:Drivers/BSP/Components/lis2dw12/lis2dw12_reg.c ****   */
 527:Drivers/BSP/Components/lis2dw12/lis2dw12_reg.c **** int32_t lis2dw12_status_reg_get(stmdev_ctx_t *ctx,
 528:Drivers/BSP/Components/lis2dw12/lis2dw12_reg.c ****                                 lis2dw12_status_t *val)
 529:Drivers/BSP/Components/lis2dw12/lis2dw12_reg.c **** {
 1417              		.loc 1 529 1 is_stmt 1 view -0
 1418              		.cfi_startproc
 1419              		@ args = 0, pretend = 0, frame = 0
 1420              		@ frame_needed = 0, uses_anonymous_args = 0
 1421              		.loc 1 529 1 is_stmt 0 view .LVU350
 1422 0000 08B5     		push	{r3, lr}
 1423              	.LCFI33:
 1424              		.cfi_def_cfa_offset 8
 1425              		.cfi_offset 3, -8
 1426              		.cfi_offset 14, -4
 1427 0002 0A46     		mov	r2, r1
 530:Drivers/BSP/Components/lis2dw12/lis2dw12_reg.c ****   int32_t ret;
 1428              		.loc 1 530 3 is_stmt 1 view .LVU351
 531:Drivers/BSP/Components/lis2dw12/lis2dw12_reg.c **** 
 532:Drivers/BSP/Components/lis2dw12/lis2dw12_reg.c ****   ret = lis2dw12_read_reg(ctx, LIS2DW12_STATUS, (uint8_t *) val, 1);
 1429              		.loc 1 532 3 view .LVU352
 1430              		.loc 1 532 9 is_stmt 0 view .LVU353
ARM GAS  /tmp/ccEdQILT.s 			page 38


 1431 0004 0123     		movs	r3, #1
 1432 0006 2721     		movs	r1, #39
 1433              	.LVL73:
 1434              		.loc 1 532 9 view .LVU354
 1435 0008 FFF7FEFF 		bl	lis2dw12_read_reg
 1436              	.LVL74:
 533:Drivers/BSP/Components/lis2dw12/lis2dw12_reg.c **** 
 534:Drivers/BSP/Components/lis2dw12/lis2dw12_reg.c ****   return ret;
 1437              		.loc 1 534 3 is_stmt 1 view .LVU355
 535:Drivers/BSP/Components/lis2dw12/lis2dw12_reg.c **** }
 1438              		.loc 1 535 1 is_stmt 0 view .LVU356
 1439 000c 08BD     		pop	{r3, pc}
 1440              		.cfi_endproc
 1441              	.LFE19:
 1443              		.section	.text.lis2dw12_flag_data_ready_get,"ax",%progbits
 1444              		.align	1
 1445              		.global	lis2dw12_flag_data_ready_get
 1446              		.syntax unified
 1447              		.thumb
 1448              		.thumb_func
 1449              		.fpu fpv4-sp-d16
 1451              	lis2dw12_flag_data_ready_get:
 1452              	.LVL75:
 1453              	.LFB20:
 536:Drivers/BSP/Components/lis2dw12/lis2dw12_reg.c **** 
 537:Drivers/BSP/Components/lis2dw12/lis2dw12_reg.c **** /**
 538:Drivers/BSP/Components/lis2dw12/lis2dw12_reg.c ****   * @brief  Accelerometer new data available.[get]
 539:Drivers/BSP/Components/lis2dw12/lis2dw12_reg.c ****   *
 540:Drivers/BSP/Components/lis2dw12/lis2dw12_reg.c ****   * @param  ctx      read / write interface definitions
 541:Drivers/BSP/Components/lis2dw12/lis2dw12_reg.c ****   * @param  val      change the values of drdy in reg STATUS
 542:Drivers/BSP/Components/lis2dw12/lis2dw12_reg.c ****   * @retval          interface status (MANDATORY: return 0 -> no Error)
 543:Drivers/BSP/Components/lis2dw12/lis2dw12_reg.c ****   *
 544:Drivers/BSP/Components/lis2dw12/lis2dw12_reg.c ****   */
 545:Drivers/BSP/Components/lis2dw12/lis2dw12_reg.c **** int32_t lis2dw12_flag_data_ready_get(stmdev_ctx_t *ctx, uint8_t *val)
 546:Drivers/BSP/Components/lis2dw12/lis2dw12_reg.c **** {
 1454              		.loc 1 546 1 is_stmt 1 view -0
 1455              		.cfi_startproc
 1456              		@ args = 0, pretend = 0, frame = 8
 1457              		@ frame_needed = 0, uses_anonymous_args = 0
 1458              		.loc 1 546 1 is_stmt 0 view .LVU358
 1459 0000 10B5     		push	{r4, lr}
 1460              	.LCFI34:
 1461              		.cfi_def_cfa_offset 8
 1462              		.cfi_offset 4, -8
 1463              		.cfi_offset 14, -4
 1464 0002 82B0     		sub	sp, sp, #8
 1465              	.LCFI35:
 1466              		.cfi_def_cfa_offset 16
 1467 0004 0C46     		mov	r4, r1
 547:Drivers/BSP/Components/lis2dw12/lis2dw12_reg.c ****   lis2dw12_status_t reg;
 1468              		.loc 1 547 3 is_stmt 1 view .LVU359
 548:Drivers/BSP/Components/lis2dw12/lis2dw12_reg.c ****   int32_t ret;
 1469              		.loc 1 548 3 view .LVU360
 549:Drivers/BSP/Components/lis2dw12/lis2dw12_reg.c **** 
 550:Drivers/BSP/Components/lis2dw12/lis2dw12_reg.c ****   ret = lis2dw12_read_reg(ctx, LIS2DW12_STATUS, (uint8_t *) &reg, 1);
 1470              		.loc 1 550 3 view .LVU361
 1471              		.loc 1 550 9 is_stmt 0 view .LVU362
ARM GAS  /tmp/ccEdQILT.s 			page 39


 1472 0006 0123     		movs	r3, #1
 1473 0008 01AA     		add	r2, sp, #4
 1474 000a 2721     		movs	r1, #39
 1475              	.LVL76:
 1476              		.loc 1 550 9 view .LVU363
 1477 000c FFF7FEFF 		bl	lis2dw12_read_reg
 1478              	.LVL77:
 551:Drivers/BSP/Components/lis2dw12/lis2dw12_reg.c ****   *val = reg.drdy;
 1479              		.loc 1 551 3 is_stmt 1 view .LVU364
 1480              		.loc 1 551 13 is_stmt 0 view .LVU365
 1481 0010 9DF80430 		ldrb	r3, [sp, #4]	@ zero_extendqisi2
 1482 0014 C3F30003 		ubfx	r3, r3, #0, #1
 1483              		.loc 1 551 8 view .LVU366
 1484 0018 2370     		strb	r3, [r4]
 552:Drivers/BSP/Components/lis2dw12/lis2dw12_reg.c **** 
 553:Drivers/BSP/Components/lis2dw12/lis2dw12_reg.c ****   return ret;
 1485              		.loc 1 553 3 is_stmt 1 view .LVU367
 554:Drivers/BSP/Components/lis2dw12/lis2dw12_reg.c **** }
 1486              		.loc 1 554 1 is_stmt 0 view .LVU368
 1487 001a 02B0     		add	sp, sp, #8
 1488              	.LCFI36:
 1489              		.cfi_def_cfa_offset 8
 1490              		@ sp needed
 1491 001c 10BD     		pop	{r4, pc}
 1492              		.loc 1 554 1 view .LVU369
 1493              		.cfi_endproc
 1494              	.LFE20:
 1496              		.section	.text.lis2dw12_all_sources_get,"ax",%progbits
 1497              		.align	1
 1498              		.global	lis2dw12_all_sources_get
 1499              		.syntax unified
 1500              		.thumb
 1501              		.thumb_func
 1502              		.fpu fpv4-sp-d16
 1504              	lis2dw12_all_sources_get:
 1505              	.LVL78:
 1506              	.LFB21:
 555:Drivers/BSP/Components/lis2dw12/lis2dw12_reg.c **** /**
 556:Drivers/BSP/Components/lis2dw12/lis2dw12_reg.c ****   * @brief   Read all the interrupt/status flag of the device.[get]
 557:Drivers/BSP/Components/lis2dw12/lis2dw12_reg.c ****   *
 558:Drivers/BSP/Components/lis2dw12/lis2dw12_reg.c ****   * @param  ctx      read / write interface definitions
 559:Drivers/BSP/Components/lis2dw12/lis2dw12_reg.c ****   * @param  val      registers STATUS_DUP, WAKE_UP_SRC,
 560:Drivers/BSP/Components/lis2dw12/lis2dw12_reg.c ****   *                  TAP_SRC, SIXD_SRC, ALL_INT_SRC
 561:Drivers/BSP/Components/lis2dw12/lis2dw12_reg.c ****   * @retval          interface status (MANDATORY: return 0 -> no Error)
 562:Drivers/BSP/Components/lis2dw12/lis2dw12_reg.c ****   *
 563:Drivers/BSP/Components/lis2dw12/lis2dw12_reg.c ****   */
 564:Drivers/BSP/Components/lis2dw12/lis2dw12_reg.c **** int32_t lis2dw12_all_sources_get(stmdev_ctx_t *ctx,
 565:Drivers/BSP/Components/lis2dw12/lis2dw12_reg.c ****                                  lis2dw12_all_sources_t *val)
 566:Drivers/BSP/Components/lis2dw12/lis2dw12_reg.c **** {
 1507              		.loc 1 566 1 is_stmt 1 view -0
 1508              		.cfi_startproc
 1509              		@ args = 0, pretend = 0, frame = 0
 1510              		@ frame_needed = 0, uses_anonymous_args = 0
 1511              		.loc 1 566 1 is_stmt 0 view .LVU371
 1512 0000 08B5     		push	{r3, lr}
 1513              	.LCFI37:
 1514              		.cfi_def_cfa_offset 8
ARM GAS  /tmp/ccEdQILT.s 			page 40


 1515              		.cfi_offset 3, -8
 1516              		.cfi_offset 14, -4
 1517 0002 0A46     		mov	r2, r1
 567:Drivers/BSP/Components/lis2dw12/lis2dw12_reg.c ****   int32_t ret;
 1518              		.loc 1 567 3 is_stmt 1 view .LVU372
 568:Drivers/BSP/Components/lis2dw12/lis2dw12_reg.c **** 
 569:Drivers/BSP/Components/lis2dw12/lis2dw12_reg.c ****   ret = lis2dw12_read_reg(ctx, LIS2DW12_STATUS_DUP, (uint8_t *) val, 5);
 1519              		.loc 1 569 3 view .LVU373
 1520              		.loc 1 569 9 is_stmt 0 view .LVU374
 1521 0004 0523     		movs	r3, #5
 1522 0006 3721     		movs	r1, #55
 1523              	.LVL79:
 1524              		.loc 1 569 9 view .LVU375
 1525 0008 FFF7FEFF 		bl	lis2dw12_read_reg
 1526              	.LVL80:
 570:Drivers/BSP/Components/lis2dw12/lis2dw12_reg.c **** 
 571:Drivers/BSP/Components/lis2dw12/lis2dw12_reg.c ****   return ret;
 1527              		.loc 1 571 3 is_stmt 1 view .LVU376
 572:Drivers/BSP/Components/lis2dw12/lis2dw12_reg.c **** }
 1528              		.loc 1 572 1 is_stmt 0 view .LVU377
 1529 000c 08BD     		pop	{r3, pc}
 1530              		.cfi_endproc
 1531              	.LFE21:
 1533              		.section	.text.lis2dw12_usr_offset_x_set,"ax",%progbits
 1534              		.align	1
 1535              		.global	lis2dw12_usr_offset_x_set
 1536              		.syntax unified
 1537              		.thumb
 1538              		.thumb_func
 1539              		.fpu fpv4-sp-d16
 1541              	lis2dw12_usr_offset_x_set:
 1542              	.LVL81:
 1543              	.LFB22:
 573:Drivers/BSP/Components/lis2dw12/lis2dw12_reg.c **** 
 574:Drivers/BSP/Components/lis2dw12/lis2dw12_reg.c **** /**
 575:Drivers/BSP/Components/lis2dw12/lis2dw12_reg.c ****   * @brief  Accelerometer X-axis user offset correction expressed in two's
 576:Drivers/BSP/Components/lis2dw12/lis2dw12_reg.c ****   *         complement, weight depends on bit USR_OFF_W. The value must be
 577:Drivers/BSP/Components/lis2dw12/lis2dw12_reg.c ****   *         in the range [-127 127].[set]
 578:Drivers/BSP/Components/lis2dw12/lis2dw12_reg.c ****   *
 579:Drivers/BSP/Components/lis2dw12/lis2dw12_reg.c ****   * @param  ctx      read / write interface definitions
 580:Drivers/BSP/Components/lis2dw12/lis2dw12_reg.c ****   * @param  buff     buffer that contains data to write
 581:Drivers/BSP/Components/lis2dw12/lis2dw12_reg.c ****   * @retval          interface status (MANDATORY: return 0 -> no Error)
 582:Drivers/BSP/Components/lis2dw12/lis2dw12_reg.c ****   *
 583:Drivers/BSP/Components/lis2dw12/lis2dw12_reg.c ****   */
 584:Drivers/BSP/Components/lis2dw12/lis2dw12_reg.c **** int32_t lis2dw12_usr_offset_x_set(stmdev_ctx_t *ctx, uint8_t *buff)
 585:Drivers/BSP/Components/lis2dw12/lis2dw12_reg.c **** {
 1544              		.loc 1 585 1 is_stmt 1 view -0
 1545              		.cfi_startproc
 1546              		@ args = 0, pretend = 0, frame = 0
 1547              		@ frame_needed = 0, uses_anonymous_args = 0
 1548              		.loc 1 585 1 is_stmt 0 view .LVU379
 1549 0000 08B5     		push	{r3, lr}
 1550              	.LCFI38:
 1551              		.cfi_def_cfa_offset 8
 1552              		.cfi_offset 3, -8
 1553              		.cfi_offset 14, -4
 1554 0002 0A46     		mov	r2, r1
ARM GAS  /tmp/ccEdQILT.s 			page 41


 586:Drivers/BSP/Components/lis2dw12/lis2dw12_reg.c ****   int32_t ret;
 1555              		.loc 1 586 3 is_stmt 1 view .LVU380
 587:Drivers/BSP/Components/lis2dw12/lis2dw12_reg.c **** 
 588:Drivers/BSP/Components/lis2dw12/lis2dw12_reg.c ****   ret = lis2dw12_write_reg(ctx, LIS2DW12_X_OFS_USR, buff, 1);
 1556              		.loc 1 588 3 view .LVU381
 1557              		.loc 1 588 9 is_stmt 0 view .LVU382
 1558 0004 0123     		movs	r3, #1
 1559 0006 3C21     		movs	r1, #60
 1560              	.LVL82:
 1561              		.loc 1 588 9 view .LVU383
 1562 0008 FFF7FEFF 		bl	lis2dw12_write_reg
 1563              	.LVL83:
 589:Drivers/BSP/Components/lis2dw12/lis2dw12_reg.c **** 
 590:Drivers/BSP/Components/lis2dw12/lis2dw12_reg.c ****   return ret;
 1564              		.loc 1 590 3 is_stmt 1 view .LVU384
 591:Drivers/BSP/Components/lis2dw12/lis2dw12_reg.c **** }
 1565              		.loc 1 591 1 is_stmt 0 view .LVU385
 1566 000c 08BD     		pop	{r3, pc}
 1567              		.cfi_endproc
 1568              	.LFE22:
 1570              		.section	.text.lis2dw12_usr_offset_x_get,"ax",%progbits
 1571              		.align	1
 1572              		.global	lis2dw12_usr_offset_x_get
 1573              		.syntax unified
 1574              		.thumb
 1575              		.thumb_func
 1576              		.fpu fpv4-sp-d16
 1578              	lis2dw12_usr_offset_x_get:
 1579              	.LVL84:
 1580              	.LFB23:
 592:Drivers/BSP/Components/lis2dw12/lis2dw12_reg.c **** 
 593:Drivers/BSP/Components/lis2dw12/lis2dw12_reg.c **** /**
 594:Drivers/BSP/Components/lis2dw12/lis2dw12_reg.c ****   * @brief  Accelerometer X-axis user offset correction expressed in two's
 595:Drivers/BSP/Components/lis2dw12/lis2dw12_reg.c ****   *         complement, weight depends on bit USR_OFF_W. The value must be
 596:Drivers/BSP/Components/lis2dw12/lis2dw12_reg.c ****   *         in the range [-127 127].[get]
 597:Drivers/BSP/Components/lis2dw12/lis2dw12_reg.c ****   *
 598:Drivers/BSP/Components/lis2dw12/lis2dw12_reg.c ****   * @param  ctx      read / write interface definitions
 599:Drivers/BSP/Components/lis2dw12/lis2dw12_reg.c ****   * @param  buff     buffer that stores data read
 600:Drivers/BSP/Components/lis2dw12/lis2dw12_reg.c ****   * @retval          interface status (MANDATORY: return 0 -> no Error)
 601:Drivers/BSP/Components/lis2dw12/lis2dw12_reg.c ****   *
 602:Drivers/BSP/Components/lis2dw12/lis2dw12_reg.c ****   */
 603:Drivers/BSP/Components/lis2dw12/lis2dw12_reg.c **** int32_t lis2dw12_usr_offset_x_get(stmdev_ctx_t *ctx, uint8_t *buff)
 604:Drivers/BSP/Components/lis2dw12/lis2dw12_reg.c **** {
 1581              		.loc 1 604 1 is_stmt 1 view -0
 1582              		.cfi_startproc
 1583              		@ args = 0, pretend = 0, frame = 0
 1584              		@ frame_needed = 0, uses_anonymous_args = 0
 1585              		.loc 1 604 1 is_stmt 0 view .LVU387
 1586 0000 08B5     		push	{r3, lr}
 1587              	.LCFI39:
 1588              		.cfi_def_cfa_offset 8
 1589              		.cfi_offset 3, -8
 1590              		.cfi_offset 14, -4
 1591 0002 0A46     		mov	r2, r1
 605:Drivers/BSP/Components/lis2dw12/lis2dw12_reg.c ****   int32_t ret;
 1592              		.loc 1 605 3 is_stmt 1 view .LVU388
 606:Drivers/BSP/Components/lis2dw12/lis2dw12_reg.c **** 
ARM GAS  /tmp/ccEdQILT.s 			page 42


 607:Drivers/BSP/Components/lis2dw12/lis2dw12_reg.c ****   ret = lis2dw12_read_reg(ctx, LIS2DW12_X_OFS_USR, buff, 1);
 1593              		.loc 1 607 3 view .LVU389
 1594              		.loc 1 607 9 is_stmt 0 view .LVU390
 1595 0004 0123     		movs	r3, #1
 1596 0006 3C21     		movs	r1, #60
 1597              	.LVL85:
 1598              		.loc 1 607 9 view .LVU391
 1599 0008 FFF7FEFF 		bl	lis2dw12_read_reg
 1600              	.LVL86:
 608:Drivers/BSP/Components/lis2dw12/lis2dw12_reg.c **** 
 609:Drivers/BSP/Components/lis2dw12/lis2dw12_reg.c ****   return ret;
 1601              		.loc 1 609 3 is_stmt 1 view .LVU392
 610:Drivers/BSP/Components/lis2dw12/lis2dw12_reg.c **** }
 1602              		.loc 1 610 1 is_stmt 0 view .LVU393
 1603 000c 08BD     		pop	{r3, pc}
 1604              		.cfi_endproc
 1605              	.LFE23:
 1607              		.section	.text.lis2dw12_usr_offset_y_set,"ax",%progbits
 1608              		.align	1
 1609              		.global	lis2dw12_usr_offset_y_set
 1610              		.syntax unified
 1611              		.thumb
 1612              		.thumb_func
 1613              		.fpu fpv4-sp-d16
 1615              	lis2dw12_usr_offset_y_set:
 1616              	.LVL87:
 1617              	.LFB24:
 611:Drivers/BSP/Components/lis2dw12/lis2dw12_reg.c **** 
 612:Drivers/BSP/Components/lis2dw12/lis2dw12_reg.c **** /**
 613:Drivers/BSP/Components/lis2dw12/lis2dw12_reg.c ****   * @brief  Accelerometer Y-axis user offset correction expressed in two's
 614:Drivers/BSP/Components/lis2dw12/lis2dw12_reg.c ****   *         complement, weight depends on bit USR_OFF_W. The value must be
 615:Drivers/BSP/Components/lis2dw12/lis2dw12_reg.c ****   *         in the range [-127 127].[set]
 616:Drivers/BSP/Components/lis2dw12/lis2dw12_reg.c ****   *
 617:Drivers/BSP/Components/lis2dw12/lis2dw12_reg.c ****   * @param  ctx      read / write interface definitions
 618:Drivers/BSP/Components/lis2dw12/lis2dw12_reg.c ****   * @param  buff     buffer that contains data to write
 619:Drivers/BSP/Components/lis2dw12/lis2dw12_reg.c ****   * @retval          interface status (MANDATORY: return 0 -> no Error)
 620:Drivers/BSP/Components/lis2dw12/lis2dw12_reg.c ****   *
 621:Drivers/BSP/Components/lis2dw12/lis2dw12_reg.c ****   */
 622:Drivers/BSP/Components/lis2dw12/lis2dw12_reg.c **** int32_t lis2dw12_usr_offset_y_set(stmdev_ctx_t *ctx, uint8_t *buff)
 623:Drivers/BSP/Components/lis2dw12/lis2dw12_reg.c **** {
 1618              		.loc 1 623 1 is_stmt 1 view -0
 1619              		.cfi_startproc
 1620              		@ args = 0, pretend = 0, frame = 0
 1621              		@ frame_needed = 0, uses_anonymous_args = 0
 1622              		.loc 1 623 1 is_stmt 0 view .LVU395
 1623 0000 08B5     		push	{r3, lr}
 1624              	.LCFI40:
 1625              		.cfi_def_cfa_offset 8
 1626              		.cfi_offset 3, -8
 1627              		.cfi_offset 14, -4
 1628 0002 0A46     		mov	r2, r1
 624:Drivers/BSP/Components/lis2dw12/lis2dw12_reg.c ****   int32_t ret;
 1629              		.loc 1 624 3 is_stmt 1 view .LVU396
 625:Drivers/BSP/Components/lis2dw12/lis2dw12_reg.c **** 
 626:Drivers/BSP/Components/lis2dw12/lis2dw12_reg.c ****   ret = lis2dw12_write_reg(ctx, LIS2DW12_Y_OFS_USR, buff, 1);
 1630              		.loc 1 626 3 view .LVU397
 1631              		.loc 1 626 9 is_stmt 0 view .LVU398
ARM GAS  /tmp/ccEdQILT.s 			page 43


 1632 0004 0123     		movs	r3, #1
 1633 0006 3D21     		movs	r1, #61
 1634              	.LVL88:
 1635              		.loc 1 626 9 view .LVU399
 1636 0008 FFF7FEFF 		bl	lis2dw12_write_reg
 1637              	.LVL89:
 627:Drivers/BSP/Components/lis2dw12/lis2dw12_reg.c **** 
 628:Drivers/BSP/Components/lis2dw12/lis2dw12_reg.c ****   return ret;
 1638              		.loc 1 628 3 is_stmt 1 view .LVU400
 629:Drivers/BSP/Components/lis2dw12/lis2dw12_reg.c **** }
 1639              		.loc 1 629 1 is_stmt 0 view .LVU401
 1640 000c 08BD     		pop	{r3, pc}
 1641              		.cfi_endproc
 1642              	.LFE24:
 1644              		.section	.text.lis2dw12_usr_offset_y_get,"ax",%progbits
 1645              		.align	1
 1646              		.global	lis2dw12_usr_offset_y_get
 1647              		.syntax unified
 1648              		.thumb
 1649              		.thumb_func
 1650              		.fpu fpv4-sp-d16
 1652              	lis2dw12_usr_offset_y_get:
 1653              	.LVL90:
 1654              	.LFB25:
 630:Drivers/BSP/Components/lis2dw12/lis2dw12_reg.c **** 
 631:Drivers/BSP/Components/lis2dw12/lis2dw12_reg.c **** /**
 632:Drivers/BSP/Components/lis2dw12/lis2dw12_reg.c ****   * @brief  Accelerometer Y-axis user offset correction expressed in two's
 633:Drivers/BSP/Components/lis2dw12/lis2dw12_reg.c ****   *         complement, weight depends on bit USR_OFF_W. The value must be
 634:Drivers/BSP/Components/lis2dw12/lis2dw12_reg.c ****   *         in the range [-127 127].[get]
 635:Drivers/BSP/Components/lis2dw12/lis2dw12_reg.c ****   *
 636:Drivers/BSP/Components/lis2dw12/lis2dw12_reg.c ****   * @param  ctx      read / write interface definitions
 637:Drivers/BSP/Components/lis2dw12/lis2dw12_reg.c ****   * @param  buff     buffer that stores data read
 638:Drivers/BSP/Components/lis2dw12/lis2dw12_reg.c ****   * @retval          interface status (MANDATORY: return 0 -> no Error)
 639:Drivers/BSP/Components/lis2dw12/lis2dw12_reg.c ****   *
 640:Drivers/BSP/Components/lis2dw12/lis2dw12_reg.c ****   */
 641:Drivers/BSP/Components/lis2dw12/lis2dw12_reg.c **** int32_t lis2dw12_usr_offset_y_get(stmdev_ctx_t *ctx, uint8_t *buff)
 642:Drivers/BSP/Components/lis2dw12/lis2dw12_reg.c **** {
 1655              		.loc 1 642 1 is_stmt 1 view -0
 1656              		.cfi_startproc
 1657              		@ args = 0, pretend = 0, frame = 0
 1658              		@ frame_needed = 0, uses_anonymous_args = 0
 1659              		.loc 1 642 1 is_stmt 0 view .LVU403
 1660 0000 08B5     		push	{r3, lr}
 1661              	.LCFI41:
 1662              		.cfi_def_cfa_offset 8
 1663              		.cfi_offset 3, -8
 1664              		.cfi_offset 14, -4
 1665 0002 0A46     		mov	r2, r1
 643:Drivers/BSP/Components/lis2dw12/lis2dw12_reg.c ****   int32_t ret;
 1666              		.loc 1 643 3 is_stmt 1 view .LVU404
 644:Drivers/BSP/Components/lis2dw12/lis2dw12_reg.c **** 
 645:Drivers/BSP/Components/lis2dw12/lis2dw12_reg.c ****   ret = lis2dw12_read_reg(ctx, LIS2DW12_Y_OFS_USR, buff, 1);
 1667              		.loc 1 645 3 view .LVU405
 1668              		.loc 1 645 9 is_stmt 0 view .LVU406
 1669 0004 0123     		movs	r3, #1
 1670 0006 3D21     		movs	r1, #61
 1671              	.LVL91:
ARM GAS  /tmp/ccEdQILT.s 			page 44


 1672              		.loc 1 645 9 view .LVU407
 1673 0008 FFF7FEFF 		bl	lis2dw12_read_reg
 1674              	.LVL92:
 646:Drivers/BSP/Components/lis2dw12/lis2dw12_reg.c **** 
 647:Drivers/BSP/Components/lis2dw12/lis2dw12_reg.c ****   return ret;
 1675              		.loc 1 647 3 is_stmt 1 view .LVU408
 648:Drivers/BSP/Components/lis2dw12/lis2dw12_reg.c **** }
 1676              		.loc 1 648 1 is_stmt 0 view .LVU409
 1677 000c 08BD     		pop	{r3, pc}
 1678              		.cfi_endproc
 1679              	.LFE25:
 1681              		.section	.text.lis2dw12_usr_offset_z_set,"ax",%progbits
 1682              		.align	1
 1683              		.global	lis2dw12_usr_offset_z_set
 1684              		.syntax unified
 1685              		.thumb
 1686              		.thumb_func
 1687              		.fpu fpv4-sp-d16
 1689              	lis2dw12_usr_offset_z_set:
 1690              	.LVL93:
 1691              	.LFB26:
 649:Drivers/BSP/Components/lis2dw12/lis2dw12_reg.c **** 
 650:Drivers/BSP/Components/lis2dw12/lis2dw12_reg.c **** /**
 651:Drivers/BSP/Components/lis2dw12/lis2dw12_reg.c ****   * @brief  Accelerometer Z-axis user offset correction expressed in two's
 652:Drivers/BSP/Components/lis2dw12/lis2dw12_reg.c ****   *         complement, weight depends on bit USR_OFF_W. The value must be
 653:Drivers/BSP/Components/lis2dw12/lis2dw12_reg.c ****   *         in the range [-127 127].[set]
 654:Drivers/BSP/Components/lis2dw12/lis2dw12_reg.c ****   *
 655:Drivers/BSP/Components/lis2dw12/lis2dw12_reg.c ****   * @param  ctx      read / write interface definitions
 656:Drivers/BSP/Components/lis2dw12/lis2dw12_reg.c ****   * @param  buff     buffer that contains data to write
 657:Drivers/BSP/Components/lis2dw12/lis2dw12_reg.c ****   * @retval          interface status (MANDATORY: return 0 -> no Error)
 658:Drivers/BSP/Components/lis2dw12/lis2dw12_reg.c ****   *
 659:Drivers/BSP/Components/lis2dw12/lis2dw12_reg.c ****   */
 660:Drivers/BSP/Components/lis2dw12/lis2dw12_reg.c **** int32_t lis2dw12_usr_offset_z_set(stmdev_ctx_t *ctx, uint8_t *buff)
 661:Drivers/BSP/Components/lis2dw12/lis2dw12_reg.c **** {
 1692              		.loc 1 661 1 is_stmt 1 view -0
 1693              		.cfi_startproc
 1694              		@ args = 0, pretend = 0, frame = 0
 1695              		@ frame_needed = 0, uses_anonymous_args = 0
 1696              		.loc 1 661 1 is_stmt 0 view .LVU411
 1697 0000 08B5     		push	{r3, lr}
 1698              	.LCFI42:
 1699              		.cfi_def_cfa_offset 8
 1700              		.cfi_offset 3, -8
 1701              		.cfi_offset 14, -4
 1702 0002 0A46     		mov	r2, r1
 662:Drivers/BSP/Components/lis2dw12/lis2dw12_reg.c ****   int32_t ret;
 1703              		.loc 1 662 3 is_stmt 1 view .LVU412
 663:Drivers/BSP/Components/lis2dw12/lis2dw12_reg.c **** 
 664:Drivers/BSP/Components/lis2dw12/lis2dw12_reg.c ****   ret = lis2dw12_write_reg(ctx, LIS2DW12_Z_OFS_USR, buff, 1);
 1704              		.loc 1 664 3 view .LVU413
 1705              		.loc 1 664 9 is_stmt 0 view .LVU414
 1706 0004 0123     		movs	r3, #1
 1707 0006 3E21     		movs	r1, #62
 1708              	.LVL94:
 1709              		.loc 1 664 9 view .LVU415
 1710 0008 FFF7FEFF 		bl	lis2dw12_write_reg
 1711              	.LVL95:
ARM GAS  /tmp/ccEdQILT.s 			page 45


 665:Drivers/BSP/Components/lis2dw12/lis2dw12_reg.c **** 
 666:Drivers/BSP/Components/lis2dw12/lis2dw12_reg.c ****   return ret;
 1712              		.loc 1 666 3 is_stmt 1 view .LVU416
 667:Drivers/BSP/Components/lis2dw12/lis2dw12_reg.c **** }
 1713              		.loc 1 667 1 is_stmt 0 view .LVU417
 1714 000c 08BD     		pop	{r3, pc}
 1715              		.cfi_endproc
 1716              	.LFE26:
 1718              		.section	.text.lis2dw12_usr_offset_z_get,"ax",%progbits
 1719              		.align	1
 1720              		.global	lis2dw12_usr_offset_z_get
 1721              		.syntax unified
 1722              		.thumb
 1723              		.thumb_func
 1724              		.fpu fpv4-sp-d16
 1726              	lis2dw12_usr_offset_z_get:
 1727              	.LVL96:
 1728              	.LFB27:
 668:Drivers/BSP/Components/lis2dw12/lis2dw12_reg.c **** 
 669:Drivers/BSP/Components/lis2dw12/lis2dw12_reg.c **** /**
 670:Drivers/BSP/Components/lis2dw12/lis2dw12_reg.c ****   * @brief  Accelerometer Z-axis user offset correction expressed in two's
 671:Drivers/BSP/Components/lis2dw12/lis2dw12_reg.c ****   *         complement, weight depends on bit USR_OFF_W. The value must be
 672:Drivers/BSP/Components/lis2dw12/lis2dw12_reg.c ****   *         in the range [-127 127].[get]
 673:Drivers/BSP/Components/lis2dw12/lis2dw12_reg.c ****   *
 674:Drivers/BSP/Components/lis2dw12/lis2dw12_reg.c ****   * @param  ctx      read / write interface definitions
 675:Drivers/BSP/Components/lis2dw12/lis2dw12_reg.c ****   * @param  buff     buffer that stores data read
 676:Drivers/BSP/Components/lis2dw12/lis2dw12_reg.c ****   * @retval          interface status (MANDATORY: return 0 -> no Error)
 677:Drivers/BSP/Components/lis2dw12/lis2dw12_reg.c ****   *
 678:Drivers/BSP/Components/lis2dw12/lis2dw12_reg.c ****   */
 679:Drivers/BSP/Components/lis2dw12/lis2dw12_reg.c **** int32_t lis2dw12_usr_offset_z_get(stmdev_ctx_t *ctx, uint8_t *buff)
 680:Drivers/BSP/Components/lis2dw12/lis2dw12_reg.c **** {
 1729              		.loc 1 680 1 is_stmt 1 view -0
 1730              		.cfi_startproc
 1731              		@ args = 0, pretend = 0, frame = 0
 1732              		@ frame_needed = 0, uses_anonymous_args = 0
 1733              		.loc 1 680 1 is_stmt 0 view .LVU419
 1734 0000 08B5     		push	{r3, lr}
 1735              	.LCFI43:
 1736              		.cfi_def_cfa_offset 8
 1737              		.cfi_offset 3, -8
 1738              		.cfi_offset 14, -4
 1739 0002 0A46     		mov	r2, r1
 681:Drivers/BSP/Components/lis2dw12/lis2dw12_reg.c ****   int32_t ret;
 1740              		.loc 1 681 3 is_stmt 1 view .LVU420
 682:Drivers/BSP/Components/lis2dw12/lis2dw12_reg.c **** 
 683:Drivers/BSP/Components/lis2dw12/lis2dw12_reg.c ****   ret = lis2dw12_read_reg(ctx, LIS2DW12_Z_OFS_USR, buff, 1);
 1741              		.loc 1 683 3 view .LVU421
 1742              		.loc 1 683 9 is_stmt 0 view .LVU422
 1743 0004 0123     		movs	r3, #1
 1744 0006 3E21     		movs	r1, #62
 1745              	.LVL97:
 1746              		.loc 1 683 9 view .LVU423
 1747 0008 FFF7FEFF 		bl	lis2dw12_read_reg
 1748              	.LVL98:
 684:Drivers/BSP/Components/lis2dw12/lis2dw12_reg.c **** 
 685:Drivers/BSP/Components/lis2dw12/lis2dw12_reg.c ****   return ret;
 1749              		.loc 1 685 3 is_stmt 1 view .LVU424
ARM GAS  /tmp/ccEdQILT.s 			page 46


 686:Drivers/BSP/Components/lis2dw12/lis2dw12_reg.c **** }
 1750              		.loc 1 686 1 is_stmt 0 view .LVU425
 1751 000c 08BD     		pop	{r3, pc}
 1752              		.cfi_endproc
 1753              	.LFE27:
 1755              		.section	.text.lis2dw12_offset_weight_set,"ax",%progbits
 1756              		.align	1
 1757              		.global	lis2dw12_offset_weight_set
 1758              		.syntax unified
 1759              		.thumb
 1760              		.thumb_func
 1761              		.fpu fpv4-sp-d16
 1763              	lis2dw12_offset_weight_set:
 1764              	.LVL99:
 1765              	.LFB28:
 687:Drivers/BSP/Components/lis2dw12/lis2dw12_reg.c **** 
 688:Drivers/BSP/Components/lis2dw12/lis2dw12_reg.c **** /**
 689:Drivers/BSP/Components/lis2dw12/lis2dw12_reg.c ****   * @brief  Weight of XL user offset bits of registers X_OFS_USR,
 690:Drivers/BSP/Components/lis2dw12/lis2dw12_reg.c ****   *         Y_OFS_USR, Z_OFS_USR.[set]
 691:Drivers/BSP/Components/lis2dw12/lis2dw12_reg.c ****   *
 692:Drivers/BSP/Components/lis2dw12/lis2dw12_reg.c ****   * @param  ctx      read / write interface definitions
 693:Drivers/BSP/Components/lis2dw12/lis2dw12_reg.c ****   * @param  val      change the values of usr_off_w in
 694:Drivers/BSP/Components/lis2dw12/lis2dw12_reg.c ****   *                               reg CTRL_REG7
 695:Drivers/BSP/Components/lis2dw12/lis2dw12_reg.c ****   * @retval          interface status (MANDATORY: return 0 -> no Error)
 696:Drivers/BSP/Components/lis2dw12/lis2dw12_reg.c ****   *
 697:Drivers/BSP/Components/lis2dw12/lis2dw12_reg.c ****   */
 698:Drivers/BSP/Components/lis2dw12/lis2dw12_reg.c **** int32_t lis2dw12_offset_weight_set(stmdev_ctx_t *ctx,
 699:Drivers/BSP/Components/lis2dw12/lis2dw12_reg.c ****                                    lis2dw12_usr_off_w_t val)
 700:Drivers/BSP/Components/lis2dw12/lis2dw12_reg.c **** {
 1766              		.loc 1 700 1 is_stmt 1 view -0
 1767              		.cfi_startproc
 1768              		@ args = 0, pretend = 0, frame = 8
 1769              		@ frame_needed = 0, uses_anonymous_args = 0
 1770              		.loc 1 700 1 is_stmt 0 view .LVU427
 1771 0000 30B5     		push	{r4, r5, lr}
 1772              	.LCFI44:
 1773              		.cfi_def_cfa_offset 12
 1774              		.cfi_offset 4, -12
 1775              		.cfi_offset 5, -8
 1776              		.cfi_offset 14, -4
 1777 0002 83B0     		sub	sp, sp, #12
 1778              	.LCFI45:
 1779              		.cfi_def_cfa_offset 24
 1780 0004 0446     		mov	r4, r0
 1781 0006 0D46     		mov	r5, r1
 701:Drivers/BSP/Components/lis2dw12/lis2dw12_reg.c ****   lis2dw12_ctrl_reg7_t reg;
 1782              		.loc 1 701 3 is_stmt 1 view .LVU428
 702:Drivers/BSP/Components/lis2dw12/lis2dw12_reg.c ****   int32_t ret;
 1783              		.loc 1 702 3 view .LVU429
 703:Drivers/BSP/Components/lis2dw12/lis2dw12_reg.c **** 
 704:Drivers/BSP/Components/lis2dw12/lis2dw12_reg.c ****   ret = lis2dw12_read_reg(ctx, LIS2DW12_CTRL_REG7, (uint8_t *) &reg, 1);
 1784              		.loc 1 704 3 view .LVU430
 1785              		.loc 1 704 9 is_stmt 0 view .LVU431
 1786 0008 0123     		movs	r3, #1
 1787 000a 01AA     		add	r2, sp, #4
 1788 000c 3F21     		movs	r1, #63
 1789              	.LVL100:
ARM GAS  /tmp/ccEdQILT.s 			page 47


 1790              		.loc 1 704 9 view .LVU432
 1791 000e FFF7FEFF 		bl	lis2dw12_read_reg
 1792              	.LVL101:
 705:Drivers/BSP/Components/lis2dw12/lis2dw12_reg.c **** 
 706:Drivers/BSP/Components/lis2dw12/lis2dw12_reg.c ****   if (ret == 0)
 1793              		.loc 1 706 3 is_stmt 1 view .LVU433
 1794              		.loc 1 706 6 is_stmt 0 view .LVU434
 1795 0012 08B1     		cbz	r0, .L130
 1796              	.LVL102:
 1797              	.L127:
 707:Drivers/BSP/Components/lis2dw12/lis2dw12_reg.c ****   {
 708:Drivers/BSP/Components/lis2dw12/lis2dw12_reg.c ****     reg.usr_off_w = (uint8_t) val;
 709:Drivers/BSP/Components/lis2dw12/lis2dw12_reg.c ****     ret = lis2dw12_write_reg(ctx, LIS2DW12_CTRL_REG7, (uint8_t *) &reg, 1);
 710:Drivers/BSP/Components/lis2dw12/lis2dw12_reg.c ****   }
 711:Drivers/BSP/Components/lis2dw12/lis2dw12_reg.c **** 
 712:Drivers/BSP/Components/lis2dw12/lis2dw12_reg.c ****   return ret;
 713:Drivers/BSP/Components/lis2dw12/lis2dw12_reg.c **** }
 1798              		.loc 1 713 1 view .LVU435
 1799 0014 03B0     		add	sp, sp, #12
 1800              	.LCFI46:
 1801              		.cfi_remember_state
 1802              		.cfi_def_cfa_offset 12
 1803              		@ sp needed
 1804 0016 30BD     		pop	{r4, r5, pc}
 1805              	.LVL103:
 1806              	.L130:
 1807              	.LCFI47:
 1808              		.cfi_restore_state
 708:Drivers/BSP/Components/lis2dw12/lis2dw12_reg.c ****     ret = lis2dw12_write_reg(ctx, LIS2DW12_CTRL_REG7, (uint8_t *) &reg, 1);
 1809              		.loc 1 708 5 is_stmt 1 view .LVU436
 708:Drivers/BSP/Components/lis2dw12/lis2dw12_reg.c ****     ret = lis2dw12_write_reg(ctx, LIS2DW12_CTRL_REG7, (uint8_t *) &reg, 1);
 1810              		.loc 1 708 19 is_stmt 0 view .LVU437
 1811 0018 9DF80430 		ldrb	r3, [sp, #4]	@ zero_extendqisi2
 1812 001c 65F38203 		bfi	r3, r5, #2, #1
 1813 0020 8DF80430 		strb	r3, [sp, #4]
 709:Drivers/BSP/Components/lis2dw12/lis2dw12_reg.c ****   }
 1814              		.loc 1 709 5 is_stmt 1 view .LVU438
 709:Drivers/BSP/Components/lis2dw12/lis2dw12_reg.c ****   }
 1815              		.loc 1 709 11 is_stmt 0 view .LVU439
 1816 0024 0123     		movs	r3, #1
 1817              	.LVL104:
 709:Drivers/BSP/Components/lis2dw12/lis2dw12_reg.c ****   }
 1818              		.loc 1 709 11 view .LVU440
 1819 0026 01AA     		add	r2, sp, #4
 1820 0028 3F21     		movs	r1, #63
 1821 002a 2046     		mov	r0, r4
 1822 002c FFF7FEFF 		bl	lis2dw12_write_reg
 1823              	.LVL105:
 712:Drivers/BSP/Components/lis2dw12/lis2dw12_reg.c **** }
 1824              		.loc 1 712 3 is_stmt 1 view .LVU441
 712:Drivers/BSP/Components/lis2dw12/lis2dw12_reg.c **** }
 1825              		.loc 1 712 10 is_stmt 0 view .LVU442
 1826 0030 F0E7     		b	.L127
 1827              		.cfi_endproc
 1828              	.LFE28:
 1830              		.section	.text.lis2dw12_offset_weight_get,"ax",%progbits
 1831              		.align	1
ARM GAS  /tmp/ccEdQILT.s 			page 48


 1832              		.global	lis2dw12_offset_weight_get
 1833              		.syntax unified
 1834              		.thumb
 1835              		.thumb_func
 1836              		.fpu fpv4-sp-d16
 1838              	lis2dw12_offset_weight_get:
 1839              	.LVL106:
 1840              	.LFB29:
 714:Drivers/BSP/Components/lis2dw12/lis2dw12_reg.c **** 
 715:Drivers/BSP/Components/lis2dw12/lis2dw12_reg.c **** /**
 716:Drivers/BSP/Components/lis2dw12/lis2dw12_reg.c ****   * @brief  Weight of XL user offset bits of registers X_OFS_USR,
 717:Drivers/BSP/Components/lis2dw12/lis2dw12_reg.c ****   *         Y_OFS_USR, Z_OFS_USR.[get]
 718:Drivers/BSP/Components/lis2dw12/lis2dw12_reg.c ****   *
 719:Drivers/BSP/Components/lis2dw12/lis2dw12_reg.c ****   * @param  ctx      read / write interface definitions
 720:Drivers/BSP/Components/lis2dw12/lis2dw12_reg.c ****   * @param  val      Get the values of usr_off_w in reg CTRL_REG7
 721:Drivers/BSP/Components/lis2dw12/lis2dw12_reg.c ****   * @retval          interface status (MANDATORY: return 0 -> no Error)
 722:Drivers/BSP/Components/lis2dw12/lis2dw12_reg.c ****   *
 723:Drivers/BSP/Components/lis2dw12/lis2dw12_reg.c ****   */
 724:Drivers/BSP/Components/lis2dw12/lis2dw12_reg.c **** int32_t lis2dw12_offset_weight_get(stmdev_ctx_t *ctx,
 725:Drivers/BSP/Components/lis2dw12/lis2dw12_reg.c ****                                    lis2dw12_usr_off_w_t *val)
 726:Drivers/BSP/Components/lis2dw12/lis2dw12_reg.c **** {
 1841              		.loc 1 726 1 is_stmt 1 view -0
 1842              		.cfi_startproc
 1843              		@ args = 0, pretend = 0, frame = 8
 1844              		@ frame_needed = 0, uses_anonymous_args = 0
 1845              		.loc 1 726 1 is_stmt 0 view .LVU444
 1846 0000 10B5     		push	{r4, lr}
 1847              	.LCFI48:
 1848              		.cfi_def_cfa_offset 8
 1849              		.cfi_offset 4, -8
 1850              		.cfi_offset 14, -4
 1851 0002 82B0     		sub	sp, sp, #8
 1852              	.LCFI49:
 1853              		.cfi_def_cfa_offset 16
 1854 0004 0C46     		mov	r4, r1
 727:Drivers/BSP/Components/lis2dw12/lis2dw12_reg.c ****   lis2dw12_ctrl_reg7_t reg;
 1855              		.loc 1 727 3 is_stmt 1 view .LVU445
 728:Drivers/BSP/Components/lis2dw12/lis2dw12_reg.c ****   int32_t ret;
 1856              		.loc 1 728 3 view .LVU446
 729:Drivers/BSP/Components/lis2dw12/lis2dw12_reg.c **** 
 730:Drivers/BSP/Components/lis2dw12/lis2dw12_reg.c ****   ret = lis2dw12_read_reg(ctx, LIS2DW12_CTRL_REG7, (uint8_t *) &reg, 1);
 1857              		.loc 1 730 3 view .LVU447
 1858              		.loc 1 730 9 is_stmt 0 view .LVU448
 1859 0006 0123     		movs	r3, #1
 1860 0008 01AA     		add	r2, sp, #4
 1861 000a 3F21     		movs	r1, #63
 1862              	.LVL107:
 1863              		.loc 1 730 9 view .LVU449
 1864 000c FFF7FEFF 		bl	lis2dw12_read_reg
 1865              	.LVL108:
 731:Drivers/BSP/Components/lis2dw12/lis2dw12_reg.c **** 
 732:Drivers/BSP/Components/lis2dw12/lis2dw12_reg.c ****   switch (reg.usr_off_w)
 1866              		.loc 1 732 3 is_stmt 1 view .LVU450
 1867              		.loc 1 732 14 is_stmt 0 view .LVU451
 1868 0010 9DF80430 		ldrb	r3, [sp, #4]	@ zero_extendqisi2
 1869 0014 C3F38002 		ubfx	r2, r3, #2, #1
 1870              		.loc 1 732 3 view .LVU452
ARM GAS  /tmp/ccEdQILT.s 			page 49


 1871 0018 13F0040F 		tst	r3, #4
 1872 001c 03D0     		beq	.L132
 1873 001e 32B9     		cbnz	r2, .L133
 733:Drivers/BSP/Components/lis2dw12/lis2dw12_reg.c ****   {
 734:Drivers/BSP/Components/lis2dw12/lis2dw12_reg.c ****     case LIS2DW12_LSb_977ug:
 735:Drivers/BSP/Components/lis2dw12/lis2dw12_reg.c ****       *val = LIS2DW12_LSb_977ug;
 736:Drivers/BSP/Components/lis2dw12/lis2dw12_reg.c ****       break;
 737:Drivers/BSP/Components/lis2dw12/lis2dw12_reg.c **** 
 738:Drivers/BSP/Components/lis2dw12/lis2dw12_reg.c ****     case LIS2DW12_LSb_15mg6:
 739:Drivers/BSP/Components/lis2dw12/lis2dw12_reg.c ****       *val = LIS2DW12_LSb_15mg6;
 740:Drivers/BSP/Components/lis2dw12/lis2dw12_reg.c ****       break;
 741:Drivers/BSP/Components/lis2dw12/lis2dw12_reg.c **** 
 742:Drivers/BSP/Components/lis2dw12/lis2dw12_reg.c ****     default:
 743:Drivers/BSP/Components/lis2dw12/lis2dw12_reg.c ****       *val = LIS2DW12_LSb_977ug;
 1874              		.loc 1 743 7 is_stmt 1 view .LVU453
 1875              		.loc 1 743 12 is_stmt 0 view .LVU454
 1876 0020 0023     		movs	r3, #0
 1877 0022 2370     		strb	r3, [r4]
 744:Drivers/BSP/Components/lis2dw12/lis2dw12_reg.c ****       break;
 1878              		.loc 1 744 7 is_stmt 1 view .LVU455
 745:Drivers/BSP/Components/lis2dw12/lis2dw12_reg.c ****   }
 746:Drivers/BSP/Components/lis2dw12/lis2dw12_reg.c **** 
 747:Drivers/BSP/Components/lis2dw12/lis2dw12_reg.c ****   return ret;
 1879              		.loc 1 747 3 view .LVU456
 1880              		.loc 1 747 10 is_stmt 0 view .LVU457
 1881 0024 01E0     		b	.L131
 1882              	.L132:
 735:Drivers/BSP/Components/lis2dw12/lis2dw12_reg.c ****       break;
 1883              		.loc 1 735 7 is_stmt 1 view .LVU458
 735:Drivers/BSP/Components/lis2dw12/lis2dw12_reg.c ****       break;
 1884              		.loc 1 735 12 is_stmt 0 view .LVU459
 1885 0026 0023     		movs	r3, #0
 1886 0028 2370     		strb	r3, [r4]
 736:Drivers/BSP/Components/lis2dw12/lis2dw12_reg.c **** 
 1887              		.loc 1 736 7 is_stmt 1 view .LVU460
 1888              	.L131:
 748:Drivers/BSP/Components/lis2dw12/lis2dw12_reg.c **** }
 1889              		.loc 1 748 1 is_stmt 0 view .LVU461
 1890 002a 02B0     		add	sp, sp, #8
 1891              	.LCFI50:
 1892              		.cfi_remember_state
 1893              		.cfi_def_cfa_offset 8
 1894              		@ sp needed
 1895 002c 10BD     		pop	{r4, pc}
 1896              	.LVL109:
 1897              	.L133:
 1898              	.LCFI51:
 1899              		.cfi_restore_state
 739:Drivers/BSP/Components/lis2dw12/lis2dw12_reg.c ****       break;
 1900              		.loc 1 739 7 is_stmt 1 view .LVU462
 739:Drivers/BSP/Components/lis2dw12/lis2dw12_reg.c ****       break;
 1901              		.loc 1 739 12 is_stmt 0 view .LVU463
 1902 002e 0123     		movs	r3, #1
 1903 0030 2370     		strb	r3, [r4]
 740:Drivers/BSP/Components/lis2dw12/lis2dw12_reg.c **** 
 1904              		.loc 1 740 7 is_stmt 1 view .LVU464
 1905 0032 FAE7     		b	.L131
ARM GAS  /tmp/ccEdQILT.s 			page 50


 1906              		.cfi_endproc
 1907              	.LFE29:
 1909              		.section	.text.lis2dw12_temperature_raw_get,"ax",%progbits
 1910              		.align	1
 1911              		.global	lis2dw12_temperature_raw_get
 1912              		.syntax unified
 1913              		.thumb
 1914              		.thumb_func
 1915              		.fpu fpv4-sp-d16
 1917              	lis2dw12_temperature_raw_get:
 1918              	.LVL110:
 1919              	.LFB30:
 749:Drivers/BSP/Components/lis2dw12/lis2dw12_reg.c **** 
 750:Drivers/BSP/Components/lis2dw12/lis2dw12_reg.c **** /**
 751:Drivers/BSP/Components/lis2dw12/lis2dw12_reg.c ****   * @}
 752:Drivers/BSP/Components/lis2dw12/lis2dw12_reg.c ****   *
 753:Drivers/BSP/Components/lis2dw12/lis2dw12_reg.c ****   */
 754:Drivers/BSP/Components/lis2dw12/lis2dw12_reg.c **** 
 755:Drivers/BSP/Components/lis2dw12/lis2dw12_reg.c **** /**
 756:Drivers/BSP/Components/lis2dw12/lis2dw12_reg.c ****   * @defgroup  LIS2DW12_Data_Output
 757:Drivers/BSP/Components/lis2dw12/lis2dw12_reg.c ****   * @brief     This section groups all the data output functions.
 758:Drivers/BSP/Components/lis2dw12/lis2dw12_reg.c ****   * @{
 759:Drivers/BSP/Components/lis2dw12/lis2dw12_reg.c ****   *
 760:Drivers/BSP/Components/lis2dw12/lis2dw12_reg.c ****   */
 761:Drivers/BSP/Components/lis2dw12/lis2dw12_reg.c **** 
 762:Drivers/BSP/Components/lis2dw12/lis2dw12_reg.c **** /**
 763:Drivers/BSP/Components/lis2dw12/lis2dw12_reg.c ****   * @brief  Temperature data output register (r). L and H registers
 764:Drivers/BSP/Components/lis2dw12/lis2dw12_reg.c ****   *         together express a 16-bit word in two's complement.[get]
 765:Drivers/BSP/Components/lis2dw12/lis2dw12_reg.c ****   *
 766:Drivers/BSP/Components/lis2dw12/lis2dw12_reg.c ****   * @param  ctx      read / write interface definitions
 767:Drivers/BSP/Components/lis2dw12/lis2dw12_reg.c ****   * @param  val      buffer that stores data read
 768:Drivers/BSP/Components/lis2dw12/lis2dw12_reg.c ****   * @retval          interface status (MANDATORY: return 0 -> no Error)
 769:Drivers/BSP/Components/lis2dw12/lis2dw12_reg.c ****   *
 770:Drivers/BSP/Components/lis2dw12/lis2dw12_reg.c ****   */
 771:Drivers/BSP/Components/lis2dw12/lis2dw12_reg.c **** int32_t lis2dw12_temperature_raw_get(stmdev_ctx_t *ctx, int16_t *val)
 772:Drivers/BSP/Components/lis2dw12/lis2dw12_reg.c **** {
 1920              		.loc 1 772 1 view -0
 1921              		.cfi_startproc
 1922              		@ args = 0, pretend = 0, frame = 8
 1923              		@ frame_needed = 0, uses_anonymous_args = 0
 1924              		.loc 1 772 1 is_stmt 0 view .LVU466
 1925 0000 10B5     		push	{r4, lr}
 1926              	.LCFI52:
 1927              		.cfi_def_cfa_offset 8
 1928              		.cfi_offset 4, -8
 1929              		.cfi_offset 14, -4
 1930 0002 82B0     		sub	sp, sp, #8
 1931              	.LCFI53:
 1932              		.cfi_def_cfa_offset 16
 1933 0004 0C46     		mov	r4, r1
 773:Drivers/BSP/Components/lis2dw12/lis2dw12_reg.c ****   uint8_t buff[2];
 1934              		.loc 1 773 3 is_stmt 1 view .LVU467
 774:Drivers/BSP/Components/lis2dw12/lis2dw12_reg.c ****   int32_t ret;
 1935              		.loc 1 774 3 view .LVU468
 775:Drivers/BSP/Components/lis2dw12/lis2dw12_reg.c **** 
 776:Drivers/BSP/Components/lis2dw12/lis2dw12_reg.c ****   ret = lis2dw12_read_reg(ctx, LIS2DW12_OUT_T_L, buff, 2);
 1936              		.loc 1 776 3 view .LVU469
ARM GAS  /tmp/ccEdQILT.s 			page 51


 1937              		.loc 1 776 9 is_stmt 0 view .LVU470
 1938 0006 0223     		movs	r3, #2
 1939 0008 01AA     		add	r2, sp, #4
 1940 000a 0D21     		movs	r1, #13
 1941              	.LVL111:
 1942              		.loc 1 776 9 view .LVU471
 1943 000c FFF7FEFF 		bl	lis2dw12_read_reg
 1944              	.LVL112:
 777:Drivers/BSP/Components/lis2dw12/lis2dw12_reg.c ****   *val = (int16_t)buff[1];
 1945              		.loc 1 777 3 is_stmt 1 view .LVU472
 1946              		.loc 1 777 10 is_stmt 0 view .LVU473
 1947 0010 9DF80520 		ldrb	r2, [sp, #5]	@ zero_extendqisi2
 1948              		.loc 1 777 8 view .LVU474
 1949 0014 2280     		strh	r2, [r4]	@ movhi
 778:Drivers/BSP/Components/lis2dw12/lis2dw12_reg.c ****   *val = (*val * 256) + (int16_t)buff[0];
 1950              		.loc 1 778 3 is_stmt 1 view .LVU475
 1951              		.loc 1 778 38 is_stmt 0 view .LVU476
 1952 0016 9DF80430 		ldrb	r3, [sp, #4]	@ zero_extendqisi2
 1953              		.loc 1 778 23 view .LVU477
 1954 001a 03EB0223 		add	r3, r3, r2, lsl #8
 1955              		.loc 1 778 8 view .LVU478
 1956 001e 2380     		strh	r3, [r4]	@ movhi
 779:Drivers/BSP/Components/lis2dw12/lis2dw12_reg.c **** 
 780:Drivers/BSP/Components/lis2dw12/lis2dw12_reg.c ****   return ret;
 1957              		.loc 1 780 3 is_stmt 1 view .LVU479
 781:Drivers/BSP/Components/lis2dw12/lis2dw12_reg.c **** }
 1958              		.loc 1 781 1 is_stmt 0 view .LVU480
 1959 0020 02B0     		add	sp, sp, #8
 1960              	.LCFI54:
 1961              		.cfi_def_cfa_offset 8
 1962              		@ sp needed
 1963 0022 10BD     		pop	{r4, pc}
 1964              		.loc 1 781 1 view .LVU481
 1965              		.cfi_endproc
 1966              	.LFE30:
 1968              		.section	.text.lis2dw12_acceleration_raw_get,"ax",%progbits
 1969              		.align	1
 1970              		.global	lis2dw12_acceleration_raw_get
 1971              		.syntax unified
 1972              		.thumb
 1973              		.thumb_func
 1974              		.fpu fpv4-sp-d16
 1976              	lis2dw12_acceleration_raw_get:
 1977              	.LVL113:
 1978              	.LFB31:
 782:Drivers/BSP/Components/lis2dw12/lis2dw12_reg.c **** 
 783:Drivers/BSP/Components/lis2dw12/lis2dw12_reg.c **** /**
 784:Drivers/BSP/Components/lis2dw12/lis2dw12_reg.c ****   * @brief  Linear acceleration output register. The value is expressed as
 785:Drivers/BSP/Components/lis2dw12/lis2dw12_reg.c ****   *         a 16-bit word in two's complement.[get]
 786:Drivers/BSP/Components/lis2dw12/lis2dw12_reg.c ****   *
 787:Drivers/BSP/Components/lis2dw12/lis2dw12_reg.c ****   * @param  ctx      read / write interface definitions
 788:Drivers/BSP/Components/lis2dw12/lis2dw12_reg.c ****   * @param  val      buffer that stores data read
 789:Drivers/BSP/Components/lis2dw12/lis2dw12_reg.c ****   * @retval          interface status (MANDATORY: return 0 -> no Error)
 790:Drivers/BSP/Components/lis2dw12/lis2dw12_reg.c ****   *
 791:Drivers/BSP/Components/lis2dw12/lis2dw12_reg.c ****   */
 792:Drivers/BSP/Components/lis2dw12/lis2dw12_reg.c **** int32_t lis2dw12_acceleration_raw_get(stmdev_ctx_t *ctx, int16_t *val)
 793:Drivers/BSP/Components/lis2dw12/lis2dw12_reg.c **** {
ARM GAS  /tmp/ccEdQILT.s 			page 52


 1979              		.loc 1 793 1 is_stmt 1 view -0
 1980              		.cfi_startproc
 1981              		@ args = 0, pretend = 0, frame = 8
 1982              		@ frame_needed = 0, uses_anonymous_args = 0
 1983              		.loc 1 793 1 is_stmt 0 view .LVU483
 1984 0000 10B5     		push	{r4, lr}
 1985              	.LCFI55:
 1986              		.cfi_def_cfa_offset 8
 1987              		.cfi_offset 4, -8
 1988              		.cfi_offset 14, -4
 1989 0002 82B0     		sub	sp, sp, #8
 1990              	.LCFI56:
 1991              		.cfi_def_cfa_offset 16
 1992 0004 0C46     		mov	r4, r1
 794:Drivers/BSP/Components/lis2dw12/lis2dw12_reg.c ****   uint8_t buff[6];
 1993              		.loc 1 794 3 is_stmt 1 view .LVU484
 795:Drivers/BSP/Components/lis2dw12/lis2dw12_reg.c ****   int32_t ret;
 1994              		.loc 1 795 3 view .LVU485
 796:Drivers/BSP/Components/lis2dw12/lis2dw12_reg.c **** 
 797:Drivers/BSP/Components/lis2dw12/lis2dw12_reg.c ****   ret = lis2dw12_read_reg(ctx, LIS2DW12_OUT_X_L, buff, 6);
 1995              		.loc 1 797 3 view .LVU486
 1996              		.loc 1 797 9 is_stmt 0 view .LVU487
 1997 0006 0623     		movs	r3, #6
 1998 0008 6A46     		mov	r2, sp
 1999 000a 2821     		movs	r1, #40
 2000              	.LVL114:
 2001              		.loc 1 797 9 view .LVU488
 2002 000c FFF7FEFF 		bl	lis2dw12_read_reg
 2003              	.LVL115:
 798:Drivers/BSP/Components/lis2dw12/lis2dw12_reg.c ****   val[0] = (int16_t)buff[1];
 2004              		.loc 1 798 3 is_stmt 1 view .LVU489
 2005              		.loc 1 798 12 is_stmt 0 view .LVU490
 2006 0010 9DF80120 		ldrb	r2, [sp, #1]	@ zero_extendqisi2
 2007              		.loc 1 798 10 view .LVU491
 2008 0014 2280     		strh	r2, [r4]	@ movhi
 799:Drivers/BSP/Components/lis2dw12/lis2dw12_reg.c ****   val[0] = (val[0] * 256) + (int16_t)buff[0];
 2009              		.loc 1 799 3 is_stmt 1 view .LVU492
 2010              		.loc 1 799 42 is_stmt 0 view .LVU493
 2011 0016 9DF80030 		ldrb	r3, [sp]	@ zero_extendqisi2
 2012              		.loc 1 799 27 view .LVU494
 2013 001a 03EB0223 		add	r3, r3, r2, lsl #8
 2014              		.loc 1 799 10 view .LVU495
 2015 001e 2380     		strh	r3, [r4]	@ movhi
 800:Drivers/BSP/Components/lis2dw12/lis2dw12_reg.c ****   val[1] = (int16_t)buff[3];
 2016              		.loc 1 800 3 is_stmt 1 view .LVU496
 2017              		.loc 1 800 12 is_stmt 0 view .LVU497
 2018 0020 9DF80320 		ldrb	r2, [sp, #3]	@ zero_extendqisi2
 2019              		.loc 1 800 10 view .LVU498
 2020 0024 6280     		strh	r2, [r4, #2]	@ movhi
 801:Drivers/BSP/Components/lis2dw12/lis2dw12_reg.c ****   val[1] = (val[1] * 256) + (int16_t)buff[2];
 2021              		.loc 1 801 3 is_stmt 1 view .LVU499
 2022              		.loc 1 801 42 is_stmt 0 view .LVU500
 2023 0026 9DF80230 		ldrb	r3, [sp, #2]	@ zero_extendqisi2
 2024              		.loc 1 801 27 view .LVU501
 2025 002a 03EB0223 		add	r3, r3, r2, lsl #8
 2026              		.loc 1 801 10 view .LVU502
 2027 002e 6380     		strh	r3, [r4, #2]	@ movhi
ARM GAS  /tmp/ccEdQILT.s 			page 53


 802:Drivers/BSP/Components/lis2dw12/lis2dw12_reg.c ****   val[2] = (int16_t)buff[5];
 2028              		.loc 1 802 3 is_stmt 1 view .LVU503
 2029              		.loc 1 802 12 is_stmt 0 view .LVU504
 2030 0030 9DF80520 		ldrb	r2, [sp, #5]	@ zero_extendqisi2
 2031              		.loc 1 802 10 view .LVU505
 2032 0034 A280     		strh	r2, [r4, #4]	@ movhi
 803:Drivers/BSP/Components/lis2dw12/lis2dw12_reg.c ****   val[2] = (val[2] * 256) + (int16_t)buff[4];
 2033              		.loc 1 803 3 is_stmt 1 view .LVU506
 2034              		.loc 1 803 42 is_stmt 0 view .LVU507
 2035 0036 9DF80430 		ldrb	r3, [sp, #4]	@ zero_extendqisi2
 2036              		.loc 1 803 27 view .LVU508
 2037 003a 03EB0223 		add	r3, r3, r2, lsl #8
 2038              		.loc 1 803 10 view .LVU509
 2039 003e A380     		strh	r3, [r4, #4]	@ movhi
 804:Drivers/BSP/Components/lis2dw12/lis2dw12_reg.c **** 
 805:Drivers/BSP/Components/lis2dw12/lis2dw12_reg.c ****   return ret;
 2040              		.loc 1 805 3 is_stmt 1 view .LVU510
 806:Drivers/BSP/Components/lis2dw12/lis2dw12_reg.c **** }
 2041              		.loc 1 806 1 is_stmt 0 view .LVU511
 2042 0040 02B0     		add	sp, sp, #8
 2043              	.LCFI57:
 2044              		.cfi_def_cfa_offset 8
 2045              		@ sp needed
 2046 0042 10BD     		pop	{r4, pc}
 2047              		.loc 1 806 1 view .LVU512
 2048              		.cfi_endproc
 2049              	.LFE31:
 2051              		.section	.text.lis2dw12_device_id_get,"ax",%progbits
 2052              		.align	1
 2053              		.global	lis2dw12_device_id_get
 2054              		.syntax unified
 2055              		.thumb
 2056              		.thumb_func
 2057              		.fpu fpv4-sp-d16
 2059              	lis2dw12_device_id_get:
 2060              	.LVL116:
 2061              	.LFB32:
 807:Drivers/BSP/Components/lis2dw12/lis2dw12_reg.c **** 
 808:Drivers/BSP/Components/lis2dw12/lis2dw12_reg.c **** /**
 809:Drivers/BSP/Components/lis2dw12/lis2dw12_reg.c ****   * @}
 810:Drivers/BSP/Components/lis2dw12/lis2dw12_reg.c ****   *
 811:Drivers/BSP/Components/lis2dw12/lis2dw12_reg.c ****   */
 812:Drivers/BSP/Components/lis2dw12/lis2dw12_reg.c **** 
 813:Drivers/BSP/Components/lis2dw12/lis2dw12_reg.c **** /**
 814:Drivers/BSP/Components/lis2dw12/lis2dw12_reg.c ****   * @defgroup  LIS2DW12_Common
 815:Drivers/BSP/Components/lis2dw12/lis2dw12_reg.c ****   * @brief     This section groups common useful functions.
 816:Drivers/BSP/Components/lis2dw12/lis2dw12_reg.c ****   * @{
 817:Drivers/BSP/Components/lis2dw12/lis2dw12_reg.c ****   *
 818:Drivers/BSP/Components/lis2dw12/lis2dw12_reg.c ****   */
 819:Drivers/BSP/Components/lis2dw12/lis2dw12_reg.c **** 
 820:Drivers/BSP/Components/lis2dw12/lis2dw12_reg.c **** /**
 821:Drivers/BSP/Components/lis2dw12/lis2dw12_reg.c ****   * @brief  Device Who am I.[get]
 822:Drivers/BSP/Components/lis2dw12/lis2dw12_reg.c ****   *
 823:Drivers/BSP/Components/lis2dw12/lis2dw12_reg.c ****   * @param  ctx      read / write interface definitions
 824:Drivers/BSP/Components/lis2dw12/lis2dw12_reg.c ****   * @param  buff     buffer that stores data read
 825:Drivers/BSP/Components/lis2dw12/lis2dw12_reg.c ****   * @retval          interface status (MANDATORY: return 0 -> no Error)
 826:Drivers/BSP/Components/lis2dw12/lis2dw12_reg.c ****   *
ARM GAS  /tmp/ccEdQILT.s 			page 54


 827:Drivers/BSP/Components/lis2dw12/lis2dw12_reg.c ****   */
 828:Drivers/BSP/Components/lis2dw12/lis2dw12_reg.c **** int32_t lis2dw12_device_id_get(stmdev_ctx_t *ctx, uint8_t *buff)
 829:Drivers/BSP/Components/lis2dw12/lis2dw12_reg.c **** {
 2062              		.loc 1 829 1 is_stmt 1 view -0
 2063              		.cfi_startproc
 2064              		@ args = 0, pretend = 0, frame = 0
 2065              		@ frame_needed = 0, uses_anonymous_args = 0
 2066              		.loc 1 829 1 is_stmt 0 view .LVU514
 2067 0000 08B5     		push	{r3, lr}
 2068              	.LCFI58:
 2069              		.cfi_def_cfa_offset 8
 2070              		.cfi_offset 3, -8
 2071              		.cfi_offset 14, -4
 2072 0002 0A46     		mov	r2, r1
 830:Drivers/BSP/Components/lis2dw12/lis2dw12_reg.c ****   int32_t ret;
 2073              		.loc 1 830 3 is_stmt 1 view .LVU515
 831:Drivers/BSP/Components/lis2dw12/lis2dw12_reg.c **** 
 832:Drivers/BSP/Components/lis2dw12/lis2dw12_reg.c ****   ret = lis2dw12_read_reg(ctx, LIS2DW12_WHO_AM_I, buff, 1);
 2074              		.loc 1 832 3 view .LVU516
 2075              		.loc 1 832 9 is_stmt 0 view .LVU517
 2076 0004 0123     		movs	r3, #1
 2077 0006 0F21     		movs	r1, #15
 2078              	.LVL117:
 2079              		.loc 1 832 9 view .LVU518
 2080 0008 FFF7FEFF 		bl	lis2dw12_read_reg
 2081              	.LVL118:
 833:Drivers/BSP/Components/lis2dw12/lis2dw12_reg.c **** 
 834:Drivers/BSP/Components/lis2dw12/lis2dw12_reg.c ****   return ret;
 2082              		.loc 1 834 3 is_stmt 1 view .LVU519
 835:Drivers/BSP/Components/lis2dw12/lis2dw12_reg.c **** }
 2083              		.loc 1 835 1 is_stmt 0 view .LVU520
 2084 000c 08BD     		pop	{r3, pc}
 2085              		.cfi_endproc
 2086              	.LFE32:
 2088              		.section	.text.lis2dw12_auto_increment_set,"ax",%progbits
 2089              		.align	1
 2090              		.global	lis2dw12_auto_increment_set
 2091              		.syntax unified
 2092              		.thumb
 2093              		.thumb_func
 2094              		.fpu fpv4-sp-d16
 2096              	lis2dw12_auto_increment_set:
 2097              	.LVL119:
 2098              	.LFB33:
 836:Drivers/BSP/Components/lis2dw12/lis2dw12_reg.c **** 
 837:Drivers/BSP/Components/lis2dw12/lis2dw12_reg.c **** /**
 838:Drivers/BSP/Components/lis2dw12/lis2dw12_reg.c ****   * @brief  Register address automatically incremented during multiple byte
 839:Drivers/BSP/Components/lis2dw12/lis2dw12_reg.c ****   *         access with a serial interface.[set]
 840:Drivers/BSP/Components/lis2dw12/lis2dw12_reg.c ****   *
 841:Drivers/BSP/Components/lis2dw12/lis2dw12_reg.c ****   * @param  ctx      read / write interface definitions
 842:Drivers/BSP/Components/lis2dw12/lis2dw12_reg.c ****   * @param  val      change the values of if_add_inc in reg CTRL2
 843:Drivers/BSP/Components/lis2dw12/lis2dw12_reg.c ****   * @retval          interface status (MANDATORY: return 0 -> no Error)
 844:Drivers/BSP/Components/lis2dw12/lis2dw12_reg.c ****   *
 845:Drivers/BSP/Components/lis2dw12/lis2dw12_reg.c ****   */
 846:Drivers/BSP/Components/lis2dw12/lis2dw12_reg.c **** int32_t lis2dw12_auto_increment_set(stmdev_ctx_t *ctx, uint8_t val)
 847:Drivers/BSP/Components/lis2dw12/lis2dw12_reg.c **** {
 2099              		.loc 1 847 1 is_stmt 1 view -0
ARM GAS  /tmp/ccEdQILT.s 			page 55


 2100              		.cfi_startproc
 2101              		@ args = 0, pretend = 0, frame = 8
 2102              		@ frame_needed = 0, uses_anonymous_args = 0
 2103              		.loc 1 847 1 is_stmt 0 view .LVU522
 2104 0000 30B5     		push	{r4, r5, lr}
 2105              	.LCFI59:
 2106              		.cfi_def_cfa_offset 12
 2107              		.cfi_offset 4, -12
 2108              		.cfi_offset 5, -8
 2109              		.cfi_offset 14, -4
 2110 0002 83B0     		sub	sp, sp, #12
 2111              	.LCFI60:
 2112              		.cfi_def_cfa_offset 24
 2113 0004 0446     		mov	r4, r0
 2114 0006 0D46     		mov	r5, r1
 848:Drivers/BSP/Components/lis2dw12/lis2dw12_reg.c ****   lis2dw12_ctrl2_t reg;
 2115              		.loc 1 848 3 is_stmt 1 view .LVU523
 849:Drivers/BSP/Components/lis2dw12/lis2dw12_reg.c ****   int32_t ret;
 2116              		.loc 1 849 3 view .LVU524
 850:Drivers/BSP/Components/lis2dw12/lis2dw12_reg.c **** 
 851:Drivers/BSP/Components/lis2dw12/lis2dw12_reg.c ****   ret = lis2dw12_read_reg(ctx, LIS2DW12_CTRL2, (uint8_t *) &reg, 1);
 2117              		.loc 1 851 3 view .LVU525
 2118              		.loc 1 851 9 is_stmt 0 view .LVU526
 2119 0008 0123     		movs	r3, #1
 2120 000a 01AA     		add	r2, sp, #4
 2121 000c 2121     		movs	r1, #33
 2122              	.LVL120:
 2123              		.loc 1 851 9 view .LVU527
 2124 000e FFF7FEFF 		bl	lis2dw12_read_reg
 2125              	.LVL121:
 852:Drivers/BSP/Components/lis2dw12/lis2dw12_reg.c **** 
 853:Drivers/BSP/Components/lis2dw12/lis2dw12_reg.c ****   if (ret == 0)
 2126              		.loc 1 853 3 is_stmt 1 view .LVU528
 2127              		.loc 1 853 6 is_stmt 0 view .LVU529
 2128 0012 08B1     		cbz	r0, .L147
 2129              	.LVL122:
 2130              	.L144:
 854:Drivers/BSP/Components/lis2dw12/lis2dw12_reg.c ****   {
 855:Drivers/BSP/Components/lis2dw12/lis2dw12_reg.c ****     reg.if_add_inc = val;
 856:Drivers/BSP/Components/lis2dw12/lis2dw12_reg.c ****     ret = lis2dw12_write_reg(ctx, LIS2DW12_CTRL2, (uint8_t *) &reg, 1);
 857:Drivers/BSP/Components/lis2dw12/lis2dw12_reg.c ****   }
 858:Drivers/BSP/Components/lis2dw12/lis2dw12_reg.c **** 
 859:Drivers/BSP/Components/lis2dw12/lis2dw12_reg.c ****   return ret;
 860:Drivers/BSP/Components/lis2dw12/lis2dw12_reg.c **** }
 2131              		.loc 1 860 1 view .LVU530
 2132 0014 03B0     		add	sp, sp, #12
 2133              	.LCFI61:
 2134              		.cfi_remember_state
 2135              		.cfi_def_cfa_offset 12
 2136              		@ sp needed
 2137 0016 30BD     		pop	{r4, r5, pc}
 2138              	.LVL123:
 2139              	.L147:
 2140              	.LCFI62:
 2141              		.cfi_restore_state
 855:Drivers/BSP/Components/lis2dw12/lis2dw12_reg.c ****     ret = lis2dw12_write_reg(ctx, LIS2DW12_CTRL2, (uint8_t *) &reg, 1);
 2142              		.loc 1 855 5 is_stmt 1 view .LVU531
ARM GAS  /tmp/ccEdQILT.s 			page 56


 855:Drivers/BSP/Components/lis2dw12/lis2dw12_reg.c ****     ret = lis2dw12_write_reg(ctx, LIS2DW12_CTRL2, (uint8_t *) &reg, 1);
 2143              		.loc 1 855 20 is_stmt 0 view .LVU532
 2144 0018 9DF80430 		ldrb	r3, [sp, #4]	@ zero_extendqisi2
 2145 001c 65F38203 		bfi	r3, r5, #2, #1
 2146 0020 8DF80430 		strb	r3, [sp, #4]
 856:Drivers/BSP/Components/lis2dw12/lis2dw12_reg.c ****   }
 2147              		.loc 1 856 5 is_stmt 1 view .LVU533
 856:Drivers/BSP/Components/lis2dw12/lis2dw12_reg.c ****   }
 2148              		.loc 1 856 11 is_stmt 0 view .LVU534
 2149 0024 0123     		movs	r3, #1
 2150              	.LVL124:
 856:Drivers/BSP/Components/lis2dw12/lis2dw12_reg.c ****   }
 2151              		.loc 1 856 11 view .LVU535
 2152 0026 01AA     		add	r2, sp, #4
 2153 0028 2121     		movs	r1, #33
 2154 002a 2046     		mov	r0, r4
 2155 002c FFF7FEFF 		bl	lis2dw12_write_reg
 2156              	.LVL125:
 859:Drivers/BSP/Components/lis2dw12/lis2dw12_reg.c **** }
 2157              		.loc 1 859 3 is_stmt 1 view .LVU536
 859:Drivers/BSP/Components/lis2dw12/lis2dw12_reg.c **** }
 2158              		.loc 1 859 10 is_stmt 0 view .LVU537
 2159 0030 F0E7     		b	.L144
 2160              		.cfi_endproc
 2161              	.LFE33:
 2163              		.section	.text.lis2dw12_auto_increment_get,"ax",%progbits
 2164              		.align	1
 2165              		.global	lis2dw12_auto_increment_get
 2166              		.syntax unified
 2167              		.thumb
 2168              		.thumb_func
 2169              		.fpu fpv4-sp-d16
 2171              	lis2dw12_auto_increment_get:
 2172              	.LVL126:
 2173              	.LFB34:
 861:Drivers/BSP/Components/lis2dw12/lis2dw12_reg.c **** 
 862:Drivers/BSP/Components/lis2dw12/lis2dw12_reg.c **** /**
 863:Drivers/BSP/Components/lis2dw12/lis2dw12_reg.c ****   * @brief  Register address automatically incremented during multiple
 864:Drivers/BSP/Components/lis2dw12/lis2dw12_reg.c ****   *         byte access with a serial interface.[get]
 865:Drivers/BSP/Components/lis2dw12/lis2dw12_reg.c ****   *
 866:Drivers/BSP/Components/lis2dw12/lis2dw12_reg.c ****   * @param  ctx      read / write interface definitions
 867:Drivers/BSP/Components/lis2dw12/lis2dw12_reg.c ****   * @param  val      change the values of if_add_inc in reg CTRL2
 868:Drivers/BSP/Components/lis2dw12/lis2dw12_reg.c ****   * @retval          interface status (MANDATORY: return 0 -> no Error)
 869:Drivers/BSP/Components/lis2dw12/lis2dw12_reg.c ****   *
 870:Drivers/BSP/Components/lis2dw12/lis2dw12_reg.c ****   */
 871:Drivers/BSP/Components/lis2dw12/lis2dw12_reg.c **** int32_t lis2dw12_auto_increment_get(stmdev_ctx_t *ctx, uint8_t *val)
 872:Drivers/BSP/Components/lis2dw12/lis2dw12_reg.c **** {
 2174              		.loc 1 872 1 is_stmt 1 view -0
 2175              		.cfi_startproc
 2176              		@ args = 0, pretend = 0, frame = 8
 2177              		@ frame_needed = 0, uses_anonymous_args = 0
 2178              		.loc 1 872 1 is_stmt 0 view .LVU539
 2179 0000 10B5     		push	{r4, lr}
 2180              	.LCFI63:
 2181              		.cfi_def_cfa_offset 8
 2182              		.cfi_offset 4, -8
 2183              		.cfi_offset 14, -4
ARM GAS  /tmp/ccEdQILT.s 			page 57


 2184 0002 82B0     		sub	sp, sp, #8
 2185              	.LCFI64:
 2186              		.cfi_def_cfa_offset 16
 2187 0004 0C46     		mov	r4, r1
 873:Drivers/BSP/Components/lis2dw12/lis2dw12_reg.c ****   lis2dw12_ctrl2_t reg;
 2188              		.loc 1 873 3 is_stmt 1 view .LVU540
 874:Drivers/BSP/Components/lis2dw12/lis2dw12_reg.c ****   int32_t ret;
 2189              		.loc 1 874 3 view .LVU541
 875:Drivers/BSP/Components/lis2dw12/lis2dw12_reg.c **** 
 876:Drivers/BSP/Components/lis2dw12/lis2dw12_reg.c ****   ret = lis2dw12_read_reg(ctx, LIS2DW12_CTRL2, (uint8_t *) &reg, 1);
 2190              		.loc 1 876 3 view .LVU542
 2191              		.loc 1 876 9 is_stmt 0 view .LVU543
 2192 0006 0123     		movs	r3, #1
 2193 0008 01AA     		add	r2, sp, #4
 2194 000a 2121     		movs	r1, #33
 2195              	.LVL127:
 2196              		.loc 1 876 9 view .LVU544
 2197 000c FFF7FEFF 		bl	lis2dw12_read_reg
 2198              	.LVL128:
 877:Drivers/BSP/Components/lis2dw12/lis2dw12_reg.c ****   *val = reg.if_add_inc;
 2199              		.loc 1 877 3 is_stmt 1 view .LVU545
 2200              		.loc 1 877 13 is_stmt 0 view .LVU546
 2201 0010 9DF80430 		ldrb	r3, [sp, #4]	@ zero_extendqisi2
 2202 0014 C3F38003 		ubfx	r3, r3, #2, #1
 2203              		.loc 1 877 8 view .LVU547
 2204 0018 2370     		strb	r3, [r4]
 878:Drivers/BSP/Components/lis2dw12/lis2dw12_reg.c **** 
 879:Drivers/BSP/Components/lis2dw12/lis2dw12_reg.c ****   return ret;
 2205              		.loc 1 879 3 is_stmt 1 view .LVU548
 880:Drivers/BSP/Components/lis2dw12/lis2dw12_reg.c **** }
 2206              		.loc 1 880 1 is_stmt 0 view .LVU549
 2207 001a 02B0     		add	sp, sp, #8
 2208              	.LCFI65:
 2209              		.cfi_def_cfa_offset 8
 2210              		@ sp needed
 2211 001c 10BD     		pop	{r4, pc}
 2212              		.loc 1 880 1 view .LVU550
 2213              		.cfi_endproc
 2214              	.LFE34:
 2216              		.section	.text.lis2dw12_reset_set,"ax",%progbits
 2217              		.align	1
 2218              		.global	lis2dw12_reset_set
 2219              		.syntax unified
 2220              		.thumb
 2221              		.thumb_func
 2222              		.fpu fpv4-sp-d16
 2224              	lis2dw12_reset_set:
 2225              	.LVL129:
 2226              	.LFB35:
 881:Drivers/BSP/Components/lis2dw12/lis2dw12_reg.c **** 
 882:Drivers/BSP/Components/lis2dw12/lis2dw12_reg.c **** /**
 883:Drivers/BSP/Components/lis2dw12/lis2dw12_reg.c ****   * @brief  Software reset. Restore the default values in user registers.[set]
 884:Drivers/BSP/Components/lis2dw12/lis2dw12_reg.c ****   *
 885:Drivers/BSP/Components/lis2dw12/lis2dw12_reg.c ****   * @param  ctx      read / write interface definitions
 886:Drivers/BSP/Components/lis2dw12/lis2dw12_reg.c ****   * @param  val      change the values of soft_reset in reg CTRL2
 887:Drivers/BSP/Components/lis2dw12/lis2dw12_reg.c ****   * @retval          interface status (MANDATORY: return 0 -> no Error)
 888:Drivers/BSP/Components/lis2dw12/lis2dw12_reg.c ****   *
ARM GAS  /tmp/ccEdQILT.s 			page 58


 889:Drivers/BSP/Components/lis2dw12/lis2dw12_reg.c ****   */
 890:Drivers/BSP/Components/lis2dw12/lis2dw12_reg.c **** int32_t lis2dw12_reset_set(stmdev_ctx_t *ctx, uint8_t val)
 891:Drivers/BSP/Components/lis2dw12/lis2dw12_reg.c **** {
 2227              		.loc 1 891 1 is_stmt 1 view -0
 2228              		.cfi_startproc
 2229              		@ args = 0, pretend = 0, frame = 8
 2230              		@ frame_needed = 0, uses_anonymous_args = 0
 2231              		.loc 1 891 1 is_stmt 0 view .LVU552
 2232 0000 30B5     		push	{r4, r5, lr}
 2233              	.LCFI66:
 2234              		.cfi_def_cfa_offset 12
 2235              		.cfi_offset 4, -12
 2236              		.cfi_offset 5, -8
 2237              		.cfi_offset 14, -4
 2238 0002 83B0     		sub	sp, sp, #12
 2239              	.LCFI67:
 2240              		.cfi_def_cfa_offset 24
 2241 0004 0446     		mov	r4, r0
 2242 0006 0D46     		mov	r5, r1
 892:Drivers/BSP/Components/lis2dw12/lis2dw12_reg.c ****   lis2dw12_ctrl2_t reg;
 2243              		.loc 1 892 3 is_stmt 1 view .LVU553
 893:Drivers/BSP/Components/lis2dw12/lis2dw12_reg.c ****   int32_t ret;
 2244              		.loc 1 893 3 view .LVU554
 894:Drivers/BSP/Components/lis2dw12/lis2dw12_reg.c **** 
 895:Drivers/BSP/Components/lis2dw12/lis2dw12_reg.c ****   ret = lis2dw12_read_reg(ctx, LIS2DW12_CTRL2, (uint8_t *) &reg, 1);
 2245              		.loc 1 895 3 view .LVU555
 2246              		.loc 1 895 9 is_stmt 0 view .LVU556
 2247 0008 0123     		movs	r3, #1
 2248 000a 01AA     		add	r2, sp, #4
 2249 000c 2121     		movs	r1, #33
 2250              	.LVL130:
 2251              		.loc 1 895 9 view .LVU557
 2252 000e FFF7FEFF 		bl	lis2dw12_read_reg
 2253              	.LVL131:
 896:Drivers/BSP/Components/lis2dw12/lis2dw12_reg.c **** 
 897:Drivers/BSP/Components/lis2dw12/lis2dw12_reg.c ****   if (ret == 0)
 2254              		.loc 1 897 3 is_stmt 1 view .LVU558
 2255              		.loc 1 897 6 is_stmt 0 view .LVU559
 2256 0012 08B1     		cbz	r0, .L153
 2257              	.LVL132:
 2258              	.L150:
 898:Drivers/BSP/Components/lis2dw12/lis2dw12_reg.c ****   {
 899:Drivers/BSP/Components/lis2dw12/lis2dw12_reg.c ****     reg.soft_reset = val;
 900:Drivers/BSP/Components/lis2dw12/lis2dw12_reg.c ****     ret = lis2dw12_write_reg(ctx, LIS2DW12_CTRL2, (uint8_t *) &reg, 1);
 901:Drivers/BSP/Components/lis2dw12/lis2dw12_reg.c ****   }
 902:Drivers/BSP/Components/lis2dw12/lis2dw12_reg.c **** 
 903:Drivers/BSP/Components/lis2dw12/lis2dw12_reg.c ****   return ret;
 904:Drivers/BSP/Components/lis2dw12/lis2dw12_reg.c **** }
 2259              		.loc 1 904 1 view .LVU560
 2260 0014 03B0     		add	sp, sp, #12
 2261              	.LCFI68:
 2262              		.cfi_remember_state
 2263              		.cfi_def_cfa_offset 12
 2264              		@ sp needed
 2265 0016 30BD     		pop	{r4, r5, pc}
 2266              	.LVL133:
 2267              	.L153:
ARM GAS  /tmp/ccEdQILT.s 			page 59


 2268              	.LCFI69:
 2269              		.cfi_restore_state
 899:Drivers/BSP/Components/lis2dw12/lis2dw12_reg.c ****     ret = lis2dw12_write_reg(ctx, LIS2DW12_CTRL2, (uint8_t *) &reg, 1);
 2270              		.loc 1 899 5 is_stmt 1 view .LVU561
 899:Drivers/BSP/Components/lis2dw12/lis2dw12_reg.c ****     ret = lis2dw12_write_reg(ctx, LIS2DW12_CTRL2, (uint8_t *) &reg, 1);
 2271              		.loc 1 899 20 is_stmt 0 view .LVU562
 2272 0018 9DF80430 		ldrb	r3, [sp, #4]	@ zero_extendqisi2
 2273 001c 65F38613 		bfi	r3, r5, #6, #1
 2274 0020 8DF80430 		strb	r3, [sp, #4]
 900:Drivers/BSP/Components/lis2dw12/lis2dw12_reg.c ****   }
 2275              		.loc 1 900 5 is_stmt 1 view .LVU563
 900:Drivers/BSP/Components/lis2dw12/lis2dw12_reg.c ****   }
 2276              		.loc 1 900 11 is_stmt 0 view .LVU564
 2277 0024 0123     		movs	r3, #1
 2278              	.LVL134:
 900:Drivers/BSP/Components/lis2dw12/lis2dw12_reg.c ****   }
 2279              		.loc 1 900 11 view .LVU565
 2280 0026 01AA     		add	r2, sp, #4
 2281 0028 2121     		movs	r1, #33
 2282 002a 2046     		mov	r0, r4
 2283 002c FFF7FEFF 		bl	lis2dw12_write_reg
 2284              	.LVL135:
 903:Drivers/BSP/Components/lis2dw12/lis2dw12_reg.c **** }
 2285              		.loc 1 903 3 is_stmt 1 view .LVU566
 903:Drivers/BSP/Components/lis2dw12/lis2dw12_reg.c **** }
 2286              		.loc 1 903 10 is_stmt 0 view .LVU567
 2287 0030 F0E7     		b	.L150
 2288              		.cfi_endproc
 2289              	.LFE35:
 2291              		.section	.text.lis2dw12_reset_get,"ax",%progbits
 2292              		.align	1
 2293              		.global	lis2dw12_reset_get
 2294              		.syntax unified
 2295              		.thumb
 2296              		.thumb_func
 2297              		.fpu fpv4-sp-d16
 2299              	lis2dw12_reset_get:
 2300              	.LVL136:
 2301              	.LFB36:
 905:Drivers/BSP/Components/lis2dw12/lis2dw12_reg.c **** 
 906:Drivers/BSP/Components/lis2dw12/lis2dw12_reg.c **** /**
 907:Drivers/BSP/Components/lis2dw12/lis2dw12_reg.c ****   * @brief  Software reset. Restore the default values in user registers.[get]
 908:Drivers/BSP/Components/lis2dw12/lis2dw12_reg.c ****   *
 909:Drivers/BSP/Components/lis2dw12/lis2dw12_reg.c ****   * @param  ctx      read / write interface definitions
 910:Drivers/BSP/Components/lis2dw12/lis2dw12_reg.c ****   * @param  val      change the values of soft_reset in reg CTRL2
 911:Drivers/BSP/Components/lis2dw12/lis2dw12_reg.c ****   * @retval          interface status (MANDATORY: return 0 -> no Error)
 912:Drivers/BSP/Components/lis2dw12/lis2dw12_reg.c ****   *
 913:Drivers/BSP/Components/lis2dw12/lis2dw12_reg.c ****   */
 914:Drivers/BSP/Components/lis2dw12/lis2dw12_reg.c **** int32_t lis2dw12_reset_get(stmdev_ctx_t *ctx, uint8_t *val)
 915:Drivers/BSP/Components/lis2dw12/lis2dw12_reg.c **** {
 2302              		.loc 1 915 1 is_stmt 1 view -0
 2303              		.cfi_startproc
 2304              		@ args = 0, pretend = 0, frame = 8
 2305              		@ frame_needed = 0, uses_anonymous_args = 0
 2306              		.loc 1 915 1 is_stmt 0 view .LVU569
 2307 0000 10B5     		push	{r4, lr}
 2308              	.LCFI70:
ARM GAS  /tmp/ccEdQILT.s 			page 60


 2309              		.cfi_def_cfa_offset 8
 2310              		.cfi_offset 4, -8
 2311              		.cfi_offset 14, -4
 2312 0002 82B0     		sub	sp, sp, #8
 2313              	.LCFI71:
 2314              		.cfi_def_cfa_offset 16
 2315 0004 0C46     		mov	r4, r1
 916:Drivers/BSP/Components/lis2dw12/lis2dw12_reg.c ****   lis2dw12_ctrl2_t reg;
 2316              		.loc 1 916 3 is_stmt 1 view .LVU570
 917:Drivers/BSP/Components/lis2dw12/lis2dw12_reg.c ****   int32_t ret;
 2317              		.loc 1 917 3 view .LVU571
 918:Drivers/BSP/Components/lis2dw12/lis2dw12_reg.c **** 
 919:Drivers/BSP/Components/lis2dw12/lis2dw12_reg.c ****   ret = lis2dw12_read_reg(ctx, LIS2DW12_CTRL2, (uint8_t *) &reg, 1);
 2318              		.loc 1 919 3 view .LVU572
 2319              		.loc 1 919 9 is_stmt 0 view .LVU573
 2320 0006 0123     		movs	r3, #1
 2321 0008 01AA     		add	r2, sp, #4
 2322 000a 2121     		movs	r1, #33
 2323              	.LVL137:
 2324              		.loc 1 919 9 view .LVU574
 2325 000c FFF7FEFF 		bl	lis2dw12_read_reg
 2326              	.LVL138:
 920:Drivers/BSP/Components/lis2dw12/lis2dw12_reg.c ****   *val = reg.soft_reset;
 2327              		.loc 1 920 3 is_stmt 1 view .LVU575
 2328              		.loc 1 920 13 is_stmt 0 view .LVU576
 2329 0010 9DF80430 		ldrb	r3, [sp, #4]	@ zero_extendqisi2
 2330 0014 C3F38013 		ubfx	r3, r3, #6, #1
 2331              		.loc 1 920 8 view .LVU577
 2332 0018 2370     		strb	r3, [r4]
 921:Drivers/BSP/Components/lis2dw12/lis2dw12_reg.c **** 
 922:Drivers/BSP/Components/lis2dw12/lis2dw12_reg.c ****   return ret;
 2333              		.loc 1 922 3 is_stmt 1 view .LVU578
 923:Drivers/BSP/Components/lis2dw12/lis2dw12_reg.c **** }
 2334              		.loc 1 923 1 is_stmt 0 view .LVU579
 2335 001a 02B0     		add	sp, sp, #8
 2336              	.LCFI72:
 2337              		.cfi_def_cfa_offset 8
 2338              		@ sp needed
 2339 001c 10BD     		pop	{r4, pc}
 2340              		.loc 1 923 1 view .LVU580
 2341              		.cfi_endproc
 2342              	.LFE36:
 2344              		.section	.text.lis2dw12_boot_set,"ax",%progbits
 2345              		.align	1
 2346              		.global	lis2dw12_boot_set
 2347              		.syntax unified
 2348              		.thumb
 2349              		.thumb_func
 2350              		.fpu fpv4-sp-d16
 2352              	lis2dw12_boot_set:
 2353              	.LVL139:
 2354              	.LFB37:
 924:Drivers/BSP/Components/lis2dw12/lis2dw12_reg.c **** 
 925:Drivers/BSP/Components/lis2dw12/lis2dw12_reg.c **** /**
 926:Drivers/BSP/Components/lis2dw12/lis2dw12_reg.c ****   * @brief  Reboot memory content. Reload the calibration parameters.[set]
 927:Drivers/BSP/Components/lis2dw12/lis2dw12_reg.c ****   *
 928:Drivers/BSP/Components/lis2dw12/lis2dw12_reg.c ****   * @param  ctx      read / write interface definitions
ARM GAS  /tmp/ccEdQILT.s 			page 61


 929:Drivers/BSP/Components/lis2dw12/lis2dw12_reg.c ****   * @param  val      change the values of boot in reg CTRL2
 930:Drivers/BSP/Components/lis2dw12/lis2dw12_reg.c ****   * @retval          interface status (MANDATORY: return 0 -> no Error)
 931:Drivers/BSP/Components/lis2dw12/lis2dw12_reg.c ****   *
 932:Drivers/BSP/Components/lis2dw12/lis2dw12_reg.c ****   */
 933:Drivers/BSP/Components/lis2dw12/lis2dw12_reg.c **** int32_t lis2dw12_boot_set(stmdev_ctx_t *ctx, uint8_t val)
 934:Drivers/BSP/Components/lis2dw12/lis2dw12_reg.c **** {
 2355              		.loc 1 934 1 is_stmt 1 view -0
 2356              		.cfi_startproc
 2357              		@ args = 0, pretend = 0, frame = 8
 2358              		@ frame_needed = 0, uses_anonymous_args = 0
 2359              		.loc 1 934 1 is_stmt 0 view .LVU582
 2360 0000 30B5     		push	{r4, r5, lr}
 2361              	.LCFI73:
 2362              		.cfi_def_cfa_offset 12
 2363              		.cfi_offset 4, -12
 2364              		.cfi_offset 5, -8
 2365              		.cfi_offset 14, -4
 2366 0002 83B0     		sub	sp, sp, #12
 2367              	.LCFI74:
 2368              		.cfi_def_cfa_offset 24
 2369 0004 0446     		mov	r4, r0
 2370 0006 0D46     		mov	r5, r1
 935:Drivers/BSP/Components/lis2dw12/lis2dw12_reg.c ****   lis2dw12_ctrl2_t reg;
 2371              		.loc 1 935 3 is_stmt 1 view .LVU583
 936:Drivers/BSP/Components/lis2dw12/lis2dw12_reg.c ****   int32_t ret;
 2372              		.loc 1 936 3 view .LVU584
 937:Drivers/BSP/Components/lis2dw12/lis2dw12_reg.c **** 
 938:Drivers/BSP/Components/lis2dw12/lis2dw12_reg.c ****   ret = lis2dw12_read_reg(ctx, LIS2DW12_CTRL2, (uint8_t *) &reg, 1);
 2373              		.loc 1 938 3 view .LVU585
 2374              		.loc 1 938 9 is_stmt 0 view .LVU586
 2375 0008 0123     		movs	r3, #1
 2376 000a 01AA     		add	r2, sp, #4
 2377 000c 2121     		movs	r1, #33
 2378              	.LVL140:
 2379              		.loc 1 938 9 view .LVU587
 2380 000e FFF7FEFF 		bl	lis2dw12_read_reg
 2381              	.LVL141:
 939:Drivers/BSP/Components/lis2dw12/lis2dw12_reg.c **** 
 940:Drivers/BSP/Components/lis2dw12/lis2dw12_reg.c ****   if (ret == 0)
 2382              		.loc 1 940 3 is_stmt 1 view .LVU588
 2383              		.loc 1 940 6 is_stmt 0 view .LVU589
 2384 0012 08B1     		cbz	r0, .L159
 2385              	.LVL142:
 2386              	.L156:
 941:Drivers/BSP/Components/lis2dw12/lis2dw12_reg.c ****   {
 942:Drivers/BSP/Components/lis2dw12/lis2dw12_reg.c ****     reg.boot = val;
 943:Drivers/BSP/Components/lis2dw12/lis2dw12_reg.c ****     ret = lis2dw12_write_reg(ctx, LIS2DW12_CTRL2, (uint8_t *) &reg, 1);
 944:Drivers/BSP/Components/lis2dw12/lis2dw12_reg.c ****   }
 945:Drivers/BSP/Components/lis2dw12/lis2dw12_reg.c **** 
 946:Drivers/BSP/Components/lis2dw12/lis2dw12_reg.c ****   return ret;
 947:Drivers/BSP/Components/lis2dw12/lis2dw12_reg.c **** }
 2387              		.loc 1 947 1 view .LVU590
 2388 0014 03B0     		add	sp, sp, #12
 2389              	.LCFI75:
 2390              		.cfi_remember_state
 2391              		.cfi_def_cfa_offset 12
 2392              		@ sp needed
ARM GAS  /tmp/ccEdQILT.s 			page 62


 2393 0016 30BD     		pop	{r4, r5, pc}
 2394              	.LVL143:
 2395              	.L159:
 2396              	.LCFI76:
 2397              		.cfi_restore_state
 942:Drivers/BSP/Components/lis2dw12/lis2dw12_reg.c ****     ret = lis2dw12_write_reg(ctx, LIS2DW12_CTRL2, (uint8_t *) &reg, 1);
 2398              		.loc 1 942 5 is_stmt 1 view .LVU591
 942:Drivers/BSP/Components/lis2dw12/lis2dw12_reg.c ****     ret = lis2dw12_write_reg(ctx, LIS2DW12_CTRL2, (uint8_t *) &reg, 1);
 2399              		.loc 1 942 14 is_stmt 0 view .LVU592
 2400 0018 9DF80430 		ldrb	r3, [sp, #4]	@ zero_extendqisi2
 2401 001c 65F3C713 		bfi	r3, r5, #7, #1
 2402 0020 8DF80430 		strb	r3, [sp, #4]
 943:Drivers/BSP/Components/lis2dw12/lis2dw12_reg.c ****   }
 2403              		.loc 1 943 5 is_stmt 1 view .LVU593
 943:Drivers/BSP/Components/lis2dw12/lis2dw12_reg.c ****   }
 2404              		.loc 1 943 11 is_stmt 0 view .LVU594
 2405 0024 0123     		movs	r3, #1
 2406              	.LVL144:
 943:Drivers/BSP/Components/lis2dw12/lis2dw12_reg.c ****   }
 2407              		.loc 1 943 11 view .LVU595
 2408 0026 01AA     		add	r2, sp, #4
 2409 0028 2121     		movs	r1, #33
 2410 002a 2046     		mov	r0, r4
 2411 002c FFF7FEFF 		bl	lis2dw12_write_reg
 2412              	.LVL145:
 946:Drivers/BSP/Components/lis2dw12/lis2dw12_reg.c **** }
 2413              		.loc 1 946 3 is_stmt 1 view .LVU596
 946:Drivers/BSP/Components/lis2dw12/lis2dw12_reg.c **** }
 2414              		.loc 1 946 10 is_stmt 0 view .LVU597
 2415 0030 F0E7     		b	.L156
 2416              		.cfi_endproc
 2417              	.LFE37:
 2419              		.section	.text.lis2dw12_boot_get,"ax",%progbits
 2420              		.align	1
 2421              		.global	lis2dw12_boot_get
 2422              		.syntax unified
 2423              		.thumb
 2424              		.thumb_func
 2425              		.fpu fpv4-sp-d16
 2427              	lis2dw12_boot_get:
 2428              	.LVL146:
 2429              	.LFB38:
 948:Drivers/BSP/Components/lis2dw12/lis2dw12_reg.c **** 
 949:Drivers/BSP/Components/lis2dw12/lis2dw12_reg.c **** /**
 950:Drivers/BSP/Components/lis2dw12/lis2dw12_reg.c ****   * @brief  Reboot memory content. Reload the calibration parameters.[get]
 951:Drivers/BSP/Components/lis2dw12/lis2dw12_reg.c ****   *
 952:Drivers/BSP/Components/lis2dw12/lis2dw12_reg.c ****   * @param  ctx      read / write interface definitions
 953:Drivers/BSP/Components/lis2dw12/lis2dw12_reg.c ****   * @param  val      change the values of boot in reg CTRL2
 954:Drivers/BSP/Components/lis2dw12/lis2dw12_reg.c ****   * @retval          interface status (MANDATORY: return 0 -> no Error)
 955:Drivers/BSP/Components/lis2dw12/lis2dw12_reg.c ****   *
 956:Drivers/BSP/Components/lis2dw12/lis2dw12_reg.c ****   */
 957:Drivers/BSP/Components/lis2dw12/lis2dw12_reg.c **** int32_t lis2dw12_boot_get(stmdev_ctx_t *ctx, uint8_t *val)
 958:Drivers/BSP/Components/lis2dw12/lis2dw12_reg.c **** {
 2430              		.loc 1 958 1 is_stmt 1 view -0
 2431              		.cfi_startproc
 2432              		@ args = 0, pretend = 0, frame = 8
 2433              		@ frame_needed = 0, uses_anonymous_args = 0
ARM GAS  /tmp/ccEdQILT.s 			page 63


 2434              		.loc 1 958 1 is_stmt 0 view .LVU599
 2435 0000 10B5     		push	{r4, lr}
 2436              	.LCFI77:
 2437              		.cfi_def_cfa_offset 8
 2438              		.cfi_offset 4, -8
 2439              		.cfi_offset 14, -4
 2440 0002 82B0     		sub	sp, sp, #8
 2441              	.LCFI78:
 2442              		.cfi_def_cfa_offset 16
 2443 0004 0C46     		mov	r4, r1
 959:Drivers/BSP/Components/lis2dw12/lis2dw12_reg.c ****   lis2dw12_ctrl2_t reg;
 2444              		.loc 1 959 3 is_stmt 1 view .LVU600
 960:Drivers/BSP/Components/lis2dw12/lis2dw12_reg.c ****   int32_t ret;
 2445              		.loc 1 960 3 view .LVU601
 961:Drivers/BSP/Components/lis2dw12/lis2dw12_reg.c **** 
 962:Drivers/BSP/Components/lis2dw12/lis2dw12_reg.c ****   ret = lis2dw12_read_reg(ctx, LIS2DW12_CTRL2, (uint8_t *) &reg, 1);
 2446              		.loc 1 962 3 view .LVU602
 2447              		.loc 1 962 9 is_stmt 0 view .LVU603
 2448 0006 0123     		movs	r3, #1
 2449 0008 01AA     		add	r2, sp, #4
 2450 000a 2121     		movs	r1, #33
 2451              	.LVL147:
 2452              		.loc 1 962 9 view .LVU604
 2453 000c FFF7FEFF 		bl	lis2dw12_read_reg
 2454              	.LVL148:
 963:Drivers/BSP/Components/lis2dw12/lis2dw12_reg.c ****   *val = reg.boot;
 2455              		.loc 1 963 3 is_stmt 1 view .LVU605
 2456              		.loc 1 963 13 is_stmt 0 view .LVU606
 2457 0010 9DF80430 		ldrb	r3, [sp, #4]	@ zero_extendqisi2
 2458 0014 C3F3C013 		ubfx	r3, r3, #7, #1
 2459              		.loc 1 963 8 view .LVU607
 2460 0018 2370     		strb	r3, [r4]
 964:Drivers/BSP/Components/lis2dw12/lis2dw12_reg.c **** 
 965:Drivers/BSP/Components/lis2dw12/lis2dw12_reg.c ****   return ret;
 2461              		.loc 1 965 3 is_stmt 1 view .LVU608
 966:Drivers/BSP/Components/lis2dw12/lis2dw12_reg.c **** }
 2462              		.loc 1 966 1 is_stmt 0 view .LVU609
 2463 001a 02B0     		add	sp, sp, #8
 2464              	.LCFI79:
 2465              		.cfi_def_cfa_offset 8
 2466              		@ sp needed
 2467 001c 10BD     		pop	{r4, pc}
 2468              		.loc 1 966 1 view .LVU610
 2469              		.cfi_endproc
 2470              	.LFE38:
 2472              		.section	.text.lis2dw12_self_test_set,"ax",%progbits
 2473              		.align	1
 2474              		.global	lis2dw12_self_test_set
 2475              		.syntax unified
 2476              		.thumb
 2477              		.thumb_func
 2478              		.fpu fpv4-sp-d16
 2480              	lis2dw12_self_test_set:
 2481              	.LVL149:
 2482              	.LFB39:
 967:Drivers/BSP/Components/lis2dw12/lis2dw12_reg.c **** 
 968:Drivers/BSP/Components/lis2dw12/lis2dw12_reg.c **** /**
ARM GAS  /tmp/ccEdQILT.s 			page 64


 969:Drivers/BSP/Components/lis2dw12/lis2dw12_reg.c ****   * @brief  Sensor self-test enable.[set]
 970:Drivers/BSP/Components/lis2dw12/lis2dw12_reg.c ****   *
 971:Drivers/BSP/Components/lis2dw12/lis2dw12_reg.c ****   * @param  ctx      read / write interface definitions
 972:Drivers/BSP/Components/lis2dw12/lis2dw12_reg.c ****   * @param  val      change the values of st in reg CTRL3
 973:Drivers/BSP/Components/lis2dw12/lis2dw12_reg.c ****   * @retval          interface status (MANDATORY: return 0 -> no Error)
 974:Drivers/BSP/Components/lis2dw12/lis2dw12_reg.c ****   *
 975:Drivers/BSP/Components/lis2dw12/lis2dw12_reg.c ****   */
 976:Drivers/BSP/Components/lis2dw12/lis2dw12_reg.c **** int32_t lis2dw12_self_test_set(stmdev_ctx_t *ctx, lis2dw12_st_t val)
 977:Drivers/BSP/Components/lis2dw12/lis2dw12_reg.c **** {
 2483              		.loc 1 977 1 is_stmt 1 view -0
 2484              		.cfi_startproc
 2485              		@ args = 0, pretend = 0, frame = 8
 2486              		@ frame_needed = 0, uses_anonymous_args = 0
 2487              		.loc 1 977 1 is_stmt 0 view .LVU612
 2488 0000 30B5     		push	{r4, r5, lr}
 2489              	.LCFI80:
 2490              		.cfi_def_cfa_offset 12
 2491              		.cfi_offset 4, -12
 2492              		.cfi_offset 5, -8
 2493              		.cfi_offset 14, -4
 2494 0002 83B0     		sub	sp, sp, #12
 2495              	.LCFI81:
 2496              		.cfi_def_cfa_offset 24
 2497 0004 0446     		mov	r4, r0
 2498 0006 0D46     		mov	r5, r1
 978:Drivers/BSP/Components/lis2dw12/lis2dw12_reg.c ****   lis2dw12_ctrl3_t reg;
 2499              		.loc 1 978 3 is_stmt 1 view .LVU613
 979:Drivers/BSP/Components/lis2dw12/lis2dw12_reg.c ****   int32_t ret;
 2500              		.loc 1 979 3 view .LVU614
 980:Drivers/BSP/Components/lis2dw12/lis2dw12_reg.c **** 
 981:Drivers/BSP/Components/lis2dw12/lis2dw12_reg.c ****   ret = lis2dw12_read_reg(ctx, LIS2DW12_CTRL3, (uint8_t *) &reg, 1);
 2501              		.loc 1 981 3 view .LVU615
 2502              		.loc 1 981 9 is_stmt 0 view .LVU616
 2503 0008 0123     		movs	r3, #1
 2504 000a 01AA     		add	r2, sp, #4
 2505 000c 2221     		movs	r1, #34
 2506              	.LVL150:
 2507              		.loc 1 981 9 view .LVU617
 2508 000e FFF7FEFF 		bl	lis2dw12_read_reg
 2509              	.LVL151:
 982:Drivers/BSP/Components/lis2dw12/lis2dw12_reg.c **** 
 983:Drivers/BSP/Components/lis2dw12/lis2dw12_reg.c ****   if (ret == 0)
 2510              		.loc 1 983 3 is_stmt 1 view .LVU618
 2511              		.loc 1 983 6 is_stmt 0 view .LVU619
 2512 0012 08B1     		cbz	r0, .L165
 2513              	.LVL152:
 2514              	.L162:
 984:Drivers/BSP/Components/lis2dw12/lis2dw12_reg.c ****   {
 985:Drivers/BSP/Components/lis2dw12/lis2dw12_reg.c ****     reg.st = (uint8_t) val;
 986:Drivers/BSP/Components/lis2dw12/lis2dw12_reg.c ****     ret = lis2dw12_write_reg(ctx, LIS2DW12_CTRL3, (uint8_t *) &reg, 1);
 987:Drivers/BSP/Components/lis2dw12/lis2dw12_reg.c ****   }
 988:Drivers/BSP/Components/lis2dw12/lis2dw12_reg.c **** 
 989:Drivers/BSP/Components/lis2dw12/lis2dw12_reg.c ****   return ret;
 990:Drivers/BSP/Components/lis2dw12/lis2dw12_reg.c **** }
 2515              		.loc 1 990 1 view .LVU620
 2516 0014 03B0     		add	sp, sp, #12
 2517              	.LCFI82:
ARM GAS  /tmp/ccEdQILT.s 			page 65


 2518              		.cfi_remember_state
 2519              		.cfi_def_cfa_offset 12
 2520              		@ sp needed
 2521 0016 30BD     		pop	{r4, r5, pc}
 2522              	.LVL153:
 2523              	.L165:
 2524              	.LCFI83:
 2525              		.cfi_restore_state
 985:Drivers/BSP/Components/lis2dw12/lis2dw12_reg.c ****     ret = lis2dw12_write_reg(ctx, LIS2DW12_CTRL3, (uint8_t *) &reg, 1);
 2526              		.loc 1 985 5 is_stmt 1 view .LVU621
 985:Drivers/BSP/Components/lis2dw12/lis2dw12_reg.c ****     ret = lis2dw12_write_reg(ctx, LIS2DW12_CTRL3, (uint8_t *) &reg, 1);
 2527              		.loc 1 985 12 is_stmt 0 view .LVU622
 2528 0018 9DF80430 		ldrb	r3, [sp, #4]	@ zero_extendqisi2
 2529 001c 65F38713 		bfi	r3, r5, #6, #2
 2530 0020 8DF80430 		strb	r3, [sp, #4]
 986:Drivers/BSP/Components/lis2dw12/lis2dw12_reg.c ****   }
 2531              		.loc 1 986 5 is_stmt 1 view .LVU623
 986:Drivers/BSP/Components/lis2dw12/lis2dw12_reg.c ****   }
 2532              		.loc 1 986 11 is_stmt 0 view .LVU624
 2533 0024 0123     		movs	r3, #1
 2534              	.LVL154:
 986:Drivers/BSP/Components/lis2dw12/lis2dw12_reg.c ****   }
 2535              		.loc 1 986 11 view .LVU625
 2536 0026 01AA     		add	r2, sp, #4
 2537 0028 2221     		movs	r1, #34
 2538 002a 2046     		mov	r0, r4
 2539 002c FFF7FEFF 		bl	lis2dw12_write_reg
 2540              	.LVL155:
 989:Drivers/BSP/Components/lis2dw12/lis2dw12_reg.c **** }
 2541              		.loc 1 989 3 is_stmt 1 view .LVU626
 989:Drivers/BSP/Components/lis2dw12/lis2dw12_reg.c **** }
 2542              		.loc 1 989 10 is_stmt 0 view .LVU627
 2543 0030 F0E7     		b	.L162
 2544              		.cfi_endproc
 2545              	.LFE39:
 2547              		.section	.text.lis2dw12_self_test_get,"ax",%progbits
 2548              		.align	1
 2549              		.global	lis2dw12_self_test_get
 2550              		.syntax unified
 2551              		.thumb
 2552              		.thumb_func
 2553              		.fpu fpv4-sp-d16
 2555              	lis2dw12_self_test_get:
 2556              	.LVL156:
 2557              	.LFB40:
 991:Drivers/BSP/Components/lis2dw12/lis2dw12_reg.c **** 
 992:Drivers/BSP/Components/lis2dw12/lis2dw12_reg.c **** /**
 993:Drivers/BSP/Components/lis2dw12/lis2dw12_reg.c ****   * @brief  Sensor self-test enable.[get]
 994:Drivers/BSP/Components/lis2dw12/lis2dw12_reg.c ****   *
 995:Drivers/BSP/Components/lis2dw12/lis2dw12_reg.c ****   * @param  ctx      read / write interface definitions
 996:Drivers/BSP/Components/lis2dw12/lis2dw12_reg.c ****   * @param  val      Get the values of st in reg CTRL3
 997:Drivers/BSP/Components/lis2dw12/lis2dw12_reg.c ****   * @retval          interface status (MANDATORY: return 0 -> no Error)
 998:Drivers/BSP/Components/lis2dw12/lis2dw12_reg.c ****   *
 999:Drivers/BSP/Components/lis2dw12/lis2dw12_reg.c ****   */
1000:Drivers/BSP/Components/lis2dw12/lis2dw12_reg.c **** int32_t lis2dw12_self_test_get(stmdev_ctx_t *ctx, lis2dw12_st_t *val)
1001:Drivers/BSP/Components/lis2dw12/lis2dw12_reg.c **** {
 2558              		.loc 1 1001 1 is_stmt 1 view -0
ARM GAS  /tmp/ccEdQILT.s 			page 66


 2559              		.cfi_startproc
 2560              		@ args = 0, pretend = 0, frame = 8
 2561              		@ frame_needed = 0, uses_anonymous_args = 0
 2562              		.loc 1 1001 1 is_stmt 0 view .LVU629
 2563 0000 10B5     		push	{r4, lr}
 2564              	.LCFI84:
 2565              		.cfi_def_cfa_offset 8
 2566              		.cfi_offset 4, -8
 2567              		.cfi_offset 14, -4
 2568 0002 82B0     		sub	sp, sp, #8
 2569              	.LCFI85:
 2570              		.cfi_def_cfa_offset 16
 2571 0004 0C46     		mov	r4, r1
1002:Drivers/BSP/Components/lis2dw12/lis2dw12_reg.c ****   lis2dw12_ctrl3_t reg;
 2572              		.loc 1 1002 3 is_stmt 1 view .LVU630
1003:Drivers/BSP/Components/lis2dw12/lis2dw12_reg.c ****   int32_t ret;
 2573              		.loc 1 1003 3 view .LVU631
1004:Drivers/BSP/Components/lis2dw12/lis2dw12_reg.c **** 
1005:Drivers/BSP/Components/lis2dw12/lis2dw12_reg.c ****   ret = lis2dw12_read_reg(ctx, LIS2DW12_CTRL3, (uint8_t *) &reg, 1);
 2574              		.loc 1 1005 3 view .LVU632
 2575              		.loc 1 1005 9 is_stmt 0 view .LVU633
 2576 0006 0123     		movs	r3, #1
 2577 0008 01AA     		add	r2, sp, #4
 2578 000a 2221     		movs	r1, #34
 2579              	.LVL157:
 2580              		.loc 1 1005 9 view .LVU634
 2581 000c FFF7FEFF 		bl	lis2dw12_read_reg
 2582              	.LVL158:
1006:Drivers/BSP/Components/lis2dw12/lis2dw12_reg.c **** 
1007:Drivers/BSP/Components/lis2dw12/lis2dw12_reg.c ****   switch (reg.st)
 2583              		.loc 1 1007 3 is_stmt 1 view .LVU635
 2584              		.loc 1 1007 14 is_stmt 0 view .LVU636
 2585 0010 9DF80430 		ldrb	r3, [sp, #4]	@ zero_extendqisi2
 2586 0014 9B09     		lsrs	r3, r3, #6
 2587              		.loc 1 1007 3 view .LVU637
 2588 0016 012B     		cmp	r3, #1
 2589 0018 08D0     		beq	.L167
 2590 001a 022B     		cmp	r3, #2
 2591 001c 09D0     		beq	.L168
 2592 001e 13B1     		cbz	r3, .L172
1008:Drivers/BSP/Components/lis2dw12/lis2dw12_reg.c ****   {
1009:Drivers/BSP/Components/lis2dw12/lis2dw12_reg.c ****     case LIS2DW12_XL_ST_DISABLE:
1010:Drivers/BSP/Components/lis2dw12/lis2dw12_reg.c ****       *val = LIS2DW12_XL_ST_DISABLE;
1011:Drivers/BSP/Components/lis2dw12/lis2dw12_reg.c ****       break;
1012:Drivers/BSP/Components/lis2dw12/lis2dw12_reg.c **** 
1013:Drivers/BSP/Components/lis2dw12/lis2dw12_reg.c ****     case LIS2DW12_XL_ST_POSITIVE:
1014:Drivers/BSP/Components/lis2dw12/lis2dw12_reg.c ****       *val = LIS2DW12_XL_ST_POSITIVE;
1015:Drivers/BSP/Components/lis2dw12/lis2dw12_reg.c ****       break;
1016:Drivers/BSP/Components/lis2dw12/lis2dw12_reg.c **** 
1017:Drivers/BSP/Components/lis2dw12/lis2dw12_reg.c ****     case LIS2DW12_XL_ST_NEGATIVE:
1018:Drivers/BSP/Components/lis2dw12/lis2dw12_reg.c ****       *val = LIS2DW12_XL_ST_NEGATIVE;
1019:Drivers/BSP/Components/lis2dw12/lis2dw12_reg.c ****       break;
1020:Drivers/BSP/Components/lis2dw12/lis2dw12_reg.c **** 
1021:Drivers/BSP/Components/lis2dw12/lis2dw12_reg.c ****     default:
1022:Drivers/BSP/Components/lis2dw12/lis2dw12_reg.c ****       *val = LIS2DW12_XL_ST_DISABLE;
 2593              		.loc 1 1022 7 is_stmt 1 view .LVU638
 2594              		.loc 1 1022 12 is_stmt 0 view .LVU639
ARM GAS  /tmp/ccEdQILT.s 			page 67


 2595 0020 0023     		movs	r3, #0
 2596 0022 2370     		strb	r3, [r4]
1023:Drivers/BSP/Components/lis2dw12/lis2dw12_reg.c ****       break;
 2597              		.loc 1 1023 7 is_stmt 1 view .LVU640
1024:Drivers/BSP/Components/lis2dw12/lis2dw12_reg.c ****   }
1025:Drivers/BSP/Components/lis2dw12/lis2dw12_reg.c **** 
1026:Drivers/BSP/Components/lis2dw12/lis2dw12_reg.c ****   return ret;
 2598              		.loc 1 1026 3 view .LVU641
 2599              		.loc 1 1026 10 is_stmt 0 view .LVU642
 2600 0024 00E0     		b	.L166
 2601              	.L172:
1010:Drivers/BSP/Components/lis2dw12/lis2dw12_reg.c ****       break;
 2602              		.loc 1 1010 7 is_stmt 1 view .LVU643
1010:Drivers/BSP/Components/lis2dw12/lis2dw12_reg.c ****       break;
 2603              		.loc 1 1010 12 is_stmt 0 view .LVU644
 2604 0026 2370     		strb	r3, [r4]
1011:Drivers/BSP/Components/lis2dw12/lis2dw12_reg.c **** 
 2605              		.loc 1 1011 7 is_stmt 1 view .LVU645
 2606              	.L166:
1027:Drivers/BSP/Components/lis2dw12/lis2dw12_reg.c **** }
 2607              		.loc 1 1027 1 is_stmt 0 view .LVU646
 2608 0028 02B0     		add	sp, sp, #8
 2609              	.LCFI86:
 2610              		.cfi_remember_state
 2611              		.cfi_def_cfa_offset 8
 2612              		@ sp needed
 2613 002a 10BD     		pop	{r4, pc}
 2614              	.LVL159:
 2615              	.L167:
 2616              	.LCFI87:
 2617              		.cfi_restore_state
1014:Drivers/BSP/Components/lis2dw12/lis2dw12_reg.c ****       break;
 2618              		.loc 1 1014 7 is_stmt 1 view .LVU647
1014:Drivers/BSP/Components/lis2dw12/lis2dw12_reg.c ****       break;
 2619              		.loc 1 1014 12 is_stmt 0 view .LVU648
 2620 002c 0123     		movs	r3, #1
 2621 002e 2370     		strb	r3, [r4]
1015:Drivers/BSP/Components/lis2dw12/lis2dw12_reg.c **** 
 2622              		.loc 1 1015 7 is_stmt 1 view .LVU649
 2623 0030 FAE7     		b	.L166
 2624              	.L168:
1018:Drivers/BSP/Components/lis2dw12/lis2dw12_reg.c ****       break;
 2625              		.loc 1 1018 7 view .LVU650
1018:Drivers/BSP/Components/lis2dw12/lis2dw12_reg.c ****       break;
 2626              		.loc 1 1018 12 is_stmt 0 view .LVU651
 2627 0032 0223     		movs	r3, #2
 2628 0034 2370     		strb	r3, [r4]
1019:Drivers/BSP/Components/lis2dw12/lis2dw12_reg.c **** 
 2629              		.loc 1 1019 7 is_stmt 1 view .LVU652
 2630 0036 F7E7     		b	.L166
 2631              		.cfi_endproc
 2632              	.LFE40:
 2634              		.section	.text.lis2dw12_data_ready_mode_set,"ax",%progbits
 2635              		.align	1
 2636              		.global	lis2dw12_data_ready_mode_set
 2637              		.syntax unified
 2638              		.thumb
ARM GAS  /tmp/ccEdQILT.s 			page 68


 2639              		.thumb_func
 2640              		.fpu fpv4-sp-d16
 2642              	lis2dw12_data_ready_mode_set:
 2643              	.LVL160:
 2644              	.LFB41:
1028:Drivers/BSP/Components/lis2dw12/lis2dw12_reg.c **** 
1029:Drivers/BSP/Components/lis2dw12/lis2dw12_reg.c **** /**
1030:Drivers/BSP/Components/lis2dw12/lis2dw12_reg.c ****   * @brief  Data-ready pulsed / letched mode.[set]
1031:Drivers/BSP/Components/lis2dw12/lis2dw12_reg.c ****   *
1032:Drivers/BSP/Components/lis2dw12/lis2dw12_reg.c ****   * @param  ctx      read / write interface definitions
1033:Drivers/BSP/Components/lis2dw12/lis2dw12_reg.c ****   * @param  val      change the values of drdy_pulsed in reg CTRL_REG7
1034:Drivers/BSP/Components/lis2dw12/lis2dw12_reg.c ****   * @retval          interface status (MANDATORY: return 0 -> no Error)
1035:Drivers/BSP/Components/lis2dw12/lis2dw12_reg.c ****   *
1036:Drivers/BSP/Components/lis2dw12/lis2dw12_reg.c ****   */
1037:Drivers/BSP/Components/lis2dw12/lis2dw12_reg.c **** int32_t lis2dw12_data_ready_mode_set(stmdev_ctx_t *ctx,
1038:Drivers/BSP/Components/lis2dw12/lis2dw12_reg.c ****                                      lis2dw12_drdy_pulsed_t val)
1039:Drivers/BSP/Components/lis2dw12/lis2dw12_reg.c **** {
 2645              		.loc 1 1039 1 view -0
 2646              		.cfi_startproc
 2647              		@ args = 0, pretend = 0, frame = 8
 2648              		@ frame_needed = 0, uses_anonymous_args = 0
 2649              		.loc 1 1039 1 is_stmt 0 view .LVU654
 2650 0000 30B5     		push	{r4, r5, lr}
 2651              	.LCFI88:
 2652              		.cfi_def_cfa_offset 12
 2653              		.cfi_offset 4, -12
 2654              		.cfi_offset 5, -8
 2655              		.cfi_offset 14, -4
 2656 0002 83B0     		sub	sp, sp, #12
 2657              	.LCFI89:
 2658              		.cfi_def_cfa_offset 24
 2659 0004 0446     		mov	r4, r0
 2660 0006 0D46     		mov	r5, r1
1040:Drivers/BSP/Components/lis2dw12/lis2dw12_reg.c ****   lis2dw12_ctrl_reg7_t reg;
 2661              		.loc 1 1040 3 is_stmt 1 view .LVU655
1041:Drivers/BSP/Components/lis2dw12/lis2dw12_reg.c ****   int32_t ret;
 2662              		.loc 1 1041 3 view .LVU656
1042:Drivers/BSP/Components/lis2dw12/lis2dw12_reg.c **** 
1043:Drivers/BSP/Components/lis2dw12/lis2dw12_reg.c ****   ret = lis2dw12_read_reg(ctx, LIS2DW12_CTRL_REG7, (uint8_t *) &reg, 1);
 2663              		.loc 1 1043 3 view .LVU657
 2664              		.loc 1 1043 9 is_stmt 0 view .LVU658
 2665 0008 0123     		movs	r3, #1
 2666 000a 01AA     		add	r2, sp, #4
 2667 000c 3F21     		movs	r1, #63
 2668              	.LVL161:
 2669              		.loc 1 1043 9 view .LVU659
 2670 000e FFF7FEFF 		bl	lis2dw12_read_reg
 2671              	.LVL162:
1044:Drivers/BSP/Components/lis2dw12/lis2dw12_reg.c **** 
1045:Drivers/BSP/Components/lis2dw12/lis2dw12_reg.c ****   if (ret == 0)
 2672              		.loc 1 1045 3 is_stmt 1 view .LVU660
 2673              		.loc 1 1045 6 is_stmt 0 view .LVU661
 2674 0012 08B1     		cbz	r0, .L176
 2675              	.LVL163:
 2676              	.L173:
1046:Drivers/BSP/Components/lis2dw12/lis2dw12_reg.c ****   {
1047:Drivers/BSP/Components/lis2dw12/lis2dw12_reg.c ****     reg.drdy_pulsed = (uint8_t) val;
ARM GAS  /tmp/ccEdQILT.s 			page 69


1048:Drivers/BSP/Components/lis2dw12/lis2dw12_reg.c ****     ret = lis2dw12_write_reg(ctx, LIS2DW12_CTRL_REG7, (uint8_t *) &reg, 1);
1049:Drivers/BSP/Components/lis2dw12/lis2dw12_reg.c ****   }
1050:Drivers/BSP/Components/lis2dw12/lis2dw12_reg.c **** 
1051:Drivers/BSP/Components/lis2dw12/lis2dw12_reg.c ****   return ret;
1052:Drivers/BSP/Components/lis2dw12/lis2dw12_reg.c **** }
 2677              		.loc 1 1052 1 view .LVU662
 2678 0014 03B0     		add	sp, sp, #12
 2679              	.LCFI90:
 2680              		.cfi_remember_state
 2681              		.cfi_def_cfa_offset 12
 2682              		@ sp needed
 2683 0016 30BD     		pop	{r4, r5, pc}
 2684              	.LVL164:
 2685              	.L176:
 2686              	.LCFI91:
 2687              		.cfi_restore_state
1047:Drivers/BSP/Components/lis2dw12/lis2dw12_reg.c ****     ret = lis2dw12_write_reg(ctx, LIS2DW12_CTRL_REG7, (uint8_t *) &reg, 1);
 2688              		.loc 1 1047 5 is_stmt 1 view .LVU663
1047:Drivers/BSP/Components/lis2dw12/lis2dw12_reg.c ****     ret = lis2dw12_write_reg(ctx, LIS2DW12_CTRL_REG7, (uint8_t *) &reg, 1);
 2689              		.loc 1 1047 21 is_stmt 0 view .LVU664
 2690 0018 9DF80430 		ldrb	r3, [sp, #4]	@ zero_extendqisi2
 2691 001c 65F3C713 		bfi	r3, r5, #7, #1
 2692 0020 8DF80430 		strb	r3, [sp, #4]
1048:Drivers/BSP/Components/lis2dw12/lis2dw12_reg.c ****   }
 2693              		.loc 1 1048 5 is_stmt 1 view .LVU665
1048:Drivers/BSP/Components/lis2dw12/lis2dw12_reg.c ****   }
 2694              		.loc 1 1048 11 is_stmt 0 view .LVU666
 2695 0024 0123     		movs	r3, #1
 2696              	.LVL165:
1048:Drivers/BSP/Components/lis2dw12/lis2dw12_reg.c ****   }
 2697              		.loc 1 1048 11 view .LVU667
 2698 0026 01AA     		add	r2, sp, #4
 2699 0028 3F21     		movs	r1, #63
 2700 002a 2046     		mov	r0, r4
 2701 002c FFF7FEFF 		bl	lis2dw12_write_reg
 2702              	.LVL166:
1051:Drivers/BSP/Components/lis2dw12/lis2dw12_reg.c **** }
 2703              		.loc 1 1051 3 is_stmt 1 view .LVU668
1051:Drivers/BSP/Components/lis2dw12/lis2dw12_reg.c **** }
 2704              		.loc 1 1051 10 is_stmt 0 view .LVU669
 2705 0030 F0E7     		b	.L173
 2706              		.cfi_endproc
 2707              	.LFE41:
 2709              		.section	.text.lis2dw12_data_ready_mode_get,"ax",%progbits
 2710              		.align	1
 2711              		.global	lis2dw12_data_ready_mode_get
 2712              		.syntax unified
 2713              		.thumb
 2714              		.thumb_func
 2715              		.fpu fpv4-sp-d16
 2717              	lis2dw12_data_ready_mode_get:
 2718              	.LVL167:
 2719              	.LFB42:
1053:Drivers/BSP/Components/lis2dw12/lis2dw12_reg.c **** 
1054:Drivers/BSP/Components/lis2dw12/lis2dw12_reg.c **** /**
1055:Drivers/BSP/Components/lis2dw12/lis2dw12_reg.c ****   * @brief  Data-ready pulsed / letched mode.[get]
1056:Drivers/BSP/Components/lis2dw12/lis2dw12_reg.c ****   *
ARM GAS  /tmp/ccEdQILT.s 			page 70


1057:Drivers/BSP/Components/lis2dw12/lis2dw12_reg.c ****   * @param  ctx      read / write interface definitions
1058:Drivers/BSP/Components/lis2dw12/lis2dw12_reg.c ****   * @param  val      Get the values of drdy_pulsed in reg CTRL_REG7
1059:Drivers/BSP/Components/lis2dw12/lis2dw12_reg.c ****   * @retval          interface status (MANDATORY: return 0 -> no Error)
1060:Drivers/BSP/Components/lis2dw12/lis2dw12_reg.c ****   *
1061:Drivers/BSP/Components/lis2dw12/lis2dw12_reg.c ****   */
1062:Drivers/BSP/Components/lis2dw12/lis2dw12_reg.c **** int32_t lis2dw12_data_ready_mode_get(stmdev_ctx_t *ctx,
1063:Drivers/BSP/Components/lis2dw12/lis2dw12_reg.c ****                                      lis2dw12_drdy_pulsed_t *val)
1064:Drivers/BSP/Components/lis2dw12/lis2dw12_reg.c **** {
 2720              		.loc 1 1064 1 is_stmt 1 view -0
 2721              		.cfi_startproc
 2722              		@ args = 0, pretend = 0, frame = 8
 2723              		@ frame_needed = 0, uses_anonymous_args = 0
 2724              		.loc 1 1064 1 is_stmt 0 view .LVU671
 2725 0000 10B5     		push	{r4, lr}
 2726              	.LCFI92:
 2727              		.cfi_def_cfa_offset 8
 2728              		.cfi_offset 4, -8
 2729              		.cfi_offset 14, -4
 2730 0002 82B0     		sub	sp, sp, #8
 2731              	.LCFI93:
 2732              		.cfi_def_cfa_offset 16
 2733 0004 0C46     		mov	r4, r1
1065:Drivers/BSP/Components/lis2dw12/lis2dw12_reg.c ****   lis2dw12_ctrl_reg7_t reg;
 2734              		.loc 1 1065 3 is_stmt 1 view .LVU672
1066:Drivers/BSP/Components/lis2dw12/lis2dw12_reg.c ****   int32_t ret;
 2735              		.loc 1 1066 3 view .LVU673
1067:Drivers/BSP/Components/lis2dw12/lis2dw12_reg.c **** 
1068:Drivers/BSP/Components/lis2dw12/lis2dw12_reg.c ****   ret = lis2dw12_read_reg(ctx, LIS2DW12_CTRL_REG7, (uint8_t *) &reg, 1);
 2736              		.loc 1 1068 3 view .LVU674
 2737              		.loc 1 1068 9 is_stmt 0 view .LVU675
 2738 0006 0123     		movs	r3, #1
 2739 0008 01AA     		add	r2, sp, #4
 2740 000a 3F21     		movs	r1, #63
 2741              	.LVL168:
 2742              		.loc 1 1068 9 view .LVU676
 2743 000c FFF7FEFF 		bl	lis2dw12_read_reg
 2744              	.LVL169:
1069:Drivers/BSP/Components/lis2dw12/lis2dw12_reg.c **** 
1070:Drivers/BSP/Components/lis2dw12/lis2dw12_reg.c ****   switch (reg.drdy_pulsed)
 2745              		.loc 1 1070 3 is_stmt 1 view .LVU677
 2746              		.loc 1 1070 14 is_stmt 0 view .LVU678
 2747 0010 9DF80430 		ldrb	r3, [sp, #4]	@ zero_extendqisi2
 2748              		.loc 1 1070 3 view .LVU679
 2749 0014 DB09     		lsrs	r3, r3, #7
 2750 0016 03D0     		beq	.L178
 2751 0018 33B9     		cbnz	r3, .L179
1071:Drivers/BSP/Components/lis2dw12/lis2dw12_reg.c ****   {
1072:Drivers/BSP/Components/lis2dw12/lis2dw12_reg.c ****     case LIS2DW12_DRDY_LATCHED:
1073:Drivers/BSP/Components/lis2dw12/lis2dw12_reg.c ****       *val = LIS2DW12_DRDY_LATCHED;
1074:Drivers/BSP/Components/lis2dw12/lis2dw12_reg.c ****       break;
1075:Drivers/BSP/Components/lis2dw12/lis2dw12_reg.c **** 
1076:Drivers/BSP/Components/lis2dw12/lis2dw12_reg.c ****     case LIS2DW12_DRDY_PULSED:
1077:Drivers/BSP/Components/lis2dw12/lis2dw12_reg.c ****       *val = LIS2DW12_DRDY_PULSED;
1078:Drivers/BSP/Components/lis2dw12/lis2dw12_reg.c ****       break;
1079:Drivers/BSP/Components/lis2dw12/lis2dw12_reg.c **** 
1080:Drivers/BSP/Components/lis2dw12/lis2dw12_reg.c ****     default:
1081:Drivers/BSP/Components/lis2dw12/lis2dw12_reg.c ****       *val = LIS2DW12_DRDY_LATCHED;
ARM GAS  /tmp/ccEdQILT.s 			page 71


 2752              		.loc 1 1081 7 is_stmt 1 view .LVU680
 2753              		.loc 1 1081 12 is_stmt 0 view .LVU681
 2754 001a 0023     		movs	r3, #0
 2755 001c 2370     		strb	r3, [r4]
1082:Drivers/BSP/Components/lis2dw12/lis2dw12_reg.c ****       break;
 2756              		.loc 1 1082 7 is_stmt 1 view .LVU682
1083:Drivers/BSP/Components/lis2dw12/lis2dw12_reg.c ****   }
1084:Drivers/BSP/Components/lis2dw12/lis2dw12_reg.c **** 
1085:Drivers/BSP/Components/lis2dw12/lis2dw12_reg.c ****   return ret;
 2757              		.loc 1 1085 3 view .LVU683
 2758              		.loc 1 1085 10 is_stmt 0 view .LVU684
 2759 001e 01E0     		b	.L177
 2760              	.L178:
1073:Drivers/BSP/Components/lis2dw12/lis2dw12_reg.c ****       break;
 2761              		.loc 1 1073 7 is_stmt 1 view .LVU685
1073:Drivers/BSP/Components/lis2dw12/lis2dw12_reg.c ****       break;
 2762              		.loc 1 1073 12 is_stmt 0 view .LVU686
 2763 0020 0023     		movs	r3, #0
 2764 0022 2370     		strb	r3, [r4]
1074:Drivers/BSP/Components/lis2dw12/lis2dw12_reg.c **** 
 2765              		.loc 1 1074 7 is_stmt 1 view .LVU687
 2766              	.L177:
1086:Drivers/BSP/Components/lis2dw12/lis2dw12_reg.c **** }
 2767              		.loc 1 1086 1 is_stmt 0 view .LVU688
 2768 0024 02B0     		add	sp, sp, #8
 2769              	.LCFI94:
 2770              		.cfi_remember_state
 2771              		.cfi_def_cfa_offset 8
 2772              		@ sp needed
 2773 0026 10BD     		pop	{r4, pc}
 2774              	.LVL170:
 2775              	.L179:
 2776              	.LCFI95:
 2777              		.cfi_restore_state
1077:Drivers/BSP/Components/lis2dw12/lis2dw12_reg.c ****       break;
 2778              		.loc 1 1077 7 is_stmt 1 view .LVU689
1077:Drivers/BSP/Components/lis2dw12/lis2dw12_reg.c ****       break;
 2779              		.loc 1 1077 12 is_stmt 0 view .LVU690
 2780 0028 0123     		movs	r3, #1
 2781 002a 2370     		strb	r3, [r4]
1078:Drivers/BSP/Components/lis2dw12/lis2dw12_reg.c **** 
 2782              		.loc 1 1078 7 is_stmt 1 view .LVU691
 2783 002c FAE7     		b	.L177
 2784              		.cfi_endproc
 2785              	.LFE42:
 2787              		.section	.text.lis2dw12_filter_path_set,"ax",%progbits
 2788              		.align	1
 2789              		.global	lis2dw12_filter_path_set
 2790              		.syntax unified
 2791              		.thumb
 2792              		.thumb_func
 2793              		.fpu fpv4-sp-d16
 2795              	lis2dw12_filter_path_set:
 2796              	.LVL171:
 2797              	.LFB43:
1087:Drivers/BSP/Components/lis2dw12/lis2dw12_reg.c **** 
1088:Drivers/BSP/Components/lis2dw12/lis2dw12_reg.c **** /**
ARM GAS  /tmp/ccEdQILT.s 			page 72


1089:Drivers/BSP/Components/lis2dw12/lis2dw12_reg.c ****   * @}
1090:Drivers/BSP/Components/lis2dw12/lis2dw12_reg.c ****   *
1091:Drivers/BSP/Components/lis2dw12/lis2dw12_reg.c ****   */
1092:Drivers/BSP/Components/lis2dw12/lis2dw12_reg.c **** 
1093:Drivers/BSP/Components/lis2dw12/lis2dw12_reg.c **** /**
1094:Drivers/BSP/Components/lis2dw12/lis2dw12_reg.c ****   * @defgroup  LIS2DW12_Filters
1095:Drivers/BSP/Components/lis2dw12/lis2dw12_reg.c ****   * @brief     This section group all the functions concerning the filters
1096:Drivers/BSP/Components/lis2dw12/lis2dw12_reg.c ****   *            configuration.
1097:Drivers/BSP/Components/lis2dw12/lis2dw12_reg.c ****   * @{
1098:Drivers/BSP/Components/lis2dw12/lis2dw12_reg.c ****   *
1099:Drivers/BSP/Components/lis2dw12/lis2dw12_reg.c ****   */
1100:Drivers/BSP/Components/lis2dw12/lis2dw12_reg.c **** 
1101:Drivers/BSP/Components/lis2dw12/lis2dw12_reg.c **** /**
1102:Drivers/BSP/Components/lis2dw12/lis2dw12_reg.c ****   * @brief  Accelerometer filtering path for outputs.[set]
1103:Drivers/BSP/Components/lis2dw12/lis2dw12_reg.c ****   *
1104:Drivers/BSP/Components/lis2dw12/lis2dw12_reg.c ****   * @param  ctx      read / write interface definitions
1105:Drivers/BSP/Components/lis2dw12/lis2dw12_reg.c ****   * @param  val      change the values of fds in reg CTRL6
1106:Drivers/BSP/Components/lis2dw12/lis2dw12_reg.c ****   * @retval          interface status (MANDATORY: return 0 -> no Error)
1107:Drivers/BSP/Components/lis2dw12/lis2dw12_reg.c ****   *
1108:Drivers/BSP/Components/lis2dw12/lis2dw12_reg.c ****   */
1109:Drivers/BSP/Components/lis2dw12/lis2dw12_reg.c **** int32_t lis2dw12_filter_path_set(stmdev_ctx_t *ctx,
1110:Drivers/BSP/Components/lis2dw12/lis2dw12_reg.c ****                                  lis2dw12_fds_t val)
1111:Drivers/BSP/Components/lis2dw12/lis2dw12_reg.c **** {
 2798              		.loc 1 1111 1 view -0
 2799              		.cfi_startproc
 2800              		@ args = 0, pretend = 0, frame = 8
 2801              		@ frame_needed = 0, uses_anonymous_args = 0
 2802              		.loc 1 1111 1 is_stmt 0 view .LVU693
 2803 0000 30B5     		push	{r4, r5, lr}
 2804              	.LCFI96:
 2805              		.cfi_def_cfa_offset 12
 2806              		.cfi_offset 4, -12
 2807              		.cfi_offset 5, -8
 2808              		.cfi_offset 14, -4
 2809 0002 83B0     		sub	sp, sp, #12
 2810              	.LCFI97:
 2811              		.cfi_def_cfa_offset 24
 2812 0004 0546     		mov	r5, r0
 2813 0006 0C46     		mov	r4, r1
1112:Drivers/BSP/Components/lis2dw12/lis2dw12_reg.c ****   lis2dw12_ctrl6_t ctrl6;
 2814              		.loc 1 1112 3 is_stmt 1 view .LVU694
1113:Drivers/BSP/Components/lis2dw12/lis2dw12_reg.c ****   lis2dw12_ctrl_reg7_t ctrl_reg7;
 2815              		.loc 1 1113 3 view .LVU695
1114:Drivers/BSP/Components/lis2dw12/lis2dw12_reg.c ****   int32_t ret;
 2816              		.loc 1 1114 3 view .LVU696
1115:Drivers/BSP/Components/lis2dw12/lis2dw12_reg.c **** 
1116:Drivers/BSP/Components/lis2dw12/lis2dw12_reg.c ****   ret = lis2dw12_read_reg(ctx, LIS2DW12_CTRL6, (uint8_t *) &ctrl6, 1);
 2817              		.loc 1 1116 3 view .LVU697
 2818              		.loc 1 1116 9 is_stmt 0 view .LVU698
 2819 0008 0123     		movs	r3, #1
 2820 000a 01AA     		add	r2, sp, #4
 2821 000c 2521     		movs	r1, #37
 2822              	.LVL172:
 2823              		.loc 1 1116 9 view .LVU699
 2824 000e FFF7FEFF 		bl	lis2dw12_read_reg
 2825              	.LVL173:
1117:Drivers/BSP/Components/lis2dw12/lis2dw12_reg.c **** 
ARM GAS  /tmp/ccEdQILT.s 			page 73


1118:Drivers/BSP/Components/lis2dw12/lis2dw12_reg.c ****   if (ret == 0)
 2826              		.loc 1 1118 3 is_stmt 1 view .LVU700
 2827              		.loc 1 1118 6 is_stmt 0 view .LVU701
 2828 0012 18B1     		cbz	r0, .L189
 2829              	.LVL174:
 2830              	.L185:
1119:Drivers/BSP/Components/lis2dw12/lis2dw12_reg.c ****   {
1120:Drivers/BSP/Components/lis2dw12/lis2dw12_reg.c ****     ctrl6.fds = ((uint8_t) val & 0x10U) >> 4;
1121:Drivers/BSP/Components/lis2dw12/lis2dw12_reg.c ****     ret = lis2dw12_write_reg(ctx, LIS2DW12_CTRL6, (uint8_t *) &ctrl6, 1);
1122:Drivers/BSP/Components/lis2dw12/lis2dw12_reg.c ****   }
1123:Drivers/BSP/Components/lis2dw12/lis2dw12_reg.c **** 
1124:Drivers/BSP/Components/lis2dw12/lis2dw12_reg.c ****   if (ret == 0)
 2831              		.loc 1 1124 3 is_stmt 1 view .LVU702
 2832              		.loc 1 1124 6 is_stmt 0 view .LVU703
 2833 0014 88B1     		cbz	r0, .L190
 2834              	.L186:
1125:Drivers/BSP/Components/lis2dw12/lis2dw12_reg.c ****   {
1126:Drivers/BSP/Components/lis2dw12/lis2dw12_reg.c ****     ret = lis2dw12_read_reg(ctx, LIS2DW12_CTRL_REG7,
1127:Drivers/BSP/Components/lis2dw12/lis2dw12_reg.c ****                             (uint8_t *) &ctrl_reg7, 1);
1128:Drivers/BSP/Components/lis2dw12/lis2dw12_reg.c ****   }
1129:Drivers/BSP/Components/lis2dw12/lis2dw12_reg.c **** 
1130:Drivers/BSP/Components/lis2dw12/lis2dw12_reg.c ****   if (ret == 0)
 2835              		.loc 1 1130 3 is_stmt 1 view .LVU704
 2836              		.loc 1 1130 6 is_stmt 0 view .LVU705
 2837 0016 B8B1     		cbz	r0, .L191
 2838              	.L184:
1131:Drivers/BSP/Components/lis2dw12/lis2dw12_reg.c ****   {
1132:Drivers/BSP/Components/lis2dw12/lis2dw12_reg.c ****     ctrl_reg7.usr_off_on_out = (uint8_t) val & 0x01U;
1133:Drivers/BSP/Components/lis2dw12/lis2dw12_reg.c ****     ret = lis2dw12_write_reg(ctx, LIS2DW12_CTRL_REG7,
1134:Drivers/BSP/Components/lis2dw12/lis2dw12_reg.c ****                              (uint8_t *) &ctrl_reg7, 1);
1135:Drivers/BSP/Components/lis2dw12/lis2dw12_reg.c ****   }
1136:Drivers/BSP/Components/lis2dw12/lis2dw12_reg.c **** 
1137:Drivers/BSP/Components/lis2dw12/lis2dw12_reg.c ****   return ret;
1138:Drivers/BSP/Components/lis2dw12/lis2dw12_reg.c **** }
 2839              		.loc 1 1138 1 view .LVU706
 2840 0018 03B0     		add	sp, sp, #12
 2841              	.LCFI98:
 2842              		.cfi_remember_state
 2843              		.cfi_def_cfa_offset 12
 2844              		@ sp needed
 2845 001a 30BD     		pop	{r4, r5, pc}
 2846              	.LVL175:
 2847              	.L189:
 2848              	.LCFI99:
 2849              		.cfi_restore_state
1120:Drivers/BSP/Components/lis2dw12/lis2dw12_reg.c ****     ret = lis2dw12_write_reg(ctx, LIS2DW12_CTRL6, (uint8_t *) &ctrl6, 1);
 2850              		.loc 1 1120 5 is_stmt 1 view .LVU707
1120:Drivers/BSP/Components/lis2dw12/lis2dw12_reg.c ****     ret = lis2dw12_write_reg(ctx, LIS2DW12_CTRL6, (uint8_t *) &ctrl6, 1);
 2851              		.loc 1 1120 41 is_stmt 0 view .LVU708
 2852 001c C4F30013 		ubfx	r3, r4, #4, #1
1120:Drivers/BSP/Components/lis2dw12/lis2dw12_reg.c ****     ret = lis2dw12_write_reg(ctx, LIS2DW12_CTRL6, (uint8_t *) &ctrl6, 1);
 2853              		.loc 1 1120 15 view .LVU709
 2854 0020 9DF80420 		ldrb	r2, [sp, #4]	@ zero_extendqisi2
 2855 0024 63F3C302 		bfi	r2, r3, #3, #1
 2856 0028 8DF80420 		strb	r2, [sp, #4]
1121:Drivers/BSP/Components/lis2dw12/lis2dw12_reg.c ****   }
 2857              		.loc 1 1121 5 is_stmt 1 view .LVU710
ARM GAS  /tmp/ccEdQILT.s 			page 74


1121:Drivers/BSP/Components/lis2dw12/lis2dw12_reg.c ****   }
 2858              		.loc 1 1121 11 is_stmt 0 view .LVU711
 2859 002c 0123     		movs	r3, #1
 2860              	.LVL176:
1121:Drivers/BSP/Components/lis2dw12/lis2dw12_reg.c ****   }
 2861              		.loc 1 1121 11 view .LVU712
 2862 002e 01AA     		add	r2, sp, #4
 2863 0030 2521     		movs	r1, #37
 2864 0032 2846     		mov	r0, r5
 2865 0034 FFF7FEFF 		bl	lis2dw12_write_reg
 2866              	.LVL177:
1121:Drivers/BSP/Components/lis2dw12/lis2dw12_reg.c ****   }
 2867              		.loc 1 1121 11 view .LVU713
 2868 0038 ECE7     		b	.L185
 2869              	.L190:
1126:Drivers/BSP/Components/lis2dw12/lis2dw12_reg.c ****                             (uint8_t *) &ctrl_reg7, 1);
 2870              		.loc 1 1126 5 is_stmt 1 view .LVU714
1126:Drivers/BSP/Components/lis2dw12/lis2dw12_reg.c ****                             (uint8_t *) &ctrl_reg7, 1);
 2871              		.loc 1 1126 11 is_stmt 0 view .LVU715
 2872 003a 0123     		movs	r3, #1
 2873 003c 6A46     		mov	r2, sp
 2874 003e 3F21     		movs	r1, #63
 2875 0040 2846     		mov	r0, r5
 2876              	.LVL178:
1126:Drivers/BSP/Components/lis2dw12/lis2dw12_reg.c ****                             (uint8_t *) &ctrl_reg7, 1);
 2877              		.loc 1 1126 11 view .LVU716
 2878 0042 FFF7FEFF 		bl	lis2dw12_read_reg
 2879              	.LVL179:
1126:Drivers/BSP/Components/lis2dw12/lis2dw12_reg.c ****                             (uint8_t *) &ctrl_reg7, 1);
 2880              		.loc 1 1126 11 view .LVU717
 2881 0046 E6E7     		b	.L186
 2882              	.L191:
1132:Drivers/BSP/Components/lis2dw12/lis2dw12_reg.c ****     ret = lis2dw12_write_reg(ctx, LIS2DW12_CTRL_REG7,
 2883              		.loc 1 1132 5 is_stmt 1 view .LVU718
1132:Drivers/BSP/Components/lis2dw12/lis2dw12_reg.c ****     ret = lis2dw12_write_reg(ctx, LIS2DW12_CTRL_REG7,
 2884              		.loc 1 1132 30 is_stmt 0 view .LVU719
 2885 0048 9DF80030 		ldrb	r3, [sp]	@ zero_extendqisi2
 2886 004c 64F30413 		bfi	r3, r4, #4, #1
 2887 0050 8DF80030 		strb	r3, [sp]
1133:Drivers/BSP/Components/lis2dw12/lis2dw12_reg.c ****                              (uint8_t *) &ctrl_reg7, 1);
 2888              		.loc 1 1133 5 is_stmt 1 view .LVU720
1133:Drivers/BSP/Components/lis2dw12/lis2dw12_reg.c ****                              (uint8_t *) &ctrl_reg7, 1);
 2889              		.loc 1 1133 11 is_stmt 0 view .LVU721
 2890 0054 0123     		movs	r3, #1
 2891 0056 6A46     		mov	r2, sp
 2892 0058 3F21     		movs	r1, #63
 2893 005a 2846     		mov	r0, r5
 2894              	.LVL180:
1133:Drivers/BSP/Components/lis2dw12/lis2dw12_reg.c ****                              (uint8_t *) &ctrl_reg7, 1);
 2895              		.loc 1 1133 11 view .LVU722
 2896 005c FFF7FEFF 		bl	lis2dw12_write_reg
 2897              	.LVL181:
1137:Drivers/BSP/Components/lis2dw12/lis2dw12_reg.c **** }
 2898              		.loc 1 1137 3 is_stmt 1 view .LVU723
1137:Drivers/BSP/Components/lis2dw12/lis2dw12_reg.c **** }
 2899              		.loc 1 1137 10 is_stmt 0 view .LVU724
 2900 0060 DAE7     		b	.L184
ARM GAS  /tmp/ccEdQILT.s 			page 75


 2901              		.cfi_endproc
 2902              	.LFE43:
 2904              		.section	.text.lis2dw12_filter_path_get,"ax",%progbits
 2905              		.align	1
 2906              		.global	lis2dw12_filter_path_get
 2907              		.syntax unified
 2908              		.thumb
 2909              		.thumb_func
 2910              		.fpu fpv4-sp-d16
 2912              	lis2dw12_filter_path_get:
 2913              	.LVL182:
 2914              	.LFB44:
1139:Drivers/BSP/Components/lis2dw12/lis2dw12_reg.c **** 
1140:Drivers/BSP/Components/lis2dw12/lis2dw12_reg.c **** /**
1141:Drivers/BSP/Components/lis2dw12/lis2dw12_reg.c ****   * @brief  Accelerometer filtering path for outputs.[get]
1142:Drivers/BSP/Components/lis2dw12/lis2dw12_reg.c ****   *
1143:Drivers/BSP/Components/lis2dw12/lis2dw12_reg.c ****   * @param  ctx      read / write interface definitions
1144:Drivers/BSP/Components/lis2dw12/lis2dw12_reg.c ****   * @param  val      Get the values of fds in reg CTRL6
1145:Drivers/BSP/Components/lis2dw12/lis2dw12_reg.c ****   * @retval          interface status (MANDATORY: return 0 -> no Error)
1146:Drivers/BSP/Components/lis2dw12/lis2dw12_reg.c ****   *
1147:Drivers/BSP/Components/lis2dw12/lis2dw12_reg.c ****   */
1148:Drivers/BSP/Components/lis2dw12/lis2dw12_reg.c **** int32_t lis2dw12_filter_path_get(stmdev_ctx_t *ctx,
1149:Drivers/BSP/Components/lis2dw12/lis2dw12_reg.c ****                                  lis2dw12_fds_t *val)
1150:Drivers/BSP/Components/lis2dw12/lis2dw12_reg.c **** {
 2915              		.loc 1 1150 1 is_stmt 1 view -0
 2916              		.cfi_startproc
 2917              		@ args = 0, pretend = 0, frame = 8
 2918              		@ frame_needed = 0, uses_anonymous_args = 0
 2919              		.loc 1 1150 1 is_stmt 0 view .LVU726
 2920 0000 30B5     		push	{r4, r5, lr}
 2921              	.LCFI100:
 2922              		.cfi_def_cfa_offset 12
 2923              		.cfi_offset 4, -12
 2924              		.cfi_offset 5, -8
 2925              		.cfi_offset 14, -4
 2926 0002 83B0     		sub	sp, sp, #12
 2927              	.LCFI101:
 2928              		.cfi_def_cfa_offset 24
 2929 0004 0446     		mov	r4, r0
 2930 0006 0D46     		mov	r5, r1
1151:Drivers/BSP/Components/lis2dw12/lis2dw12_reg.c ****   lis2dw12_ctrl6_t ctrl6;
 2931              		.loc 1 1151 3 is_stmt 1 view .LVU727
1152:Drivers/BSP/Components/lis2dw12/lis2dw12_reg.c ****   lis2dw12_ctrl_reg7_t ctrl_reg7;
 2932              		.loc 1 1152 3 view .LVU728
1153:Drivers/BSP/Components/lis2dw12/lis2dw12_reg.c ****   int32_t ret;
 2933              		.loc 1 1153 3 view .LVU729
1154:Drivers/BSP/Components/lis2dw12/lis2dw12_reg.c **** 
1155:Drivers/BSP/Components/lis2dw12/lis2dw12_reg.c ****   ret = lis2dw12_read_reg(ctx, LIS2DW12_CTRL6, (uint8_t *) &ctrl6, 1);
 2934              		.loc 1 1155 3 view .LVU730
 2935              		.loc 1 1155 9 is_stmt 0 view .LVU731
 2936 0008 0123     		movs	r3, #1
 2937 000a 01AA     		add	r2, sp, #4
 2938 000c 2521     		movs	r1, #37
 2939              	.LVL183:
 2940              		.loc 1 1155 9 view .LVU732
 2941 000e FFF7FEFF 		bl	lis2dw12_read_reg
 2942              	.LVL184:
ARM GAS  /tmp/ccEdQILT.s 			page 76


1156:Drivers/BSP/Components/lis2dw12/lis2dw12_reg.c **** 
1157:Drivers/BSP/Components/lis2dw12/lis2dw12_reg.c ****   if (ret == 0)
 2943              		.loc 1 1157 3 is_stmt 1 view .LVU733
 2944              		.loc 1 1157 6 is_stmt 0 view .LVU734
 2945 0012 08B1     		cbz	r0, .L198
 2946              	.LVL185:
 2947              	.L192:
1158:Drivers/BSP/Components/lis2dw12/lis2dw12_reg.c ****   {
1159:Drivers/BSP/Components/lis2dw12/lis2dw12_reg.c ****     ret = lis2dw12_read_reg(ctx, LIS2DW12_CTRL_REG7,
1160:Drivers/BSP/Components/lis2dw12/lis2dw12_reg.c ****                             (uint8_t *) &ctrl_reg7, 1);
1161:Drivers/BSP/Components/lis2dw12/lis2dw12_reg.c **** 
1162:Drivers/BSP/Components/lis2dw12/lis2dw12_reg.c ****     switch ((ctrl6.fds << 4) + ctrl_reg7.usr_off_on_out)
1163:Drivers/BSP/Components/lis2dw12/lis2dw12_reg.c ****     {
1164:Drivers/BSP/Components/lis2dw12/lis2dw12_reg.c ****       case LIS2DW12_LPF_ON_OUT:
1165:Drivers/BSP/Components/lis2dw12/lis2dw12_reg.c ****         *val = LIS2DW12_LPF_ON_OUT;
1166:Drivers/BSP/Components/lis2dw12/lis2dw12_reg.c ****         break;
1167:Drivers/BSP/Components/lis2dw12/lis2dw12_reg.c **** 
1168:Drivers/BSP/Components/lis2dw12/lis2dw12_reg.c ****       case LIS2DW12_USER_OFFSET_ON_OUT:
1169:Drivers/BSP/Components/lis2dw12/lis2dw12_reg.c ****         *val = LIS2DW12_USER_OFFSET_ON_OUT;
1170:Drivers/BSP/Components/lis2dw12/lis2dw12_reg.c ****         break;
1171:Drivers/BSP/Components/lis2dw12/lis2dw12_reg.c **** 
1172:Drivers/BSP/Components/lis2dw12/lis2dw12_reg.c ****       case LIS2DW12_HIGH_PASS_ON_OUT:
1173:Drivers/BSP/Components/lis2dw12/lis2dw12_reg.c ****         *val = LIS2DW12_HIGH_PASS_ON_OUT;
1174:Drivers/BSP/Components/lis2dw12/lis2dw12_reg.c ****         break;
1175:Drivers/BSP/Components/lis2dw12/lis2dw12_reg.c **** 
1176:Drivers/BSP/Components/lis2dw12/lis2dw12_reg.c ****       default:
1177:Drivers/BSP/Components/lis2dw12/lis2dw12_reg.c ****         *val = LIS2DW12_LPF_ON_OUT;
1178:Drivers/BSP/Components/lis2dw12/lis2dw12_reg.c ****         break;
1179:Drivers/BSP/Components/lis2dw12/lis2dw12_reg.c ****     }
1180:Drivers/BSP/Components/lis2dw12/lis2dw12_reg.c ****   }
1181:Drivers/BSP/Components/lis2dw12/lis2dw12_reg.c **** 
1182:Drivers/BSP/Components/lis2dw12/lis2dw12_reg.c ****   return ret;
1183:Drivers/BSP/Components/lis2dw12/lis2dw12_reg.c **** }
 2948              		.loc 1 1183 1 view .LVU735
 2949 0014 03B0     		add	sp, sp, #12
 2950              	.LCFI102:
 2951              		.cfi_remember_state
 2952              		.cfi_def_cfa_offset 12
 2953              		@ sp needed
 2954 0016 30BD     		pop	{r4, r5, pc}
 2955              	.LVL186:
 2956              	.L198:
 2957              	.LCFI103:
 2958              		.cfi_restore_state
1159:Drivers/BSP/Components/lis2dw12/lis2dw12_reg.c ****                             (uint8_t *) &ctrl_reg7, 1);
 2959              		.loc 1 1159 5 is_stmt 1 view .LVU736
1159:Drivers/BSP/Components/lis2dw12/lis2dw12_reg.c ****                             (uint8_t *) &ctrl_reg7, 1);
 2960              		.loc 1 1159 11 is_stmt 0 view .LVU737
 2961 0018 0123     		movs	r3, #1
 2962              	.LVL187:
1159:Drivers/BSP/Components/lis2dw12/lis2dw12_reg.c ****                             (uint8_t *) &ctrl_reg7, 1);
 2963              		.loc 1 1159 11 view .LVU738
 2964 001a 6A46     		mov	r2, sp
 2965 001c 3F21     		movs	r1, #63
 2966 001e 2046     		mov	r0, r4
 2967 0020 FFF7FEFF 		bl	lis2dw12_read_reg
 2968              	.LVL188:
ARM GAS  /tmp/ccEdQILT.s 			page 77


1162:Drivers/BSP/Components/lis2dw12/lis2dw12_reg.c ****     {
 2969              		.loc 1 1162 5 is_stmt 1 view .LVU739
1162:Drivers/BSP/Components/lis2dw12/lis2dw12_reg.c ****     {
 2970              		.loc 1 1162 19 is_stmt 0 view .LVU740
 2971 0024 9DF80430 		ldrb	r3, [sp, #4]	@ zero_extendqisi2
 2972 0028 C3F3C002 		ubfx	r2, r3, #3, #1
1162:Drivers/BSP/Components/lis2dw12/lis2dw12_reg.c ****     {
 2973              		.loc 1 1162 41 view .LVU741
 2974 002c 9DF80030 		ldrb	r3, [sp]	@ zero_extendqisi2
 2975 0030 C3F30013 		ubfx	r3, r3, #4, #1
1162:Drivers/BSP/Components/lis2dw12/lis2dw12_reg.c ****     {
 2976              		.loc 1 1162 30 view .LVU742
 2977 0034 03EB0213 		add	r3, r3, r2, lsl #4
1162:Drivers/BSP/Components/lis2dw12/lis2dw12_reg.c ****     {
 2978              		.loc 1 1162 5 view .LVU743
 2979 0038 012B     		cmp	r3, #1
 2980 003a 07D0     		beq	.L194
 2981 003c 102B     		cmp	r3, #16
 2982 003e 08D0     		beq	.L195
 2983 0040 13B1     		cbz	r3, .L199
1177:Drivers/BSP/Components/lis2dw12/lis2dw12_reg.c ****         break;
 2984              		.loc 1 1177 9 is_stmt 1 view .LVU744
1177:Drivers/BSP/Components/lis2dw12/lis2dw12_reg.c ****         break;
 2985              		.loc 1 1177 14 is_stmt 0 view .LVU745
 2986 0042 0023     		movs	r3, #0
 2987 0044 2B70     		strb	r3, [r5]
1178:Drivers/BSP/Components/lis2dw12/lis2dw12_reg.c ****     }
 2988              		.loc 1 1178 9 is_stmt 1 view .LVU746
1182:Drivers/BSP/Components/lis2dw12/lis2dw12_reg.c **** }
 2989              		.loc 1 1182 3 view .LVU747
1182:Drivers/BSP/Components/lis2dw12/lis2dw12_reg.c **** }
 2990              		.loc 1 1182 10 is_stmt 0 view .LVU748
 2991 0046 E5E7     		b	.L192
 2992              	.L199:
1165:Drivers/BSP/Components/lis2dw12/lis2dw12_reg.c ****         break;
 2993              		.loc 1 1165 9 is_stmt 1 view .LVU749
1165:Drivers/BSP/Components/lis2dw12/lis2dw12_reg.c ****         break;
 2994              		.loc 1 1165 14 is_stmt 0 view .LVU750
 2995 0048 2B70     		strb	r3, [r5]
1166:Drivers/BSP/Components/lis2dw12/lis2dw12_reg.c **** 
 2996              		.loc 1 1166 9 is_stmt 1 view .LVU751
 2997 004a E3E7     		b	.L192
 2998              	.L194:
1169:Drivers/BSP/Components/lis2dw12/lis2dw12_reg.c ****         break;
 2999              		.loc 1 1169 9 view .LVU752
1169:Drivers/BSP/Components/lis2dw12/lis2dw12_reg.c ****         break;
 3000              		.loc 1 1169 14 is_stmt 0 view .LVU753
 3001 004c 0123     		movs	r3, #1
 3002 004e 2B70     		strb	r3, [r5]
1170:Drivers/BSP/Components/lis2dw12/lis2dw12_reg.c **** 
 3003              		.loc 1 1170 9 is_stmt 1 view .LVU754
 3004 0050 E0E7     		b	.L192
 3005              	.L195:
1173:Drivers/BSP/Components/lis2dw12/lis2dw12_reg.c ****         break;
 3006              		.loc 1 1173 9 view .LVU755
1173:Drivers/BSP/Components/lis2dw12/lis2dw12_reg.c ****         break;
 3007              		.loc 1 1173 14 is_stmt 0 view .LVU756
ARM GAS  /tmp/ccEdQILT.s 			page 78


 3008 0052 1023     		movs	r3, #16
 3009 0054 2B70     		strb	r3, [r5]
1174:Drivers/BSP/Components/lis2dw12/lis2dw12_reg.c **** 
 3010              		.loc 1 1174 9 is_stmt 1 view .LVU757
 3011 0056 DDE7     		b	.L192
 3012              		.cfi_endproc
 3013              	.LFE44:
 3015              		.section	.text.lis2dw12_filter_bandwidth_set,"ax",%progbits
 3016              		.align	1
 3017              		.global	lis2dw12_filter_bandwidth_set
 3018              		.syntax unified
 3019              		.thumb
 3020              		.thumb_func
 3021              		.fpu fpv4-sp-d16
 3023              	lis2dw12_filter_bandwidth_set:
 3024              	.LVL189:
 3025              	.LFB45:
1184:Drivers/BSP/Components/lis2dw12/lis2dw12_reg.c **** 
1185:Drivers/BSP/Components/lis2dw12/lis2dw12_reg.c **** /**
1186:Drivers/BSP/Components/lis2dw12/lis2dw12_reg.c ****   * @brief   Accelerometer cutoff filter frequency. Valid for low and high
1187:Drivers/BSP/Components/lis2dw12/lis2dw12_reg.c ****   *          pass filter.[set]
1188:Drivers/BSP/Components/lis2dw12/lis2dw12_reg.c ****   *
1189:Drivers/BSP/Components/lis2dw12/lis2dw12_reg.c ****   * @param  ctx      read / write interface definitions
1190:Drivers/BSP/Components/lis2dw12/lis2dw12_reg.c ****   * @param  val      change the values of bw_filt in reg CTRL6
1191:Drivers/BSP/Components/lis2dw12/lis2dw12_reg.c ****   * @retval          interface status (MANDATORY: return 0 -> no Error)
1192:Drivers/BSP/Components/lis2dw12/lis2dw12_reg.c ****   *
1193:Drivers/BSP/Components/lis2dw12/lis2dw12_reg.c ****   */
1194:Drivers/BSP/Components/lis2dw12/lis2dw12_reg.c **** int32_t lis2dw12_filter_bandwidth_set(stmdev_ctx_t *ctx,
1195:Drivers/BSP/Components/lis2dw12/lis2dw12_reg.c ****                                       lis2dw12_bw_filt_t val)
1196:Drivers/BSP/Components/lis2dw12/lis2dw12_reg.c **** {
 3026              		.loc 1 1196 1 view -0
 3027              		.cfi_startproc
 3028              		@ args = 0, pretend = 0, frame = 8
 3029              		@ frame_needed = 0, uses_anonymous_args = 0
 3030              		.loc 1 1196 1 is_stmt 0 view .LVU759
 3031 0000 30B5     		push	{r4, r5, lr}
 3032              	.LCFI104:
 3033              		.cfi_def_cfa_offset 12
 3034              		.cfi_offset 4, -12
 3035              		.cfi_offset 5, -8
 3036              		.cfi_offset 14, -4
 3037 0002 83B0     		sub	sp, sp, #12
 3038              	.LCFI105:
 3039              		.cfi_def_cfa_offset 24
 3040 0004 0446     		mov	r4, r0
 3041 0006 0D46     		mov	r5, r1
1197:Drivers/BSP/Components/lis2dw12/lis2dw12_reg.c ****   lis2dw12_ctrl6_t reg;
 3042              		.loc 1 1197 3 is_stmt 1 view .LVU760
1198:Drivers/BSP/Components/lis2dw12/lis2dw12_reg.c ****   int32_t ret;
 3043              		.loc 1 1198 3 view .LVU761
1199:Drivers/BSP/Components/lis2dw12/lis2dw12_reg.c **** 
1200:Drivers/BSP/Components/lis2dw12/lis2dw12_reg.c ****   ret = lis2dw12_read_reg(ctx, LIS2DW12_CTRL6, (uint8_t *) &reg, 1);
 3044              		.loc 1 1200 3 view .LVU762
 3045              		.loc 1 1200 9 is_stmt 0 view .LVU763
 3046 0008 0123     		movs	r3, #1
 3047 000a 01AA     		add	r2, sp, #4
 3048 000c 2521     		movs	r1, #37
ARM GAS  /tmp/ccEdQILT.s 			page 79


 3049              	.LVL190:
 3050              		.loc 1 1200 9 view .LVU764
 3051 000e FFF7FEFF 		bl	lis2dw12_read_reg
 3052              	.LVL191:
1201:Drivers/BSP/Components/lis2dw12/lis2dw12_reg.c **** 
1202:Drivers/BSP/Components/lis2dw12/lis2dw12_reg.c ****   if (ret == 0)
 3053              		.loc 1 1202 3 is_stmt 1 view .LVU765
 3054              		.loc 1 1202 6 is_stmt 0 view .LVU766
 3055 0012 08B1     		cbz	r0, .L203
 3056              	.LVL192:
 3057              	.L200:
1203:Drivers/BSP/Components/lis2dw12/lis2dw12_reg.c ****   {
1204:Drivers/BSP/Components/lis2dw12/lis2dw12_reg.c ****     reg.bw_filt = (uint8_t) val;
1205:Drivers/BSP/Components/lis2dw12/lis2dw12_reg.c ****     ret = lis2dw12_write_reg(ctx, LIS2DW12_CTRL6, (uint8_t *) &reg, 1);
1206:Drivers/BSP/Components/lis2dw12/lis2dw12_reg.c ****   }
1207:Drivers/BSP/Components/lis2dw12/lis2dw12_reg.c **** 
1208:Drivers/BSP/Components/lis2dw12/lis2dw12_reg.c ****   return ret;
1209:Drivers/BSP/Components/lis2dw12/lis2dw12_reg.c **** }
 3058              		.loc 1 1209 1 view .LVU767
 3059 0014 03B0     		add	sp, sp, #12
 3060              	.LCFI106:
 3061              		.cfi_remember_state
 3062              		.cfi_def_cfa_offset 12
 3063              		@ sp needed
 3064 0016 30BD     		pop	{r4, r5, pc}
 3065              	.LVL193:
 3066              	.L203:
 3067              	.LCFI107:
 3068              		.cfi_restore_state
1204:Drivers/BSP/Components/lis2dw12/lis2dw12_reg.c ****     ret = lis2dw12_write_reg(ctx, LIS2DW12_CTRL6, (uint8_t *) &reg, 1);
 3069              		.loc 1 1204 5 is_stmt 1 view .LVU768
1204:Drivers/BSP/Components/lis2dw12/lis2dw12_reg.c ****     ret = lis2dw12_write_reg(ctx, LIS2DW12_CTRL6, (uint8_t *) &reg, 1);
 3070              		.loc 1 1204 17 is_stmt 0 view .LVU769
 3071 0018 9DF80430 		ldrb	r3, [sp, #4]	@ zero_extendqisi2
 3072 001c 65F38713 		bfi	r3, r5, #6, #2
 3073 0020 8DF80430 		strb	r3, [sp, #4]
1205:Drivers/BSP/Components/lis2dw12/lis2dw12_reg.c ****   }
 3074              		.loc 1 1205 5 is_stmt 1 view .LVU770
1205:Drivers/BSP/Components/lis2dw12/lis2dw12_reg.c ****   }
 3075              		.loc 1 1205 11 is_stmt 0 view .LVU771
 3076 0024 0123     		movs	r3, #1
 3077              	.LVL194:
1205:Drivers/BSP/Components/lis2dw12/lis2dw12_reg.c ****   }
 3078              		.loc 1 1205 11 view .LVU772
 3079 0026 01AA     		add	r2, sp, #4
 3080 0028 2521     		movs	r1, #37
 3081 002a 2046     		mov	r0, r4
 3082 002c FFF7FEFF 		bl	lis2dw12_write_reg
 3083              	.LVL195:
1208:Drivers/BSP/Components/lis2dw12/lis2dw12_reg.c **** }
 3084              		.loc 1 1208 3 is_stmt 1 view .LVU773
1208:Drivers/BSP/Components/lis2dw12/lis2dw12_reg.c **** }
 3085              		.loc 1 1208 10 is_stmt 0 view .LVU774
 3086 0030 F0E7     		b	.L200
 3087              		.cfi_endproc
 3088              	.LFE45:
 3090              		.section	.text.lis2dw12_filter_bandwidth_get,"ax",%progbits
ARM GAS  /tmp/ccEdQILT.s 			page 80


 3091              		.align	1
 3092              		.global	lis2dw12_filter_bandwidth_get
 3093              		.syntax unified
 3094              		.thumb
 3095              		.thumb_func
 3096              		.fpu fpv4-sp-d16
 3098              	lis2dw12_filter_bandwidth_get:
 3099              	.LVL196:
 3100              	.LFB46:
1210:Drivers/BSP/Components/lis2dw12/lis2dw12_reg.c **** 
1211:Drivers/BSP/Components/lis2dw12/lis2dw12_reg.c **** /**
1212:Drivers/BSP/Components/lis2dw12/lis2dw12_reg.c ****   * @brief   Accelerometer cutoff filter frequency. Valid for low and
1213:Drivers/BSP/Components/lis2dw12/lis2dw12_reg.c ****   *          high pass filter.[get]
1214:Drivers/BSP/Components/lis2dw12/lis2dw12_reg.c ****   *
1215:Drivers/BSP/Components/lis2dw12/lis2dw12_reg.c ****   * @param  ctx      read / write interface definitions
1216:Drivers/BSP/Components/lis2dw12/lis2dw12_reg.c ****   * @param  val      Get the values of bw_filt in reg CTRL6
1217:Drivers/BSP/Components/lis2dw12/lis2dw12_reg.c ****   * @retval          interface status (MANDATORY: return 0 -> no Error)
1218:Drivers/BSP/Components/lis2dw12/lis2dw12_reg.c ****   *
1219:Drivers/BSP/Components/lis2dw12/lis2dw12_reg.c ****   */
1220:Drivers/BSP/Components/lis2dw12/lis2dw12_reg.c **** int32_t lis2dw12_filter_bandwidth_get(stmdev_ctx_t *ctx,
1221:Drivers/BSP/Components/lis2dw12/lis2dw12_reg.c ****                                       lis2dw12_bw_filt_t *val)
1222:Drivers/BSP/Components/lis2dw12/lis2dw12_reg.c **** {
 3101              		.loc 1 1222 1 is_stmt 1 view -0
 3102              		.cfi_startproc
 3103              		@ args = 0, pretend = 0, frame = 8
 3104              		@ frame_needed = 0, uses_anonymous_args = 0
 3105              		.loc 1 1222 1 is_stmt 0 view .LVU776
 3106 0000 10B5     		push	{r4, lr}
 3107              	.LCFI108:
 3108              		.cfi_def_cfa_offset 8
 3109              		.cfi_offset 4, -8
 3110              		.cfi_offset 14, -4
 3111 0002 82B0     		sub	sp, sp, #8
 3112              	.LCFI109:
 3113              		.cfi_def_cfa_offset 16
 3114 0004 0C46     		mov	r4, r1
