ARM GAS  /tmp/ccCpEZfe.s 			page 1


   1              		.cpu cortex-m4
   2              		.eabi_attribute 27, 1
   3              		.eabi_attribute 28, 1
   4              		.eabi_attribute 20, 1
   5              		.eabi_attribute 21, 1
   6              		.eabi_attribute 23, 3
   7              		.eabi_attribute 24, 1
   8              		.eabi_attribute 25, 1
   9              		.eabi_attribute 26, 1
  10              		.eabi_attribute 30, 1
  11              		.eabi_attribute 34, 1
  12              		.eabi_attribute 18, 4
  13              		.file	"lis2dw12.c"
  14              		.text
  15              	.Ltext0:
  16              		.cfi_sections	.debug_frame
  17              		.section	.text.LIS2DW12_GetCapabilities,"ax",%progbits
  18              		.align	1
  19              		.global	LIS2DW12_GetCapabilities
  20              		.arch armv7e-m
  21              		.syntax unified
  22              		.thumb
  23              		.thumb_func
  24              		.fpu fpv4-sp-d16
  26              	LIS2DW12_GetCapabilities:
  27              	.LVL0:
  28              	.LFB4:
  29              		.file 1 "Drivers/BSP/Components/lis2dw12/lis2dw12.c"
   1:Drivers/BSP/Components/lis2dw12/lis2dw12.c **** /**
   2:Drivers/BSP/Components/lis2dw12/lis2dw12.c ****   ******************************************************************************
   3:Drivers/BSP/Components/lis2dw12/lis2dw12.c ****   * @file    lis2dw12.c
   4:Drivers/BSP/Components/lis2dw12/lis2dw12.c ****   * @author  MEMS Software Solutions Team
   5:Drivers/BSP/Components/lis2dw12/lis2dw12.c ****   * @brief   LIS2DW12 driver file
   6:Drivers/BSP/Components/lis2dw12/lis2dw12.c ****   ******************************************************************************
   7:Drivers/BSP/Components/lis2dw12/lis2dw12.c ****   * @attention
   8:Drivers/BSP/Components/lis2dw12/lis2dw12.c ****   *
   9:Drivers/BSP/Components/lis2dw12/lis2dw12.c ****   * Copyright (c) 2019 STMicroelectronics.
  10:Drivers/BSP/Components/lis2dw12/lis2dw12.c ****   * All rights reserved.
  11:Drivers/BSP/Components/lis2dw12/lis2dw12.c ****   *
  12:Drivers/BSP/Components/lis2dw12/lis2dw12.c ****   * This software is licensed under terms that can be found in the LICENSE file
  13:Drivers/BSP/Components/lis2dw12/lis2dw12.c ****   * in the root directory of this software component.
  14:Drivers/BSP/Components/lis2dw12/lis2dw12.c ****   * If no LICENSE file comes with this software, it is provided AS-IS.
  15:Drivers/BSP/Components/lis2dw12/lis2dw12.c ****   *
  16:Drivers/BSP/Components/lis2dw12/lis2dw12.c ****   ******************************************************************************
  17:Drivers/BSP/Components/lis2dw12/lis2dw12.c ****   */
  18:Drivers/BSP/Components/lis2dw12/lis2dw12.c **** 
  19:Drivers/BSP/Components/lis2dw12/lis2dw12.c **** /* Includes ------------------------------------------------------------------*/
  20:Drivers/BSP/Components/lis2dw12/lis2dw12.c **** #include "lis2dw12.h"
  21:Drivers/BSP/Components/lis2dw12/lis2dw12.c **** 
  22:Drivers/BSP/Components/lis2dw12/lis2dw12.c **** /** @addtogroup BSP BSP
  23:Drivers/BSP/Components/lis2dw12/lis2dw12.c ****   * @{
  24:Drivers/BSP/Components/lis2dw12/lis2dw12.c ****   */
  25:Drivers/BSP/Components/lis2dw12/lis2dw12.c **** 
  26:Drivers/BSP/Components/lis2dw12/lis2dw12.c **** /** @addtogroup Component Component
  27:Drivers/BSP/Components/lis2dw12/lis2dw12.c ****   * @{
  28:Drivers/BSP/Components/lis2dw12/lis2dw12.c ****   */
  29:Drivers/BSP/Components/lis2dw12/lis2dw12.c **** 
ARM GAS  /tmp/ccCpEZfe.s 			page 2


  30:Drivers/BSP/Components/lis2dw12/lis2dw12.c **** /** @defgroup LIS2DW12 LIS2DW12
  31:Drivers/BSP/Components/lis2dw12/lis2dw12.c ****   * @{
  32:Drivers/BSP/Components/lis2dw12/lis2dw12.c ****   */
  33:Drivers/BSP/Components/lis2dw12/lis2dw12.c **** 
  34:Drivers/BSP/Components/lis2dw12/lis2dw12.c **** /** @defgroup LIS2DW12_Exported_Variables LIS2DW12 Exported Variables
  35:Drivers/BSP/Components/lis2dw12/lis2dw12.c ****   * @{
  36:Drivers/BSP/Components/lis2dw12/lis2dw12.c ****   */
  37:Drivers/BSP/Components/lis2dw12/lis2dw12.c **** 
  38:Drivers/BSP/Components/lis2dw12/lis2dw12.c **** LIS2DW12_CommonDrv_t LIS2DW12_COMMON_Driver =
  39:Drivers/BSP/Components/lis2dw12/lis2dw12.c **** {
  40:Drivers/BSP/Components/lis2dw12/lis2dw12.c ****   LIS2DW12_Init,
  41:Drivers/BSP/Components/lis2dw12/lis2dw12.c ****   LIS2DW12_DeInit,
  42:Drivers/BSP/Components/lis2dw12/lis2dw12.c ****   LIS2DW12_ReadID,
  43:Drivers/BSP/Components/lis2dw12/lis2dw12.c ****   LIS2DW12_GetCapabilities,
  44:Drivers/BSP/Components/lis2dw12/lis2dw12.c **** };
  45:Drivers/BSP/Components/lis2dw12/lis2dw12.c **** 
  46:Drivers/BSP/Components/lis2dw12/lis2dw12.c **** LIS2DW12_ACC_Drv_t LIS2DW12_ACC_Driver =
  47:Drivers/BSP/Components/lis2dw12/lis2dw12.c **** {
  48:Drivers/BSP/Components/lis2dw12/lis2dw12.c ****   LIS2DW12_ACC_Enable,
  49:Drivers/BSP/Components/lis2dw12/lis2dw12.c ****   LIS2DW12_ACC_Disable,
  50:Drivers/BSP/Components/lis2dw12/lis2dw12.c ****   LIS2DW12_ACC_GetSensitivity,
  51:Drivers/BSP/Components/lis2dw12/lis2dw12.c ****   LIS2DW12_ACC_GetOutputDataRate,
  52:Drivers/BSP/Components/lis2dw12/lis2dw12.c ****   LIS2DW12_ACC_SetOutputDataRate,
  53:Drivers/BSP/Components/lis2dw12/lis2dw12.c ****   LIS2DW12_ACC_GetFullScale,
  54:Drivers/BSP/Components/lis2dw12/lis2dw12.c ****   LIS2DW12_ACC_SetFullScale,
  55:Drivers/BSP/Components/lis2dw12/lis2dw12.c ****   LIS2DW12_ACC_GetAxes,
  56:Drivers/BSP/Components/lis2dw12/lis2dw12.c ****   LIS2DW12_ACC_GetAxesRaw,
  57:Drivers/BSP/Components/lis2dw12/lis2dw12.c **** };
  58:Drivers/BSP/Components/lis2dw12/lis2dw12.c **** 
  59:Drivers/BSP/Components/lis2dw12/lis2dw12.c **** /**
  60:Drivers/BSP/Components/lis2dw12/lis2dw12.c ****   * @}
  61:Drivers/BSP/Components/lis2dw12/lis2dw12.c ****   */
  62:Drivers/BSP/Components/lis2dw12/lis2dw12.c **** 
  63:Drivers/BSP/Components/lis2dw12/lis2dw12.c **** /** @defgroup LIS2DW12_Private_Function_Prototypes LIS2DW12 Private Function Prototypes
  64:Drivers/BSP/Components/lis2dw12/lis2dw12.c ****   * @{
  65:Drivers/BSP/Components/lis2dw12/lis2dw12.c ****   */
  66:Drivers/BSP/Components/lis2dw12/lis2dw12.c **** 
  67:Drivers/BSP/Components/lis2dw12/lis2dw12.c **** static int32_t ReadRegWrap(void *Handle, uint8_t Reg, uint8_t *pData, uint16_t Length);
  68:Drivers/BSP/Components/lis2dw12/lis2dw12.c **** static int32_t WriteRegWrap(void *Handle, uint8_t Reg, uint8_t *pData, uint16_t Length);
  69:Drivers/BSP/Components/lis2dw12/lis2dw12.c **** static int32_t LIS2DW12_ACC_SetOutputDataRate_When_Enabled(LIS2DW12_Object_t *pObj, float Odr,
  70:Drivers/BSP/Components/lis2dw12/lis2dw12.c ****                                                            LIS2DW12_Operating_Mode_t Mode, LIS2DW12
  71:Drivers/BSP/Components/lis2dw12/lis2dw12.c **** static int32_t LIS2DW12_ACC_SetOutputDataRate_When_Disabled(LIS2DW12_Object_t *pObj, float Odr,
  72:Drivers/BSP/Components/lis2dw12/lis2dw12.c ****                                                             LIS2DW12_Operating_Mode_t Mode, LIS2DW1
  73:Drivers/BSP/Components/lis2dw12/lis2dw12.c **** 
  74:Drivers/BSP/Components/lis2dw12/lis2dw12.c **** /**
  75:Drivers/BSP/Components/lis2dw12/lis2dw12.c ****   * @}
  76:Drivers/BSP/Components/lis2dw12/lis2dw12.c ****   */
  77:Drivers/BSP/Components/lis2dw12/lis2dw12.c **** 
  78:Drivers/BSP/Components/lis2dw12/lis2dw12.c **** /** @defgroup LIS2DW12_Exported_Functions LIS2DW12 Exported Functions
  79:Drivers/BSP/Components/lis2dw12/lis2dw12.c ****   * @{
  80:Drivers/BSP/Components/lis2dw12/lis2dw12.c ****   */
  81:Drivers/BSP/Components/lis2dw12/lis2dw12.c **** 
  82:Drivers/BSP/Components/lis2dw12/lis2dw12.c **** /**
  83:Drivers/BSP/Components/lis2dw12/lis2dw12.c ****   * @brief  Register Component Bus IO operations
  84:Drivers/BSP/Components/lis2dw12/lis2dw12.c ****   * @param  pObj the device pObj
  85:Drivers/BSP/Components/lis2dw12/lis2dw12.c ****   * @retval 0 in case of success, an error code otherwise
  86:Drivers/BSP/Components/lis2dw12/lis2dw12.c ****   */
ARM GAS  /tmp/ccCpEZfe.s 			page 3


  87:Drivers/BSP/Components/lis2dw12/lis2dw12.c **** int32_t LIS2DW12_RegisterBusIO(LIS2DW12_Object_t *pObj, LIS2DW12_IO_t *pIO)
  88:Drivers/BSP/Components/lis2dw12/lis2dw12.c **** {
  89:Drivers/BSP/Components/lis2dw12/lis2dw12.c ****   int32_t ret = LIS2DW12_OK;
  90:Drivers/BSP/Components/lis2dw12/lis2dw12.c **** 
  91:Drivers/BSP/Components/lis2dw12/lis2dw12.c ****   if (pObj == NULL)
  92:Drivers/BSP/Components/lis2dw12/lis2dw12.c ****   {
  93:Drivers/BSP/Components/lis2dw12/lis2dw12.c ****     ret = LIS2DW12_ERROR;
  94:Drivers/BSP/Components/lis2dw12/lis2dw12.c ****   }
  95:Drivers/BSP/Components/lis2dw12/lis2dw12.c ****   else
  96:Drivers/BSP/Components/lis2dw12/lis2dw12.c ****   {
  97:Drivers/BSP/Components/lis2dw12/lis2dw12.c ****     pObj->IO.Init      = pIO->Init;
  98:Drivers/BSP/Components/lis2dw12/lis2dw12.c ****     pObj->IO.DeInit    = pIO->DeInit;
  99:Drivers/BSP/Components/lis2dw12/lis2dw12.c ****     pObj->IO.BusType   = pIO->BusType;
 100:Drivers/BSP/Components/lis2dw12/lis2dw12.c ****     pObj->IO.Address   = pIO->Address;
 101:Drivers/BSP/Components/lis2dw12/lis2dw12.c ****     pObj->IO.WriteReg  = pIO->WriteReg;
 102:Drivers/BSP/Components/lis2dw12/lis2dw12.c ****     pObj->IO.ReadReg   = pIO->ReadReg;
 103:Drivers/BSP/Components/lis2dw12/lis2dw12.c ****     pObj->IO.GetTick   = pIO->GetTick;
 104:Drivers/BSP/Components/lis2dw12/lis2dw12.c **** 
 105:Drivers/BSP/Components/lis2dw12/lis2dw12.c ****     pObj->Ctx.read_reg  = ReadRegWrap;
 106:Drivers/BSP/Components/lis2dw12/lis2dw12.c ****     pObj->Ctx.write_reg = WriteRegWrap;
 107:Drivers/BSP/Components/lis2dw12/lis2dw12.c ****     pObj->Ctx.mdelay    = pIO->Delay;
 108:Drivers/BSP/Components/lis2dw12/lis2dw12.c ****     pObj->Ctx.handle   = pObj;
 109:Drivers/BSP/Components/lis2dw12/lis2dw12.c **** 
 110:Drivers/BSP/Components/lis2dw12/lis2dw12.c ****     if (pObj->IO.Init == NULL)
 111:Drivers/BSP/Components/lis2dw12/lis2dw12.c ****     {
 112:Drivers/BSP/Components/lis2dw12/lis2dw12.c ****       ret = LIS2DW12_ERROR;
 113:Drivers/BSP/Components/lis2dw12/lis2dw12.c ****     }
 114:Drivers/BSP/Components/lis2dw12/lis2dw12.c ****     else if (pObj->IO.Init() != LIS2DW12_OK)
 115:Drivers/BSP/Components/lis2dw12/lis2dw12.c ****     {
 116:Drivers/BSP/Components/lis2dw12/lis2dw12.c ****       ret = LIS2DW12_ERROR;
 117:Drivers/BSP/Components/lis2dw12/lis2dw12.c ****     }
 118:Drivers/BSP/Components/lis2dw12/lis2dw12.c ****     else
 119:Drivers/BSP/Components/lis2dw12/lis2dw12.c ****     {
 120:Drivers/BSP/Components/lis2dw12/lis2dw12.c ****       if (pObj->IO.BusType == LIS2DW12_SPI_3WIRES_BUS) /* SPI 3-Wires */
 121:Drivers/BSP/Components/lis2dw12/lis2dw12.c ****       {
 122:Drivers/BSP/Components/lis2dw12/lis2dw12.c ****         /* Enable the SPI 3-Wires support only the first time */
 123:Drivers/BSP/Components/lis2dw12/lis2dw12.c ****         if (pObj->is_initialized == 0U)
 124:Drivers/BSP/Components/lis2dw12/lis2dw12.c ****         {
 125:Drivers/BSP/Components/lis2dw12/lis2dw12.c ****           /* Enable SPI 3-Wires on the component */
 126:Drivers/BSP/Components/lis2dw12/lis2dw12.c ****           uint8_t data = 0x05;
 127:Drivers/BSP/Components/lis2dw12/lis2dw12.c **** 
 128:Drivers/BSP/Components/lis2dw12/lis2dw12.c ****           if (LIS2DW12_Write_Reg(pObj, LIS2DW12_CTRL2, data) != LIS2DW12_OK)
 129:Drivers/BSP/Components/lis2dw12/lis2dw12.c ****           {
 130:Drivers/BSP/Components/lis2dw12/lis2dw12.c ****             ret = LIS2DW12_ERROR;
 131:Drivers/BSP/Components/lis2dw12/lis2dw12.c ****           }
 132:Drivers/BSP/Components/lis2dw12/lis2dw12.c ****         }
 133:Drivers/BSP/Components/lis2dw12/lis2dw12.c ****       }
 134:Drivers/BSP/Components/lis2dw12/lis2dw12.c ****     }
 135:Drivers/BSP/Components/lis2dw12/lis2dw12.c ****   }
 136:Drivers/BSP/Components/lis2dw12/lis2dw12.c **** 
 137:Drivers/BSP/Components/lis2dw12/lis2dw12.c ****   return ret;
 138:Drivers/BSP/Components/lis2dw12/lis2dw12.c **** }
 139:Drivers/BSP/Components/lis2dw12/lis2dw12.c **** 
 140:Drivers/BSP/Components/lis2dw12/lis2dw12.c **** /**
 141:Drivers/BSP/Components/lis2dw12/lis2dw12.c ****   * @brief  Initialize the LIS2DW12 sensor
 142:Drivers/BSP/Components/lis2dw12/lis2dw12.c ****   * @param  pObj the device pObj
 143:Drivers/BSP/Components/lis2dw12/lis2dw12.c ****   * @retval 0 in case of success, an error code otherwise
ARM GAS  /tmp/ccCpEZfe.s 			page 4


 144:Drivers/BSP/Components/lis2dw12/lis2dw12.c ****   */
 145:Drivers/BSP/Components/lis2dw12/lis2dw12.c **** int32_t LIS2DW12_Init(LIS2DW12_Object_t *pObj)
 146:Drivers/BSP/Components/lis2dw12/lis2dw12.c **** {
 147:Drivers/BSP/Components/lis2dw12/lis2dw12.c ****   /* Enable register address automatically incremented during a multiple byte
 148:Drivers/BSP/Components/lis2dw12/lis2dw12.c ****   access with a serial interface. */
 149:Drivers/BSP/Components/lis2dw12/lis2dw12.c ****   if (lis2dw12_auto_increment_set(&(pObj->Ctx), PROPERTY_ENABLE) != LIS2DW12_OK)
 150:Drivers/BSP/Components/lis2dw12/lis2dw12.c ****   {
 151:Drivers/BSP/Components/lis2dw12/lis2dw12.c ****     return LIS2DW12_ERROR;
 152:Drivers/BSP/Components/lis2dw12/lis2dw12.c ****   }
 153:Drivers/BSP/Components/lis2dw12/lis2dw12.c **** 
 154:Drivers/BSP/Components/lis2dw12/lis2dw12.c ****   /* Enable BDU */
 155:Drivers/BSP/Components/lis2dw12/lis2dw12.c ****   if (lis2dw12_block_data_update_set(&(pObj->Ctx), PROPERTY_ENABLE) != LIS2DW12_OK)
 156:Drivers/BSP/Components/lis2dw12/lis2dw12.c ****   {
 157:Drivers/BSP/Components/lis2dw12/lis2dw12.c ****     return LIS2DW12_ERROR;
 158:Drivers/BSP/Components/lis2dw12/lis2dw12.c ****   }
 159:Drivers/BSP/Components/lis2dw12/lis2dw12.c **** 
 160:Drivers/BSP/Components/lis2dw12/lis2dw12.c ****   /* FIFO mode selection */
 161:Drivers/BSP/Components/lis2dw12/lis2dw12.c ****   if (lis2dw12_fifo_mode_set(&(pObj->Ctx), LIS2DW12_BYPASS_MODE) != LIS2DW12_OK)
 162:Drivers/BSP/Components/lis2dw12/lis2dw12.c ****   {
 163:Drivers/BSP/Components/lis2dw12/lis2dw12.c ****     return LIS2DW12_ERROR;
 164:Drivers/BSP/Components/lis2dw12/lis2dw12.c ****   }
 165:Drivers/BSP/Components/lis2dw12/lis2dw12.c **** 
 166:Drivers/BSP/Components/lis2dw12/lis2dw12.c ****   /* Power mode selection */
 167:Drivers/BSP/Components/lis2dw12/lis2dw12.c ****   if (lis2dw12_power_mode_set(&(pObj->Ctx), LIS2DW12_HIGH_PERFORMANCE) != LIS2DW12_OK)
 168:Drivers/BSP/Components/lis2dw12/lis2dw12.c ****   {
 169:Drivers/BSP/Components/lis2dw12/lis2dw12.c ****     return LIS2DW12_ERROR;
 170:Drivers/BSP/Components/lis2dw12/lis2dw12.c ****   }
 171:Drivers/BSP/Components/lis2dw12/lis2dw12.c **** 
 172:Drivers/BSP/Components/lis2dw12/lis2dw12.c ****   /* Select default output data rate. */
 173:Drivers/BSP/Components/lis2dw12/lis2dw12.c ****   pObj->acc_odr = 100.0f;
 174:Drivers/BSP/Components/lis2dw12/lis2dw12.c ****   /* Select default operating mode. */
 175:Drivers/BSP/Components/lis2dw12/lis2dw12.c ****   pObj->acc_operating_mode = LIS2DW12_HIGH_PERFORMANCE_MODE;
 176:Drivers/BSP/Components/lis2dw12/lis2dw12.c ****   /* Select default low noise (disabled). */
 177:Drivers/BSP/Components/lis2dw12/lis2dw12.c ****   pObj->acc_low_noise = LIS2DW12_LOW_NOISE_DISABLE;
 178:Drivers/BSP/Components/lis2dw12/lis2dw12.c **** 
 179:Drivers/BSP/Components/lis2dw12/lis2dw12.c ****   /* Output data rate selection - power down. */
 180:Drivers/BSP/Components/lis2dw12/lis2dw12.c ****   if (lis2dw12_data_rate_set(&(pObj->Ctx), LIS2DW12_XL_ODR_OFF) != LIS2DW12_OK)
 181:Drivers/BSP/Components/lis2dw12/lis2dw12.c ****   {
 182:Drivers/BSP/Components/lis2dw12/lis2dw12.c ****     return LIS2DW12_ERROR;
 183:Drivers/BSP/Components/lis2dw12/lis2dw12.c ****   }
 184:Drivers/BSP/Components/lis2dw12/lis2dw12.c **** 
 185:Drivers/BSP/Components/lis2dw12/lis2dw12.c ****   /* Full scale selection. */
 186:Drivers/BSP/Components/lis2dw12/lis2dw12.c ****   if (lis2dw12_full_scale_set(&(pObj->Ctx), LIS2DW12_2g) != LIS2DW12_OK)
 187:Drivers/BSP/Components/lis2dw12/lis2dw12.c ****   {
 188:Drivers/BSP/Components/lis2dw12/lis2dw12.c ****     return LIS2DW12_ERROR;
 189:Drivers/BSP/Components/lis2dw12/lis2dw12.c ****   }
 190:Drivers/BSP/Components/lis2dw12/lis2dw12.c **** 
 191:Drivers/BSP/Components/lis2dw12/lis2dw12.c ****   pObj->is_initialized = 1;
 192:Drivers/BSP/Components/lis2dw12/lis2dw12.c **** 
 193:Drivers/BSP/Components/lis2dw12/lis2dw12.c ****   return LIS2DW12_OK;
 194:Drivers/BSP/Components/lis2dw12/lis2dw12.c **** }
 195:Drivers/BSP/Components/lis2dw12/lis2dw12.c **** 
 196:Drivers/BSP/Components/lis2dw12/lis2dw12.c **** /**
 197:Drivers/BSP/Components/lis2dw12/lis2dw12.c ****   * @brief  Deinitialize the LIS2DW12 sensor
 198:Drivers/BSP/Components/lis2dw12/lis2dw12.c ****   * @param  pObj the device pObj
 199:Drivers/BSP/Components/lis2dw12/lis2dw12.c ****   * @retval 0 in case of success, an error code otherwise
 200:Drivers/BSP/Components/lis2dw12/lis2dw12.c ****   */
ARM GAS  /tmp/ccCpEZfe.s 			page 5


 201:Drivers/BSP/Components/lis2dw12/lis2dw12.c **** int32_t LIS2DW12_DeInit(LIS2DW12_Object_t *pObj)
 202:Drivers/BSP/Components/lis2dw12/lis2dw12.c **** {
 203:Drivers/BSP/Components/lis2dw12/lis2dw12.c ****   /* Disable the component */
 204:Drivers/BSP/Components/lis2dw12/lis2dw12.c ****   if (LIS2DW12_ACC_Disable(pObj) != LIS2DW12_OK)
 205:Drivers/BSP/Components/lis2dw12/lis2dw12.c ****   {
 206:Drivers/BSP/Components/lis2dw12/lis2dw12.c ****     return LIS2DW12_ERROR;
 207:Drivers/BSP/Components/lis2dw12/lis2dw12.c ****   }
 208:Drivers/BSP/Components/lis2dw12/lis2dw12.c **** 
 209:Drivers/BSP/Components/lis2dw12/lis2dw12.c ****   /* Reset output data rate. */
 210:Drivers/BSP/Components/lis2dw12/lis2dw12.c ****   pObj->acc_odr = 0.0f;
 211:Drivers/BSP/Components/lis2dw12/lis2dw12.c ****   /* Reset operating mode to default value. */
 212:Drivers/BSP/Components/lis2dw12/lis2dw12.c ****   pObj->acc_operating_mode = LIS2DW12_HIGH_PERFORMANCE_MODE;
 213:Drivers/BSP/Components/lis2dw12/lis2dw12.c ****   /* Reset low noise to default value (disabled). */
 214:Drivers/BSP/Components/lis2dw12/lis2dw12.c ****   pObj->acc_low_noise = LIS2DW12_LOW_NOISE_DISABLE;
 215:Drivers/BSP/Components/lis2dw12/lis2dw12.c **** 
 216:Drivers/BSP/Components/lis2dw12/lis2dw12.c ****   pObj->is_initialized = 0;
 217:Drivers/BSP/Components/lis2dw12/lis2dw12.c **** 
 218:Drivers/BSP/Components/lis2dw12/lis2dw12.c ****   return LIS2DW12_OK;
 219:Drivers/BSP/Components/lis2dw12/lis2dw12.c **** }
 220:Drivers/BSP/Components/lis2dw12/lis2dw12.c **** 
 221:Drivers/BSP/Components/lis2dw12/lis2dw12.c **** /**
 222:Drivers/BSP/Components/lis2dw12/lis2dw12.c ****   * @brief  Read component ID
 223:Drivers/BSP/Components/lis2dw12/lis2dw12.c ****   * @param  pObj the device pObj
 224:Drivers/BSP/Components/lis2dw12/lis2dw12.c ****   * @param  Id the WHO_AM_I value
 225:Drivers/BSP/Components/lis2dw12/lis2dw12.c ****   * @retval 0 in case of success, an error code otherwise
 226:Drivers/BSP/Components/lis2dw12/lis2dw12.c ****   */
 227:Drivers/BSP/Components/lis2dw12/lis2dw12.c **** int32_t LIS2DW12_ReadID(LIS2DW12_Object_t *pObj, uint8_t *Id)
 228:Drivers/BSP/Components/lis2dw12/lis2dw12.c **** {
 229:Drivers/BSP/Components/lis2dw12/lis2dw12.c ****   if (lis2dw12_device_id_get(&(pObj->Ctx), Id) != LIS2DW12_OK)
 230:Drivers/BSP/Components/lis2dw12/lis2dw12.c ****   {
 231:Drivers/BSP/Components/lis2dw12/lis2dw12.c ****     return LIS2DW12_ERROR;
 232:Drivers/BSP/Components/lis2dw12/lis2dw12.c ****   }
 233:Drivers/BSP/Components/lis2dw12/lis2dw12.c **** 
 234:Drivers/BSP/Components/lis2dw12/lis2dw12.c ****   return LIS2DW12_OK;
 235:Drivers/BSP/Components/lis2dw12/lis2dw12.c **** }
 236:Drivers/BSP/Components/lis2dw12/lis2dw12.c **** 
 237:Drivers/BSP/Components/lis2dw12/lis2dw12.c **** /**
 238:Drivers/BSP/Components/lis2dw12/lis2dw12.c ****   * @brief  Get LIS2DW12 sensor capabilities
 239:Drivers/BSP/Components/lis2dw12/lis2dw12.c ****   * @param  pObj Component object pointer
 240:Drivers/BSP/Components/lis2dw12/lis2dw12.c ****   * @param  Capabilities pointer to LIS2DW12 sensor capabilities
 241:Drivers/BSP/Components/lis2dw12/lis2dw12.c ****   * @retval 0 in case of success, an error code otherwise
 242:Drivers/BSP/Components/lis2dw12/lis2dw12.c ****   */
 243:Drivers/BSP/Components/lis2dw12/lis2dw12.c **** int32_t LIS2DW12_GetCapabilities(LIS2DW12_Object_t *pObj, LIS2DW12_Capabilities_t *Capabilities)
 244:Drivers/BSP/Components/lis2dw12/lis2dw12.c **** {
  30              		.loc 1 244 1 view -0
  31              		.cfi_startproc
  32              		@ args = 0, pretend = 0, frame = 0
  33              		@ frame_needed = 0, uses_anonymous_args = 0
  34              		@ link register save eliminated.
 245:Drivers/BSP/Components/lis2dw12/lis2dw12.c ****   /* Prevent unused argument(s) compilation warning */
 246:Drivers/BSP/Components/lis2dw12/lis2dw12.c ****   (void)(pObj);
  35              		.loc 1 246 3 view .LVU1
 247:Drivers/BSP/Components/lis2dw12/lis2dw12.c **** 
 248:Drivers/BSP/Components/lis2dw12/lis2dw12.c ****   Capabilities->Acc          = 1;
  36              		.loc 1 248 3 view .LVU2
  37              		.loc 1 248 30 is_stmt 0 view .LVU3
  38 0000 0123     		movs	r3, #1
ARM GAS  /tmp/ccCpEZfe.s 			page 6


  39 0002 0B70     		strb	r3, [r1]
 249:Drivers/BSP/Components/lis2dw12/lis2dw12.c ****   Capabilities->Gyro         = 0;
  40              		.loc 1 249 3 is_stmt 1 view .LVU4
  41              		.loc 1 249 30 is_stmt 0 view .LVU5
  42 0004 0020     		movs	r0, #0
  43              	.LVL1:
  44              		.loc 1 249 30 view .LVU6
  45 0006 4870     		strb	r0, [r1, #1]
 250:Drivers/BSP/Components/lis2dw12/lis2dw12.c ****   Capabilities->Magneto      = 0;
  46              		.loc 1 250 3 is_stmt 1 view .LVU7
  47              		.loc 1 250 30 is_stmt 0 view .LVU8
  48 0008 8870     		strb	r0, [r1, #2]
 251:Drivers/BSP/Components/lis2dw12/lis2dw12.c ****   Capabilities->LowPower     = 0;
  49              		.loc 1 251 3 is_stmt 1 view .LVU9
  50              		.loc 1 251 30 is_stmt 0 view .LVU10
  51 000a C870     		strb	r0, [r1, #3]
 252:Drivers/BSP/Components/lis2dw12/lis2dw12.c ****   Capabilities->GyroMaxFS    = 0;
  52              		.loc 1 252 3 is_stmt 1 view .LVU11
  53              		.loc 1 252 30 is_stmt 0 view .LVU12
  54 000c 4860     		str	r0, [r1, #4]
 253:Drivers/BSP/Components/lis2dw12/lis2dw12.c ****   Capabilities->AccMaxFS     = 16;
  55              		.loc 1 253 3 is_stmt 1 view .LVU13
  56              		.loc 1 253 30 is_stmt 0 view .LVU14
  57 000e 1023     		movs	r3, #16
  58 0010 8B60     		str	r3, [r1, #8]
 254:Drivers/BSP/Components/lis2dw12/lis2dw12.c ****   Capabilities->MagMaxFS     = 0;
  59              		.loc 1 254 3 is_stmt 1 view .LVU15
  60              		.loc 1 254 30 is_stmt 0 view .LVU16
  61 0012 C860     		str	r0, [r1, #12]
 255:Drivers/BSP/Components/lis2dw12/lis2dw12.c ****   Capabilities->GyroMaxOdr   = 0.0f;
  62              		.loc 1 255 3 is_stmt 1 view .LVU17
  63              		.loc 1 255 30 is_stmt 0 view .LVU18
  64 0014 0023     		movs	r3, #0
  65 0016 0B61     		str	r3, [r1, #16]	@ float
 256:Drivers/BSP/Components/lis2dw12/lis2dw12.c ****   Capabilities->AccMaxOdr    = 1600.0f;
  66              		.loc 1 256 3 is_stmt 1 view .LVU19
  67              		.loc 1 256 30 is_stmt 0 view .LVU20
  68 0018 014A     		ldr	r2, .L2
  69 001a 4A61     		str	r2, [r1, #20]	@ float
 257:Drivers/BSP/Components/lis2dw12/lis2dw12.c ****   Capabilities->MagMaxOdr    = 0.0f;
  70              		.loc 1 257 3 is_stmt 1 view .LVU21
  71              		.loc 1 257 30 is_stmt 0 view .LVU22
  72 001c 8B61     		str	r3, [r1, #24]	@ float
 258:Drivers/BSP/Components/lis2dw12/lis2dw12.c ****   return LIS2DW12_OK;
  73              		.loc 1 258 3 is_stmt 1 view .LVU23
 259:Drivers/BSP/Components/lis2dw12/lis2dw12.c **** }
  74              		.loc 1 259 1 is_stmt 0 view .LVU24
  75 001e 7047     		bx	lr
  76              	.L3:
  77              		.align	2
  78              	.L2:
  79 0020 0000C844 		.word	1153957888
  80              		.cfi_endproc
  81              	.LFE4:
  83              		.section	.text.LIS2DW12_ACC_SetOutputDataRate_When_Disabled,"ax",%progbits
  84              		.align	1
  85              		.syntax unified
ARM GAS  /tmp/ccCpEZfe.s 			page 7


  86              		.thumb
  87              		.thumb_func
  88              		.fpu fpv4-sp-d16
  90              	LIS2DW12_ACC_SetOutputDataRate_When_Disabled:
  91              	.LVL2:
  92              	.LFB44:
 260:Drivers/BSP/Components/lis2dw12/lis2dw12.c **** 
 261:Drivers/BSP/Components/lis2dw12/lis2dw12.c **** /**
 262:Drivers/BSP/Components/lis2dw12/lis2dw12.c ****   * @brief  Enable the LIS2DW12 accelerometer sensor
 263:Drivers/BSP/Components/lis2dw12/lis2dw12.c ****   * @param  pObj the device pObj
 264:Drivers/BSP/Components/lis2dw12/lis2dw12.c ****   * @retval 0 in case of success, an error code otherwise
 265:Drivers/BSP/Components/lis2dw12/lis2dw12.c ****   */
 266:Drivers/BSP/Components/lis2dw12/lis2dw12.c **** int32_t LIS2DW12_ACC_Enable(LIS2DW12_Object_t *pObj)
 267:Drivers/BSP/Components/lis2dw12/lis2dw12.c **** {
 268:Drivers/BSP/Components/lis2dw12/lis2dw12.c ****   /* Check if the component is already enabled */
 269:Drivers/BSP/Components/lis2dw12/lis2dw12.c ****   if (pObj->acc_is_enabled == 1U)
 270:Drivers/BSP/Components/lis2dw12/lis2dw12.c ****   {
 271:Drivers/BSP/Components/lis2dw12/lis2dw12.c ****     return LIS2DW12_OK;
 272:Drivers/BSP/Components/lis2dw12/lis2dw12.c ****   }
 273:Drivers/BSP/Components/lis2dw12/lis2dw12.c **** 
 274:Drivers/BSP/Components/lis2dw12/lis2dw12.c ****   /* Output data rate selection. */
 275:Drivers/BSP/Components/lis2dw12/lis2dw12.c ****   if (LIS2DW12_ACC_SetOutputDataRate_When_Enabled(pObj, pObj->acc_odr, pObj->acc_operating_mode,
 276:Drivers/BSP/Components/lis2dw12/lis2dw12.c ****                                                   pObj->acc_low_noise) != LIS2DW12_OK)
 277:Drivers/BSP/Components/lis2dw12/lis2dw12.c ****   {
 278:Drivers/BSP/Components/lis2dw12/lis2dw12.c ****     return LIS2DW12_ERROR;
 279:Drivers/BSP/Components/lis2dw12/lis2dw12.c ****   }
 280:Drivers/BSP/Components/lis2dw12/lis2dw12.c **** 
 281:Drivers/BSP/Components/lis2dw12/lis2dw12.c ****   pObj->acc_is_enabled = 1;
 282:Drivers/BSP/Components/lis2dw12/lis2dw12.c **** 
 283:Drivers/BSP/Components/lis2dw12/lis2dw12.c ****   return LIS2DW12_OK;
 284:Drivers/BSP/Components/lis2dw12/lis2dw12.c **** }
 285:Drivers/BSP/Components/lis2dw12/lis2dw12.c **** 
 286:Drivers/BSP/Components/lis2dw12/lis2dw12.c **** /**
 287:Drivers/BSP/Components/lis2dw12/lis2dw12.c ****   * @brief  Disable the LIS2DW12 accelerometer sensor
 288:Drivers/BSP/Components/lis2dw12/lis2dw12.c ****   * @param  pObj the device pObj
 289:Drivers/BSP/Components/lis2dw12/lis2dw12.c ****   * @retval 0 in case of success, an error code otherwise
 290:Drivers/BSP/Components/lis2dw12/lis2dw12.c ****   */
 291:Drivers/BSP/Components/lis2dw12/lis2dw12.c **** int32_t LIS2DW12_ACC_Disable(LIS2DW12_Object_t *pObj)
 292:Drivers/BSP/Components/lis2dw12/lis2dw12.c **** {
 293:Drivers/BSP/Components/lis2dw12/lis2dw12.c ****   /* Check if the component is already disabled */
 294:Drivers/BSP/Components/lis2dw12/lis2dw12.c ****   if (pObj->acc_is_enabled == 0U)
 295:Drivers/BSP/Components/lis2dw12/lis2dw12.c ****   {
 296:Drivers/BSP/Components/lis2dw12/lis2dw12.c ****     return LIS2DW12_OK;
 297:Drivers/BSP/Components/lis2dw12/lis2dw12.c ****   }
 298:Drivers/BSP/Components/lis2dw12/lis2dw12.c **** 
 299:Drivers/BSP/Components/lis2dw12/lis2dw12.c ****   /* Output data rate selection - power down. */
 300:Drivers/BSP/Components/lis2dw12/lis2dw12.c ****   if (lis2dw12_data_rate_set(&(pObj->Ctx), LIS2DW12_XL_ODR_OFF) != LIS2DW12_OK)
 301:Drivers/BSP/Components/lis2dw12/lis2dw12.c ****   {
 302:Drivers/BSP/Components/lis2dw12/lis2dw12.c ****     return LIS2DW12_ERROR;
 303:Drivers/BSP/Components/lis2dw12/lis2dw12.c ****   }
 304:Drivers/BSP/Components/lis2dw12/lis2dw12.c **** 
 305:Drivers/BSP/Components/lis2dw12/lis2dw12.c ****   pObj->acc_is_enabled = 0;
 306:Drivers/BSP/Components/lis2dw12/lis2dw12.c **** 
 307:Drivers/BSP/Components/lis2dw12/lis2dw12.c ****   return LIS2DW12_OK;
 308:Drivers/BSP/Components/lis2dw12/lis2dw12.c **** }
 309:Drivers/BSP/Components/lis2dw12/lis2dw12.c **** 
 310:Drivers/BSP/Components/lis2dw12/lis2dw12.c **** /**
ARM GAS  /tmp/ccCpEZfe.s 			page 8


 311:Drivers/BSP/Components/lis2dw12/lis2dw12.c ****   * @brief  Get the LIS2DW12 accelerometer sensor sensitivity
 312:Drivers/BSP/Components/lis2dw12/lis2dw12.c ****   * @param  pObj the device pObj
 313:Drivers/BSP/Components/lis2dw12/lis2dw12.c ****   * @param  Sensitivity pointer
 314:Drivers/BSP/Components/lis2dw12/lis2dw12.c ****   * @retval 0 in case of success, an error code otherwise
 315:Drivers/BSP/Components/lis2dw12/lis2dw12.c ****   */
 316:Drivers/BSP/Components/lis2dw12/lis2dw12.c **** int32_t LIS2DW12_ACC_GetSensitivity(LIS2DW12_Object_t *pObj, float *Sensitivity)
 317:Drivers/BSP/Components/lis2dw12/lis2dw12.c **** {
 318:Drivers/BSP/Components/lis2dw12/lis2dw12.c ****   int32_t ret = LIS2DW12_OK;
 319:Drivers/BSP/Components/lis2dw12/lis2dw12.c ****   lis2dw12_fs_t full_scale;
 320:Drivers/BSP/Components/lis2dw12/lis2dw12.c ****   lis2dw12_mode_t mode;
 321:Drivers/BSP/Components/lis2dw12/lis2dw12.c **** 
 322:Drivers/BSP/Components/lis2dw12/lis2dw12.c ****   /* Read actual full scale selection from sensor. */
 323:Drivers/BSP/Components/lis2dw12/lis2dw12.c ****   if (lis2dw12_full_scale_get(&(pObj->Ctx), &full_scale) != LIS2DW12_OK)
 324:Drivers/BSP/Components/lis2dw12/lis2dw12.c ****   {
 325:Drivers/BSP/Components/lis2dw12/lis2dw12.c ****     return LIS2DW12_ERROR;
 326:Drivers/BSP/Components/lis2dw12/lis2dw12.c ****   }
 327:Drivers/BSP/Components/lis2dw12/lis2dw12.c **** 
 328:Drivers/BSP/Components/lis2dw12/lis2dw12.c ****   /* Read actual power mode selection from sensor. */
 329:Drivers/BSP/Components/lis2dw12/lis2dw12.c ****   if (lis2dw12_power_mode_get(&(pObj->Ctx), &mode) != LIS2DW12_OK)
 330:Drivers/BSP/Components/lis2dw12/lis2dw12.c ****   {
 331:Drivers/BSP/Components/lis2dw12/lis2dw12.c ****     return LIS2DW12_ERROR;
 332:Drivers/BSP/Components/lis2dw12/lis2dw12.c ****   }
 333:Drivers/BSP/Components/lis2dw12/lis2dw12.c **** 
 334:Drivers/BSP/Components/lis2dw12/lis2dw12.c ****   switch (mode)
 335:Drivers/BSP/Components/lis2dw12/lis2dw12.c ****   {
 336:Drivers/BSP/Components/lis2dw12/lis2dw12.c ****     case LIS2DW12_CONT_LOW_PWR_12bit:
 337:Drivers/BSP/Components/lis2dw12/lis2dw12.c ****     case LIS2DW12_SINGLE_LOW_PWR_12bit:
 338:Drivers/BSP/Components/lis2dw12/lis2dw12.c ****     case LIS2DW12_CONT_LOW_PWR_LOW_NOISE_12bit:
 339:Drivers/BSP/Components/lis2dw12/lis2dw12.c ****     case LIS2DW12_SINGLE_LOW_LOW_NOISE_PWR_12bit:
 340:Drivers/BSP/Components/lis2dw12/lis2dw12.c ****       switch (full_scale)
 341:Drivers/BSP/Components/lis2dw12/lis2dw12.c ****       {
 342:Drivers/BSP/Components/lis2dw12/lis2dw12.c ****         case LIS2DW12_2g:
 343:Drivers/BSP/Components/lis2dw12/lis2dw12.c ****           *Sensitivity = LIS2DW12_ACC_SENSITIVITY_FOR_FS_2G_LOPOW1_MODE;
 344:Drivers/BSP/Components/lis2dw12/lis2dw12.c ****           break;
 345:Drivers/BSP/Components/lis2dw12/lis2dw12.c **** 
 346:Drivers/BSP/Components/lis2dw12/lis2dw12.c ****         case LIS2DW12_4g:
 347:Drivers/BSP/Components/lis2dw12/lis2dw12.c ****           *Sensitivity = LIS2DW12_ACC_SENSITIVITY_FOR_FS_4G_LOPOW1_MODE;
 348:Drivers/BSP/Components/lis2dw12/lis2dw12.c ****           break;
 349:Drivers/BSP/Components/lis2dw12/lis2dw12.c **** 
 350:Drivers/BSP/Components/lis2dw12/lis2dw12.c ****         case LIS2DW12_8g:
 351:Drivers/BSP/Components/lis2dw12/lis2dw12.c ****           *Sensitivity = LIS2DW12_ACC_SENSITIVITY_FOR_FS_8G_LOPOW1_MODE;
 352:Drivers/BSP/Components/lis2dw12/lis2dw12.c ****           break;
 353:Drivers/BSP/Components/lis2dw12/lis2dw12.c **** 
 354:Drivers/BSP/Components/lis2dw12/lis2dw12.c ****         case LIS2DW12_16g:
 355:Drivers/BSP/Components/lis2dw12/lis2dw12.c ****           *Sensitivity = LIS2DW12_ACC_SENSITIVITY_FOR_FS_16G_LOPOW1_MODE;
 356:Drivers/BSP/Components/lis2dw12/lis2dw12.c ****           break;
 357:Drivers/BSP/Components/lis2dw12/lis2dw12.c **** 
 358:Drivers/BSP/Components/lis2dw12/lis2dw12.c ****         default:
 359:Drivers/BSP/Components/lis2dw12/lis2dw12.c ****           *Sensitivity = -1.0f;
 360:Drivers/BSP/Components/lis2dw12/lis2dw12.c ****           ret = LIS2DW12_ERROR;
 361:Drivers/BSP/Components/lis2dw12/lis2dw12.c ****           break;
 362:Drivers/BSP/Components/lis2dw12/lis2dw12.c ****       }
 363:Drivers/BSP/Components/lis2dw12/lis2dw12.c ****       break;
 364:Drivers/BSP/Components/lis2dw12/lis2dw12.c **** 
 365:Drivers/BSP/Components/lis2dw12/lis2dw12.c ****     case LIS2DW12_HIGH_PERFORMANCE:
 366:Drivers/BSP/Components/lis2dw12/lis2dw12.c ****     case LIS2DW12_CONT_LOW_PWR_4:
 367:Drivers/BSP/Components/lis2dw12/lis2dw12.c ****     case LIS2DW12_CONT_LOW_PWR_3:
ARM GAS  /tmp/ccCpEZfe.s 			page 9


 368:Drivers/BSP/Components/lis2dw12/lis2dw12.c ****     case LIS2DW12_CONT_LOW_PWR_2:
 369:Drivers/BSP/Components/lis2dw12/lis2dw12.c ****     case LIS2DW12_SINGLE_LOW_PWR_4:
 370:Drivers/BSP/Components/lis2dw12/lis2dw12.c ****     case LIS2DW12_SINGLE_LOW_PWR_3:
 371:Drivers/BSP/Components/lis2dw12/lis2dw12.c ****     case LIS2DW12_SINGLE_LOW_PWR_2:
 372:Drivers/BSP/Components/lis2dw12/lis2dw12.c ****     case LIS2DW12_HIGH_PERFORMANCE_LOW_NOISE:
 373:Drivers/BSP/Components/lis2dw12/lis2dw12.c ****     case LIS2DW12_CONT_LOW_PWR_LOW_NOISE_4:
 374:Drivers/BSP/Components/lis2dw12/lis2dw12.c ****     case LIS2DW12_CONT_LOW_PWR_LOW_NOISE_3:
 375:Drivers/BSP/Components/lis2dw12/lis2dw12.c ****     case LIS2DW12_CONT_LOW_PWR_LOW_NOISE_2:
 376:Drivers/BSP/Components/lis2dw12/lis2dw12.c ****     case LIS2DW12_SINGLE_LOW_PWR_LOW_NOISE_4:
 377:Drivers/BSP/Components/lis2dw12/lis2dw12.c ****     case LIS2DW12_SINGLE_LOW_PWR_LOW_NOISE_3:
 378:Drivers/BSP/Components/lis2dw12/lis2dw12.c ****     case LIS2DW12_SINGLE_LOW_PWR_LOW_NOISE_2:
 379:Drivers/BSP/Components/lis2dw12/lis2dw12.c ****       switch (full_scale)
 380:Drivers/BSP/Components/lis2dw12/lis2dw12.c ****       {
 381:Drivers/BSP/Components/lis2dw12/lis2dw12.c ****         case LIS2DW12_2g:
 382:Drivers/BSP/Components/lis2dw12/lis2dw12.c ****           *Sensitivity = LIS2DW12_ACC_SENSITIVITY_FOR_FS_2G_OTHER_MODES;
 383:Drivers/BSP/Components/lis2dw12/lis2dw12.c ****           break;
 384:Drivers/BSP/Components/lis2dw12/lis2dw12.c **** 
 385:Drivers/BSP/Components/lis2dw12/lis2dw12.c ****         case LIS2DW12_4g:
 386:Drivers/BSP/Components/lis2dw12/lis2dw12.c ****           *Sensitivity = LIS2DW12_ACC_SENSITIVITY_FOR_FS_4G_OTHER_MODES;
 387:Drivers/BSP/Components/lis2dw12/lis2dw12.c ****           break;
 388:Drivers/BSP/Components/lis2dw12/lis2dw12.c **** 
 389:Drivers/BSP/Components/lis2dw12/lis2dw12.c ****         case LIS2DW12_8g:
 390:Drivers/BSP/Components/lis2dw12/lis2dw12.c ****           *Sensitivity = LIS2DW12_ACC_SENSITIVITY_FOR_FS_8G_OTHER_MODES;
 391:Drivers/BSP/Components/lis2dw12/lis2dw12.c ****           break;
 392:Drivers/BSP/Components/lis2dw12/lis2dw12.c **** 
 393:Drivers/BSP/Components/lis2dw12/lis2dw12.c ****         case LIS2DW12_16g:
 394:Drivers/BSP/Components/lis2dw12/lis2dw12.c ****           *Sensitivity = LIS2DW12_ACC_SENSITIVITY_FOR_FS_16G_OTHER_MODES;
 395:Drivers/BSP/Components/lis2dw12/lis2dw12.c ****           break;
 396:Drivers/BSP/Components/lis2dw12/lis2dw12.c **** 
 397:Drivers/BSP/Components/lis2dw12/lis2dw12.c ****         default:
 398:Drivers/BSP/Components/lis2dw12/lis2dw12.c ****           *Sensitivity = -1.0f;
 399:Drivers/BSP/Components/lis2dw12/lis2dw12.c ****           ret = LIS2DW12_ERROR;
 400:Drivers/BSP/Components/lis2dw12/lis2dw12.c ****           break;
 401:Drivers/BSP/Components/lis2dw12/lis2dw12.c ****       }
 402:Drivers/BSP/Components/lis2dw12/lis2dw12.c ****       break;
 403:Drivers/BSP/Components/lis2dw12/lis2dw12.c **** 
 404:Drivers/BSP/Components/lis2dw12/lis2dw12.c ****     default:
 405:Drivers/BSP/Components/lis2dw12/lis2dw12.c ****       *Sensitivity = -1.0f;
 406:Drivers/BSP/Components/lis2dw12/lis2dw12.c ****       ret = LIS2DW12_ERROR;
 407:Drivers/BSP/Components/lis2dw12/lis2dw12.c ****       break;
 408:Drivers/BSP/Components/lis2dw12/lis2dw12.c ****   }
 409:Drivers/BSP/Components/lis2dw12/lis2dw12.c **** 
 410:Drivers/BSP/Components/lis2dw12/lis2dw12.c ****   return ret;
 411:Drivers/BSP/Components/lis2dw12/lis2dw12.c **** }
 412:Drivers/BSP/Components/lis2dw12/lis2dw12.c **** 
 413:Drivers/BSP/Components/lis2dw12/lis2dw12.c **** /**
 414:Drivers/BSP/Components/lis2dw12/lis2dw12.c ****   * @brief  Get the LIS2DW12 accelerometer sensor output data rate
 415:Drivers/BSP/Components/lis2dw12/lis2dw12.c ****   * @param  pObj the device pObj
 416:Drivers/BSP/Components/lis2dw12/lis2dw12.c ****   * @param  Odr pointer where the output data rate is written
 417:Drivers/BSP/Components/lis2dw12/lis2dw12.c ****   * @retval 0 in case of success, an error code otherwise
 418:Drivers/BSP/Components/lis2dw12/lis2dw12.c ****   */
 419:Drivers/BSP/Components/lis2dw12/lis2dw12.c **** int32_t LIS2DW12_ACC_GetOutputDataRate(LIS2DW12_Object_t *pObj, float *Odr)
 420:Drivers/BSP/Components/lis2dw12/lis2dw12.c **** {
 421:Drivers/BSP/Components/lis2dw12/lis2dw12.c ****   int32_t ret = LIS2DW12_OK;
 422:Drivers/BSP/Components/lis2dw12/lis2dw12.c ****   lis2dw12_odr_t odr_low_level;
 423:Drivers/BSP/Components/lis2dw12/lis2dw12.c ****   lis2dw12_mode_t mode;
 424:Drivers/BSP/Components/lis2dw12/lis2dw12.c **** 
ARM GAS  /tmp/ccCpEZfe.s 			page 10


 425:Drivers/BSP/Components/lis2dw12/lis2dw12.c ****   /* Get current output data rate. */
 426:Drivers/BSP/Components/lis2dw12/lis2dw12.c ****   if (lis2dw12_data_rate_get(&(pObj->Ctx), &odr_low_level) != LIS2DW12_OK)
 427:Drivers/BSP/Components/lis2dw12/lis2dw12.c ****   {
 428:Drivers/BSP/Components/lis2dw12/lis2dw12.c ****     return LIS2DW12_ERROR;
 429:Drivers/BSP/Components/lis2dw12/lis2dw12.c ****   }
 430:Drivers/BSP/Components/lis2dw12/lis2dw12.c **** 
 431:Drivers/BSP/Components/lis2dw12/lis2dw12.c ****   /* Read actual power mode selection from sensor. */
 432:Drivers/BSP/Components/lis2dw12/lis2dw12.c ****   if (lis2dw12_power_mode_get(&(pObj->Ctx), &mode) != LIS2DW12_OK)
 433:Drivers/BSP/Components/lis2dw12/lis2dw12.c ****   {
 434:Drivers/BSP/Components/lis2dw12/lis2dw12.c ****     return LIS2DW12_ERROR;
 435:Drivers/BSP/Components/lis2dw12/lis2dw12.c ****   }
 436:Drivers/BSP/Components/lis2dw12/lis2dw12.c **** 
 437:Drivers/BSP/Components/lis2dw12/lis2dw12.c ****   switch (odr_low_level)
 438:Drivers/BSP/Components/lis2dw12/lis2dw12.c ****   {
 439:Drivers/BSP/Components/lis2dw12/lis2dw12.c ****     case LIS2DW12_XL_ODR_OFF:
 440:Drivers/BSP/Components/lis2dw12/lis2dw12.c ****     case LIS2DW12_XL_SET_SW_TRIG:
 441:Drivers/BSP/Components/lis2dw12/lis2dw12.c ****     case LIS2DW12_XL_SET_PIN_TRIG:
 442:Drivers/BSP/Components/lis2dw12/lis2dw12.c ****       *Odr = 0.0f;
 443:Drivers/BSP/Components/lis2dw12/lis2dw12.c ****       break;
 444:Drivers/BSP/Components/lis2dw12/lis2dw12.c **** 
 445:Drivers/BSP/Components/lis2dw12/lis2dw12.c ****     case LIS2DW12_XL_ODR_1Hz6_LP_ONLY:
 446:Drivers/BSP/Components/lis2dw12/lis2dw12.c ****       switch (mode)
 447:Drivers/BSP/Components/lis2dw12/lis2dw12.c ****       {
 448:Drivers/BSP/Components/lis2dw12/lis2dw12.c ****         case LIS2DW12_HIGH_PERFORMANCE:
 449:Drivers/BSP/Components/lis2dw12/lis2dw12.c ****         case LIS2DW12_HIGH_PERFORMANCE_LOW_NOISE:
 450:Drivers/BSP/Components/lis2dw12/lis2dw12.c ****           *Odr = 12.5f;
 451:Drivers/BSP/Components/lis2dw12/lis2dw12.c ****           break;
 452:Drivers/BSP/Components/lis2dw12/lis2dw12.c **** 
 453:Drivers/BSP/Components/lis2dw12/lis2dw12.c ****         case LIS2DW12_CONT_LOW_PWR_4:
 454:Drivers/BSP/Components/lis2dw12/lis2dw12.c ****         case LIS2DW12_CONT_LOW_PWR_3:
 455:Drivers/BSP/Components/lis2dw12/lis2dw12.c ****         case LIS2DW12_CONT_LOW_PWR_2:
 456:Drivers/BSP/Components/lis2dw12/lis2dw12.c ****         case LIS2DW12_CONT_LOW_PWR_12bit:
 457:Drivers/BSP/Components/lis2dw12/lis2dw12.c ****         case LIS2DW12_SINGLE_LOW_PWR_4:
 458:Drivers/BSP/Components/lis2dw12/lis2dw12.c ****         case LIS2DW12_SINGLE_LOW_PWR_3:
 459:Drivers/BSP/Components/lis2dw12/lis2dw12.c ****         case LIS2DW12_SINGLE_LOW_PWR_2:
 460:Drivers/BSP/Components/lis2dw12/lis2dw12.c ****         case LIS2DW12_SINGLE_LOW_PWR_12bit:
 461:Drivers/BSP/Components/lis2dw12/lis2dw12.c ****         case LIS2DW12_CONT_LOW_PWR_LOW_NOISE_4:
 462:Drivers/BSP/Components/lis2dw12/lis2dw12.c ****         case LIS2DW12_CONT_LOW_PWR_LOW_NOISE_3:
 463:Drivers/BSP/Components/lis2dw12/lis2dw12.c ****         case LIS2DW12_CONT_LOW_PWR_LOW_NOISE_2:
 464:Drivers/BSP/Components/lis2dw12/lis2dw12.c ****         case LIS2DW12_CONT_LOW_PWR_LOW_NOISE_12bit:
 465:Drivers/BSP/Components/lis2dw12/lis2dw12.c ****         case LIS2DW12_SINGLE_LOW_PWR_LOW_NOISE_4:
 466:Drivers/BSP/Components/lis2dw12/lis2dw12.c ****         case LIS2DW12_SINGLE_LOW_PWR_LOW_NOISE_3:
 467:Drivers/BSP/Components/lis2dw12/lis2dw12.c ****         case LIS2DW12_SINGLE_LOW_PWR_LOW_NOISE_2:
 468:Drivers/BSP/Components/lis2dw12/lis2dw12.c ****         case LIS2DW12_SINGLE_LOW_LOW_NOISE_PWR_12bit:
 469:Drivers/BSP/Components/lis2dw12/lis2dw12.c ****           *Odr = 1.6f;
 470:Drivers/BSP/Components/lis2dw12/lis2dw12.c ****           break;
 471:Drivers/BSP/Components/lis2dw12/lis2dw12.c **** 
 472:Drivers/BSP/Components/lis2dw12/lis2dw12.c ****         default:
 473:Drivers/BSP/Components/lis2dw12/lis2dw12.c ****           *Odr = -1.0f;
 474:Drivers/BSP/Components/lis2dw12/lis2dw12.c ****           ret = LIS2DW12_ERROR;
 475:Drivers/BSP/Components/lis2dw12/lis2dw12.c ****           break;
 476:Drivers/BSP/Components/lis2dw12/lis2dw12.c ****       }
 477:Drivers/BSP/Components/lis2dw12/lis2dw12.c ****       break;
 478:Drivers/BSP/Components/lis2dw12/lis2dw12.c **** 
 479:Drivers/BSP/Components/lis2dw12/lis2dw12.c ****     case LIS2DW12_XL_ODR_12Hz5:
 480:Drivers/BSP/Components/lis2dw12/lis2dw12.c ****       *Odr = 12.5f;
 481:Drivers/BSP/Components/lis2dw12/lis2dw12.c ****       break;
ARM GAS  /tmp/ccCpEZfe.s 			page 11


 482:Drivers/BSP/Components/lis2dw12/lis2dw12.c **** 
 483:Drivers/BSP/Components/lis2dw12/lis2dw12.c ****     case LIS2DW12_XL_ODR_25Hz:
 484:Drivers/BSP/Components/lis2dw12/lis2dw12.c ****       *Odr = 25.0f;
 485:Drivers/BSP/Components/lis2dw12/lis2dw12.c ****       break;
 486:Drivers/BSP/Components/lis2dw12/lis2dw12.c **** 
 487:Drivers/BSP/Components/lis2dw12/lis2dw12.c ****     case LIS2DW12_XL_ODR_50Hz:
 488:Drivers/BSP/Components/lis2dw12/lis2dw12.c ****       *Odr = 50.0f;
 489:Drivers/BSP/Components/lis2dw12/lis2dw12.c ****       break;
 490:Drivers/BSP/Components/lis2dw12/lis2dw12.c **** 
 491:Drivers/BSP/Components/lis2dw12/lis2dw12.c ****     case LIS2DW12_XL_ODR_100Hz:
 492:Drivers/BSP/Components/lis2dw12/lis2dw12.c ****       *Odr = 100.0f;
 493:Drivers/BSP/Components/lis2dw12/lis2dw12.c ****       break;
 494:Drivers/BSP/Components/lis2dw12/lis2dw12.c **** 
 495:Drivers/BSP/Components/lis2dw12/lis2dw12.c ****     case LIS2DW12_XL_ODR_200Hz:
 496:Drivers/BSP/Components/lis2dw12/lis2dw12.c ****       *Odr = 200.0f;
 497:Drivers/BSP/Components/lis2dw12/lis2dw12.c ****       break;
 498:Drivers/BSP/Components/lis2dw12/lis2dw12.c **** 
 499:Drivers/BSP/Components/lis2dw12/lis2dw12.c ****     case LIS2DW12_XL_ODR_400Hz:
 500:Drivers/BSP/Components/lis2dw12/lis2dw12.c ****       switch (mode)
 501:Drivers/BSP/Components/lis2dw12/lis2dw12.c ****       {
 502:Drivers/BSP/Components/lis2dw12/lis2dw12.c ****         case LIS2DW12_HIGH_PERFORMANCE:
 503:Drivers/BSP/Components/lis2dw12/lis2dw12.c ****         case LIS2DW12_HIGH_PERFORMANCE_LOW_NOISE:
 504:Drivers/BSP/Components/lis2dw12/lis2dw12.c ****           *Odr = 400.0f;
 505:Drivers/BSP/Components/lis2dw12/lis2dw12.c ****           break;
 506:Drivers/BSP/Components/lis2dw12/lis2dw12.c **** 
 507:Drivers/BSP/Components/lis2dw12/lis2dw12.c ****         case LIS2DW12_CONT_LOW_PWR_4:
 508:Drivers/BSP/Components/lis2dw12/lis2dw12.c ****         case LIS2DW12_CONT_LOW_PWR_3:
 509:Drivers/BSP/Components/lis2dw12/lis2dw12.c ****         case LIS2DW12_CONT_LOW_PWR_2:
 510:Drivers/BSP/Components/lis2dw12/lis2dw12.c ****         case LIS2DW12_CONT_LOW_PWR_12bit:
 511:Drivers/BSP/Components/lis2dw12/lis2dw12.c ****         case LIS2DW12_SINGLE_LOW_PWR_4:
 512:Drivers/BSP/Components/lis2dw12/lis2dw12.c ****         case LIS2DW12_SINGLE_LOW_PWR_3:
 513:Drivers/BSP/Components/lis2dw12/lis2dw12.c ****         case LIS2DW12_SINGLE_LOW_PWR_2:
 514:Drivers/BSP/Components/lis2dw12/lis2dw12.c ****         case LIS2DW12_SINGLE_LOW_PWR_12bit:
 515:Drivers/BSP/Components/lis2dw12/lis2dw12.c ****         case LIS2DW12_CONT_LOW_PWR_LOW_NOISE_4:
 516:Drivers/BSP/Components/lis2dw12/lis2dw12.c ****         case LIS2DW12_CONT_LOW_PWR_LOW_NOISE_3:
 517:Drivers/BSP/Components/lis2dw12/lis2dw12.c ****         case LIS2DW12_CONT_LOW_PWR_LOW_NOISE_2:
 518:Drivers/BSP/Components/lis2dw12/lis2dw12.c ****         case LIS2DW12_CONT_LOW_PWR_LOW_NOISE_12bit:
 519:Drivers/BSP/Components/lis2dw12/lis2dw12.c ****         case LIS2DW12_SINGLE_LOW_PWR_LOW_NOISE_4:
 520:Drivers/BSP/Components/lis2dw12/lis2dw12.c ****         case LIS2DW12_SINGLE_LOW_PWR_LOW_NOISE_3:
 521:Drivers/BSP/Components/lis2dw12/lis2dw12.c ****         case LIS2DW12_SINGLE_LOW_PWR_LOW_NOISE_2:
 522:Drivers/BSP/Components/lis2dw12/lis2dw12.c ****         case LIS2DW12_SINGLE_LOW_LOW_NOISE_PWR_12bit:
 523:Drivers/BSP/Components/lis2dw12/lis2dw12.c ****           *Odr = 200.0f;
 524:Drivers/BSP/Components/lis2dw12/lis2dw12.c ****           break;
 525:Drivers/BSP/Components/lis2dw12/lis2dw12.c **** 
 526:Drivers/BSP/Components/lis2dw12/lis2dw12.c ****         default:
 527:Drivers/BSP/Components/lis2dw12/lis2dw12.c ****           *Odr = -1.0f;
 528:Drivers/BSP/Components/lis2dw12/lis2dw12.c ****           ret = LIS2DW12_ERROR;
 529:Drivers/BSP/Components/lis2dw12/lis2dw12.c ****           break;
 530:Drivers/BSP/Components/lis2dw12/lis2dw12.c ****       }
 531:Drivers/BSP/Components/lis2dw12/lis2dw12.c ****       break;
 532:Drivers/BSP/Components/lis2dw12/lis2dw12.c **** 
 533:Drivers/BSP/Components/lis2dw12/lis2dw12.c ****     case LIS2DW12_XL_ODR_800Hz:
 534:Drivers/BSP/Components/lis2dw12/lis2dw12.c ****       switch (mode)
 535:Drivers/BSP/Components/lis2dw12/lis2dw12.c ****       {
 536:Drivers/BSP/Components/lis2dw12/lis2dw12.c ****         case LIS2DW12_HIGH_PERFORMANCE:
 537:Drivers/BSP/Components/lis2dw12/lis2dw12.c ****         case LIS2DW12_HIGH_PERFORMANCE_LOW_NOISE:
 538:Drivers/BSP/Components/lis2dw12/lis2dw12.c ****           *Odr = 800.0f;
ARM GAS  /tmp/ccCpEZfe.s 			page 12


 539:Drivers/BSP/Components/lis2dw12/lis2dw12.c ****           break;
 540:Drivers/BSP/Components/lis2dw12/lis2dw12.c **** 
 541:Drivers/BSP/Components/lis2dw12/lis2dw12.c ****         case LIS2DW12_CONT_LOW_PWR_4:
 542:Drivers/BSP/Components/lis2dw12/lis2dw12.c ****         case LIS2DW12_CONT_LOW_PWR_3:
 543:Drivers/BSP/Components/lis2dw12/lis2dw12.c ****         case LIS2DW12_CONT_LOW_PWR_2:
 544:Drivers/BSP/Components/lis2dw12/lis2dw12.c ****         case LIS2DW12_CONT_LOW_PWR_12bit:
 545:Drivers/BSP/Components/lis2dw12/lis2dw12.c ****         case LIS2DW12_SINGLE_LOW_PWR_4:
 546:Drivers/BSP/Components/lis2dw12/lis2dw12.c ****         case LIS2DW12_SINGLE_LOW_PWR_3:
 547:Drivers/BSP/Components/lis2dw12/lis2dw12.c ****         case LIS2DW12_SINGLE_LOW_PWR_2:
 548:Drivers/BSP/Components/lis2dw12/lis2dw12.c ****         case LIS2DW12_SINGLE_LOW_PWR_12bit:
 549:Drivers/BSP/Components/lis2dw12/lis2dw12.c ****         case LIS2DW12_CONT_LOW_PWR_LOW_NOISE_4:
 550:Drivers/BSP/Components/lis2dw12/lis2dw12.c ****         case LIS2DW12_CONT_LOW_PWR_LOW_NOISE_3:
 551:Drivers/BSP/Components/lis2dw12/lis2dw12.c ****         case LIS2DW12_CONT_LOW_PWR_LOW_NOISE_2:
 552:Drivers/BSP/Components/lis2dw12/lis2dw12.c ****         case LIS2DW12_CONT_LOW_PWR_LOW_NOISE_12bit:
 553:Drivers/BSP/Components/lis2dw12/lis2dw12.c ****         case LIS2DW12_SINGLE_LOW_PWR_LOW_NOISE_4:
 554:Drivers/BSP/Components/lis2dw12/lis2dw12.c ****         case LIS2DW12_SINGLE_LOW_PWR_LOW_NOISE_3:
 555:Drivers/BSP/Components/lis2dw12/lis2dw12.c ****         case LIS2DW12_SINGLE_LOW_PWR_LOW_NOISE_2:
 556:Drivers/BSP/Components/lis2dw12/lis2dw12.c ****         case LIS2DW12_SINGLE_LOW_LOW_NOISE_PWR_12bit:
 557:Drivers/BSP/Components/lis2dw12/lis2dw12.c ****           *Odr = 200.0f;
 558:Drivers/BSP/Components/lis2dw12/lis2dw12.c ****           break;
 559:Drivers/BSP/Components/lis2dw12/lis2dw12.c **** 
 560:Drivers/BSP/Components/lis2dw12/lis2dw12.c ****         default:
 561:Drivers/BSP/Components/lis2dw12/lis2dw12.c ****           *Odr = -1.0f;
 562:Drivers/BSP/Components/lis2dw12/lis2dw12.c ****           ret = LIS2DW12_ERROR;
 563:Drivers/BSP/Components/lis2dw12/lis2dw12.c ****           break;
 564:Drivers/BSP/Components/lis2dw12/lis2dw12.c ****       }
 565:Drivers/BSP/Components/lis2dw12/lis2dw12.c ****       break;
 566:Drivers/BSP/Components/lis2dw12/lis2dw12.c **** 
 567:Drivers/BSP/Components/lis2dw12/lis2dw12.c ****     case LIS2DW12_XL_ODR_1k6Hz:
 568:Drivers/BSP/Components/lis2dw12/lis2dw12.c ****       switch (mode)
 569:Drivers/BSP/Components/lis2dw12/lis2dw12.c ****       {
 570:Drivers/BSP/Components/lis2dw12/lis2dw12.c ****         case LIS2DW12_HIGH_PERFORMANCE:
 571:Drivers/BSP/Components/lis2dw12/lis2dw12.c ****         case LIS2DW12_HIGH_PERFORMANCE_LOW_NOISE:
 572:Drivers/BSP/Components/lis2dw12/lis2dw12.c ****           *Odr = 1600.0f;
 573:Drivers/BSP/Components/lis2dw12/lis2dw12.c ****           break;
 574:Drivers/BSP/Components/lis2dw12/lis2dw12.c **** 
 575:Drivers/BSP/Components/lis2dw12/lis2dw12.c ****         case LIS2DW12_CONT_LOW_PWR_4:
 576:Drivers/BSP/Components/lis2dw12/lis2dw12.c ****         case LIS2DW12_CONT_LOW_PWR_3:
 577:Drivers/BSP/Components/lis2dw12/lis2dw12.c ****         case LIS2DW12_CONT_LOW_PWR_2:
 578:Drivers/BSP/Components/lis2dw12/lis2dw12.c ****         case LIS2DW12_CONT_LOW_PWR_12bit:
 579:Drivers/BSP/Components/lis2dw12/lis2dw12.c ****         case LIS2DW12_SINGLE_LOW_PWR_4:
 580:Drivers/BSP/Components/lis2dw12/lis2dw12.c ****         case LIS2DW12_SINGLE_LOW_PWR_3:
 581:Drivers/BSP/Components/lis2dw12/lis2dw12.c ****         case LIS2DW12_SINGLE_LOW_PWR_2:
 582:Drivers/BSP/Components/lis2dw12/lis2dw12.c ****         case LIS2DW12_SINGLE_LOW_PWR_12bit:
 583:Drivers/BSP/Components/lis2dw12/lis2dw12.c ****         case LIS2DW12_CONT_LOW_PWR_LOW_NOISE_4:
 584:Drivers/BSP/Components/lis2dw12/lis2dw12.c ****         case LIS2DW12_CONT_LOW_PWR_LOW_NOISE_3:
 585:Drivers/BSP/Components/lis2dw12/lis2dw12.c ****         case LIS2DW12_CONT_LOW_PWR_LOW_NOISE_2:
 586:Drivers/BSP/Components/lis2dw12/lis2dw12.c ****         case LIS2DW12_CONT_LOW_PWR_LOW_NOISE_12bit:
 587:Drivers/BSP/Components/lis2dw12/lis2dw12.c ****         case LIS2DW12_SINGLE_LOW_PWR_LOW_NOISE_4:
 588:Drivers/BSP/Components/lis2dw12/lis2dw12.c ****         case LIS2DW12_SINGLE_LOW_PWR_LOW_NOISE_3:
 589:Drivers/BSP/Components/lis2dw12/lis2dw12.c ****         case LIS2DW12_SINGLE_LOW_PWR_LOW_NOISE_2:
 590:Drivers/BSP/Components/lis2dw12/lis2dw12.c ****         case LIS2DW12_SINGLE_LOW_LOW_NOISE_PWR_12bit:
 591:Drivers/BSP/Components/lis2dw12/lis2dw12.c ****           *Odr = 200.0f;
 592:Drivers/BSP/Components/lis2dw12/lis2dw12.c ****           break;
 593:Drivers/BSP/Components/lis2dw12/lis2dw12.c **** 
 594:Drivers/BSP/Components/lis2dw12/lis2dw12.c ****         default:
 595:Drivers/BSP/Components/lis2dw12/lis2dw12.c ****           *Odr = -1.0f;
ARM GAS  /tmp/ccCpEZfe.s 			page 13


 596:Drivers/BSP/Components/lis2dw12/lis2dw12.c ****           ret = LIS2DW12_ERROR;
 597:Drivers/BSP/Components/lis2dw12/lis2dw12.c ****           break;
 598:Drivers/BSP/Components/lis2dw12/lis2dw12.c ****       }
 599:Drivers/BSP/Components/lis2dw12/lis2dw12.c ****       break;
 600:Drivers/BSP/Components/lis2dw12/lis2dw12.c **** 
 601:Drivers/BSP/Components/lis2dw12/lis2dw12.c ****     default:
 602:Drivers/BSP/Components/lis2dw12/lis2dw12.c ****       *Odr = -1.0f;
 603:Drivers/BSP/Components/lis2dw12/lis2dw12.c ****       ret = LIS2DW12_ERROR;
 604:Drivers/BSP/Components/lis2dw12/lis2dw12.c ****       break;
 605:Drivers/BSP/Components/lis2dw12/lis2dw12.c ****   }
 606:Drivers/BSP/Components/lis2dw12/lis2dw12.c **** 
 607:Drivers/BSP/Components/lis2dw12/lis2dw12.c ****   return ret;
 608:Drivers/BSP/Components/lis2dw12/lis2dw12.c **** }
 609:Drivers/BSP/Components/lis2dw12/lis2dw12.c **** 
 610:Drivers/BSP/Components/lis2dw12/lis2dw12.c **** /**
 611:Drivers/BSP/Components/lis2dw12/lis2dw12.c ****   * @brief  Set the LIS2DW12 accelerometer sensor output data rate
 612:Drivers/BSP/Components/lis2dw12/lis2dw12.c ****   * @param  pObj the device pObj
 613:Drivers/BSP/Components/lis2dw12/lis2dw12.c ****   * @param  Odr the output data rate value to be set
 614:Drivers/BSP/Components/lis2dw12/lis2dw12.c ****   * @retval 0 in case of success, an error code otherwise
 615:Drivers/BSP/Components/lis2dw12/lis2dw12.c ****   */
 616:Drivers/BSP/Components/lis2dw12/lis2dw12.c **** int32_t LIS2DW12_ACC_SetOutputDataRate(LIS2DW12_Object_t *pObj, float Odr)
 617:Drivers/BSP/Components/lis2dw12/lis2dw12.c **** {
 618:Drivers/BSP/Components/lis2dw12/lis2dw12.c ****   /* By default we use High Performance mode and Low Noise disabled */
 619:Drivers/BSP/Components/lis2dw12/lis2dw12.c ****   return LIS2DW12_ACC_SetOutputDataRate_With_Mode(pObj, Odr, LIS2DW12_HIGH_PERFORMANCE_MODE, LIS2DW
 620:Drivers/BSP/Components/lis2dw12/lis2dw12.c **** }
 621:Drivers/BSP/Components/lis2dw12/lis2dw12.c **** 
 622:Drivers/BSP/Components/lis2dw12/lis2dw12.c **** /**
 623:Drivers/BSP/Components/lis2dw12/lis2dw12.c ****   * @brief  Set the LIS2DW12 accelerometer sensor output data rate
 624:Drivers/BSP/Components/lis2dw12/lis2dw12.c ****   * @param  pObj the device pObj
 625:Drivers/BSP/Components/lis2dw12/lis2dw12.c ****   * @param  Odr the output data rate value to be set
 626:Drivers/BSP/Components/lis2dw12/lis2dw12.c ****   * @param  Mode the operating mode to be used
 627:Drivers/BSP/Components/lis2dw12/lis2dw12.c ****   * @param  Noise the low noise option
 628:Drivers/BSP/Components/lis2dw12/lis2dw12.c ****   * @retval 0 in case of success, an error code otherwise
 629:Drivers/BSP/Components/lis2dw12/lis2dw12.c ****   */
 630:Drivers/BSP/Components/lis2dw12/lis2dw12.c **** int32_t LIS2DW12_ACC_SetOutputDataRate_With_Mode(LIS2DW12_Object_t *pObj, float Odr, LIS2DW12_Opera
 631:Drivers/BSP/Components/lis2dw12/lis2dw12.c ****                                                  LIS2DW12_Low_Noise_t Noise)
 632:Drivers/BSP/Components/lis2dw12/lis2dw12.c **** {
 633:Drivers/BSP/Components/lis2dw12/lis2dw12.c ****   /* Check if the component is enabled */
 634:Drivers/BSP/Components/lis2dw12/lis2dw12.c ****   if (pObj->acc_is_enabled == 1U)
 635:Drivers/BSP/Components/lis2dw12/lis2dw12.c ****   {
 636:Drivers/BSP/Components/lis2dw12/lis2dw12.c ****     return LIS2DW12_ACC_SetOutputDataRate_When_Enabled(pObj, Odr, Mode, Noise);
 637:Drivers/BSP/Components/lis2dw12/lis2dw12.c ****   }
 638:Drivers/BSP/Components/lis2dw12/lis2dw12.c ****   else
 639:Drivers/BSP/Components/lis2dw12/lis2dw12.c ****   {
 640:Drivers/BSP/Components/lis2dw12/lis2dw12.c ****     return LIS2DW12_ACC_SetOutputDataRate_When_Disabled(pObj, Odr, Mode, Noise);
 641:Drivers/BSP/Components/lis2dw12/lis2dw12.c ****   }
 642:Drivers/BSP/Components/lis2dw12/lis2dw12.c **** }
 643:Drivers/BSP/Components/lis2dw12/lis2dw12.c **** 
 644:Drivers/BSP/Components/lis2dw12/lis2dw12.c **** /**
 645:Drivers/BSP/Components/lis2dw12/lis2dw12.c ****   * @brief  Get the LIS2DW12 accelerometer sensor full scale
 646:Drivers/BSP/Components/lis2dw12/lis2dw12.c ****   * @param  pObj the device pObj
 647:Drivers/BSP/Components/lis2dw12/lis2dw12.c ****   * @param  FullScale pointer where the full scale is written
 648:Drivers/BSP/Components/lis2dw12/lis2dw12.c ****   * @retval 0 in case of success, an error code otherwise
 649:Drivers/BSP/Components/lis2dw12/lis2dw12.c ****   */
 650:Drivers/BSP/Components/lis2dw12/lis2dw12.c **** int32_t LIS2DW12_ACC_GetFullScale(LIS2DW12_Object_t *pObj, int32_t *FullScale)
 651:Drivers/BSP/Components/lis2dw12/lis2dw12.c **** {
 652:Drivers/BSP/Components/lis2dw12/lis2dw12.c ****   int32_t ret = LIS2DW12_OK;
ARM GAS  /tmp/ccCpEZfe.s 			page 14


 653:Drivers/BSP/Components/lis2dw12/lis2dw12.c ****   lis2dw12_fs_t fs_low_level;
 654:Drivers/BSP/Components/lis2dw12/lis2dw12.c **** 
 655:Drivers/BSP/Components/lis2dw12/lis2dw12.c ****   /* Read actual full scale selection from sensor. */
 656:Drivers/BSP/Components/lis2dw12/lis2dw12.c ****   if (lis2dw12_full_scale_get(&(pObj->Ctx), &fs_low_level) != LIS2DW12_OK)
 657:Drivers/BSP/Components/lis2dw12/lis2dw12.c ****   {
 658:Drivers/BSP/Components/lis2dw12/lis2dw12.c ****     return LIS2DW12_ERROR;
 659:Drivers/BSP/Components/lis2dw12/lis2dw12.c ****   }
 660:Drivers/BSP/Components/lis2dw12/lis2dw12.c **** 
 661:Drivers/BSP/Components/lis2dw12/lis2dw12.c ****   switch (fs_low_level)
 662:Drivers/BSP/Components/lis2dw12/lis2dw12.c ****   {
 663:Drivers/BSP/Components/lis2dw12/lis2dw12.c ****     case LIS2DW12_2g:
 664:Drivers/BSP/Components/lis2dw12/lis2dw12.c ****       *FullScale =  2;
 665:Drivers/BSP/Components/lis2dw12/lis2dw12.c ****       break;
 666:Drivers/BSP/Components/lis2dw12/lis2dw12.c **** 
 667:Drivers/BSP/Components/lis2dw12/lis2dw12.c ****     case LIS2DW12_4g:
 668:Drivers/BSP/Components/lis2dw12/lis2dw12.c ****       *FullScale =  4;
 669:Drivers/BSP/Components/lis2dw12/lis2dw12.c ****       break;
 670:Drivers/BSP/Components/lis2dw12/lis2dw12.c **** 
 671:Drivers/BSP/Components/lis2dw12/lis2dw12.c ****     case LIS2DW12_8g:
 672:Drivers/BSP/Components/lis2dw12/lis2dw12.c ****       *FullScale =  8;
 673:Drivers/BSP/Components/lis2dw12/lis2dw12.c ****       break;
 674:Drivers/BSP/Components/lis2dw12/lis2dw12.c **** 
 675:Drivers/BSP/Components/lis2dw12/lis2dw12.c ****     case LIS2DW12_16g:
 676:Drivers/BSP/Components/lis2dw12/lis2dw12.c ****       *FullScale = 16;
 677:Drivers/BSP/Components/lis2dw12/lis2dw12.c ****       break;
 678:Drivers/BSP/Components/lis2dw12/lis2dw12.c **** 
 679:Drivers/BSP/Components/lis2dw12/lis2dw12.c ****     default:
 680:Drivers/BSP/Components/lis2dw12/lis2dw12.c ****       *FullScale = -1;
 681:Drivers/BSP/Components/lis2dw12/lis2dw12.c ****       ret = LIS2DW12_ERROR;
 682:Drivers/BSP/Components/lis2dw12/lis2dw12.c ****       break;
 683:Drivers/BSP/Components/lis2dw12/lis2dw12.c ****   }
 684:Drivers/BSP/Components/lis2dw12/lis2dw12.c **** 
 685:Drivers/BSP/Components/lis2dw12/lis2dw12.c ****   return ret;
 686:Drivers/BSP/Components/lis2dw12/lis2dw12.c **** }
 687:Drivers/BSP/Components/lis2dw12/lis2dw12.c **** 
 688:Drivers/BSP/Components/lis2dw12/lis2dw12.c **** /**
 689:Drivers/BSP/Components/lis2dw12/lis2dw12.c ****   * @brief  Set the LIS2DW12 accelerometer sensor full scale
 690:Drivers/BSP/Components/lis2dw12/lis2dw12.c ****   * @param  pObj the device pObj
 691:Drivers/BSP/Components/lis2dw12/lis2dw12.c ****   * @param  FullScale the functional full scale to be set
 692:Drivers/BSP/Components/lis2dw12/lis2dw12.c ****   * @retval 0 in case of success, an error code otherwise
 693:Drivers/BSP/Components/lis2dw12/lis2dw12.c ****   */
 694:Drivers/BSP/Components/lis2dw12/lis2dw12.c **** int32_t LIS2DW12_ACC_SetFullScale(LIS2DW12_Object_t *pObj, int32_t FullScale)
 695:Drivers/BSP/Components/lis2dw12/lis2dw12.c **** {
 696:Drivers/BSP/Components/lis2dw12/lis2dw12.c ****   lis2dw12_fs_t new_fs;
 697:Drivers/BSP/Components/lis2dw12/lis2dw12.c **** 
 698:Drivers/BSP/Components/lis2dw12/lis2dw12.c ****   /* Seems like MISRA C-2012 rule 14.3a violation but only from single file statical analysis point
 699:Drivers/BSP/Components/lis2dw12/lis2dw12.c ****      the parameter passed to the function is not known at the moment of analysis */
 700:Drivers/BSP/Components/lis2dw12/lis2dw12.c ****   new_fs = (FullScale <= 2) ? LIS2DW12_2g
 701:Drivers/BSP/Components/lis2dw12/lis2dw12.c ****            : (FullScale <= 4) ? LIS2DW12_4g
 702:Drivers/BSP/Components/lis2dw12/lis2dw12.c ****            : (FullScale <= 8) ? LIS2DW12_8g
 703:Drivers/BSP/Components/lis2dw12/lis2dw12.c ****            :                    LIS2DW12_16g;
 704:Drivers/BSP/Components/lis2dw12/lis2dw12.c **** 
 705:Drivers/BSP/Components/lis2dw12/lis2dw12.c ****   if (lis2dw12_full_scale_set(&(pObj->Ctx), new_fs) != LIS2DW12_OK)
 706:Drivers/BSP/Components/lis2dw12/lis2dw12.c ****   {
 707:Drivers/BSP/Components/lis2dw12/lis2dw12.c ****     return LIS2DW12_ERROR;
 708:Drivers/BSP/Components/lis2dw12/lis2dw12.c ****   }
 709:Drivers/BSP/Components/lis2dw12/lis2dw12.c **** 
ARM GAS  /tmp/ccCpEZfe.s 			page 15


 710:Drivers/BSP/Components/lis2dw12/lis2dw12.c ****   return LIS2DW12_OK;
 711:Drivers/BSP/Components/lis2dw12/lis2dw12.c **** }
 712:Drivers/BSP/Components/lis2dw12/lis2dw12.c **** 
 713:Drivers/BSP/Components/lis2dw12/lis2dw12.c **** /**
 714:Drivers/BSP/Components/lis2dw12/lis2dw12.c ****   * @brief  Get the LIS2DW12 accelerometer sensor raw axes
 715:Drivers/BSP/Components/lis2dw12/lis2dw12.c ****   * @param  pObj the device pObj
 716:Drivers/BSP/Components/lis2dw12/lis2dw12.c ****   * @param  Value pointer where the raw values of the axes are written
 717:Drivers/BSP/Components/lis2dw12/lis2dw12.c ****   * @retval 0 in case of success, an error code otherwise
 718:Drivers/BSP/Components/lis2dw12/lis2dw12.c ****   */
 719:Drivers/BSP/Components/lis2dw12/lis2dw12.c **** int32_t LIS2DW12_ACC_GetAxesRaw(LIS2DW12_Object_t *pObj, LIS2DW12_AxesRaw_t *Value)
 720:Drivers/BSP/Components/lis2dw12/lis2dw12.c **** {
 721:Drivers/BSP/Components/lis2dw12/lis2dw12.c ****   lis2dw12_axis3bit16_t data_raw;
 722:Drivers/BSP/Components/lis2dw12/lis2dw12.c ****   lis2dw12_mode_t mode;
 723:Drivers/BSP/Components/lis2dw12/lis2dw12.c ****   int32_t ret = LIS2DW12_OK;
 724:Drivers/BSP/Components/lis2dw12/lis2dw12.c **** 
 725:Drivers/BSP/Components/lis2dw12/lis2dw12.c ****   /* Read actual power mode selection from sensor. */
 726:Drivers/BSP/Components/lis2dw12/lis2dw12.c ****   if (lis2dw12_power_mode_get(&(pObj->Ctx), &mode) != LIS2DW12_OK)
 727:Drivers/BSP/Components/lis2dw12/lis2dw12.c ****   {
 728:Drivers/BSP/Components/lis2dw12/lis2dw12.c ****     return LIS2DW12_ERROR;
 729:Drivers/BSP/Components/lis2dw12/lis2dw12.c ****   }
 730:Drivers/BSP/Components/lis2dw12/lis2dw12.c **** 
 731:Drivers/BSP/Components/lis2dw12/lis2dw12.c ****   /* Read raw data values. */
 732:Drivers/BSP/Components/lis2dw12/lis2dw12.c ****   if (lis2dw12_acceleration_raw_get(&(pObj->Ctx), data_raw.i16bit) != LIS2DW12_OK)
 733:Drivers/BSP/Components/lis2dw12/lis2dw12.c ****   {
 734:Drivers/BSP/Components/lis2dw12/lis2dw12.c ****     return LIS2DW12_ERROR;
 735:Drivers/BSP/Components/lis2dw12/lis2dw12.c ****   }
 736:Drivers/BSP/Components/lis2dw12/lis2dw12.c **** 
 737:Drivers/BSP/Components/lis2dw12/lis2dw12.c ****   switch (mode)
 738:Drivers/BSP/Components/lis2dw12/lis2dw12.c ****   {
 739:Drivers/BSP/Components/lis2dw12/lis2dw12.c ****     case LIS2DW12_CONT_LOW_PWR_12bit:
 740:Drivers/BSP/Components/lis2dw12/lis2dw12.c ****     case LIS2DW12_SINGLE_LOW_PWR_12bit:
 741:Drivers/BSP/Components/lis2dw12/lis2dw12.c ****     case LIS2DW12_CONT_LOW_PWR_LOW_NOISE_12bit:
 742:Drivers/BSP/Components/lis2dw12/lis2dw12.c ****     case LIS2DW12_SINGLE_LOW_LOW_NOISE_PWR_12bit:
 743:Drivers/BSP/Components/lis2dw12/lis2dw12.c ****       /* Data format 12 bits. */
 744:Drivers/BSP/Components/lis2dw12/lis2dw12.c ****       Value->x = (data_raw.i16bit[0] / 16);
 745:Drivers/BSP/Components/lis2dw12/lis2dw12.c ****       Value->y = (data_raw.i16bit[1] / 16);
 746:Drivers/BSP/Components/lis2dw12/lis2dw12.c ****       Value->z = (data_raw.i16bit[2] / 16);
 747:Drivers/BSP/Components/lis2dw12/lis2dw12.c ****       break;
 748:Drivers/BSP/Components/lis2dw12/lis2dw12.c **** 
 749:Drivers/BSP/Components/lis2dw12/lis2dw12.c ****     case LIS2DW12_HIGH_PERFORMANCE:
 750:Drivers/BSP/Components/lis2dw12/lis2dw12.c ****     case LIS2DW12_CONT_LOW_PWR_4:
 751:Drivers/BSP/Components/lis2dw12/lis2dw12.c ****     case LIS2DW12_CONT_LOW_PWR_3:
 752:Drivers/BSP/Components/lis2dw12/lis2dw12.c ****     case LIS2DW12_CONT_LOW_PWR_2:
 753:Drivers/BSP/Components/lis2dw12/lis2dw12.c ****     case LIS2DW12_SINGLE_LOW_PWR_4:
 754:Drivers/BSP/Components/lis2dw12/lis2dw12.c ****     case LIS2DW12_SINGLE_LOW_PWR_3:
 755:Drivers/BSP/Components/lis2dw12/lis2dw12.c ****     case LIS2DW12_SINGLE_LOW_PWR_2:
 756:Drivers/BSP/Components/lis2dw12/lis2dw12.c ****     case LIS2DW12_HIGH_PERFORMANCE_LOW_NOISE:
 757:Drivers/BSP/Components/lis2dw12/lis2dw12.c ****     case LIS2DW12_CONT_LOW_PWR_LOW_NOISE_4:
 758:Drivers/BSP/Components/lis2dw12/lis2dw12.c ****     case LIS2DW12_CONT_LOW_PWR_LOW_NOISE_3:
 759:Drivers/BSP/Components/lis2dw12/lis2dw12.c ****     case LIS2DW12_CONT_LOW_PWR_LOW_NOISE_2:
 760:Drivers/BSP/Components/lis2dw12/lis2dw12.c ****     case LIS2DW12_SINGLE_LOW_PWR_LOW_NOISE_4:
 761:Drivers/BSP/Components/lis2dw12/lis2dw12.c ****     case LIS2DW12_SINGLE_LOW_PWR_LOW_NOISE_3:
 762:Drivers/BSP/Components/lis2dw12/lis2dw12.c ****     case LIS2DW12_SINGLE_LOW_PWR_LOW_NOISE_2:
 763:Drivers/BSP/Components/lis2dw12/lis2dw12.c ****       /* Data format 14 bits. */
 764:Drivers/BSP/Components/lis2dw12/lis2dw12.c ****       Value->x = (data_raw.i16bit[0] / 4);
 765:Drivers/BSP/Components/lis2dw12/lis2dw12.c ****       Value->y = (data_raw.i16bit[1] / 4);
 766:Drivers/BSP/Components/lis2dw12/lis2dw12.c ****       Value->z = (data_raw.i16bit[2] / 4);
ARM GAS  /tmp/ccCpEZfe.s 			page 16


 767:Drivers/BSP/Components/lis2dw12/lis2dw12.c ****       break;
 768:Drivers/BSP/Components/lis2dw12/lis2dw12.c **** 
 769:Drivers/BSP/Components/lis2dw12/lis2dw12.c ****     default:
 770:Drivers/BSP/Components/lis2dw12/lis2dw12.c ****       ret = LIS2DW12_ERROR;
 771:Drivers/BSP/Components/lis2dw12/lis2dw12.c ****       break;
 772:Drivers/BSP/Components/lis2dw12/lis2dw12.c ****   }
 773:Drivers/BSP/Components/lis2dw12/lis2dw12.c **** 
 774:Drivers/BSP/Components/lis2dw12/lis2dw12.c ****   return ret;
 775:Drivers/BSP/Components/lis2dw12/lis2dw12.c **** }
 776:Drivers/BSP/Components/lis2dw12/lis2dw12.c **** 
 777:Drivers/BSP/Components/lis2dw12/lis2dw12.c **** /**
 778:Drivers/BSP/Components/lis2dw12/lis2dw12.c ****   * @brief  Get the LIS2DW12 accelerometer sensor axes
 779:Drivers/BSP/Components/lis2dw12/lis2dw12.c ****   * @param  pObj the device pObj
 780:Drivers/BSP/Components/lis2dw12/lis2dw12.c ****   * @param  Acceleration pointer where the values of the axes are written
 781:Drivers/BSP/Components/lis2dw12/lis2dw12.c ****   * @retval 0 in case of success, an error code otherwise
 782:Drivers/BSP/Components/lis2dw12/lis2dw12.c ****   */
 783:Drivers/BSP/Components/lis2dw12/lis2dw12.c **** int32_t LIS2DW12_ACC_GetAxes(LIS2DW12_Object_t *pObj, LIS2DW12_Axes_t *Acceleration)
 784:Drivers/BSP/Components/lis2dw12/lis2dw12.c **** {
 785:Drivers/BSP/Components/lis2dw12/lis2dw12.c ****   LIS2DW12_AxesRaw_t data_raw;
 786:Drivers/BSP/Components/lis2dw12/lis2dw12.c ****   float sensitivity = 0.0f;
 787:Drivers/BSP/Components/lis2dw12/lis2dw12.c **** 
 788:Drivers/BSP/Components/lis2dw12/lis2dw12.c ****   /* Read raw data values. */
 789:Drivers/BSP/Components/lis2dw12/lis2dw12.c ****   if (LIS2DW12_ACC_GetAxesRaw(pObj, &data_raw) != LIS2DW12_OK)
 790:Drivers/BSP/Components/lis2dw12/lis2dw12.c ****   {
 791:Drivers/BSP/Components/lis2dw12/lis2dw12.c ****     return LIS2DW12_ERROR;
 792:Drivers/BSP/Components/lis2dw12/lis2dw12.c ****   }
 793:Drivers/BSP/Components/lis2dw12/lis2dw12.c **** 
 794:Drivers/BSP/Components/lis2dw12/lis2dw12.c ****   /* Get LIS2DW12 actual sensitivity. */
 795:Drivers/BSP/Components/lis2dw12/lis2dw12.c ****   if (LIS2DW12_ACC_GetSensitivity(pObj, &sensitivity) != LIS2DW12_OK)
 796:Drivers/BSP/Components/lis2dw12/lis2dw12.c ****   {
 797:Drivers/BSP/Components/lis2dw12/lis2dw12.c ****     return LIS2DW12_ERROR;
 798:Drivers/BSP/Components/lis2dw12/lis2dw12.c ****   }
 799:Drivers/BSP/Components/lis2dw12/lis2dw12.c **** 
 800:Drivers/BSP/Components/lis2dw12/lis2dw12.c ****   /* Calculate the data. */
 801:Drivers/BSP/Components/lis2dw12/lis2dw12.c ****   Acceleration->x = (int32_t)((float)((float)data_raw.x * sensitivity));
 802:Drivers/BSP/Components/lis2dw12/lis2dw12.c ****   Acceleration->y = (int32_t)((float)((float)data_raw.y * sensitivity));
 803:Drivers/BSP/Components/lis2dw12/lis2dw12.c ****   Acceleration->z = (int32_t)((float)((float)data_raw.z * sensitivity));
 804:Drivers/BSP/Components/lis2dw12/lis2dw12.c **** 
 805:Drivers/BSP/Components/lis2dw12/lis2dw12.c ****   return LIS2DW12_OK;
 806:Drivers/BSP/Components/lis2dw12/lis2dw12.c **** }
 807:Drivers/BSP/Components/lis2dw12/lis2dw12.c **** 
 808:Drivers/BSP/Components/lis2dw12/lis2dw12.c **** /**
 809:Drivers/BSP/Components/lis2dw12/lis2dw12.c ****   * @brief  Get the LIS2DW12 register value
 810:Drivers/BSP/Components/lis2dw12/lis2dw12.c ****   * @param  pObj the device pObj
 811:Drivers/BSP/Components/lis2dw12/lis2dw12.c ****   * @param  Reg address to be read
 812:Drivers/BSP/Components/lis2dw12/lis2dw12.c ****   * @param  Data pointer where the value is written
 813:Drivers/BSP/Components/lis2dw12/lis2dw12.c ****   * @retval 0 in case of success, an error code otherwise
 814:Drivers/BSP/Components/lis2dw12/lis2dw12.c ****   */
 815:Drivers/BSP/Components/lis2dw12/lis2dw12.c **** int32_t LIS2DW12_Read_Reg(LIS2DW12_Object_t *pObj, uint8_t Reg, uint8_t *Data)
 816:Drivers/BSP/Components/lis2dw12/lis2dw12.c **** {
 817:Drivers/BSP/Components/lis2dw12/lis2dw12.c ****   if (lis2dw12_read_reg(&(pObj->Ctx), Reg, Data, 1) != LIS2DW12_OK)
 818:Drivers/BSP/Components/lis2dw12/lis2dw12.c ****   {
 819:Drivers/BSP/Components/lis2dw12/lis2dw12.c ****     return LIS2DW12_ERROR;
 820:Drivers/BSP/Components/lis2dw12/lis2dw12.c ****   }
 821:Drivers/BSP/Components/lis2dw12/lis2dw12.c **** 
 822:Drivers/BSP/Components/lis2dw12/lis2dw12.c ****   return LIS2DW12_OK;
 823:Drivers/BSP/Components/lis2dw12/lis2dw12.c **** }
ARM GAS  /tmp/ccCpEZfe.s 			page 17


 824:Drivers/BSP/Components/lis2dw12/lis2dw12.c **** 
 825:Drivers/BSP/Components/lis2dw12/lis2dw12.c **** /**
 826:Drivers/BSP/Components/lis2dw12/lis2dw12.c ****   * @brief  Set the LIS2DW12 register value
 827:Drivers/BSP/Components/lis2dw12/lis2dw12.c ****   * @param  pObj the device pObj
 828:Drivers/BSP/Components/lis2dw12/lis2dw12.c ****   * @param  Reg address to be written
 829:Drivers/BSP/Components/lis2dw12/lis2dw12.c ****   * @param  Data value to be written
 830:Drivers/BSP/Components/lis2dw12/lis2dw12.c ****   * @retval 0 in case of success, an error code otherwise
 831:Drivers/BSP/Components/lis2dw12/lis2dw12.c ****   */
 832:Drivers/BSP/Components/lis2dw12/lis2dw12.c **** int32_t LIS2DW12_Write_Reg(LIS2DW12_Object_t *pObj, uint8_t Reg, uint8_t Data)
 833:Drivers/BSP/Components/lis2dw12/lis2dw12.c **** {
 834:Drivers/BSP/Components/lis2dw12/lis2dw12.c ****   if (lis2dw12_write_reg(&(pObj->Ctx), Reg, &Data, 1) != LIS2DW12_OK)
 835:Drivers/BSP/Components/lis2dw12/lis2dw12.c ****   {
 836:Drivers/BSP/Components/lis2dw12/lis2dw12.c ****     return LIS2DW12_ERROR;
 837:Drivers/BSP/Components/lis2dw12/lis2dw12.c ****   }
 838:Drivers/BSP/Components/lis2dw12/lis2dw12.c **** 
 839:Drivers/BSP/Components/lis2dw12/lis2dw12.c ****   return LIS2DW12_OK;
 840:Drivers/BSP/Components/lis2dw12/lis2dw12.c **** }
 841:Drivers/BSP/Components/lis2dw12/lis2dw12.c **** 
 842:Drivers/BSP/Components/lis2dw12/lis2dw12.c **** /**
 843:Drivers/BSP/Components/lis2dw12/lis2dw12.c ****   * @brief  Set the interrupt latch
 844:Drivers/BSP/Components/lis2dw12/lis2dw12.c ****   * @param  pObj the device pObj
 845:Drivers/BSP/Components/lis2dw12/lis2dw12.c ****   * @param  Status value to be written
 846:Drivers/BSP/Components/lis2dw12/lis2dw12.c ****   * @retval 0 in case of success, an error code otherwise
 847:Drivers/BSP/Components/lis2dw12/lis2dw12.c ****   */
 848:Drivers/BSP/Components/lis2dw12/lis2dw12.c **** int32_t LIS2DW12_Set_Interrupt_Latch(LIS2DW12_Object_t *pObj, uint8_t Status)
 849:Drivers/BSP/Components/lis2dw12/lis2dw12.c **** {
 850:Drivers/BSP/Components/lis2dw12/lis2dw12.c ****   if (Status > 1U)
 851:Drivers/BSP/Components/lis2dw12/lis2dw12.c ****   {
 852:Drivers/BSP/Components/lis2dw12/lis2dw12.c ****     return LIS2DW12_ERROR;
 853:Drivers/BSP/Components/lis2dw12/lis2dw12.c ****   }
 854:Drivers/BSP/Components/lis2dw12/lis2dw12.c **** 
 855:Drivers/BSP/Components/lis2dw12/lis2dw12.c ****   if (lis2dw12_int_notification_set(&(pObj->Ctx), (lis2dw12_lir_t)Status) != LIS2DW12_OK)
 856:Drivers/BSP/Components/lis2dw12/lis2dw12.c ****   {
 857:Drivers/BSP/Components/lis2dw12/lis2dw12.c ****     return LIS2DW12_ERROR;
 858:Drivers/BSP/Components/lis2dw12/lis2dw12.c ****   }
 859:Drivers/BSP/Components/lis2dw12/lis2dw12.c **** 
 860:Drivers/BSP/Components/lis2dw12/lis2dw12.c ****   return LIS2DW12_OK;
 861:Drivers/BSP/Components/lis2dw12/lis2dw12.c **** }
 862:Drivers/BSP/Components/lis2dw12/lis2dw12.c **** 
 863:Drivers/BSP/Components/lis2dw12/lis2dw12.c **** /**
 864:Drivers/BSP/Components/lis2dw12/lis2dw12.c ****   * @brief  Enable DRDY interrupt mode
 865:Drivers/BSP/Components/lis2dw12/lis2dw12.c ****   * @param  pObj the device pObj
 866:Drivers/BSP/Components/lis2dw12/lis2dw12.c ****   * @retval 0 in case of success, an error code otherwise
 867:Drivers/BSP/Components/lis2dw12/lis2dw12.c ****   */
 868:Drivers/BSP/Components/lis2dw12/lis2dw12.c **** int32_t LIS2DW12_ACC_Enable_DRDY_Interrupt(LIS2DW12_Object_t *pObj)
 869:Drivers/BSP/Components/lis2dw12/lis2dw12.c **** {
 870:Drivers/BSP/Components/lis2dw12/lis2dw12.c ****   lis2dw12_ctrl5_int2_pad_ctrl_t int2_pad_ctrl;
 871:Drivers/BSP/Components/lis2dw12/lis2dw12.c **** 
 872:Drivers/BSP/Components/lis2dw12/lis2dw12.c ****   /* Enable DRDY interrupts on INT1 */
 873:Drivers/BSP/Components/lis2dw12/lis2dw12.c ****   if (lis2dw12_data_ready_mode_set(&(pObj->Ctx), LIS2DW12_DRDY_PULSED) != LIS2DW12_OK)
 874:Drivers/BSP/Components/lis2dw12/lis2dw12.c ****   {
 875:Drivers/BSP/Components/lis2dw12/lis2dw12.c ****     return LIS2DW12_ERROR;
 876:Drivers/BSP/Components/lis2dw12/lis2dw12.c ****   }
 877:Drivers/BSP/Components/lis2dw12/lis2dw12.c ****   if (lis2dw12_pin_int2_route_get(&(pObj->Ctx), &int2_pad_ctrl) != LIS2DW12_OK)
 878:Drivers/BSP/Components/lis2dw12/lis2dw12.c ****   {
 879:Drivers/BSP/Components/lis2dw12/lis2dw12.c ****     return LIS2DW12_ERROR;
 880:Drivers/BSP/Components/lis2dw12/lis2dw12.c ****   }
ARM GAS  /tmp/ccCpEZfe.s 			page 18


 881:Drivers/BSP/Components/lis2dw12/lis2dw12.c ****   int2_pad_ctrl.int2_drdy = 1;
 882:Drivers/BSP/Components/lis2dw12/lis2dw12.c ****   if (lis2dw12_pin_int2_route_set(&(pObj->Ctx), &int2_pad_ctrl) != LIS2DW12_OK)
 883:Drivers/BSP/Components/lis2dw12/lis2dw12.c ****   {
 884:Drivers/BSP/Components/lis2dw12/lis2dw12.c ****     return LIS2DW12_ERROR;
 885:Drivers/BSP/Components/lis2dw12/lis2dw12.c ****   }
 886:Drivers/BSP/Components/lis2dw12/lis2dw12.c **** 
 887:Drivers/BSP/Components/lis2dw12/lis2dw12.c ****   return LIS2DW12_OK;
 888:Drivers/BSP/Components/lis2dw12/lis2dw12.c **** }
 889:Drivers/BSP/Components/lis2dw12/lis2dw12.c **** 
 890:Drivers/BSP/Components/lis2dw12/lis2dw12.c **** /**
 891:Drivers/BSP/Components/lis2dw12/lis2dw12.c ****   * @brief  Disable DRDY interrupt mode
 892:Drivers/BSP/Components/lis2dw12/lis2dw12.c ****   * @param  pObj the device pObj
 893:Drivers/BSP/Components/lis2dw12/lis2dw12.c ****   * @retval 0 in case of success, an error code otherwise
 894:Drivers/BSP/Components/lis2dw12/lis2dw12.c ****   */
 895:Drivers/BSP/Components/lis2dw12/lis2dw12.c **** int32_t LIS2DW12_ACC_Disable_DRDY_Interrupt(LIS2DW12_Object_t *pObj)
 896:Drivers/BSP/Components/lis2dw12/lis2dw12.c **** {
 897:Drivers/BSP/Components/lis2dw12/lis2dw12.c ****   lis2dw12_ctrl5_int2_pad_ctrl_t int2_pad_ctrl;
 898:Drivers/BSP/Components/lis2dw12/lis2dw12.c **** 
 899:Drivers/BSP/Components/lis2dw12/lis2dw12.c ****   if (lis2dw12_pin_int2_route_get(&(pObj->Ctx), &int2_pad_ctrl) != LIS2DW12_OK)
 900:Drivers/BSP/Components/lis2dw12/lis2dw12.c ****   {
 901:Drivers/BSP/Components/lis2dw12/lis2dw12.c ****     return LIS2DW12_ERROR;
 902:Drivers/BSP/Components/lis2dw12/lis2dw12.c ****   }
 903:Drivers/BSP/Components/lis2dw12/lis2dw12.c ****   int2_pad_ctrl.int2_drdy = 0;
 904:Drivers/BSP/Components/lis2dw12/lis2dw12.c ****   if (lis2dw12_pin_int2_route_set(&(pObj->Ctx), &int2_pad_ctrl) != LIS2DW12_OK)
 905:Drivers/BSP/Components/lis2dw12/lis2dw12.c ****   {
 906:Drivers/BSP/Components/lis2dw12/lis2dw12.c ****     return LIS2DW12_ERROR;
 907:Drivers/BSP/Components/lis2dw12/lis2dw12.c ****   }
 908:Drivers/BSP/Components/lis2dw12/lis2dw12.c **** 
 909:Drivers/BSP/Components/lis2dw12/lis2dw12.c ****   return LIS2DW12_OK;
 910:Drivers/BSP/Components/lis2dw12/lis2dw12.c **** }
 911:Drivers/BSP/Components/lis2dw12/lis2dw12.c **** 
 912:Drivers/BSP/Components/lis2dw12/lis2dw12.c **** /**
 913:Drivers/BSP/Components/lis2dw12/lis2dw12.c ****   * @brief  Set the filterMode value
 914:Drivers/BSP/Components/lis2dw12/lis2dw12.c ****   * @param  pObj the device pObj
 915:Drivers/BSP/Components/lis2dw12/lis2dw12.c ****   * @param  filterMode value to be written
 916:Drivers/BSP/Components/lis2dw12/lis2dw12.c ****   * @retval 0 in case of success, an error code otherwise
 917:Drivers/BSP/Components/lis2dw12/lis2dw12.c ****   */
 918:Drivers/BSP/Components/lis2dw12/lis2dw12.c **** int32_t LIS2DW12_ACC_Set_Filter_Mode(LIS2DW12_Object_t *pObj, uint8_t filterMode)
 919:Drivers/BSP/Components/lis2dw12/lis2dw12.c **** {
 920:Drivers/BSP/Components/lis2dw12/lis2dw12.c ****   if (lis2dw12_filter_bandwidth_set(&(pObj->Ctx), (lis2dw12_bw_filt_t)filterMode) != LIS2DW12_OK)
 921:Drivers/BSP/Components/lis2dw12/lis2dw12.c ****   {
 922:Drivers/BSP/Components/lis2dw12/lis2dw12.c ****     return LIS2DW12_ERROR;
 923:Drivers/BSP/Components/lis2dw12/lis2dw12.c ****   }
 924:Drivers/BSP/Components/lis2dw12/lis2dw12.c **** 
 925:Drivers/BSP/Components/lis2dw12/lis2dw12.c ****   return LIS2DW12_OK;
 926:Drivers/BSP/Components/lis2dw12/lis2dw12.c **** }
 927:Drivers/BSP/Components/lis2dw12/lis2dw12.c **** 
 928:Drivers/BSP/Components/lis2dw12/lis2dw12.c **** /**
 929:Drivers/BSP/Components/lis2dw12/lis2dw12.c ****   * @brief  Enable wake up detection
 930:Drivers/BSP/Components/lis2dw12/lis2dw12.c ****   * @param  pObj the device pObj
 931:Drivers/BSP/Components/lis2dw12/lis2dw12.c ****   * @retval 0 in case of success, an error code otherwise
 932:Drivers/BSP/Components/lis2dw12/lis2dw12.c ****   */
 933:Drivers/BSP/Components/lis2dw12/lis2dw12.c **** int32_t LIS2DW12_ACC_Enable_Wake_Up_Detection(LIS2DW12_Object_t *pObj)
 934:Drivers/BSP/Components/lis2dw12/lis2dw12.c **** {
 935:Drivers/BSP/Components/lis2dw12/lis2dw12.c ****   int32_t ret = LIS2DW12_OK;
 936:Drivers/BSP/Components/lis2dw12/lis2dw12.c ****   lis2dw12_ctrl4_int1_pad_ctrl_t val;
 937:Drivers/BSP/Components/lis2dw12/lis2dw12.c **** 
ARM GAS  /tmp/ccCpEZfe.s 			page 19


 938:Drivers/BSP/Components/lis2dw12/lis2dw12.c ****   /* Output Data Rate selection */
 939:Drivers/BSP/Components/lis2dw12/lis2dw12.c ****   if (LIS2DW12_ACC_SetOutputDataRate(pObj, 200.0f) != LIS2DW12_OK)
 940:Drivers/BSP/Components/lis2dw12/lis2dw12.c ****   {
 941:Drivers/BSP/Components/lis2dw12/lis2dw12.c ****     return LIS2DW12_ERROR;
 942:Drivers/BSP/Components/lis2dw12/lis2dw12.c ****   }
 943:Drivers/BSP/Components/lis2dw12/lis2dw12.c **** 
 944:Drivers/BSP/Components/lis2dw12/lis2dw12.c ****   /* Full scale selection */
 945:Drivers/BSP/Components/lis2dw12/lis2dw12.c ****   if (LIS2DW12_ACC_SetFullScale(pObj, 2) != LIS2DW12_OK)
 946:Drivers/BSP/Components/lis2dw12/lis2dw12.c ****   {
 947:Drivers/BSP/Components/lis2dw12/lis2dw12.c ****     return LIS2DW12_ERROR;
 948:Drivers/BSP/Components/lis2dw12/lis2dw12.c ****   }
 949:Drivers/BSP/Components/lis2dw12/lis2dw12.c **** 
 950:Drivers/BSP/Components/lis2dw12/lis2dw12.c ****   /* WAKE_DUR setting */
 951:Drivers/BSP/Components/lis2dw12/lis2dw12.c ****   if (lis2dw12_wkup_dur_set(&(pObj->Ctx), 0x00) != LIS2DW12_OK)
 952:Drivers/BSP/Components/lis2dw12/lis2dw12.c ****   {
 953:Drivers/BSP/Components/lis2dw12/lis2dw12.c ****     return LIS2DW12_ERROR;
 954:Drivers/BSP/Components/lis2dw12/lis2dw12.c ****   }
 955:Drivers/BSP/Components/lis2dw12/lis2dw12.c **** 
 956:Drivers/BSP/Components/lis2dw12/lis2dw12.c ****   /* Set wake up threshold. */
 957:Drivers/BSP/Components/lis2dw12/lis2dw12.c ****   if (lis2dw12_wkup_threshold_set(&(pObj->Ctx), 0x02) != LIS2DW12_OK)
 958:Drivers/BSP/Components/lis2dw12/lis2dw12.c ****   {
 959:Drivers/BSP/Components/lis2dw12/lis2dw12.c ****     return LIS2DW12_ERROR;
 960:Drivers/BSP/Components/lis2dw12/lis2dw12.c ****   }
 961:Drivers/BSP/Components/lis2dw12/lis2dw12.c **** 
 962:Drivers/BSP/Components/lis2dw12/lis2dw12.c ****   if (lis2dw12_pin_int1_route_get(&(pObj->Ctx), &val) != LIS2DW12_OK)
 963:Drivers/BSP/Components/lis2dw12/lis2dw12.c ****   {
 964:Drivers/BSP/Components/lis2dw12/lis2dw12.c ****     return LIS2DW12_ERROR;
 965:Drivers/BSP/Components/lis2dw12/lis2dw12.c ****   }
 966:Drivers/BSP/Components/lis2dw12/lis2dw12.c **** 
 967:Drivers/BSP/Components/lis2dw12/lis2dw12.c ****   val.int1_wu = PROPERTY_ENABLE;
 968:Drivers/BSP/Components/lis2dw12/lis2dw12.c **** 
 969:Drivers/BSP/Components/lis2dw12/lis2dw12.c ****   if (lis2dw12_pin_int1_route_set(&(pObj->Ctx), &val) != LIS2DW12_OK)
 970:Drivers/BSP/Components/lis2dw12/lis2dw12.c ****   {
 971:Drivers/BSP/Components/lis2dw12/lis2dw12.c ****     return LIS2DW12_ERROR;
 972:Drivers/BSP/Components/lis2dw12/lis2dw12.c ****   }
 973:Drivers/BSP/Components/lis2dw12/lis2dw12.c **** 
 974:Drivers/BSP/Components/lis2dw12/lis2dw12.c ****   return ret;
 975:Drivers/BSP/Components/lis2dw12/lis2dw12.c **** }
 976:Drivers/BSP/Components/lis2dw12/lis2dw12.c **** 
 977:Drivers/BSP/Components/lis2dw12/lis2dw12.c **** /**
 978:Drivers/BSP/Components/lis2dw12/lis2dw12.c ****   * @brief  Disable wake up detection
 979:Drivers/BSP/Components/lis2dw12/lis2dw12.c ****   * @param  pObj the device pObj
 980:Drivers/BSP/Components/lis2dw12/lis2dw12.c ****   * @retval 0 in case of success, an error code otherwise
 981:Drivers/BSP/Components/lis2dw12/lis2dw12.c ****   */
 982:Drivers/BSP/Components/lis2dw12/lis2dw12.c **** int32_t LIS2DW12_ACC_Disable_Wake_Up_Detection(LIS2DW12_Object_t *pObj)
 983:Drivers/BSP/Components/lis2dw12/lis2dw12.c **** {
 984:Drivers/BSP/Components/lis2dw12/lis2dw12.c ****   lis2dw12_ctrl4_int1_pad_ctrl_t ctrl4_int1_reg;
 985:Drivers/BSP/Components/lis2dw12/lis2dw12.c ****   lis2dw12_ctrl5_int2_pad_ctrl_t ctrl5_int2_reg;
 986:Drivers/BSP/Components/lis2dw12/lis2dw12.c ****   lis2dw12_ctrl_reg7_t ctrl_reg7;
 987:Drivers/BSP/Components/lis2dw12/lis2dw12.c **** 
 988:Drivers/BSP/Components/lis2dw12/lis2dw12.c ****   /* Disable wake up event on INT1 pin. */
 989:Drivers/BSP/Components/lis2dw12/lis2dw12.c ****   if (lis2dw12_read_reg(&(pObj->Ctx), LIS2DW12_CTRL4_INT1_PAD_CTRL, (uint8_t *)&ctrl4_int1_reg, 1) 
 990:Drivers/BSP/Components/lis2dw12/lis2dw12.c ****   {
 991:Drivers/BSP/Components/lis2dw12/lis2dw12.c ****     return LIS2DW12_ERROR;
 992:Drivers/BSP/Components/lis2dw12/lis2dw12.c ****   }
 993:Drivers/BSP/Components/lis2dw12/lis2dw12.c **** 
 994:Drivers/BSP/Components/lis2dw12/lis2dw12.c ****   ctrl4_int1_reg.int1_wu = PROPERTY_DISABLE;
ARM GAS  /tmp/ccCpEZfe.s 			page 20


 995:Drivers/BSP/Components/lis2dw12/lis2dw12.c **** 
 996:Drivers/BSP/Components/lis2dw12/lis2dw12.c ****   if (lis2dw12_write_reg(&(pObj->Ctx), LIS2DW12_CTRL4_INT1_PAD_CTRL, (uint8_t *)&ctrl4_int1_reg, 1)
 997:Drivers/BSP/Components/lis2dw12/lis2dw12.c ****   {
 998:Drivers/BSP/Components/lis2dw12/lis2dw12.c ****     return LIS2DW12_ERROR;
 999:Drivers/BSP/Components/lis2dw12/lis2dw12.c ****   }
1000:Drivers/BSP/Components/lis2dw12/lis2dw12.c **** 
1001:Drivers/BSP/Components/lis2dw12/lis2dw12.c ****   /* Read INT2 Sleep Change */
1002:Drivers/BSP/Components/lis2dw12/lis2dw12.c ****   if (lis2dw12_read_reg(&(pObj->Ctx), LIS2DW12_CTRL5_INT2_PAD_CTRL, (uint8_t *)&ctrl5_int2_reg, 1) 
1003:Drivers/BSP/Components/lis2dw12/lis2dw12.c ****   {
1004:Drivers/BSP/Components/lis2dw12/lis2dw12.c ****     return LIS2DW12_ERROR;
1005:Drivers/BSP/Components/lis2dw12/lis2dw12.c ****   }
1006:Drivers/BSP/Components/lis2dw12/lis2dw12.c **** 
1007:Drivers/BSP/Components/lis2dw12/lis2dw12.c ****   /*Disable Interrupts bit if none event is still enabled */
1008:Drivers/BSP/Components/lis2dw12/lis2dw12.c ****   if (ctrl5_int2_reg.int2_sleep_chg == 0 && ctrl4_int1_reg.int1_wu == 0 && ctrl4_int1_reg.int1_6d =
1009:Drivers/BSP/Components/lis2dw12/lis2dw12.c ****   {
1010:Drivers/BSP/Components/lis2dw12/lis2dw12.c ****     if (lis2dw12_read_reg(&(pObj->Ctx), LIS2DW12_CTRL_REG7, (uint8_t *)&ctrl_reg7, 1) != LIS2DW12_O
1011:Drivers/BSP/Components/lis2dw12/lis2dw12.c ****     {
1012:Drivers/BSP/Components/lis2dw12/lis2dw12.c ****       return LIS2DW12_ERROR;
1013:Drivers/BSP/Components/lis2dw12/lis2dw12.c ****     }
1014:Drivers/BSP/Components/lis2dw12/lis2dw12.c **** 
1015:Drivers/BSP/Components/lis2dw12/lis2dw12.c ****     ctrl_reg7.interrupts_enable = PROPERTY_DISABLE;
1016:Drivers/BSP/Components/lis2dw12/lis2dw12.c **** 
1017:Drivers/BSP/Components/lis2dw12/lis2dw12.c ****     if (lis2dw12_write_reg(&(pObj->Ctx), LIS2DW12_CTRL_REG7, (uint8_t *)&ctrl_reg7, 1) != LIS2DW12_
1018:Drivers/BSP/Components/lis2dw12/lis2dw12.c ****     {
1019:Drivers/BSP/Components/lis2dw12/lis2dw12.c ****       return LIS2DW12_ERROR;
1020:Drivers/BSP/Components/lis2dw12/lis2dw12.c ****     }
1021:Drivers/BSP/Components/lis2dw12/lis2dw12.c ****   }
1022:Drivers/BSP/Components/lis2dw12/lis2dw12.c **** 
1023:Drivers/BSP/Components/lis2dw12/lis2dw12.c ****   /* Reset wake up threshold. */
1024:Drivers/BSP/Components/lis2dw12/lis2dw12.c ****   if (lis2dw12_wkup_threshold_set(&(pObj->Ctx), 0x00) != LIS2DW12_OK)
1025:Drivers/BSP/Components/lis2dw12/lis2dw12.c ****   {
1026:Drivers/BSP/Components/lis2dw12/lis2dw12.c ****     return LIS2DW12_ERROR;
1027:Drivers/BSP/Components/lis2dw12/lis2dw12.c ****   }
1028:Drivers/BSP/Components/lis2dw12/lis2dw12.c **** 
1029:Drivers/BSP/Components/lis2dw12/lis2dw12.c ****   /* WAKE_DUR setting */
1030:Drivers/BSP/Components/lis2dw12/lis2dw12.c ****   if (lis2dw12_wkup_dur_set(&(pObj->Ctx), 0x00) != LIS2DW12_OK)
1031:Drivers/BSP/Components/lis2dw12/lis2dw12.c ****   {
1032:Drivers/BSP/Components/lis2dw12/lis2dw12.c ****     return LIS2DW12_ERROR;
1033:Drivers/BSP/Components/lis2dw12/lis2dw12.c ****   }
1034:Drivers/BSP/Components/lis2dw12/lis2dw12.c **** 
1035:Drivers/BSP/Components/lis2dw12/lis2dw12.c ****   return LIS2DW12_OK;
1036:Drivers/BSP/Components/lis2dw12/lis2dw12.c **** }
1037:Drivers/BSP/Components/lis2dw12/lis2dw12.c **** 
1038:Drivers/BSP/Components/lis2dw12/lis2dw12.c **** /**
1039:Drivers/BSP/Components/lis2dw12/lis2dw12.c ****   * @brief  Set wake up threshold
1040:Drivers/BSP/Components/lis2dw12/lis2dw12.c ****   * @param  pObj the device pObj
1041:Drivers/BSP/Components/lis2dw12/lis2dw12.c ****   * @param  Threshold wake up detection threshold
1042:Drivers/BSP/Components/lis2dw12/lis2dw12.c ****   * @retval 0 in case of success, an error code otherwise
1043:Drivers/BSP/Components/lis2dw12/lis2dw12.c ****   */
1044:Drivers/BSP/Components/lis2dw12/lis2dw12.c **** int32_t LIS2DW12_ACC_Set_Wake_Up_Threshold(LIS2DW12_Object_t *pObj, uint8_t Threshold)
1045:Drivers/BSP/Components/lis2dw12/lis2dw12.c **** {
1046:Drivers/BSP/Components/lis2dw12/lis2dw12.c ****   /* Set wake up threshold. */
1047:Drivers/BSP/Components/lis2dw12/lis2dw12.c ****   if (lis2dw12_wkup_threshold_set(&(pObj->Ctx), Threshold) != LIS2DW12_OK)
1048:Drivers/BSP/Components/lis2dw12/lis2dw12.c ****   {
1049:Drivers/BSP/Components/lis2dw12/lis2dw12.c ****     return LIS2DW12_ERROR;
1050:Drivers/BSP/Components/lis2dw12/lis2dw12.c ****   }
1051:Drivers/BSP/Components/lis2dw12/lis2dw12.c **** 
ARM GAS  /tmp/ccCpEZfe.s 			page 21


1052:Drivers/BSP/Components/lis2dw12/lis2dw12.c ****   return LIS2DW12_OK;
1053:Drivers/BSP/Components/lis2dw12/lis2dw12.c **** }
1054:Drivers/BSP/Components/lis2dw12/lis2dw12.c **** 
1055:Drivers/BSP/Components/lis2dw12/lis2dw12.c **** /**
1056:Drivers/BSP/Components/lis2dw12/lis2dw12.c ****   * @brief  Set wake up duration
1057:Drivers/BSP/Components/lis2dw12/lis2dw12.c ****   * @param  pObj the device pObj
1058:Drivers/BSP/Components/lis2dw12/lis2dw12.c ****   * @param  Duration wake up detection duration
1059:Drivers/BSP/Components/lis2dw12/lis2dw12.c ****   * @retval 0 in case of success, an error code otherwise
1060:Drivers/BSP/Components/lis2dw12/lis2dw12.c ****   */
1061:Drivers/BSP/Components/lis2dw12/lis2dw12.c **** int32_t LIS2DW12_ACC_Set_Wake_Up_Duration(LIS2DW12_Object_t *pObj, uint8_t Duration)
1062:Drivers/BSP/Components/lis2dw12/lis2dw12.c **** {
1063:Drivers/BSP/Components/lis2dw12/lis2dw12.c ****   /* Set wake up duration. */
1064:Drivers/BSP/Components/lis2dw12/lis2dw12.c ****   if (lis2dw12_wkup_dur_set(&(pObj->Ctx), Duration) != LIS2DW12_OK)
1065:Drivers/BSP/Components/lis2dw12/lis2dw12.c ****   {
1066:Drivers/BSP/Components/lis2dw12/lis2dw12.c ****     return LIS2DW12_ERROR;
1067:Drivers/BSP/Components/lis2dw12/lis2dw12.c ****   }
1068:Drivers/BSP/Components/lis2dw12/lis2dw12.c **** 
1069:Drivers/BSP/Components/lis2dw12/lis2dw12.c ****   return LIS2DW12_OK;
1070:Drivers/BSP/Components/lis2dw12/lis2dw12.c **** }
1071:Drivers/BSP/Components/lis2dw12/lis2dw12.c **** 
1072:Drivers/BSP/Components/lis2dw12/lis2dw12.c **** /**
1073:Drivers/BSP/Components/lis2dw12/lis2dw12.c ****   * @brief  Enable inactivity detection
1074:Drivers/BSP/Components/lis2dw12/lis2dw12.c ****   * @param  pObj the device pObj
1075:Drivers/BSP/Components/lis2dw12/lis2dw12.c ****   * @retval 0 in case of success, an error code otherwise
1076:Drivers/BSP/Components/lis2dw12/lis2dw12.c ****   */
1077:Drivers/BSP/Components/lis2dw12/lis2dw12.c **** int32_t LIS2DW12_ACC_Enable_Inactivity_Detection(LIS2DW12_Object_t *pObj)
1078:Drivers/BSP/Components/lis2dw12/lis2dw12.c **** {
1079:Drivers/BSP/Components/lis2dw12/lis2dw12.c ****   int32_t ret = LIS2DW12_OK;
1080:Drivers/BSP/Components/lis2dw12/lis2dw12.c ****   lis2dw12_ctrl5_int2_pad_ctrl_t val;
1081:Drivers/BSP/Components/lis2dw12/lis2dw12.c **** 
1082:Drivers/BSP/Components/lis2dw12/lis2dw12.c ****   /* Output Data Rate selection */
1083:Drivers/BSP/Components/lis2dw12/lis2dw12.c ****   if (LIS2DW12_ACC_SetOutputDataRate(pObj, 50.0f) != LIS2DW12_OK)
1084:Drivers/BSP/Components/lis2dw12/lis2dw12.c ****   {
1085:Drivers/BSP/Components/lis2dw12/lis2dw12.c ****     return LIS2DW12_ERROR;
1086:Drivers/BSP/Components/lis2dw12/lis2dw12.c ****   }
1087:Drivers/BSP/Components/lis2dw12/lis2dw12.c **** 
1088:Drivers/BSP/Components/lis2dw12/lis2dw12.c ****   /* Full scale selection */
1089:Drivers/BSP/Components/lis2dw12/lis2dw12.c ****   if (LIS2DW12_ACC_SetFullScale(pObj, 2) != LIS2DW12_OK)
1090:Drivers/BSP/Components/lis2dw12/lis2dw12.c ****   {
1091:Drivers/BSP/Components/lis2dw12/lis2dw12.c ****     return LIS2DW12_ERROR;
1092:Drivers/BSP/Components/lis2dw12/lis2dw12.c ****   }
1093:Drivers/BSP/Components/lis2dw12/lis2dw12.c **** 
1094:Drivers/BSP/Components/lis2dw12/lis2dw12.c ****   /* SLEEP_DUR setting */
1095:Drivers/BSP/Components/lis2dw12/lis2dw12.c ****   if (lis2dw12_act_sleep_dur_set(&(pObj->Ctx), 0x01) != LIS2DW12_OK)
1096:Drivers/BSP/Components/lis2dw12/lis2dw12.c ****   {
1097:Drivers/BSP/Components/lis2dw12/lis2dw12.c ****     return LIS2DW12_ERROR;
1098:Drivers/BSP/Components/lis2dw12/lis2dw12.c ****   }
1099:Drivers/BSP/Components/lis2dw12/lis2dw12.c **** 
1100:Drivers/BSP/Components/lis2dw12/lis2dw12.c ****   /* Enable inactivity detection. */
1101:Drivers/BSP/Components/lis2dw12/lis2dw12.c ****   if (lis2dw12_act_mode_set(&(pObj->Ctx), LIS2DW12_DETECT_ACT_INACT) != LIS2DW12_OK)
1102:Drivers/BSP/Components/lis2dw12/lis2dw12.c ****   {
1103:Drivers/BSP/Components/lis2dw12/lis2dw12.c ****     return LIS2DW12_ERROR;
1104:Drivers/BSP/Components/lis2dw12/lis2dw12.c ****   }
1105:Drivers/BSP/Components/lis2dw12/lis2dw12.c **** 
1106:Drivers/BSP/Components/lis2dw12/lis2dw12.c ****   if (lis2dw12_pin_int2_route_get(&(pObj->Ctx), &val) != LIS2DW12_OK)
1107:Drivers/BSP/Components/lis2dw12/lis2dw12.c ****   {
1108:Drivers/BSP/Components/lis2dw12/lis2dw12.c ****     return LIS2DW12_ERROR;
ARM GAS  /tmp/ccCpEZfe.s 			page 22


1109:Drivers/BSP/Components/lis2dw12/lis2dw12.c ****   }
1110:Drivers/BSP/Components/lis2dw12/lis2dw12.c **** 
1111:Drivers/BSP/Components/lis2dw12/lis2dw12.c ****   val.int2_sleep_chg = PROPERTY_ENABLE;
1112:Drivers/BSP/Components/lis2dw12/lis2dw12.c **** 
1113:Drivers/BSP/Components/lis2dw12/lis2dw12.c ****   if (lis2dw12_pin_int2_route_set(&(pObj->Ctx), &val) != LIS2DW12_OK)
1114:Drivers/BSP/Components/lis2dw12/lis2dw12.c ****   {
1115:Drivers/BSP/Components/lis2dw12/lis2dw12.c ****     return LIS2DW12_ERROR;
1116:Drivers/BSP/Components/lis2dw12/lis2dw12.c ****   }
1117:Drivers/BSP/Components/lis2dw12/lis2dw12.c **** 
1118:Drivers/BSP/Components/lis2dw12/lis2dw12.c ****   return ret;
1119:Drivers/BSP/Components/lis2dw12/lis2dw12.c **** }
1120:Drivers/BSP/Components/lis2dw12/lis2dw12.c **** 
1121:Drivers/BSP/Components/lis2dw12/lis2dw12.c **** /**
1122:Drivers/BSP/Components/lis2dw12/lis2dw12.c ****   * @brief  Disable inactivity detection
1123:Drivers/BSP/Components/lis2dw12/lis2dw12.c ****   * @param  pObj the device pObj
1124:Drivers/BSP/Components/lis2dw12/lis2dw12.c ****   * @retval 0 in case of success, an error code otherwise
1125:Drivers/BSP/Components/lis2dw12/lis2dw12.c ****   */
1126:Drivers/BSP/Components/lis2dw12/lis2dw12.c **** int32_t LIS2DW12_ACC_Disable_Inactivity_Detection(LIS2DW12_Object_t *pObj)
1127:Drivers/BSP/Components/lis2dw12/lis2dw12.c **** {
1128:Drivers/BSP/Components/lis2dw12/lis2dw12.c ****   lis2dw12_ctrl4_int1_pad_ctrl_t ctrl4_int1_reg;
1129:Drivers/BSP/Components/lis2dw12/lis2dw12.c ****   lis2dw12_ctrl5_int2_pad_ctrl_t ctrl5_int2_reg;
1130:Drivers/BSP/Components/lis2dw12/lis2dw12.c ****   lis2dw12_ctrl_reg7_t ctrl_reg7;
1131:Drivers/BSP/Components/lis2dw12/lis2dw12.c **** 
1132:Drivers/BSP/Components/lis2dw12/lis2dw12.c ****   /* Disable inactivity event on INT2 pin */
1133:Drivers/BSP/Components/lis2dw12/lis2dw12.c ****   if (lis2dw12_read_reg(&(pObj->Ctx), LIS2DW12_CTRL5_INT2_PAD_CTRL, (uint8_t *)&ctrl5_int2_reg, 1) 
1134:Drivers/BSP/Components/lis2dw12/lis2dw12.c ****   {
1135:Drivers/BSP/Components/lis2dw12/lis2dw12.c ****     return LIS2DW12_ERROR;
1136:Drivers/BSP/Components/lis2dw12/lis2dw12.c ****   }
1137:Drivers/BSP/Components/lis2dw12/lis2dw12.c **** 
1138:Drivers/BSP/Components/lis2dw12/lis2dw12.c ****   ctrl5_int2_reg.int2_sleep_chg = PROPERTY_DISABLE;
1139:Drivers/BSP/Components/lis2dw12/lis2dw12.c **** 
1140:Drivers/BSP/Components/lis2dw12/lis2dw12.c ****   if (lis2dw12_write_reg(&(pObj->Ctx), LIS2DW12_CTRL5_INT2_PAD_CTRL, (uint8_t *)&ctrl5_int2_reg, 1)
1141:Drivers/BSP/Components/lis2dw12/lis2dw12.c ****   {
1142:Drivers/BSP/Components/lis2dw12/lis2dw12.c ****     return LIS2DW12_ERROR;
1143:Drivers/BSP/Components/lis2dw12/lis2dw12.c ****   }
1144:Drivers/BSP/Components/lis2dw12/lis2dw12.c **** 
1145:Drivers/BSP/Components/lis2dw12/lis2dw12.c ****   /* Read INT1 Wake Up event and INT1 6D Orientation event */
1146:Drivers/BSP/Components/lis2dw12/lis2dw12.c ****   if (lis2dw12_read_reg(&(pObj->Ctx), LIS2DW12_CTRL4_INT1_PAD_CTRL, (uint8_t *)&ctrl4_int1_reg, 1) 
1147:Drivers/BSP/Components/lis2dw12/lis2dw12.c ****   {
1148:Drivers/BSP/Components/lis2dw12/lis2dw12.c ****     return LIS2DW12_ERROR;
1149:Drivers/BSP/Components/lis2dw12/lis2dw12.c ****   }
1150:Drivers/BSP/Components/lis2dw12/lis2dw12.c **** 
1151:Drivers/BSP/Components/lis2dw12/lis2dw12.c ****   /*Disable Interrupts bit if none event is still enabled */
1152:Drivers/BSP/Components/lis2dw12/lis2dw12.c ****   if (ctrl5_int2_reg.int2_sleep_chg == 0 && ctrl4_int1_reg.int1_wu == 0 && ctrl4_int1_reg.int1_6d =
1153:Drivers/BSP/Components/lis2dw12/lis2dw12.c ****   {
1154:Drivers/BSP/Components/lis2dw12/lis2dw12.c ****     if (lis2dw12_read_reg(&(pObj->Ctx), LIS2DW12_CTRL_REG7, (uint8_t *)&ctrl_reg7, 1) != LIS2DW12_O
1155:Drivers/BSP/Components/lis2dw12/lis2dw12.c ****     {
1156:Drivers/BSP/Components/lis2dw12/lis2dw12.c ****       return LIS2DW12_ERROR;
1157:Drivers/BSP/Components/lis2dw12/lis2dw12.c ****     }
1158:Drivers/BSP/Components/lis2dw12/lis2dw12.c **** 
1159:Drivers/BSP/Components/lis2dw12/lis2dw12.c ****     ctrl_reg7.interrupts_enable = PROPERTY_DISABLE;
1160:Drivers/BSP/Components/lis2dw12/lis2dw12.c **** 
1161:Drivers/BSP/Components/lis2dw12/lis2dw12.c ****     if (lis2dw12_write_reg(&(pObj->Ctx), LIS2DW12_CTRL_REG7, (uint8_t *)&ctrl_reg7, 1) != LIS2DW12_
1162:Drivers/BSP/Components/lis2dw12/lis2dw12.c ****     {
1163:Drivers/BSP/Components/lis2dw12/lis2dw12.c ****       return LIS2DW12_ERROR;
1164:Drivers/BSP/Components/lis2dw12/lis2dw12.c ****     }
1165:Drivers/BSP/Components/lis2dw12/lis2dw12.c ****   }
ARM GAS  /tmp/ccCpEZfe.s 			page 23


1166:Drivers/BSP/Components/lis2dw12/lis2dw12.c **** 
1167:Drivers/BSP/Components/lis2dw12/lis2dw12.c ****   /* Disable inactivity detection. */
1168:Drivers/BSP/Components/lis2dw12/lis2dw12.c ****   if (lis2dw12_act_mode_set(&(pObj->Ctx), LIS2DW12_NO_DETECTION) != LIS2DW12_OK)
1169:Drivers/BSP/Components/lis2dw12/lis2dw12.c ****   {
1170:Drivers/BSP/Components/lis2dw12/lis2dw12.c ****     return LIS2DW12_ERROR;
1171:Drivers/BSP/Components/lis2dw12/lis2dw12.c ****   }
1172:Drivers/BSP/Components/lis2dw12/lis2dw12.c **** 
1173:Drivers/BSP/Components/lis2dw12/lis2dw12.c ****   /* SLEEP_DUR setting */
1174:Drivers/BSP/Components/lis2dw12/lis2dw12.c ****   if (lis2dw12_act_sleep_dur_set(&(pObj->Ctx), 0x00) != LIS2DW12_OK)
1175:Drivers/BSP/Components/lis2dw12/lis2dw12.c ****   {
1176:Drivers/BSP/Components/lis2dw12/lis2dw12.c ****     return LIS2DW12_ERROR;
1177:Drivers/BSP/Components/lis2dw12/lis2dw12.c ****   }
1178:Drivers/BSP/Components/lis2dw12/lis2dw12.c **** 
1179:Drivers/BSP/Components/lis2dw12/lis2dw12.c ****   return LIS2DW12_OK;
1180:Drivers/BSP/Components/lis2dw12/lis2dw12.c **** }
1181:Drivers/BSP/Components/lis2dw12/lis2dw12.c **** 
1182:Drivers/BSP/Components/lis2dw12/lis2dw12.c **** /**
1183:Drivers/BSP/Components/lis2dw12/lis2dw12.c ****   * @brief  Set sleep duration
1184:Drivers/BSP/Components/lis2dw12/lis2dw12.c ****   * @param  pObj the device pObj
1185:Drivers/BSP/Components/lis2dw12/lis2dw12.c ****   * @param  Duration wake up detection duration
1186:Drivers/BSP/Components/lis2dw12/lis2dw12.c ****   * @retval 0 in case of success, an error code otherwise
1187:Drivers/BSP/Components/lis2dw12/lis2dw12.c ****   */
1188:Drivers/BSP/Components/lis2dw12/lis2dw12.c **** int32_t LIS2DW12_ACC_Set_Sleep_Duration(LIS2DW12_Object_t *pObj, uint8_t Duration)
1189:Drivers/BSP/Components/lis2dw12/lis2dw12.c **** {
1190:Drivers/BSP/Components/lis2dw12/lis2dw12.c ****   /* Set sleep duration. */
1191:Drivers/BSP/Components/lis2dw12/lis2dw12.c ****   if (lis2dw12_act_sleep_dur_set(&(pObj->Ctx), Duration) != LIS2DW12_OK)
1192:Drivers/BSP/Components/lis2dw12/lis2dw12.c ****   {
1193:Drivers/BSP/Components/lis2dw12/lis2dw12.c ****     return LIS2DW12_ERROR;
1194:Drivers/BSP/Components/lis2dw12/lis2dw12.c ****   }
1195:Drivers/BSP/Components/lis2dw12/lis2dw12.c **** 
1196:Drivers/BSP/Components/lis2dw12/lis2dw12.c ****   return LIS2DW12_OK;
1197:Drivers/BSP/Components/lis2dw12/lis2dw12.c **** }
1198:Drivers/BSP/Components/lis2dw12/lis2dw12.c **** 
1199:Drivers/BSP/Components/lis2dw12/lis2dw12.c **** /**
1200:Drivers/BSP/Components/lis2dw12/lis2dw12.c ****   * @brief  Enable 6D orientation detection
1201:Drivers/BSP/Components/lis2dw12/lis2dw12.c ****   * @param  pObj the device pObj
1202:Drivers/BSP/Components/lis2dw12/lis2dw12.c ****   * @retval 0 in case of success, an error code otherwise
1203:Drivers/BSP/Components/lis2dw12/lis2dw12.c ****   */
1204:Drivers/BSP/Components/lis2dw12/lis2dw12.c **** int32_t LIS2DW12_ACC_Enable_6D_Orientation(LIS2DW12_Object_t *pObj)
1205:Drivers/BSP/Components/lis2dw12/lis2dw12.c **** {
1206:Drivers/BSP/Components/lis2dw12/lis2dw12.c ****   int32_t ret = LIS2DW12_OK;
1207:Drivers/BSP/Components/lis2dw12/lis2dw12.c ****   lis2dw12_ctrl4_int1_pad_ctrl_t val;
1208:Drivers/BSP/Components/lis2dw12/lis2dw12.c **** 
1209:Drivers/BSP/Components/lis2dw12/lis2dw12.c ****   /* Output Data Rate selection */
1210:Drivers/BSP/Components/lis2dw12/lis2dw12.c ****   if (LIS2DW12_ACC_SetOutputDataRate(pObj, 200.0f) != LIS2DW12_OK)
1211:Drivers/BSP/Components/lis2dw12/lis2dw12.c ****   {
1212:Drivers/BSP/Components/lis2dw12/lis2dw12.c ****     return LIS2DW12_ERROR;
1213:Drivers/BSP/Components/lis2dw12/lis2dw12.c ****   }
1214:Drivers/BSP/Components/lis2dw12/lis2dw12.c **** 
1215:Drivers/BSP/Components/lis2dw12/lis2dw12.c ****   /* Full scale selection */
1216:Drivers/BSP/Components/lis2dw12/lis2dw12.c ****   if (LIS2DW12_ACC_SetFullScale(pObj, 2) != LIS2DW12_OK)
1217:Drivers/BSP/Components/lis2dw12/lis2dw12.c ****   {
1218:Drivers/BSP/Components/lis2dw12/lis2dw12.c ****     return LIS2DW12_ERROR;
1219:Drivers/BSP/Components/lis2dw12/lis2dw12.c ****   }
1220:Drivers/BSP/Components/lis2dw12/lis2dw12.c **** 
1221:Drivers/BSP/Components/lis2dw12/lis2dw12.c ****   /* 6D orientation threshold. */
1222:Drivers/BSP/Components/lis2dw12/lis2dw12.c ****   if (lis2dw12_6d_threshold_set(&(pObj->Ctx), 2) != LIS2DW12_OK) /* 60 degrees */
ARM GAS  /tmp/ccCpEZfe.s 			page 24


1223:Drivers/BSP/Components/lis2dw12/lis2dw12.c ****   {
1224:Drivers/BSP/Components/lis2dw12/lis2dw12.c ****     return LIS2DW12_ERROR;
1225:Drivers/BSP/Components/lis2dw12/lis2dw12.c ****   }
1226:Drivers/BSP/Components/lis2dw12/lis2dw12.c **** 
1227:Drivers/BSP/Components/lis2dw12/lis2dw12.c ****   /* Enable 6D orientation event on INT1 pin */
1228:Drivers/BSP/Components/lis2dw12/lis2dw12.c ****   if (lis2dw12_pin_int1_route_get(&(pObj->Ctx), &val) != LIS2DW12_OK)
1229:Drivers/BSP/Components/lis2dw12/lis2dw12.c ****   {
1230:Drivers/BSP/Components/lis2dw12/lis2dw12.c ****     return LIS2DW12_ERROR;
1231:Drivers/BSP/Components/lis2dw12/lis2dw12.c ****   }
1232:Drivers/BSP/Components/lis2dw12/lis2dw12.c **** 
1233:Drivers/BSP/Components/lis2dw12/lis2dw12.c ****   val.int1_6d = PROPERTY_ENABLE;
1234:Drivers/BSP/Components/lis2dw12/lis2dw12.c **** 
1235:Drivers/BSP/Components/lis2dw12/lis2dw12.c ****   if (lis2dw12_pin_int1_route_set(&(pObj->Ctx), &val) != LIS2DW12_OK)
1236:Drivers/BSP/Components/lis2dw12/lis2dw12.c ****   {
1237:Drivers/BSP/Components/lis2dw12/lis2dw12.c ****     return LIS2DW12_ERROR;
1238:Drivers/BSP/Components/lis2dw12/lis2dw12.c ****   }
1239:Drivers/BSP/Components/lis2dw12/lis2dw12.c **** 
1240:Drivers/BSP/Components/lis2dw12/lis2dw12.c ****   return ret;
1241:Drivers/BSP/Components/lis2dw12/lis2dw12.c **** }
1242:Drivers/BSP/Components/lis2dw12/lis2dw12.c **** 
1243:Drivers/BSP/Components/lis2dw12/lis2dw12.c **** /**
1244:Drivers/BSP/Components/lis2dw12/lis2dw12.c ****   * @brief  Disable 6D orientation detection
1245:Drivers/BSP/Components/lis2dw12/lis2dw12.c ****   * @param  pObj the device pObj
1246:Drivers/BSP/Components/lis2dw12/lis2dw12.c ****   * @retval 0 in case of success, an error code otherwise
1247:Drivers/BSP/Components/lis2dw12/lis2dw12.c ****   */
1248:Drivers/BSP/Components/lis2dw12/lis2dw12.c **** int32_t LIS2DW12_ACC_Disable_6D_Orientation(LIS2DW12_Object_t *pObj)
1249:Drivers/BSP/Components/lis2dw12/lis2dw12.c **** {
1250:Drivers/BSP/Components/lis2dw12/lis2dw12.c ****   lis2dw12_ctrl4_int1_pad_ctrl_t ctrl4_int1_reg;
1251:Drivers/BSP/Components/lis2dw12/lis2dw12.c ****   lis2dw12_ctrl5_int2_pad_ctrl_t ctrl5_int2_reg;
1252:Drivers/BSP/Components/lis2dw12/lis2dw12.c ****   lis2dw12_ctrl_reg7_t ctrl_reg7;
1253:Drivers/BSP/Components/lis2dw12/lis2dw12.c **** 
1254:Drivers/BSP/Components/lis2dw12/lis2dw12.c ****   /* Disable 6D orientation event on INT1 pin */
1255:Drivers/BSP/Components/lis2dw12/lis2dw12.c ****   if (lis2dw12_read_reg(&(pObj->Ctx), LIS2DW12_CTRL4_INT1_PAD_CTRL, (uint8_t *)&ctrl4_int1_reg, 1) 
1256:Drivers/BSP/Components/lis2dw12/lis2dw12.c ****   {
1257:Drivers/BSP/Components/lis2dw12/lis2dw12.c ****     return LIS2DW12_ERROR;
1258:Drivers/BSP/Components/lis2dw12/lis2dw12.c ****   }
1259:Drivers/BSP/Components/lis2dw12/lis2dw12.c **** 
1260:Drivers/BSP/Components/lis2dw12/lis2dw12.c ****   ctrl4_int1_reg.int1_6d = PROPERTY_DISABLE;
1261:Drivers/BSP/Components/lis2dw12/lis2dw12.c **** 
1262:Drivers/BSP/Components/lis2dw12/lis2dw12.c ****   if (lis2dw12_write_reg(&(pObj->Ctx), LIS2DW12_CTRL4_INT1_PAD_CTRL, (uint8_t *)&ctrl4_int1_reg, 1)
1263:Drivers/BSP/Components/lis2dw12/lis2dw12.c ****   {
1264:Drivers/BSP/Components/lis2dw12/lis2dw12.c ****     return LIS2DW12_ERROR;
1265:Drivers/BSP/Components/lis2dw12/lis2dw12.c ****   }
1266:Drivers/BSP/Components/lis2dw12/lis2dw12.c **** 
1267:Drivers/BSP/Components/lis2dw12/lis2dw12.c ****   /* Read INT2 Sleep Change */
1268:Drivers/BSP/Components/lis2dw12/lis2dw12.c ****   if (lis2dw12_read_reg(&(pObj->Ctx), LIS2DW12_CTRL5_INT2_PAD_CTRL, (uint8_t *)&ctrl5_int2_reg, 1) 
1269:Drivers/BSP/Components/lis2dw12/lis2dw12.c ****   {
1270:Drivers/BSP/Components/lis2dw12/lis2dw12.c ****     return LIS2DW12_ERROR;
1271:Drivers/BSP/Components/lis2dw12/lis2dw12.c ****   }
1272:Drivers/BSP/Components/lis2dw12/lis2dw12.c **** 
1273:Drivers/BSP/Components/lis2dw12/lis2dw12.c ****   /*Disable Interrupts bit if none event is still enabled */
1274:Drivers/BSP/Components/lis2dw12/lis2dw12.c ****   if (ctrl5_int2_reg.int2_sleep_chg == 0 && ctrl4_int1_reg.int1_wu == 0 && ctrl4_int1_reg.int1_6d =
1275:Drivers/BSP/Components/lis2dw12/lis2dw12.c ****   {
1276:Drivers/BSP/Components/lis2dw12/lis2dw12.c ****     if (lis2dw12_read_reg(&(pObj->Ctx), LIS2DW12_CTRL_REG7, (uint8_t *)&ctrl_reg7, 1) != LIS2DW12_O
1277:Drivers/BSP/Components/lis2dw12/lis2dw12.c ****     {
1278:Drivers/BSP/Components/lis2dw12/lis2dw12.c ****       return LIS2DW12_ERROR;
1279:Drivers/BSP/Components/lis2dw12/lis2dw12.c ****     }
ARM GAS  /tmp/ccCpEZfe.s 			page 25


1280:Drivers/BSP/Components/lis2dw12/lis2dw12.c **** 
1281:Drivers/BSP/Components/lis2dw12/lis2dw12.c ****     ctrl_reg7.interrupts_enable = PROPERTY_DISABLE;
1282:Drivers/BSP/Components/lis2dw12/lis2dw12.c **** 
1283:Drivers/BSP/Components/lis2dw12/lis2dw12.c ****     if (lis2dw12_write_reg(&(pObj->Ctx), LIS2DW12_CTRL_REG7, (uint8_t *)&ctrl_reg7, 1) != LIS2DW12_
1284:Drivers/BSP/Components/lis2dw12/lis2dw12.c ****     {
1285:Drivers/BSP/Components/lis2dw12/lis2dw12.c ****       return LIS2DW12_ERROR;
1286:Drivers/BSP/Components/lis2dw12/lis2dw12.c ****     }
1287:Drivers/BSP/Components/lis2dw12/lis2dw12.c ****   }
1288:Drivers/BSP/Components/lis2dw12/lis2dw12.c **** 
1289:Drivers/BSP/Components/lis2dw12/lis2dw12.c ****   /* Reset 6D orientation threshold. */
1290:Drivers/BSP/Components/lis2dw12/lis2dw12.c ****   if (lis2dw12_6d_threshold_set(&(pObj->Ctx), 0) != LIS2DW12_OK)
1291:Drivers/BSP/Components/lis2dw12/lis2dw12.c ****   {
1292:Drivers/BSP/Components/lis2dw12/lis2dw12.c ****     return LIS2DW12_ERROR;
1293:Drivers/BSP/Components/lis2dw12/lis2dw12.c ****   }
1294:Drivers/BSP/Components/lis2dw12/lis2dw12.c **** 
1295:Drivers/BSP/Components/lis2dw12/lis2dw12.c ****   return LIS2DW12_OK;
1296:Drivers/BSP/Components/lis2dw12/lis2dw12.c **** }
1297:Drivers/BSP/Components/lis2dw12/lis2dw12.c **** 
1298:Drivers/BSP/Components/lis2dw12/lis2dw12.c **** /**
1299:Drivers/BSP/Components/lis2dw12/lis2dw12.c ****   * @brief  Set 6D orientation threshold
1300:Drivers/BSP/Components/lis2dw12/lis2dw12.c ****   * @param  pObj the device pObj
1301:Drivers/BSP/Components/lis2dw12/lis2dw12.c ****   * @param  Threshold 6D orientation detection threshold
1302:Drivers/BSP/Components/lis2dw12/lis2dw12.c ****   * @retval 0 in case of success, an error code otherwise
1303:Drivers/BSP/Components/lis2dw12/lis2dw12.c ****   */
1304:Drivers/BSP/Components/lis2dw12/lis2dw12.c **** int32_t LIS2DW12_ACC_Set_6D_Orientation_Threshold(LIS2DW12_Object_t *pObj, uint8_t Threshold)
1305:Drivers/BSP/Components/lis2dw12/lis2dw12.c **** {
1306:Drivers/BSP/Components/lis2dw12/lis2dw12.c ****   if (Threshold > 3)
1307:Drivers/BSP/Components/lis2dw12/lis2dw12.c ****   {
1308:Drivers/BSP/Components/lis2dw12/lis2dw12.c ****     return LIS2DW12_ERROR;
1309:Drivers/BSP/Components/lis2dw12/lis2dw12.c ****   }
1310:Drivers/BSP/Components/lis2dw12/lis2dw12.c **** 
1311:Drivers/BSP/Components/lis2dw12/lis2dw12.c ****   if (lis2dw12_6d_threshold_set(&(pObj->Ctx), Threshold) != LIS2DW12_OK)
1312:Drivers/BSP/Components/lis2dw12/lis2dw12.c ****   {
1313:Drivers/BSP/Components/lis2dw12/lis2dw12.c ****     return LIS2DW12_ERROR;
1314:Drivers/BSP/Components/lis2dw12/lis2dw12.c ****   }
1315:Drivers/BSP/Components/lis2dw12/lis2dw12.c **** 
1316:Drivers/BSP/Components/lis2dw12/lis2dw12.c ****   return LIS2DW12_OK;
1317:Drivers/BSP/Components/lis2dw12/lis2dw12.c **** }
1318:Drivers/BSP/Components/lis2dw12/lis2dw12.c **** 
1319:Drivers/BSP/Components/lis2dw12/lis2dw12.c **** /**
1320:Drivers/BSP/Components/lis2dw12/lis2dw12.c ****   * @brief  Get the status of XLow orientation
1321:Drivers/BSP/Components/lis2dw12/lis2dw12.c ****   * @param  pObj the device pObj
1322:Drivers/BSP/Components/lis2dw12/lis2dw12.c ****   * @param  XLow the status of XLow orientation
1323:Drivers/BSP/Components/lis2dw12/lis2dw12.c ****   * @retval 0 in case of success, an error code otherwise
1324:Drivers/BSP/Components/lis2dw12/lis2dw12.c ****   */
1325:Drivers/BSP/Components/lis2dw12/lis2dw12.c **** int32_t LIS2DW12_ACC_Get_6D_Orientation_XL(LIS2DW12_Object_t *pObj, uint8_t *XLow)
1326:Drivers/BSP/Components/lis2dw12/lis2dw12.c **** {
1327:Drivers/BSP/Components/lis2dw12/lis2dw12.c ****   lis2dw12_sixd_src_t data;
1328:Drivers/BSP/Components/lis2dw12/lis2dw12.c **** 
1329:Drivers/BSP/Components/lis2dw12/lis2dw12.c ****   if (lis2dw12_read_reg(&(pObj->Ctx), LIS2DW12_SIXD_SRC, (uint8_t *)&data, 1) != LIS2DW12_OK)
1330:Drivers/BSP/Components/lis2dw12/lis2dw12.c ****   {
1331:Drivers/BSP/Components/lis2dw12/lis2dw12.c ****     return LIS2DW12_ERROR;
1332:Drivers/BSP/Components/lis2dw12/lis2dw12.c ****   }
1333:Drivers/BSP/Components/lis2dw12/lis2dw12.c **** 
1334:Drivers/BSP/Components/lis2dw12/lis2dw12.c ****   *XLow = data.xl;
1335:Drivers/BSP/Components/lis2dw12/lis2dw12.c **** 
1336:Drivers/BSP/Components/lis2dw12/lis2dw12.c ****   return LIS2DW12_OK;
ARM GAS  /tmp/ccCpEZfe.s 			page 26


1337:Drivers/BSP/Components/lis2dw12/lis2dw12.c **** }
1338:Drivers/BSP/Components/lis2dw12/lis2dw12.c **** 
1339:Drivers/BSP/Components/lis2dw12/lis2dw12.c **** /**
1340:Drivers/BSP/Components/lis2dw12/lis2dw12.c ****   * @brief  Get the status of XHigh orientation
1341:Drivers/BSP/Components/lis2dw12/lis2dw12.c ****   * @param  pObj the device pObj
1342:Drivers/BSP/Components/lis2dw12/lis2dw12.c ****   * @param  XHigh the status of XHigh orientation
1343:Drivers/BSP/Components/lis2dw12/lis2dw12.c ****   * @retval 0 in case of success, an error code otherwise
1344:Drivers/BSP/Components/lis2dw12/lis2dw12.c ****   */
1345:Drivers/BSP/Components/lis2dw12/lis2dw12.c **** int32_t LIS2DW12_ACC_Get_6D_Orientation_XH(LIS2DW12_Object_t *pObj, uint8_t *XHigh)
1346:Drivers/BSP/Components/lis2dw12/lis2dw12.c **** {
1347:Drivers/BSP/Components/lis2dw12/lis2dw12.c ****   lis2dw12_sixd_src_t data;
1348:Drivers/BSP/Components/lis2dw12/lis2dw12.c **** 
1349:Drivers/BSP/Components/lis2dw12/lis2dw12.c ****   if (lis2dw12_read_reg(&(pObj->Ctx), LIS2DW12_SIXD_SRC, (uint8_t *)&data, 1) != LIS2DW12_OK)
1350:Drivers/BSP/Components/lis2dw12/lis2dw12.c ****   {
1351:Drivers/BSP/Components/lis2dw12/lis2dw12.c ****     return LIS2DW12_ERROR;
1352:Drivers/BSP/Components/lis2dw12/lis2dw12.c ****   }
1353:Drivers/BSP/Components/lis2dw12/lis2dw12.c **** 
1354:Drivers/BSP/Components/lis2dw12/lis2dw12.c ****   *XHigh = data.xh;
1355:Drivers/BSP/Components/lis2dw12/lis2dw12.c **** 
1356:Drivers/BSP/Components/lis2dw12/lis2dw12.c ****   return LIS2DW12_OK;
1357:Drivers/BSP/Components/lis2dw12/lis2dw12.c **** }
1358:Drivers/BSP/Components/lis2dw12/lis2dw12.c **** 
1359:Drivers/BSP/Components/lis2dw12/lis2dw12.c **** /**
1360:Drivers/BSP/Components/lis2dw12/lis2dw12.c ****   * @brief  Get the status of YLow orientation
1361:Drivers/BSP/Components/lis2dw12/lis2dw12.c ****   * @param  pObj the device pObj
1362:Drivers/BSP/Components/lis2dw12/lis2dw12.c ****   * @param  YLow the status of YLow orientation
1363:Drivers/BSP/Components/lis2dw12/lis2dw12.c ****   * @retval 0 in case of success, an error code otherwise
1364:Drivers/BSP/Components/lis2dw12/lis2dw12.c ****   */
1365:Drivers/BSP/Components/lis2dw12/lis2dw12.c **** int32_t LIS2DW12_ACC_Get_6D_Orientation_YL(LIS2DW12_Object_t *pObj, uint8_t *YLow)
1366:Drivers/BSP/Components/lis2dw12/lis2dw12.c **** {
1367:Drivers/BSP/Components/lis2dw12/lis2dw12.c ****   lis2dw12_sixd_src_t data;
1368:Drivers/BSP/Components/lis2dw12/lis2dw12.c **** 
1369:Drivers/BSP/Components/lis2dw12/lis2dw12.c ****   if (lis2dw12_read_reg(&(pObj->Ctx), LIS2DW12_SIXD_SRC, (uint8_t *)&data, 1) != LIS2DW12_OK)
1370:Drivers/BSP/Components/lis2dw12/lis2dw12.c ****   {
1371:Drivers/BSP/Components/lis2dw12/lis2dw12.c ****     return LIS2DW12_ERROR;
1372:Drivers/BSP/Components/lis2dw12/lis2dw12.c ****   }
1373:Drivers/BSP/Components/lis2dw12/lis2dw12.c **** 
1374:Drivers/BSP/Components/lis2dw12/lis2dw12.c ****   *YLow = data.yl;
1375:Drivers/BSP/Components/lis2dw12/lis2dw12.c **** 
1376:Drivers/BSP/Components/lis2dw12/lis2dw12.c ****   return LIS2DW12_OK;
1377:Drivers/BSP/Components/lis2dw12/lis2dw12.c **** }
1378:Drivers/BSP/Components/lis2dw12/lis2dw12.c **** 
1379:Drivers/BSP/Components/lis2dw12/lis2dw12.c **** /**
1380:Drivers/BSP/Components/lis2dw12/lis2dw12.c ****   * @brief  Get the status of YHigh orientation
1381:Drivers/BSP/Components/lis2dw12/lis2dw12.c ****   * @param  pObj the device pObj
1382:Drivers/BSP/Components/lis2dw12/lis2dw12.c ****   * @param  YHigh the status of YHigh orientation
1383:Drivers/BSP/Components/lis2dw12/lis2dw12.c ****   * @retval 0 in case of success, an error code otherwise
1384:Drivers/BSP/Components/lis2dw12/lis2dw12.c ****   */
1385:Drivers/BSP/Components/lis2dw12/lis2dw12.c **** int32_t LIS2DW12_ACC_Get_6D_Orientation_YH(LIS2DW12_Object_t *pObj, uint8_t *YHigh)
1386:Drivers/BSP/Components/lis2dw12/lis2dw12.c **** {
1387:Drivers/BSP/Components/lis2dw12/lis2dw12.c ****   lis2dw12_sixd_src_t data;
1388:Drivers/BSP/Components/lis2dw12/lis2dw12.c **** 
1389:Drivers/BSP/Components/lis2dw12/lis2dw12.c ****   if (lis2dw12_read_reg(&(pObj->Ctx), LIS2DW12_SIXD_SRC, (uint8_t *)&data, 1) != LIS2DW12_OK)
1390:Drivers/BSP/Components/lis2dw12/lis2dw12.c ****   {
1391:Drivers/BSP/Components/lis2dw12/lis2dw12.c ****     return LIS2DW12_ERROR;
1392:Drivers/BSP/Components/lis2dw12/lis2dw12.c ****   }
1393:Drivers/BSP/Components/lis2dw12/lis2dw12.c **** 
ARM GAS  /tmp/ccCpEZfe.s 			page 27


1394:Drivers/BSP/Components/lis2dw12/lis2dw12.c ****   *YHigh = data.yh;
1395:Drivers/BSP/Components/lis2dw12/lis2dw12.c **** 
1396:Drivers/BSP/Components/lis2dw12/lis2dw12.c ****   return LIS2DW12_OK;
1397:Drivers/BSP/Components/lis2dw12/lis2dw12.c **** }
1398:Drivers/BSP/Components/lis2dw12/lis2dw12.c **** 
1399:Drivers/BSP/Components/lis2dw12/lis2dw12.c **** /**
1400:Drivers/BSP/Components/lis2dw12/lis2dw12.c ****   * @brief  Get the status of ZLow orientation
1401:Drivers/BSP/Components/lis2dw12/lis2dw12.c ****   * @param  pObj the device pObj
1402:Drivers/BSP/Components/lis2dw12/lis2dw12.c ****   * @param  ZLow the status of ZLow orientation
1403:Drivers/BSP/Components/lis2dw12/lis2dw12.c ****   * @retval 0 in case of success, an error code otherwise
1404:Drivers/BSP/Components/lis2dw12/lis2dw12.c ****   */
1405:Drivers/BSP/Components/lis2dw12/lis2dw12.c **** int32_t LIS2DW12_ACC_Get_6D_Orientation_ZL(LIS2DW12_Object_t *pObj, uint8_t *ZLow)
1406:Drivers/BSP/Components/lis2dw12/lis2dw12.c **** {
1407:Drivers/BSP/Components/lis2dw12/lis2dw12.c ****   lis2dw12_sixd_src_t data;
1408:Drivers/BSP/Components/lis2dw12/lis2dw12.c **** 
1409:Drivers/BSP/Components/lis2dw12/lis2dw12.c ****   if (lis2dw12_read_reg(&(pObj->Ctx), LIS2DW12_SIXD_SRC, (uint8_t *)&data, 1) != LIS2DW12_OK)
1410:Drivers/BSP/Components/lis2dw12/lis2dw12.c ****   {
1411:Drivers/BSP/Components/lis2dw12/lis2dw12.c ****     return LIS2DW12_ERROR;
1412:Drivers/BSP/Components/lis2dw12/lis2dw12.c ****   }
1413:Drivers/BSP/Components/lis2dw12/lis2dw12.c **** 
1414:Drivers/BSP/Components/lis2dw12/lis2dw12.c ****   *ZLow = data.zl;
1415:Drivers/BSP/Components/lis2dw12/lis2dw12.c **** 
1416:Drivers/BSP/Components/lis2dw12/lis2dw12.c ****   return LIS2DW12_OK;
1417:Drivers/BSP/Components/lis2dw12/lis2dw12.c **** }
1418:Drivers/BSP/Components/lis2dw12/lis2dw12.c **** 
1419:Drivers/BSP/Components/lis2dw12/lis2dw12.c **** /**
1420:Drivers/BSP/Components/lis2dw12/lis2dw12.c ****   * @brief  Get the status of ZHigh orientation
1421:Drivers/BSP/Components/lis2dw12/lis2dw12.c ****   * @param  pObj the device pObj
1422:Drivers/BSP/Components/lis2dw12/lis2dw12.c ****   * @param  ZHigh the status of ZHigh orientation
1423:Drivers/BSP/Components/lis2dw12/lis2dw12.c ****   * @retval 0 in case of success, an error code otherwise
1424:Drivers/BSP/Components/lis2dw12/lis2dw12.c ****   */
1425:Drivers/BSP/Components/lis2dw12/lis2dw12.c **** int32_t LIS2DW12_ACC_Get_6D_Orientation_ZH(LIS2DW12_Object_t *pObj, uint8_t *ZHigh)
1426:Drivers/BSP/Components/lis2dw12/lis2dw12.c **** {
1427:Drivers/BSP/Components/lis2dw12/lis2dw12.c ****   lis2dw12_sixd_src_t data;
1428:Drivers/BSP/Components/lis2dw12/lis2dw12.c **** 
1429:Drivers/BSP/Components/lis2dw12/lis2dw12.c ****   if (lis2dw12_read_reg(&(pObj->Ctx), LIS2DW12_SIXD_SRC, (uint8_t *)&data, 1) != LIS2DW12_OK)
1430:Drivers/BSP/Components/lis2dw12/lis2dw12.c ****   {
1431:Drivers/BSP/Components/lis2dw12/lis2dw12.c ****     return LIS2DW12_ERROR;
1432:Drivers/BSP/Components/lis2dw12/lis2dw12.c ****   }
1433:Drivers/BSP/Components/lis2dw12/lis2dw12.c **** 
1434:Drivers/BSP/Components/lis2dw12/lis2dw12.c ****   *ZHigh = data.zh;
1435:Drivers/BSP/Components/lis2dw12/lis2dw12.c **** 
1436:Drivers/BSP/Components/lis2dw12/lis2dw12.c ****   return LIS2DW12_OK;
1437:Drivers/BSP/Components/lis2dw12/lis2dw12.c **** }
1438:Drivers/BSP/Components/lis2dw12/lis2dw12.c **** 
1439:Drivers/BSP/Components/lis2dw12/lis2dw12.c **** /**
1440:Drivers/BSP/Components/lis2dw12/lis2dw12.c ****   * @brief  Get the status of all hardware events
1441:Drivers/BSP/Components/lis2dw12/lis2dw12.c ****   * @param  pObj the device pObj
1442:Drivers/BSP/Components/lis2dw12/lis2dw12.c ****   * @param  Status the status of all hardware events
1443:Drivers/BSP/Components/lis2dw12/lis2dw12.c ****   * @retval 0 in case of success, an error code otherwise
1444:Drivers/BSP/Components/lis2dw12/lis2dw12.c ****   */
1445:Drivers/BSP/Components/lis2dw12/lis2dw12.c **** int32_t LIS2DW12_ACC_Get_Event_Status(LIS2DW12_Object_t *pObj, LIS2DW12_Event_Status_t *Status)
1446:Drivers/BSP/Components/lis2dw12/lis2dw12.c **** {
1447:Drivers/BSP/Components/lis2dw12/lis2dw12.c ****   lis2dw12_status_t status_reg;
1448:Drivers/BSP/Components/lis2dw12/lis2dw12.c ****   lis2dw12_ctrl4_int1_pad_ctrl_t ctrl4_int1_reg;
1449:Drivers/BSP/Components/lis2dw12/lis2dw12.c ****   lis2dw12_ctrl5_int2_pad_ctrl_t ctrl5_int2_reg;
1450:Drivers/BSP/Components/lis2dw12/lis2dw12.c **** 
ARM GAS  /tmp/ccCpEZfe.s 			page 28


1451:Drivers/BSP/Components/lis2dw12/lis2dw12.c ****   (void)memset((void *)Status, 0x0, sizeof(LIS2DW12_Event_Status_t));
1452:Drivers/BSP/Components/lis2dw12/lis2dw12.c **** 
1453:Drivers/BSP/Components/lis2dw12/lis2dw12.c ****   if (lis2dw12_read_reg(&(pObj->Ctx), LIS2DW12_STATUS, (uint8_t *)&status_reg, 1) != LIS2DW12_OK)
1454:Drivers/BSP/Components/lis2dw12/lis2dw12.c ****   {
1455:Drivers/BSP/Components/lis2dw12/lis2dw12.c ****     return LIS2DW12_ERROR;
1456:Drivers/BSP/Components/lis2dw12/lis2dw12.c ****   }
1457:Drivers/BSP/Components/lis2dw12/lis2dw12.c **** 
1458:Drivers/BSP/Components/lis2dw12/lis2dw12.c ****   if (lis2dw12_read_reg(&(pObj->Ctx), LIS2DW12_CTRL4_INT1_PAD_CTRL, (uint8_t *)&ctrl4_int1_reg, 1) 
1459:Drivers/BSP/Components/lis2dw12/lis2dw12.c ****   {
1460:Drivers/BSP/Components/lis2dw12/lis2dw12.c ****     return LIS2DW12_ERROR;
1461:Drivers/BSP/Components/lis2dw12/lis2dw12.c ****   }
1462:Drivers/BSP/Components/lis2dw12/lis2dw12.c **** 
1463:Drivers/BSP/Components/lis2dw12/lis2dw12.c ****   if (lis2dw12_read_reg(&(pObj->Ctx), LIS2DW12_CTRL5_INT2_PAD_CTRL, (uint8_t *)&ctrl5_int2_reg, 1) 
1464:Drivers/BSP/Components/lis2dw12/lis2dw12.c ****   {
1465:Drivers/BSP/Components/lis2dw12/lis2dw12.c ****     return LIS2DW12_ERROR;
1466:Drivers/BSP/Components/lis2dw12/lis2dw12.c ****   }
1467:Drivers/BSP/Components/lis2dw12/lis2dw12.c **** 
1468:Drivers/BSP/Components/lis2dw12/lis2dw12.c ****   if (ctrl4_int1_reg.int1_wu == 1U)
1469:Drivers/BSP/Components/lis2dw12/lis2dw12.c ****   {
1470:Drivers/BSP/Components/lis2dw12/lis2dw12.c ****     if (status_reg.wu_ia == 1U)
1471:Drivers/BSP/Components/lis2dw12/lis2dw12.c ****     {
1472:Drivers/BSP/Components/lis2dw12/lis2dw12.c ****       Status->WakeUpStatus = 1;
1473:Drivers/BSP/Components/lis2dw12/lis2dw12.c ****     }
1474:Drivers/BSP/Components/lis2dw12/lis2dw12.c ****   }
1475:Drivers/BSP/Components/lis2dw12/lis2dw12.c **** 
1476:Drivers/BSP/Components/lis2dw12/lis2dw12.c ****   if (ctrl4_int1_reg.int1_6d == 1U)
1477:Drivers/BSP/Components/lis2dw12/lis2dw12.c ****   {
1478:Drivers/BSP/Components/lis2dw12/lis2dw12.c ****     if (status_reg._6d_ia == 1U)
1479:Drivers/BSP/Components/lis2dw12/lis2dw12.c ****     {
1480:Drivers/BSP/Components/lis2dw12/lis2dw12.c ****       Status->D6DOrientationStatus = 1;
1481:Drivers/BSP/Components/lis2dw12/lis2dw12.c ****     }
1482:Drivers/BSP/Components/lis2dw12/lis2dw12.c ****   }
1483:Drivers/BSP/Components/lis2dw12/lis2dw12.c **** 
1484:Drivers/BSP/Components/lis2dw12/lis2dw12.c ****   if (ctrl5_int2_reg.int2_sleep_chg == 1U)
1485:Drivers/BSP/Components/lis2dw12/lis2dw12.c ****   {
1486:Drivers/BSP/Components/lis2dw12/lis2dw12.c ****     if (status_reg.sleep_state == 1U)
1487:Drivers/BSP/Components/lis2dw12/lis2dw12.c ****     {
1488:Drivers/BSP/Components/lis2dw12/lis2dw12.c ****       Status->SleepStatus = 1;
1489:Drivers/BSP/Components/lis2dw12/lis2dw12.c ****     }
1490:Drivers/BSP/Components/lis2dw12/lis2dw12.c ****   }
1491:Drivers/BSP/Components/lis2dw12/lis2dw12.c **** 
1492:Drivers/BSP/Components/lis2dw12/lis2dw12.c ****   return LIS2DW12_OK;
1493:Drivers/BSP/Components/lis2dw12/lis2dw12.c **** }
1494:Drivers/BSP/Components/lis2dw12/lis2dw12.c **** 
1495:Drivers/BSP/Components/lis2dw12/lis2dw12.c **** /**
1496:Drivers/BSP/Components/lis2dw12/lis2dw12.c ****   * @brief  Set self test
1497:Drivers/BSP/Components/lis2dw12/lis2dw12.c ****   * @param  pObj the device pObj
1498:Drivers/BSP/Components/lis2dw12/lis2dw12.c ****   * @param  Val the value of ST in reg CTRL3
1499:Drivers/BSP/Components/lis2dw12/lis2dw12.c ****   * @retval 0 in case of success, an error code otherwise
1500:Drivers/BSP/Components/lis2dw12/lis2dw12.c ****   */
1501:Drivers/BSP/Components/lis2dw12/lis2dw12.c **** int32_t LIS2DW12_ACC_Set_SelfTest(LIS2DW12_Object_t *pObj, uint8_t Val)
1502:Drivers/BSP/Components/lis2dw12/lis2dw12.c **** {
1503:Drivers/BSP/Components/lis2dw12/lis2dw12.c ****   lis2dw12_st_t reg;
1504:Drivers/BSP/Components/lis2dw12/lis2dw12.c **** 
1505:Drivers/BSP/Components/lis2dw12/lis2dw12.c ****   if (Val > 2U)
1506:Drivers/BSP/Components/lis2dw12/lis2dw12.c ****   {
1507:Drivers/BSP/Components/lis2dw12/lis2dw12.c ****     return LIS2DW12_ERROR;
ARM GAS  /tmp/ccCpEZfe.s 			page 29


1508:Drivers/BSP/Components/lis2dw12/lis2dw12.c ****   }
1509:Drivers/BSP/Components/lis2dw12/lis2dw12.c **** 
1510:Drivers/BSP/Components/lis2dw12/lis2dw12.c ****   reg = (Val == 0U)  ? LIS2DW12_XL_ST_DISABLE
1511:Drivers/BSP/Components/lis2dw12/lis2dw12.c ****         : (Val == 1U)  ? LIS2DW12_XL_ST_POSITIVE
1512:Drivers/BSP/Components/lis2dw12/lis2dw12.c ****         :                LIS2DW12_XL_ST_NEGATIVE;
1513:Drivers/BSP/Components/lis2dw12/lis2dw12.c **** 
1514:Drivers/BSP/Components/lis2dw12/lis2dw12.c ****   if (lis2dw12_self_test_set(&(pObj->Ctx), reg) != LIS2DW12_OK)
1515:Drivers/BSP/Components/lis2dw12/lis2dw12.c ****   {
1516:Drivers/BSP/Components/lis2dw12/lis2dw12.c ****     return LIS2DW12_ERROR;
1517:Drivers/BSP/Components/lis2dw12/lis2dw12.c ****   }
1518:Drivers/BSP/Components/lis2dw12/lis2dw12.c **** 
1519:Drivers/BSP/Components/lis2dw12/lis2dw12.c ****   return LIS2DW12_OK;
1520:Drivers/BSP/Components/lis2dw12/lis2dw12.c **** }
1521:Drivers/BSP/Components/lis2dw12/lis2dw12.c **** 
1522:Drivers/BSP/Components/lis2dw12/lis2dw12.c **** /**
1523:Drivers/BSP/Components/lis2dw12/lis2dw12.c ****   * @brief  Get the LIS2DW12 ACC data ready bit value
1524:Drivers/BSP/Components/lis2dw12/lis2dw12.c ****   * @param  pObj the device pObj
1525:Drivers/BSP/Components/lis2dw12/lis2dw12.c ****   * @param  Status the status of data ready bit
1526:Drivers/BSP/Components/lis2dw12/lis2dw12.c ****   * @retval 0 in case of success, an error code otherwise
1527:Drivers/BSP/Components/lis2dw12/lis2dw12.c ****   */
1528:Drivers/BSP/Components/lis2dw12/lis2dw12.c **** int32_t LIS2DW12_ACC_Get_DRDY_Status(LIS2DW12_Object_t *pObj, uint8_t *Status)
1529:Drivers/BSP/Components/lis2dw12/lis2dw12.c **** {
1530:Drivers/BSP/Components/lis2dw12/lis2dw12.c ****   if (lis2dw12_flag_data_ready_get(&(pObj->Ctx), Status) != LIS2DW12_OK)
1531:Drivers/BSP/Components/lis2dw12/lis2dw12.c ****   {
1532:Drivers/BSP/Components/lis2dw12/lis2dw12.c ****     return LIS2DW12_ERROR;
1533:Drivers/BSP/Components/lis2dw12/lis2dw12.c ****   }
1534:Drivers/BSP/Components/lis2dw12/lis2dw12.c **** 
1535:Drivers/BSP/Components/lis2dw12/lis2dw12.c ****   return LIS2DW12_OK;
1536:Drivers/BSP/Components/lis2dw12/lis2dw12.c **** }
1537:Drivers/BSP/Components/lis2dw12/lis2dw12.c **** 
1538:Drivers/BSP/Components/lis2dw12/lis2dw12.c **** /**
1539:Drivers/BSP/Components/lis2dw12/lis2dw12.c ****   * @brief  Get the LIS2DW12 ACC initialization status
1540:Drivers/BSP/Components/lis2dw12/lis2dw12.c ****   * @param  pObj the device pObj
1541:Drivers/BSP/Components/lis2dw12/lis2dw12.c ****   * @param  Status 1 if initialized, 0 otherwise
1542:Drivers/BSP/Components/lis2dw12/lis2dw12.c ****   * @retval 0 in case of success, an error code otherwise
1543:Drivers/BSP/Components/lis2dw12/lis2dw12.c ****   */
1544:Drivers/BSP/Components/lis2dw12/lis2dw12.c **** int32_t LIS2DW12_ACC_Get_Init_Status(LIS2DW12_Object_t *pObj, uint8_t *Status)
1545:Drivers/BSP/Components/lis2dw12/lis2dw12.c **** {
1546:Drivers/BSP/Components/lis2dw12/lis2dw12.c ****   if (pObj == NULL)
1547:Drivers/BSP/Components/lis2dw12/lis2dw12.c ****   {
1548:Drivers/BSP/Components/lis2dw12/lis2dw12.c ****     return LIS2DW12_ERROR;
1549:Drivers/BSP/Components/lis2dw12/lis2dw12.c ****   }
1550:Drivers/BSP/Components/lis2dw12/lis2dw12.c **** 
1551:Drivers/BSP/Components/lis2dw12/lis2dw12.c ****   *Status = pObj->is_initialized;
1552:Drivers/BSP/Components/lis2dw12/lis2dw12.c **** 
1553:Drivers/BSP/Components/lis2dw12/lis2dw12.c ****   return LIS2DW12_OK;
1554:Drivers/BSP/Components/lis2dw12/lis2dw12.c **** }
1555:Drivers/BSP/Components/lis2dw12/lis2dw12.c **** 
1556:Drivers/BSP/Components/lis2dw12/lis2dw12.c **** /**
1557:Drivers/BSP/Components/lis2dw12/lis2dw12.c ****   * @brief  Get the number of samples contained into the FIFO
1558:Drivers/BSP/Components/lis2dw12/lis2dw12.c ****   * @param  pObj the device pObj
1559:Drivers/BSP/Components/lis2dw12/lis2dw12.c ****   * @param  NumSamples the number of samples contained into the FIFO
1560:Drivers/BSP/Components/lis2dw12/lis2dw12.c ****   * @retval 0 in case of success, an error code otherwise
1561:Drivers/BSP/Components/lis2dw12/lis2dw12.c ****   */
1562:Drivers/BSP/Components/lis2dw12/lis2dw12.c **** int32_t LIS2DW12_FIFO_Get_Num_Samples(LIS2DW12_Object_t *pObj, uint16_t *NumSamples)
1563:Drivers/BSP/Components/lis2dw12/lis2dw12.c **** {
1564:Drivers/BSP/Components/lis2dw12/lis2dw12.c ****   lis2dw12_fifo_samples_t FIFO_Samples;
ARM GAS  /tmp/ccCpEZfe.s 			page 30


1565:Drivers/BSP/Components/lis2dw12/lis2dw12.c **** 
1566:Drivers/BSP/Components/lis2dw12/lis2dw12.c ****   if (lis2dw12_read_reg(&(pObj->Ctx), LIS2DW12_FIFO_SAMPLES, (uint8_t *)&FIFO_Samples, 1) != LIS2DW
1567:Drivers/BSP/Components/lis2dw12/lis2dw12.c ****   {
1568:Drivers/BSP/Components/lis2dw12/lis2dw12.c ****     return LIS2DW12_ERROR;
1569:Drivers/BSP/Components/lis2dw12/lis2dw12.c ****   }
1570:Drivers/BSP/Components/lis2dw12/lis2dw12.c **** 
1571:Drivers/BSP/Components/lis2dw12/lis2dw12.c ****   if (FIFO_Samples.diff == 0x20)
1572:Drivers/BSP/Components/lis2dw12/lis2dw12.c ****   {
1573:Drivers/BSP/Components/lis2dw12/lis2dw12.c ****     *NumSamples = 32;
1574:Drivers/BSP/Components/lis2dw12/lis2dw12.c ****   }
1575:Drivers/BSP/Components/lis2dw12/lis2dw12.c ****   else
1576:Drivers/BSP/Components/lis2dw12/lis2dw12.c ****   {
1577:Drivers/BSP/Components/lis2dw12/lis2dw12.c ****     *NumSamples = FIFO_Samples.diff;
1578:Drivers/BSP/Components/lis2dw12/lis2dw12.c ****   }
1579:Drivers/BSP/Components/lis2dw12/lis2dw12.c **** 
1580:Drivers/BSP/Components/lis2dw12/lis2dw12.c ****   return LIS2DW12_OK;
1581:Drivers/BSP/Components/lis2dw12/lis2dw12.c **** }
1582:Drivers/BSP/Components/lis2dw12/lis2dw12.c **** 
1583:Drivers/BSP/Components/lis2dw12/lis2dw12.c **** /**
1584:Drivers/BSP/Components/lis2dw12/lis2dw12.c ****   * @brief  Set the FIFO mode
1585:Drivers/BSP/Components/lis2dw12/lis2dw12.c ****   * @param  pObj the device pObj
1586:Drivers/BSP/Components/lis2dw12/lis2dw12.c ****   * @param  Mode FIFO mode
1587:Drivers/BSP/Components/lis2dw12/lis2dw12.c ****   * @retval 0 in case of success, an error code otherwise
1588:Drivers/BSP/Components/lis2dw12/lis2dw12.c ****   */
1589:Drivers/BSP/Components/lis2dw12/lis2dw12.c **** int32_t LIS2DW12_FIFO_Set_Mode(LIS2DW12_Object_t *pObj, uint8_t Mode)
1590:Drivers/BSP/Components/lis2dw12/lis2dw12.c **** {
1591:Drivers/BSP/Components/lis2dw12/lis2dw12.c ****   int32_t ret = LIS2DW12_OK;
1592:Drivers/BSP/Components/lis2dw12/lis2dw12.c **** 
1593:Drivers/BSP/Components/lis2dw12/lis2dw12.c ****   /* Verify that the passed parameter contains one of the valid values. */
1594:Drivers/BSP/Components/lis2dw12/lis2dw12.c ****   switch ((lis2dw12_fmode_t)Mode)
1595:Drivers/BSP/Components/lis2dw12/lis2dw12.c ****   {
1596:Drivers/BSP/Components/lis2dw12/lis2dw12.c ****     case LIS2DW12_BYPASS_MODE:
1597:Drivers/BSP/Components/lis2dw12/lis2dw12.c ****     case LIS2DW12_FIFO_MODE:
1598:Drivers/BSP/Components/lis2dw12/lis2dw12.c ****     case LIS2DW12_STREAM_TO_FIFO_MODE:
1599:Drivers/BSP/Components/lis2dw12/lis2dw12.c ****     case LIS2DW12_BYPASS_TO_STREAM_MODE:
1600:Drivers/BSP/Components/lis2dw12/lis2dw12.c ****     case LIS2DW12_STREAM_MODE:
1601:Drivers/BSP/Components/lis2dw12/lis2dw12.c ****       break;
1602:Drivers/BSP/Components/lis2dw12/lis2dw12.c **** 
1603:Drivers/BSP/Components/lis2dw12/lis2dw12.c ****     default:
1604:Drivers/BSP/Components/lis2dw12/lis2dw12.c ****       ret = LIS2DW12_ERROR;
1605:Drivers/BSP/Components/lis2dw12/lis2dw12.c ****       break;
1606:Drivers/BSP/Components/lis2dw12/lis2dw12.c ****   }
1607:Drivers/BSP/Components/lis2dw12/lis2dw12.c **** 
1608:Drivers/BSP/Components/lis2dw12/lis2dw12.c ****   if (ret == LIS2DW12_ERROR)
1609:Drivers/BSP/Components/lis2dw12/lis2dw12.c ****   {
1610:Drivers/BSP/Components/lis2dw12/lis2dw12.c ****     return ret;
1611:Drivers/BSP/Components/lis2dw12/lis2dw12.c ****   }
1612:Drivers/BSP/Components/lis2dw12/lis2dw12.c **** 
1613:Drivers/BSP/Components/lis2dw12/lis2dw12.c ****   if (lis2dw12_fifo_mode_set(&(pObj->Ctx), (lis2dw12_fmode_t)Mode) != LIS2DW12_OK)
1614:Drivers/BSP/Components/lis2dw12/lis2dw12.c ****   {
1615:Drivers/BSP/Components/lis2dw12/lis2dw12.c ****     return LIS2DW12_ERROR;
1616:Drivers/BSP/Components/lis2dw12/lis2dw12.c ****   }
1617:Drivers/BSP/Components/lis2dw12/lis2dw12.c **** 
1618:Drivers/BSP/Components/lis2dw12/lis2dw12.c ****   return ret;
1619:Drivers/BSP/Components/lis2dw12/lis2dw12.c **** }
1620:Drivers/BSP/Components/lis2dw12/lis2dw12.c **** 
1621:Drivers/BSP/Components/lis2dw12/lis2dw12.c **** /**
ARM GAS  /tmp/ccCpEZfe.s 			page 31


1622:Drivers/BSP/Components/lis2dw12/lis2dw12.c ****   * @}
1623:Drivers/BSP/Components/lis2dw12/lis2dw12.c ****   */
1624:Drivers/BSP/Components/lis2dw12/lis2dw12.c **** 
1625:Drivers/BSP/Components/lis2dw12/lis2dw12.c **** /** @defgroup LIS2DW12_Private_Functions LIS2DW12 Private Functions
1626:Drivers/BSP/Components/lis2dw12/lis2dw12.c ****   * @{
1627:Drivers/BSP/Components/lis2dw12/lis2dw12.c ****   */
1628:Drivers/BSP/Components/lis2dw12/lis2dw12.c **** 
1629:Drivers/BSP/Components/lis2dw12/lis2dw12.c **** /**
1630:Drivers/BSP/Components/lis2dw12/lis2dw12.c ****   * @brief  Set the LIS2DW12 accelerometer sensor output data rate when enabled
1631:Drivers/BSP/Components/lis2dw12/lis2dw12.c ****   * @param  pObj the device pObj
1632:Drivers/BSP/Components/lis2dw12/lis2dw12.c ****   * @param  Odr the functional output data rate to be set
1633:Drivers/BSP/Components/lis2dw12/lis2dw12.c ****   * @param  Mode the operating mode to be used
1634:Drivers/BSP/Components/lis2dw12/lis2dw12.c ****   * @param  Noise the low noise option
1635:Drivers/BSP/Components/lis2dw12/lis2dw12.c ****   * @retval 0 in case of success, an error code otherwise
1636:Drivers/BSP/Components/lis2dw12/lis2dw12.c ****   */
1637:Drivers/BSP/Components/lis2dw12/lis2dw12.c **** static int32_t LIS2DW12_ACC_SetOutputDataRate_When_Enabled(LIS2DW12_Object_t *pObj, float Odr,
1638:Drivers/BSP/Components/lis2dw12/lis2dw12.c ****                                                            LIS2DW12_Operating_Mode_t Mode, LIS2DW12
1639:Drivers/BSP/Components/lis2dw12/lis2dw12.c **** {
1640:Drivers/BSP/Components/lis2dw12/lis2dw12.c ****   lis2dw12_odr_t new_odr;
1641:Drivers/BSP/Components/lis2dw12/lis2dw12.c ****   lis2dw12_mode_t new_power_mode;
1642:Drivers/BSP/Components/lis2dw12/lis2dw12.c **** 
1643:Drivers/BSP/Components/lis2dw12/lis2dw12.c ****   switch (Mode)
1644:Drivers/BSP/Components/lis2dw12/lis2dw12.c ****   {
1645:Drivers/BSP/Components/lis2dw12/lis2dw12.c ****     case LIS2DW12_HIGH_PERFORMANCE_MODE:
1646:Drivers/BSP/Components/lis2dw12/lis2dw12.c ****     default:
1647:Drivers/BSP/Components/lis2dw12/lis2dw12.c ****       switch (Noise)
1648:Drivers/BSP/Components/lis2dw12/lis2dw12.c ****       {
1649:Drivers/BSP/Components/lis2dw12/lis2dw12.c ****         case LIS2DW12_LOW_NOISE_DISABLE:
1650:Drivers/BSP/Components/lis2dw12/lis2dw12.c ****         default:
1651:Drivers/BSP/Components/lis2dw12/lis2dw12.c ****           new_power_mode = LIS2DW12_HIGH_PERFORMANCE;
1652:Drivers/BSP/Components/lis2dw12/lis2dw12.c ****           break;
1653:Drivers/BSP/Components/lis2dw12/lis2dw12.c ****         case LIS2DW12_LOW_NOISE_ENABLE:
1654:Drivers/BSP/Components/lis2dw12/lis2dw12.c ****           new_power_mode = LIS2DW12_HIGH_PERFORMANCE_LOW_NOISE;
1655:Drivers/BSP/Components/lis2dw12/lis2dw12.c ****           break;
1656:Drivers/BSP/Components/lis2dw12/lis2dw12.c ****       }
1657:Drivers/BSP/Components/lis2dw12/lis2dw12.c **** 
1658:Drivers/BSP/Components/lis2dw12/lis2dw12.c ****       /* If High Performance mode minimum ODR is 12.5Hz */
1659:Drivers/BSP/Components/lis2dw12/lis2dw12.c ****       if (Odr < 12.5f)
1660:Drivers/BSP/Components/lis2dw12/lis2dw12.c ****       {
1661:Drivers/BSP/Components/lis2dw12/lis2dw12.c ****         Odr = 12.5f;
1662:Drivers/BSP/Components/lis2dw12/lis2dw12.c ****       }
1663:Drivers/BSP/Components/lis2dw12/lis2dw12.c ****       break;
1664:Drivers/BSP/Components/lis2dw12/lis2dw12.c ****     case LIS2DW12_LOW_POWER_MODE4:
1665:Drivers/BSP/Components/lis2dw12/lis2dw12.c ****       switch (Noise)
1666:Drivers/BSP/Components/lis2dw12/lis2dw12.c ****       {
1667:Drivers/BSP/Components/lis2dw12/lis2dw12.c ****         case LIS2DW12_LOW_NOISE_DISABLE:
1668:Drivers/BSP/Components/lis2dw12/lis2dw12.c ****         default:
1669:Drivers/BSP/Components/lis2dw12/lis2dw12.c ****           new_power_mode = LIS2DW12_CONT_LOW_PWR_4;
1670:Drivers/BSP/Components/lis2dw12/lis2dw12.c ****           break;
1671:Drivers/BSP/Components/lis2dw12/lis2dw12.c ****         case LIS2DW12_LOW_NOISE_ENABLE:
1672:Drivers/BSP/Components/lis2dw12/lis2dw12.c ****           new_power_mode = LIS2DW12_CONT_LOW_PWR_LOW_NOISE_4;
1673:Drivers/BSP/Components/lis2dw12/lis2dw12.c ****           break;
1674:Drivers/BSP/Components/lis2dw12/lis2dw12.c ****       }
1675:Drivers/BSP/Components/lis2dw12/lis2dw12.c **** 
1676:Drivers/BSP/Components/lis2dw12/lis2dw12.c ****       /* If Low Power mode maximum ODR is 200Hz */
1677:Drivers/BSP/Components/lis2dw12/lis2dw12.c ****       if (Odr > 200.0f)
1678:Drivers/BSP/Components/lis2dw12/lis2dw12.c ****       {
ARM GAS  /tmp/ccCpEZfe.s 			page 32


1679:Drivers/BSP/Components/lis2dw12/lis2dw12.c ****         Odr = 200.0f;
1680:Drivers/BSP/Components/lis2dw12/lis2dw12.c ****       }
1681:Drivers/BSP/Components/lis2dw12/lis2dw12.c ****       break;
1682:Drivers/BSP/Components/lis2dw12/lis2dw12.c ****     case LIS2DW12_LOW_POWER_MODE3:
1683:Drivers/BSP/Components/lis2dw12/lis2dw12.c ****       switch (Noise)
1684:Drivers/BSP/Components/lis2dw12/lis2dw12.c ****       {
1685:Drivers/BSP/Components/lis2dw12/lis2dw12.c ****         case LIS2DW12_LOW_NOISE_DISABLE:
1686:Drivers/BSP/Components/lis2dw12/lis2dw12.c ****         default:
1687:Drivers/BSP/Components/lis2dw12/lis2dw12.c ****           new_power_mode = LIS2DW12_CONT_LOW_PWR_3;
1688:Drivers/BSP/Components/lis2dw12/lis2dw12.c ****           break;
1689:Drivers/BSP/Components/lis2dw12/lis2dw12.c ****         case LIS2DW12_LOW_NOISE_ENABLE:
1690:Drivers/BSP/Components/lis2dw12/lis2dw12.c ****           new_power_mode = LIS2DW12_CONT_LOW_PWR_LOW_NOISE_3;
1691:Drivers/BSP/Components/lis2dw12/lis2dw12.c ****           break;
1692:Drivers/BSP/Components/lis2dw12/lis2dw12.c ****       }
1693:Drivers/BSP/Components/lis2dw12/lis2dw12.c **** 
1694:Drivers/BSP/Components/lis2dw12/lis2dw12.c ****       /* If Low Power mode maximum ODR is 200Hz */
1695:Drivers/BSP/Components/lis2dw12/lis2dw12.c ****       if (Odr > 200.0f)
1696:Drivers/BSP/Components/lis2dw12/lis2dw12.c ****       {
1697:Drivers/BSP/Components/lis2dw12/lis2dw12.c ****         Odr = 200.0f;
1698:Drivers/BSP/Components/lis2dw12/lis2dw12.c ****       }
1699:Drivers/BSP/Components/lis2dw12/lis2dw12.c ****       break;
1700:Drivers/BSP/Components/lis2dw12/lis2dw12.c ****     case LIS2DW12_LOW_POWER_MODE2:
1701:Drivers/BSP/Components/lis2dw12/lis2dw12.c ****       switch (Noise)
1702:Drivers/BSP/Components/lis2dw12/lis2dw12.c ****       {
1703:Drivers/BSP/Components/lis2dw12/lis2dw12.c ****         case LIS2DW12_LOW_NOISE_DISABLE:
1704:Drivers/BSP/Components/lis2dw12/lis2dw12.c ****         default:
1705:Drivers/BSP/Components/lis2dw12/lis2dw12.c ****           new_power_mode = LIS2DW12_CONT_LOW_PWR_2;
1706:Drivers/BSP/Components/lis2dw12/lis2dw12.c ****           break;
1707:Drivers/BSP/Components/lis2dw12/lis2dw12.c ****         case LIS2DW12_LOW_NOISE_ENABLE:
1708:Drivers/BSP/Components/lis2dw12/lis2dw12.c ****           new_power_mode = LIS2DW12_CONT_LOW_PWR_LOW_NOISE_2;
1709:Drivers/BSP/Components/lis2dw12/lis2dw12.c ****           break;
1710:Drivers/BSP/Components/lis2dw12/lis2dw12.c ****       }
1711:Drivers/BSP/Components/lis2dw12/lis2dw12.c **** 
1712:Drivers/BSP/Components/lis2dw12/lis2dw12.c ****       /* If Low Power mode maximum ODR is 200Hz */
1713:Drivers/BSP/Components/lis2dw12/lis2dw12.c ****       if (Odr > 200.0f)
1714:Drivers/BSP/Components/lis2dw12/lis2dw12.c ****       {
1715:Drivers/BSP/Components/lis2dw12/lis2dw12.c ****         Odr = 200.0f;
1716:Drivers/BSP/Components/lis2dw12/lis2dw12.c ****       }
1717:Drivers/BSP/Components/lis2dw12/lis2dw12.c ****       break;
1718:Drivers/BSP/Components/lis2dw12/lis2dw12.c ****     case LIS2DW12_LOW_POWER_MODE1:
1719:Drivers/BSP/Components/lis2dw12/lis2dw12.c ****       switch (Noise)
1720:Drivers/BSP/Components/lis2dw12/lis2dw12.c ****       {
1721:Drivers/BSP/Components/lis2dw12/lis2dw12.c ****         case LIS2DW12_LOW_NOISE_DISABLE:
1722:Drivers/BSP/Components/lis2dw12/lis2dw12.c ****         default:
1723:Drivers/BSP/Components/lis2dw12/lis2dw12.c ****           new_power_mode = LIS2DW12_CONT_LOW_PWR_12bit;
1724:Drivers/BSP/Components/lis2dw12/lis2dw12.c ****           break;
1725:Drivers/BSP/Components/lis2dw12/lis2dw12.c ****         case LIS2DW12_LOW_NOISE_ENABLE:
1726:Drivers/BSP/Components/lis2dw12/lis2dw12.c ****           new_power_mode = LIS2DW12_CONT_LOW_PWR_LOW_NOISE_12bit;
1727:Drivers/BSP/Components/lis2dw12/lis2dw12.c ****           break;
1728:Drivers/BSP/Components/lis2dw12/lis2dw12.c ****       }
1729:Drivers/BSP/Components/lis2dw12/lis2dw12.c **** 
1730:Drivers/BSP/Components/lis2dw12/lis2dw12.c ****       /* If Low Power mode maximum ODR is 200Hz */
1731:Drivers/BSP/Components/lis2dw12/lis2dw12.c ****       if (Odr > 200.0f)
1732:Drivers/BSP/Components/lis2dw12/lis2dw12.c ****       {
1733:Drivers/BSP/Components/lis2dw12/lis2dw12.c ****         Odr = 200.0f;
1734:Drivers/BSP/Components/lis2dw12/lis2dw12.c ****       }
1735:Drivers/BSP/Components/lis2dw12/lis2dw12.c ****       break;
ARM GAS  /tmp/ccCpEZfe.s 			page 33


1736:Drivers/BSP/Components/lis2dw12/lis2dw12.c ****   }
1737:Drivers/BSP/Components/lis2dw12/lis2dw12.c **** 
1738:Drivers/BSP/Components/lis2dw12/lis2dw12.c ****   new_odr = (Odr <=    1.6f) ? LIS2DW12_XL_ODR_1Hz6_LP_ONLY
1739:Drivers/BSP/Components/lis2dw12/lis2dw12.c ****             : (Odr <=   12.5f) ? LIS2DW12_XL_ODR_12Hz5
1740:Drivers/BSP/Components/lis2dw12/lis2dw12.c ****             : (Odr <=   25.0f) ? LIS2DW12_XL_ODR_25Hz
1741:Drivers/BSP/Components/lis2dw12/lis2dw12.c ****             : (Odr <=   50.0f) ? LIS2DW12_XL_ODR_50Hz
1742:Drivers/BSP/Components/lis2dw12/lis2dw12.c ****             : (Odr <=  100.0f) ? LIS2DW12_XL_ODR_100Hz
1743:Drivers/BSP/Components/lis2dw12/lis2dw12.c ****             : (Odr <=  200.0f) ? LIS2DW12_XL_ODR_200Hz
1744:Drivers/BSP/Components/lis2dw12/lis2dw12.c ****             : (Odr <=  400.0f) ? LIS2DW12_XL_ODR_400Hz
1745:Drivers/BSP/Components/lis2dw12/lis2dw12.c ****             : (Odr <=  800.0f) ? LIS2DW12_XL_ODR_800Hz
1746:Drivers/BSP/Components/lis2dw12/lis2dw12.c ****             :                    LIS2DW12_XL_ODR_1k6Hz;
1747:Drivers/BSP/Components/lis2dw12/lis2dw12.c **** 
1748:Drivers/BSP/Components/lis2dw12/lis2dw12.c ****   /* Output data rate selection. */
1749:Drivers/BSP/Components/lis2dw12/lis2dw12.c ****   if (lis2dw12_data_rate_set(&(pObj->Ctx), new_odr) != LIS2DW12_OK)
1750:Drivers/BSP/Components/lis2dw12/lis2dw12.c ****   {
1751:Drivers/BSP/Components/lis2dw12/lis2dw12.c ****     return LIS2DW12_ERROR;
1752:Drivers/BSP/Components/lis2dw12/lis2dw12.c ****   }
1753:Drivers/BSP/Components/lis2dw12/lis2dw12.c **** 
1754:Drivers/BSP/Components/lis2dw12/lis2dw12.c ****   /* Power mode selection. */
1755:Drivers/BSP/Components/lis2dw12/lis2dw12.c ****   if (lis2dw12_power_mode_set(&(pObj->Ctx), new_power_mode) != LIS2DW12_OK)
1756:Drivers/BSP/Components/lis2dw12/lis2dw12.c ****   {
1757:Drivers/BSP/Components/lis2dw12/lis2dw12.c ****     return LIS2DW12_ERROR;
1758:Drivers/BSP/Components/lis2dw12/lis2dw12.c ****   }
1759:Drivers/BSP/Components/lis2dw12/lis2dw12.c **** 
1760:Drivers/BSP/Components/lis2dw12/lis2dw12.c ****   /* Store the current Odr, Mode and Noise values */
1761:Drivers/BSP/Components/lis2dw12/lis2dw12.c ****   pObj->acc_odr = Odr;
1762:Drivers/BSP/Components/lis2dw12/lis2dw12.c ****   pObj->acc_operating_mode = Mode;
1763:Drivers/BSP/Components/lis2dw12/lis2dw12.c ****   pObj->acc_low_noise = Noise;
1764:Drivers/BSP/Components/lis2dw12/lis2dw12.c **** 
1765:Drivers/BSP/Components/lis2dw12/lis2dw12.c ****   return LIS2DW12_OK;
1766:Drivers/BSP/Components/lis2dw12/lis2dw12.c **** }
1767:Drivers/BSP/Components/lis2dw12/lis2dw12.c **** 
1768:Drivers/BSP/Components/lis2dw12/lis2dw12.c **** /**
1769:Drivers/BSP/Components/lis2dw12/lis2dw12.c ****   * @brief  Set the LIS2DW12 accelerometer sensor output data rate when disabled
1770:Drivers/BSP/Components/lis2dw12/lis2dw12.c ****   * @param  pObj the device pObj
1771:Drivers/BSP/Components/lis2dw12/lis2dw12.c ****   * @param  Odr the functional output data rate to be set
1772:Drivers/BSP/Components/lis2dw12/lis2dw12.c ****   * @param  Mode the operating mode to be used
1773:Drivers/BSP/Components/lis2dw12/lis2dw12.c ****   * @param  Noise the low noise option
1774:Drivers/BSP/Components/lis2dw12/lis2dw12.c ****   * @retval 0 in case of success, an error code otherwise
1775:Drivers/BSP/Components/lis2dw12/lis2dw12.c ****   */
1776:Drivers/BSP/Components/lis2dw12/lis2dw12.c **** static int32_t LIS2DW12_ACC_SetOutputDataRate_When_Disabled(LIS2DW12_Object_t *pObj, float Odr,
1777:Drivers/BSP/Components/lis2dw12/lis2dw12.c ****                                                             LIS2DW12_Operating_Mode_t Mode, LIS2DW1
1778:Drivers/BSP/Components/lis2dw12/lis2dw12.c **** {
  93              		.loc 1 1778 1 is_stmt 1 view -0
  94              		.cfi_startproc
  95              		@ args = 0, pretend = 0, frame = 0
  96              		@ frame_needed = 0, uses_anonymous_args = 0
  97              		@ link register save eliminated.
1779:Drivers/BSP/Components/lis2dw12/lis2dw12.c ****   /* Store the new Odr, Mode and Noise values */
1780:Drivers/BSP/Components/lis2dw12/lis2dw12.c ****   pObj->acc_operating_mode = Mode;
  98              		.loc 1 1780 3 view .LVU26
  99              		.loc 1 1780 28 is_stmt 0 view .LVU27
 100 0000 80F83810 		strb	r1, [r0, #56]
1781:Drivers/BSP/Components/lis2dw12/lis2dw12.c ****   pObj->acc_low_noise = Noise;
 101              		.loc 1 1781 3 is_stmt 1 view .LVU28
 102              		.loc 1 1781 23 is_stmt 0 view .LVU29
 103 0004 80F83920 		strb	r2, [r0, #57]
ARM GAS  /tmp/ccCpEZfe.s 			page 34


1782:Drivers/BSP/Components/lis2dw12/lis2dw12.c **** 
1783:Drivers/BSP/Components/lis2dw12/lis2dw12.c ****   pObj->acc_odr = (Odr <=    1.6f) ?    1.6f
 104              		.loc 1 1783 3 is_stmt 1 view .LVU30
1784:Drivers/BSP/Components/lis2dw12/lis2dw12.c ****                   : (Odr <=   12.5f) ?   12.5f
 105              		.loc 1 1784 19 is_stmt 0 view .LVU31
 106 0008 DFED267A 		vldr.32	s15, .L17
 107 000c B4EEE70A 		vcmpe.f32	s0, s15
 108 0010 F1EE10FA 		vmrs	APSR_nzcv, FPSCR
 109 0014 33D9     		bls	.L7
1785:Drivers/BSP/Components/lis2dw12/lis2dw12.c ****                   : (Odr <=   25.0f) ?   25.0f
 110              		.loc 1 1785 19 view .LVU32
 111 0016 F2EE097A 		vmov.f32	s15, #1.25e+1
 112 001a B4EEE70A 		vcmpe.f32	s0, s15
 113 001e F1EE10FA 		vmrs	APSR_nzcv, FPSCR
 114 0022 30D9     		bls	.L8
1786:Drivers/BSP/Components/lis2dw12/lis2dw12.c ****                   : (Odr <=   50.0f) ?   50.0f
 115              		.loc 1 1786 19 view .LVU33
 116 0024 F3EE097A 		vmov.f32	s15, #2.5e+1
 117 0028 B4EEE70A 		vcmpe.f32	s0, s15
 118 002c F1EE10FA 		vmrs	APSR_nzcv, FPSCR
 119 0030 2BD9     		bls	.L9
1787:Drivers/BSP/Components/lis2dw12/lis2dw12.c ****                   : (Odr <=  100.0f) ?  100.0f
 120              		.loc 1 1787 19 view .LVU34
 121 0032 DFED1D7A 		vldr.32	s15, .L17+4
 122 0036 B4EEE70A 		vcmpe.f32	s0, s15
 123 003a F1EE10FA 		vmrs	APSR_nzcv, FPSCR
 124 003e 26D9     		bls	.L10
1788:Drivers/BSP/Components/lis2dw12/lis2dw12.c ****                   : (Odr <=  200.0f) ?  200.0f
 125              		.loc 1 1788 19 view .LVU35
 126 0040 DFED1A7A 		vldr.32	s15, .L17+8
 127 0044 B4EEE70A 		vcmpe.f32	s0, s15
 128 0048 F1EE10FA 		vmrs	APSR_nzcv, FPSCR
 129 004c 21D9     		bls	.L11
1789:Drivers/BSP/Components/lis2dw12/lis2dw12.c ****                   : (Odr <=  400.0f) ?  400.0f
 130              		.loc 1 1789 19 view .LVU36
 131 004e DFED187A 		vldr.32	s15, .L17+12
 132 0052 B4EEE70A 		vcmpe.f32	s0, s15
 133 0056 F1EE10FA 		vmrs	APSR_nzcv, FPSCR
 134 005a 1CD9     		bls	.L12
1790:Drivers/BSP/Components/lis2dw12/lis2dw12.c ****                   : (Odr <=  800.0f) ?  800.0f
 135              		.loc 1 1790 19 view .LVU37
 136 005c DFED157A 		vldr.32	s15, .L17+16
 137 0060 B4EEE70A 		vcmpe.f32	s0, s15
 138 0064 F1EE10FA 		vmrs	APSR_nzcv, FPSCR
 139 0068 17D9     		bls	.L13
1791:Drivers/BSP/Components/lis2dw12/lis2dw12.c ****                   :                    1600.0f;
 140              		.loc 1 1791 19 view .LVU38
 141 006a DFED137A 		vldr.32	s15, .L17+20
 142 006e B4EEE70A 		vcmpe.f32	s0, s15
 143 0072 F1EE10FA 		vmrs	APSR_nzcv, FPSCR
 144 0076 12D8     		bhi	.L16
 145 0078 17EE903A 		vmov	r3, s15
 146 007c 00E0     		b	.L5
 147              	.L7:
1784:Drivers/BSP/Components/lis2dw12/lis2dw12.c ****                   : (Odr <=   25.0f) ?   25.0f
 148              		.loc 1 1784 19 view .LVU39
 149 007e 0F4B     		ldr	r3, .L17+24
ARM GAS  /tmp/ccCpEZfe.s 			page 35


 150              	.L5:
1783:Drivers/BSP/Components/lis2dw12/lis2dw12.c ****                   : (Odr <=   12.5f) ?   12.5f
 151              		.loc 1 1783 17 view .LVU40
 152 0080 4363     		str	r3, [r0, #52]	@ float
1792:Drivers/BSP/Components/lis2dw12/lis2dw12.c **** 
1793:Drivers/BSP/Components/lis2dw12/lis2dw12.c ****   return LIS2DW12_OK;
 153              		.loc 1 1793 3 is_stmt 1 view .LVU41
1794:Drivers/BSP/Components/lis2dw12/lis2dw12.c **** }
 154              		.loc 1 1794 1 is_stmt 0 view .LVU42
 155 0082 0020     		movs	r0, #0
 156              	.LVL3:
 157              		.loc 1 1794 1 view .LVU43
 158 0084 7047     		bx	lr
 159              	.LVL4:
 160              	.L8:
1785:Drivers/BSP/Components/lis2dw12/lis2dw12.c ****                   : (Odr <=   50.0f) ?   50.0f
 161              		.loc 1 1785 19 view .LVU44
 162 0086 0E4B     		ldr	r3, .L17+28
 163 0088 FAE7     		b	.L5
 164              	.L9:
1786:Drivers/BSP/Components/lis2dw12/lis2dw12.c ****                   : (Odr <=  100.0f) ?  100.0f
 165              		.loc 1 1786 19 view .LVU45
 166 008a 0E4B     		ldr	r3, .L17+32
 167 008c F8E7     		b	.L5
 168              	.L10:
1787:Drivers/BSP/Components/lis2dw12/lis2dw12.c ****                   : (Odr <=  200.0f) ?  200.0f
 169              		.loc 1 1787 19 view .LVU46
 170 008e 0E4B     		ldr	r3, .L17+36
 171 0090 F6E7     		b	.L5
 172              	.L11:
1788:Drivers/BSP/Components/lis2dw12/lis2dw12.c ****                   : (Odr <=  400.0f) ?  400.0f
 173              		.loc 1 1788 19 view .LVU47
 174 0092 0E4B     		ldr	r3, .L17+40
 175 0094 F4E7     		b	.L5
 176              	.L12:
1789:Drivers/BSP/Components/lis2dw12/lis2dw12.c ****                   : (Odr <=  800.0f) ?  800.0f
 177              		.loc 1 1789 19 view .LVU48
 178 0096 0E4B     		ldr	r3, .L17+44
 179 0098 F2E7     		b	.L5
 180              	.L13:
1790:Drivers/BSP/Components/lis2dw12/lis2dw12.c ****                   :                    1600.0f;
 181              		.loc 1 1790 19 view .LVU49
 182 009a 0E4B     		ldr	r3, .L17+48
 183 009c F0E7     		b	.L5
 184              	.L16:
1791:Drivers/BSP/Components/lis2dw12/lis2dw12.c **** 
 185              		.loc 1 1791 19 view .LVU50
 186 009e 0E4B     		ldr	r3, .L17+52
 187 00a0 EEE7     		b	.L5
 188              	.L18:
 189 00a2 00BF     		.align	2
 190              	.L17:
 191 00a4 CDCCCC3F 		.word	1070386381
 192 00a8 00004842 		.word	1112014848
 193 00ac 0000C842 		.word	1120403456
 194 00b0 00004843 		.word	1128792064
 195 00b4 0000C843 		.word	1137180672
ARM GAS  /tmp/ccCpEZfe.s 			page 36


 196 00b8 00004844 		.word	1145569280
 197 00bc CDCCCC3F 		.word	1070386381
 198 00c0 00004841 		.word	1095237632
 199 00c4 0000C841 		.word	1103626240
 200 00c8 00004842 		.word	1112014848
 201 00cc 0000C842 		.word	1120403456
 202 00d0 00004843 		.word	1128792064
 203 00d4 0000C843 		.word	1137180672
 204 00d8 0000C844 		.word	1153957888
 205              		.cfi_endproc
 206              	.LFE44:
 208              		.section	.text.ReadRegWrap,"ax",%progbits
 209              		.align	1
 210              		.syntax unified
 211              		.thumb
 212              		.thumb_func
 213              		.fpu fpv4-sp-d16
 215              	ReadRegWrap:
 216              	.LVL5:
 217              	.LFB45:
1795:Drivers/BSP/Components/lis2dw12/lis2dw12.c **** 
1796:Drivers/BSP/Components/lis2dw12/lis2dw12.c **** /**
1797:Drivers/BSP/Components/lis2dw12/lis2dw12.c ****   * @brief  Wrap Read register component function to Bus IO function
1798:Drivers/BSP/Components/lis2dw12/lis2dw12.c ****   * @param  Handle the device handler
1799:Drivers/BSP/Components/lis2dw12/lis2dw12.c ****   * @param  Reg the register address
1800:Drivers/BSP/Components/lis2dw12/lis2dw12.c ****   * @param  pData the stored data pointer
1801:Drivers/BSP/Components/lis2dw12/lis2dw12.c ****   * @param  Length the length
1802:Drivers/BSP/Components/lis2dw12/lis2dw12.c ****   * @retval 0 in case of success, an error code otherwise
1803:Drivers/BSP/Components/lis2dw12/lis2dw12.c ****   */
1804:Drivers/BSP/Components/lis2dw12/lis2dw12.c **** static int32_t ReadRegWrap(void *Handle, uint8_t Reg, uint8_t *pData, uint16_t Length)
1805:Drivers/BSP/Components/lis2dw12/lis2dw12.c **** {
 218              		.loc 1 1805 1 is_stmt 1 view -0
 219              		.cfi_startproc
 220              		@ args = 0, pretend = 0, frame = 0
 221              		@ frame_needed = 0, uses_anonymous_args = 0
 222              		.loc 1 1805 1 is_stmt 0 view .LVU52
 223 0000 10B5     		push	{r4, lr}
 224              	.LCFI0:
 225              		.cfi_def_cfa_offset 8
 226              		.cfi_offset 4, -8
 227              		.cfi_offset 14, -4
1806:Drivers/BSP/Components/lis2dw12/lis2dw12.c ****   LIS2DW12_Object_t *pObj = (LIS2DW12_Object_t *)Handle;
 228              		.loc 1 1806 3 is_stmt 1 view .LVU53
 229              	.LVL6:
1807:Drivers/BSP/Components/lis2dw12/lis2dw12.c **** 
1808:Drivers/BSP/Components/lis2dw12/lis2dw12.c ****   return pObj->IO.ReadReg(pObj->IO.Address, Reg, pData, Length);
 230              		.loc 1 1808 3 view .LVU54
 231              		.loc 1 1808 18 is_stmt 0 view .LVU55
 232 0002 4469     		ldr	r4, [r0, #20]
 233              		.loc 1 1808 10 view .LVU56
 234 0004 007B     		ldrb	r0, [r0, #12]	@ zero_extendqisi2
 235              	.LVL7:
 236              		.loc 1 1808 10 view .LVU57
 237 0006 A047     		blx	r4
 238              	.LVL8:
1809:Drivers/BSP/Components/lis2dw12/lis2dw12.c **** }
 239              		.loc 1 1809 1 view .LVU58
ARM GAS  /tmp/ccCpEZfe.s 			page 37


 240 0008 10BD     		pop	{r4, pc}
 241              		.cfi_endproc
 242              	.LFE45:
 244              		.section	.text.WriteRegWrap,"ax",%progbits
 245              		.align	1
 246              		.syntax unified
 247              		.thumb
 248              		.thumb_func
 249              		.fpu fpv4-sp-d16
 251              	WriteRegWrap:
 252              	.LVL9:
 253              	.LFB46:
1810:Drivers/BSP/Components/lis2dw12/lis2dw12.c **** 
1811:Drivers/BSP/Components/lis2dw12/lis2dw12.c **** /**
1812:Drivers/BSP/Components/lis2dw12/lis2dw12.c ****   * @brief  Wrap Write register component function to Bus IO function
1813:Drivers/BSP/Components/lis2dw12/lis2dw12.c ****   * @param  Handle the device handler
1814:Drivers/BSP/Components/lis2dw12/lis2dw12.c ****   * @param  Reg the register address
1815:Drivers/BSP/Components/lis2dw12/lis2dw12.c ****   * @param  pData the stored data pointer
1816:Drivers/BSP/Components/lis2dw12/lis2dw12.c ****   * @param  Length the length
1817:Drivers/BSP/Components/lis2dw12/lis2dw12.c ****   * @retval 0 in case of success, an error code otherwise
1818:Drivers/BSP/Components/lis2dw12/lis2dw12.c ****   */
1819:Drivers/BSP/Components/lis2dw12/lis2dw12.c **** static int32_t WriteRegWrap(void *Handle, uint8_t Reg, uint8_t *pData, uint16_t Length)
1820:Drivers/BSP/Components/lis2dw12/lis2dw12.c **** {
 254              		.loc 1 1820 1 is_stmt 1 view -0
 255              		.cfi_startproc
 256              		@ args = 0, pretend = 0, frame = 0
 257              		@ frame_needed = 0, uses_anonymous_args = 0
 258              		.loc 1 1820 1 is_stmt 0 view .LVU60
 259 0000 10B5     		push	{r4, lr}
 260              	.LCFI1:
 261              		.cfi_def_cfa_offset 8
 262              		.cfi_offset 4, -8
 263              		.cfi_offset 14, -4
1821:Drivers/BSP/Components/lis2dw12/lis2dw12.c ****   LIS2DW12_Object_t *pObj = (LIS2DW12_Object_t *)Handle;
 264              		.loc 1 1821 3 is_stmt 1 view .LVU61
 265              	.LVL10:
1822:Drivers/BSP/Components/lis2dw12/lis2dw12.c **** 
1823:Drivers/BSP/Components/lis2dw12/lis2dw12.c ****   return pObj->IO.WriteReg(pObj->IO.Address, Reg, pData, Length);
 266              		.loc 1 1823 3 view .LVU62
 267              		.loc 1 1823 18 is_stmt 0 view .LVU63
 268 0002 0469     		ldr	r4, [r0, #16]
 269              		.loc 1 1823 10 view .LVU64
 270 0004 007B     		ldrb	r0, [r0, #12]	@ zero_extendqisi2
 271              	.LVL11:
 272              		.loc 1 1823 10 view .LVU65
 273 0006 A047     		blx	r4
 274              	.LVL12:
1824:Drivers/BSP/Components/lis2dw12/lis2dw12.c **** }
 275              		.loc 1 1824 1 view .LVU66
 276 0008 10BD     		pop	{r4, pc}
 277              		.cfi_endproc
 278              	.LFE46:
 280              		.section	.text.LIS2DW12_ACC_SetOutputDataRate_When_Enabled,"ax",%progbits
 281              		.align	1
 282              		.syntax unified
 283              		.thumb
 284              		.thumb_func
ARM GAS  /tmp/ccCpEZfe.s 			page 38


 285              		.fpu fpv4-sp-d16
 287              	LIS2DW12_ACC_SetOutputDataRate_When_Enabled:
 288              	.LVL13:
 289              	.LFB43:
1639:Drivers/BSP/Components/lis2dw12/lis2dw12.c ****   lis2dw12_odr_t new_odr;
 290              		.loc 1 1639 1 is_stmt 1 view -0
 291              		.cfi_startproc
 292              		@ args = 0, pretend = 0, frame = 0
 293              		@ frame_needed = 0, uses_anonymous_args = 0
1639:Drivers/BSP/Components/lis2dw12/lis2dw12.c ****   lis2dw12_odr_t new_odr;
 294              		.loc 1 1639 1 is_stmt 0 view .LVU68
 295 0000 2DE9F041 		push	{r4, r5, r6, r7, r8, lr}
 296              	.LCFI2:
 297              		.cfi_def_cfa_offset 24
 298              		.cfi_offset 4, -24
 299              		.cfi_offset 5, -20
 300              		.cfi_offset 6, -16
 301              		.cfi_offset 7, -12
 302              		.cfi_offset 8, -8
 303              		.cfi_offset 14, -4
 304 0004 2DED028B 		vpush.64	{d8}
 305              	.LCFI3:
 306              		.cfi_def_cfa_offset 32
 307              		.cfi_offset 80, -32
 308              		.cfi_offset 81, -28
 309 0008 0446     		mov	r4, r0
 310 000a B0EE408A 		vmov.f32	s16, s0
 311 000e 0D46     		mov	r5, r1
 312 0010 1646     		mov	r6, r2
1640:Drivers/BSP/Components/lis2dw12/lis2dw12.c ****   lis2dw12_mode_t new_power_mode;
 313              		.loc 1 1640 3 is_stmt 1 view .LVU69
1641:Drivers/BSP/Components/lis2dw12/lis2dw12.c **** 
 314              		.loc 1 1641 3 view .LVU70
1643:Drivers/BSP/Components/lis2dw12/lis2dw12.c ****   {
 315              		.loc 1 1643 3 view .LVU71
 316 0012 4B1E     		subs	r3, r1, #1
 317 0014 032B     		cmp	r3, #3
 318 0016 03D8     		bhi	.L24
 319 0018 DFE803F0 		tbb	[pc, r3]
 320              	.LVL14:
 321              	.L26:
 322 001c 13       		.byte	(.L29-.L26)/2
 323 001d 5B       		.byte	(.L28-.L26)/2
 324 001e 6B       		.byte	(.L27-.L26)/2
 325 001f 7C       		.byte	(.L25-.L26)/2
 326              		.p2align 1
 327              	.L24:
1647:Drivers/BSP/Components/lis2dw12/lis2dw12.c ****       {
 328              		.loc 1 1647 7 view .LVU72
 329 0020 012E     		cmp	r6, #1
 330 0022 0BD0     		beq	.L39
1651:Drivers/BSP/Components/lis2dw12/lis2dw12.c ****           break;
 331              		.loc 1 1651 26 is_stmt 0 view .LVU73
 332 0024 4FF00408 		mov	r8, #4
 333              	.L30:
 334              	.LVL15:
1659:Drivers/BSP/Components/lis2dw12/lis2dw12.c ****       {
ARM GAS  /tmp/ccCpEZfe.s 			page 39


 335              		.loc 1 1659 7 is_stmt 1 view .LVU74
1659:Drivers/BSP/Components/lis2dw12/lis2dw12.c ****       {
 336              		.loc 1 1659 10 is_stmt 0 view .LVU75
 337 0028 F2EE097A 		vmov.f32	s15, #1.25e+1
 338 002c B4EEE78A 		vcmpe.f32	s16, s15
 339 0030 F1EE10FA 		vmrs	APSR_nzcv, FPSCR
 340 0034 10D5     		bpl	.L31
1661:Drivers/BSP/Components/lis2dw12/lis2dw12.c ****       }
 341              		.loc 1 1661 13 view .LVU76
 342 0036 B2EE098A 		vmov.f32	s16, #1.25e+1
 343 003a 0DE0     		b	.L31
 344              	.LVL16:
 345              	.L39:
1654:Drivers/BSP/Components/lis2dw12/lis2dw12.c ****           break;
 346              		.loc 1 1654 26 view .LVU77
 347 003c 4FF01408 		mov	r8, #20
 348 0040 F2E7     		b	.L30
 349              	.L29:
1665:Drivers/BSP/Components/lis2dw12/lis2dw12.c ****       {
 350              		.loc 1 1665 7 is_stmt 1 view .LVU78
 351 0042 012E     		cmp	r6, #1
 352 0044 42D0     		beq	.L41
1669:Drivers/BSP/Components/lis2dw12/lis2dw12.c ****           break;
 353              		.loc 1 1669 26 is_stmt 0 view .LVU79
 354 0046 4FF00308 		mov	r8, #3
 355              	.L32:
 356              	.LVL17:
1677:Drivers/BSP/Components/lis2dw12/lis2dw12.c ****       {
 357              		.loc 1 1677 7 is_stmt 1 view .LVU80
1677:Drivers/BSP/Components/lis2dw12/lis2dw12.c ****       {
 358              		.loc 1 1677 10 is_stmt 0 view .LVU81
 359 004a DFED517A 		vldr.32	s15, .L62
 360 004e B4EEE78A 		vcmpe.f32	s16, s15
 361 0052 F1EE10FA 		vmrs	APSR_nzcv, FPSCR
 362 0056 6EDC     		bgt	.L42
 363              	.L31:
 364              	.LVL18:
1738:Drivers/BSP/Components/lis2dw12/lis2dw12.c ****             : (Odr <=   12.5f) ? LIS2DW12_XL_ODR_12Hz5
 365              		.loc 1 1738 3 is_stmt 1 view .LVU82
1739:Drivers/BSP/Components/lis2dw12/lis2dw12.c ****             : (Odr <=   25.0f) ? LIS2DW12_XL_ODR_25Hz
 366              		.loc 1 1739 13 is_stmt 0 view .LVU83
 367 0058 DFED4E7A 		vldr.32	s15, .L62+4
 368 005c B4EEE78A 		vcmpe.f32	s16, s15
 369 0060 F1EE10FA 		vmrs	APSR_nzcv, FPSCR
 370 0064 6AD9     		bls	.L49
1739:Drivers/BSP/Components/lis2dw12/lis2dw12.c ****             : (Odr <=   25.0f) ? LIS2DW12_XL_ODR_25Hz
 371              		.loc 1 1739 13 discriminator 2 view .LVU84
 372 0066 F2EE097A 		vmov.f32	s15, #1.25e+1
 373 006a B4EEE78A 		vcmpe.f32	s16, s15
 374 006e F1EE10FA 		vmrs	APSR_nzcv, FPSCR
 375 0072 79D9     		bls	.L50
1739:Drivers/BSP/Components/lis2dw12/lis2dw12.c ****             : (Odr <=   25.0f) ? LIS2DW12_XL_ODR_25Hz
 376              		.loc 1 1739 13 discriminator 4 view .LVU85
 377 0074 F3EE097A 		vmov.f32	s15, #2.5e+1
 378 0078 B4EEE78A 		vcmpe.f32	s16, s15
 379 007c F1EE10FA 		vmrs	APSR_nzcv, FPSCR
 380 0080 74D9     		bls	.L51
ARM GAS  /tmp/ccCpEZfe.s 			page 40


1739:Drivers/BSP/Components/lis2dw12/lis2dw12.c ****             : (Odr <=   25.0f) ? LIS2DW12_XL_ODR_25Hz
 381              		.loc 1 1739 13 discriminator 7 view .LVU86
 382 0082 DFED457A 		vldr.32	s15, .L62+8
 383 0086 B4EEE78A 		vcmpe.f32	s16, s15
 384 008a F1EE10FA 		vmrs	APSR_nzcv, FPSCR
 385 008e 6FD9     		bls	.L52
1739:Drivers/BSP/Components/lis2dw12/lis2dw12.c ****             : (Odr <=   25.0f) ? LIS2DW12_XL_ODR_25Hz
 386              		.loc 1 1739 13 discriminator 10 view .LVU87
 387 0090 DFED427A 		vldr.32	s15, .L62+12
 388 0094 B4EEE78A 		vcmpe.f32	s16, s15
 389 0098 F1EE10FA 		vmrs	APSR_nzcv, FPSCR
 390 009c 6AD9     		bls	.L53
1739:Drivers/BSP/Components/lis2dw12/lis2dw12.c ****             : (Odr <=   25.0f) ? LIS2DW12_XL_ODR_25Hz
 391              		.loc 1 1739 13 discriminator 13 view .LVU88
 392 009e DFED3C7A 		vldr.32	s15, .L62
 393 00a2 B4EEE78A 		vcmpe.f32	s16, s15
 394 00a6 F1EE10FA 		vmrs	APSR_nzcv, FPSCR
 395 00aa 65D9     		bls	.L54
1739:Drivers/BSP/Components/lis2dw12/lis2dw12.c ****             : (Odr <=   25.0f) ? LIS2DW12_XL_ODR_25Hz
 396              		.loc 1 1739 13 discriminator 16 view .LVU89
 397 00ac DFED3C7A 		vldr.32	s15, .L62+16
 398 00b0 B4EEE78A 		vcmpe.f32	s16, s15
 399 00b4 F1EE10FA 		vmrs	APSR_nzcv, FPSCR
 400 00b8 60D9     		bls	.L55
1739:Drivers/BSP/Components/lis2dw12/lis2dw12.c ****             : (Odr <=   25.0f) ? LIS2DW12_XL_ODR_25Hz
 401              		.loc 1 1739 13 discriminator 19 view .LVU90
 402 00ba DFED3A7A 		vldr.32	s15, .L62+20
 403 00be B4EEE78A 		vcmpe.f32	s16, s15
 404 00c2 F1EE10FA 		vmrs	APSR_nzcv, FPSCR
 405 00c6 5BD8     		bhi	.L60
1739:Drivers/BSP/Components/lis2dw12/lis2dw12.c ****             : (Odr <=   25.0f) ? LIS2DW12_XL_ODR_25Hz
 406              		.loc 1 1739 13 view .LVU91
 407 00c8 0821     		movs	r1, #8
 408              	.LVL19:
1739:Drivers/BSP/Components/lis2dw12/lis2dw12.c ****             : (Odr <=   25.0f) ? LIS2DW12_XL_ODR_25Hz
 409              		.loc 1 1739 13 view .LVU92
 410 00ca 38E0     		b	.L36
 411              	.LVL20:
 412              	.L41:
1672:Drivers/BSP/Components/lis2dw12/lis2dw12.c ****           break;
 413              		.loc 1 1672 26 view .LVU93
 414 00cc 4FF01308 		mov	r8, #19
 415 00d0 BBE7     		b	.L32
 416              	.L28:
1683:Drivers/BSP/Components/lis2dw12/lis2dw12.c ****       {
 417              		.loc 1 1683 7 is_stmt 1 view .LVU94
 418 00d2 012E     		cmp	r6, #1
 419 00d4 0AD0     		beq	.L43
1687:Drivers/BSP/Components/lis2dw12/lis2dw12.c ****           break;
 420              		.loc 1 1687 26 is_stmt 0 view .LVU95
 421 00d6 8846     		mov	r8, r1
 422              	.L33:
 423              	.LVL21:
1695:Drivers/BSP/Components/lis2dw12/lis2dw12.c ****       {
 424              		.loc 1 1695 7 is_stmt 1 view .LVU96
1695:Drivers/BSP/Components/lis2dw12/lis2dw12.c ****       {
 425              		.loc 1 1695 10 is_stmt 0 view .LVU97
ARM GAS  /tmp/ccCpEZfe.s 			page 41


 426 00d8 DFED2D7A 		vldr.32	s15, .L62
 427 00dc B4EEE78A 		vcmpe.f32	s16, s15
 428 00e0 F1EE10FA 		vmrs	APSR_nzcv, FPSCR
 429 00e4 B8DD     		ble	.L31
1697:Drivers/BSP/Components/lis2dw12/lis2dw12.c ****       }
 430              		.loc 1 1697 13 view .LVU98
 431 00e6 9FED2A8A 		vldr.32	s16, .L62
 432 00ea B5E7     		b	.L31
 433              	.LVL22:
 434              	.L43:
1690:Drivers/BSP/Components/lis2dw12/lis2dw12.c ****           break;
 435              		.loc 1 1690 26 view .LVU99
 436 00ec 4FF01208 		mov	r8, #18
 437 00f0 F2E7     		b	.L33
 438              	.L27:
1701:Drivers/BSP/Components/lis2dw12/lis2dw12.c ****       {
 439              		.loc 1 1701 7 is_stmt 1 view .LVU100
 440 00f2 012E     		cmp	r6, #1
 441 00f4 0BD0     		beq	.L45
1705:Drivers/BSP/Components/lis2dw12/lis2dw12.c ****           break;
 442              		.loc 1 1705 26 is_stmt 0 view .LVU101
 443 00f6 4FF00108 		mov	r8, #1
 444              	.L34:
 445              	.LVL23:
1713:Drivers/BSP/Components/lis2dw12/lis2dw12.c ****       {
 446              		.loc 1 1713 7 is_stmt 1 view .LVU102
1713:Drivers/BSP/Components/lis2dw12/lis2dw12.c ****       {
 447              		.loc 1 1713 10 is_stmt 0 view .LVU103
 448 00fa DFED257A 		vldr.32	s15, .L62
 449 00fe B4EEE78A 		vcmpe.f32	s16, s15
 450 0102 F1EE10FA 		vmrs	APSR_nzcv, FPSCR
 451 0106 A7DD     		ble	.L31
1715:Drivers/BSP/Components/lis2dw12/lis2dw12.c ****       }
 452              		.loc 1 1715 13 view .LVU104
 453 0108 9FED218A 		vldr.32	s16, .L62
 454 010c A4E7     		b	.L31
 455              	.LVL24:
 456              	.L45:
1708:Drivers/BSP/Components/lis2dw12/lis2dw12.c ****           break;
 457              		.loc 1 1708 26 view .LVU105
 458 010e 4FF01108 		mov	r8, #17
 459 0112 F2E7     		b	.L34
 460              	.L25:
1719:Drivers/BSP/Components/lis2dw12/lis2dw12.c ****       {
 461              		.loc 1 1719 7 is_stmt 1 view .LVU106
 462 0114 012E     		cmp	r6, #1
 463 0116 0BD0     		beq	.L47
1723:Drivers/BSP/Components/lis2dw12/lis2dw12.c ****           break;
 464              		.loc 1 1723 26 is_stmt 0 view .LVU107
 465 0118 4FF00008 		mov	r8, #0
 466              	.L35:
 467              	.LVL25:
1731:Drivers/BSP/Components/lis2dw12/lis2dw12.c ****       {
 468              		.loc 1 1731 7 is_stmt 1 view .LVU108
1731:Drivers/BSP/Components/lis2dw12/lis2dw12.c ****       {
 469              		.loc 1 1731 10 is_stmt 0 view .LVU109
 470 011c DFED1C7A 		vldr.32	s15, .L62
ARM GAS  /tmp/ccCpEZfe.s 			page 42


 471 0120 B4EEE78A 		vcmpe.f32	s16, s15
 472 0124 F1EE10FA 		vmrs	APSR_nzcv, FPSCR
 473 0128 96DD     		ble	.L31
1733:Drivers/BSP/Components/lis2dw12/lis2dw12.c ****       }
 474              		.loc 1 1733 13 view .LVU110
 475 012a 9FED198A 		vldr.32	s16, .L62
 476 012e 93E7     		b	.L31
 477              	.LVL26:
 478              	.L47:
1726:Drivers/BSP/Components/lis2dw12/lis2dw12.c ****           break;
 479              		.loc 1 1726 26 view .LVU111
 480 0130 4FF01008 		mov	r8, #16
 481 0134 F2E7     		b	.L35
 482              	.LVL27:
 483              	.L42:
1679:Drivers/BSP/Components/lis2dw12/lis2dw12.c ****       }
 484              		.loc 1 1679 13 view .LVU112
 485 0136 9FED168A 		vldr.32	s16, .L62
 486 013a 8DE7     		b	.L31
 487              	.LVL28:
 488              	.L49:
1739:Drivers/BSP/Components/lis2dw12/lis2dw12.c ****             : (Odr <=   25.0f) ? LIS2DW12_XL_ODR_25Hz
 489              		.loc 1 1739 13 view .LVU113
 490 013c 0121     		movs	r1, #1
 491              	.LVL29:
 492              	.L36:
1749:Drivers/BSP/Components/lis2dw12/lis2dw12.c ****   {
 493              		.loc 1 1749 3 is_stmt 1 view .LVU114
1749:Drivers/BSP/Components/lis2dw12/lis2dw12.c ****   {
 494              		.loc 1 1749 7 is_stmt 0 view .LVU115
 495 013e 04F12007 		add	r7, r4, #32
 496 0142 3846     		mov	r0, r7
 497              	.LVL30:
1749:Drivers/BSP/Components/lis2dw12/lis2dw12.c ****   {
 498              		.loc 1 1749 7 view .LVU116
 499 0144 FFF7FEFF 		bl	lis2dw12_data_rate_set
 500              	.LVL31:
1749:Drivers/BSP/Components/lis2dw12/lis2dw12.c ****   {
 501              		.loc 1 1749 6 view .LVU117
 502 0148 E0B9     		cbnz	r0, .L57
1755:Drivers/BSP/Components/lis2dw12/lis2dw12.c ****   {
 503              		.loc 1 1755 3 is_stmt 1 view .LVU118
1755:Drivers/BSP/Components/lis2dw12/lis2dw12.c ****   {
 504              		.loc 1 1755 7 is_stmt 0 view .LVU119
 505 014a 4146     		mov	r1, r8
 506 014c 3846     		mov	r0, r7
 507 014e FFF7FEFF 		bl	lis2dw12_power_mode_set
 508              	.LVL32:
1755:Drivers/BSP/Components/lis2dw12/lis2dw12.c ****   {
 509              		.loc 1 1755 6 view .LVU120
 510 0152 D0B9     		cbnz	r0, .L58
1761:Drivers/BSP/Components/lis2dw12/lis2dw12.c ****   pObj->acc_operating_mode = Mode;
 511              		.loc 1 1761 3 is_stmt 1 view .LVU121
1761:Drivers/BSP/Components/lis2dw12/lis2dw12.c ****   pObj->acc_operating_mode = Mode;
 512              		.loc 1 1761 17 is_stmt 0 view .LVU122
 513 0154 84ED0D8A 		vstr.32	s16, [r4, #52]
1762:Drivers/BSP/Components/lis2dw12/lis2dw12.c ****   pObj->acc_low_noise = Noise;
ARM GAS  /tmp/ccCpEZfe.s 			page 43


 514              		.loc 1 1762 3 is_stmt 1 view .LVU123
1762:Drivers/BSP/Components/lis2dw12/lis2dw12.c ****   pObj->acc_low_noise = Noise;
 515              		.loc 1 1762 28 is_stmt 0 view .LVU124
 516 0158 84F83850 		strb	r5, [r4, #56]
1763:Drivers/BSP/Components/lis2dw12/lis2dw12.c **** 
 517              		.loc 1 1763 3 is_stmt 1 view .LVU125
1763:Drivers/BSP/Components/lis2dw12/lis2dw12.c **** 
 518              		.loc 1 1763 23 is_stmt 0 view .LVU126
 519 015c 84F83960 		strb	r6, [r4, #57]
1765:Drivers/BSP/Components/lis2dw12/lis2dw12.c **** }
 520              		.loc 1 1765 3 is_stmt 1 view .LVU127
 521              	.L23:
1766:Drivers/BSP/Components/lis2dw12/lis2dw12.c **** 
 522              		.loc 1 1766 1 is_stmt 0 view .LVU128
 523 0160 BDEC028B 		vldm	sp!, {d8}
 524              	.LCFI4:
 525              		.cfi_remember_state
 526              		.cfi_restore 80
 527              		.cfi_restore 81
 528              		.cfi_def_cfa_offset 24
 529              	.LVL33:
1766:Drivers/BSP/Components/lis2dw12/lis2dw12.c **** 
 530              		.loc 1 1766 1 view .LVU129
 531 0164 BDE8F081 		pop	{r4, r5, r6, r7, r8, pc}
 532              	.LVL34:
 533              	.L50:
 534              	.LCFI5:
 535              		.cfi_restore_state
1739:Drivers/BSP/Components/lis2dw12/lis2dw12.c ****             : (Odr <=   25.0f) ? LIS2DW12_XL_ODR_25Hz
 536              		.loc 1 1739 13 view .LVU130
 537 0168 0221     		movs	r1, #2
 538              	.LVL35:
1739:Drivers/BSP/Components/lis2dw12/lis2dw12.c ****             : (Odr <=   25.0f) ? LIS2DW12_XL_ODR_25Hz
 539              		.loc 1 1739 13 view .LVU131
 540 016a E8E7     		b	.L36
 541              	.LVL36:
 542              	.L51:
1739:Drivers/BSP/Components/lis2dw12/lis2dw12.c ****             : (Odr <=   25.0f) ? LIS2DW12_XL_ODR_25Hz
 543              		.loc 1 1739 13 view .LVU132
 544 016c 0321     		movs	r1, #3
 545              	.LVL37:
1739:Drivers/BSP/Components/lis2dw12/lis2dw12.c ****             : (Odr <=   25.0f) ? LIS2DW12_XL_ODR_25Hz
 546              		.loc 1 1739 13 view .LVU133
 547 016e E6E7     		b	.L36
 548              	.LVL38:
 549              	.L52:
1739:Drivers/BSP/Components/lis2dw12/lis2dw12.c ****             : (Odr <=   25.0f) ? LIS2DW12_XL_ODR_25Hz
 550              		.loc 1 1739 13 view .LVU134
 551 0170 0421     		movs	r1, #4
 552              	.LVL39:
1739:Drivers/BSP/Components/lis2dw12/lis2dw12.c ****             : (Odr <=   25.0f) ? LIS2DW12_XL_ODR_25Hz
 553              		.loc 1 1739 13 view .LVU135
 554 0172 E4E7     		b	.L36
 555              	.LVL40:
 556              	.L53:
1739:Drivers/BSP/Components/lis2dw12/lis2dw12.c ****             : (Odr <=   25.0f) ? LIS2DW12_XL_ODR_25Hz
 557              		.loc 1 1739 13 view .LVU136
ARM GAS  /tmp/ccCpEZfe.s 			page 44


 558 0174 0521     		movs	r1, #5
 559              	.LVL41:
1739:Drivers/BSP/Components/lis2dw12/lis2dw12.c ****             : (Odr <=   25.0f) ? LIS2DW12_XL_ODR_25Hz
 560              		.loc 1 1739 13 view .LVU137
 561 0176 E2E7     		b	.L36
 562              	.LVL42:
 563              	.L54:
1739:Drivers/BSP/Components/lis2dw12/lis2dw12.c ****             : (Odr <=   25.0f) ? LIS2DW12_XL_ODR_25Hz
 564              		.loc 1 1739 13 view .LVU138
 565 0178 0621     		movs	r1, #6
 566              	.LVL43:
1739:Drivers/BSP/Components/lis2dw12/lis2dw12.c ****             : (Odr <=   25.0f) ? LIS2DW12_XL_ODR_25Hz
 567              		.loc 1 1739 13 view .LVU139
 568 017a E0E7     		b	.L36
 569              	.LVL44:
 570              	.L55:
1739:Drivers/BSP/Components/lis2dw12/lis2dw12.c ****             : (Odr <=   25.0f) ? LIS2DW12_XL_ODR_25Hz
 571              		.loc 1 1739 13 view .LVU140
 572 017c 0721     		movs	r1, #7
 573              	.LVL45:
1739:Drivers/BSP/Components/lis2dw12/lis2dw12.c ****             : (Odr <=   25.0f) ? LIS2DW12_XL_ODR_25Hz
 574              		.loc 1 1739 13 view .LVU141
 575 017e DEE7     		b	.L36
 576              	.LVL46:
 577              	.L60:
1739:Drivers/BSP/Components/lis2dw12/lis2dw12.c ****             : (Odr <=   25.0f) ? LIS2DW12_XL_ODR_25Hz
 578              		.loc 1 1739 13 view .LVU142
 579 0180 0921     		movs	r1, #9
 580              	.LVL47:
1739:Drivers/BSP/Components/lis2dw12/lis2dw12.c ****             : (Odr <=   25.0f) ? LIS2DW12_XL_ODR_25Hz
 581              		.loc 1 1739 13 view .LVU143
 582 0182 DCE7     		b	.L36
 583              	.LVL48:
 584              	.L57:
1751:Drivers/BSP/Components/lis2dw12/lis2dw12.c ****   }
 585              		.loc 1 1751 12 view .LVU144
 586 0184 4FF0FF30 		mov	r0, #-1
 587 0188 EAE7     		b	.L23
 588              	.L58:
1757:Drivers/BSP/Components/lis2dw12/lis2dw12.c ****   }
 589              		.loc 1 1757 12 view .LVU145
 590 018a 4FF0FF30 		mov	r0, #-1
 591 018e E7E7     		b	.L23
 592              	.L63:
 593              		.align	2
 594              	.L62:
 595 0190 00004843 		.word	1128792064
 596 0194 CDCCCC3F 		.word	1070386381
 597 0198 00004842 		.word	1112014848
 598 019c 0000C842 		.word	1120403456
 599 01a0 0000C843 		.word	1137180672
 600 01a4 00004844 		.word	1145569280
 601              		.cfi_endproc
 602              	.LFE43:
 604              		.section	.text.LIS2DW12_ACC_Enable,"ax",%progbits
 605              		.align	1
 606              		.global	LIS2DW12_ACC_Enable
ARM GAS  /tmp/ccCpEZfe.s 			page 45


 607              		.syntax unified
 608              		.thumb
 609              		.thumb_func
 610              		.fpu fpv4-sp-d16
 612              	LIS2DW12_ACC_Enable:
 613              	.LVL49:
 614              	.LFB5:
 267:Drivers/BSP/Components/lis2dw12/lis2dw12.c ****   /* Check if the component is already enabled */
 615              		.loc 1 267 1 is_stmt 1 view -0
 616              		.cfi_startproc
 617              		@ args = 0, pretend = 0, frame = 0
 618              		@ frame_needed = 0, uses_anonymous_args = 0
 269:Drivers/BSP/Components/lis2dw12/lis2dw12.c ****   {
 619              		.loc 1 269 3 view .LVU147
 269:Drivers/BSP/Components/lis2dw12/lis2dw12.c ****   {
 620              		.loc 1 269 11 is_stmt 0 view .LVU148
 621 0000 90F83130 		ldrb	r3, [r0, #49]	@ zero_extendqisi2
 269:Drivers/BSP/Components/lis2dw12/lis2dw12.c ****   {
 622              		.loc 1 269 6 view .LVU149
 623 0004 012B     		cmp	r3, #1
 624 0006 0ED0     		beq	.L66
 267:Drivers/BSP/Components/lis2dw12/lis2dw12.c ****   /* Check if the component is already enabled */
 625              		.loc 1 267 1 view .LVU150
 626 0008 10B5     		push	{r4, lr}
 627              	.LCFI6:
 628              		.cfi_def_cfa_offset 8
 629              		.cfi_offset 4, -8
 630              		.cfi_offset 14, -4
 631 000a 0446     		mov	r4, r0
 275:Drivers/BSP/Components/lis2dw12/lis2dw12.c ****                                                   pObj->acc_low_noise) != LIS2DW12_OK)
 632              		.loc 1 275 3 is_stmt 1 view .LVU151
 275:Drivers/BSP/Components/lis2dw12/lis2dw12.c ****                                                   pObj->acc_low_noise) != LIS2DW12_OK)
 633              		.loc 1 275 7 is_stmt 0 view .LVU152
 634 000c 90F83920 		ldrb	r2, [r0, #57]	@ zero_extendqisi2
 635 0010 90F83810 		ldrb	r1, [r0, #56]	@ zero_extendqisi2
 636 0014 90ED0D0A 		vldr.32	s0, [r0, #52]
 637 0018 FFF7FEFF 		bl	LIS2DW12_ACC_SetOutputDataRate_When_Enabled
 638              	.LVL50:
 275:Drivers/BSP/Components/lis2dw12/lis2dw12.c ****                                                   pObj->acc_low_noise) != LIS2DW12_OK)
 639              		.loc 1 275 6 view .LVU153
 640 001c 28B9     		cbnz	r0, .L67
 281:Drivers/BSP/Components/lis2dw12/lis2dw12.c **** 
 641              		.loc 1 281 3 is_stmt 1 view .LVU154
 281:Drivers/BSP/Components/lis2dw12/lis2dw12.c **** 
 642              		.loc 1 281 24 is_stmt 0 view .LVU155
 643 001e 0123     		movs	r3, #1
 644 0020 84F83130 		strb	r3, [r4, #49]
 283:Drivers/BSP/Components/lis2dw12/lis2dw12.c **** }
 645              		.loc 1 283 3 is_stmt 1 view .LVU156
 646              	.L64:
 284:Drivers/BSP/Components/lis2dw12/lis2dw12.c **** 
 647              		.loc 1 284 1 is_stmt 0 view .LVU157
 648 0024 10BD     		pop	{r4, pc}
 649              	.LVL51:
 650              	.L66:
 651              	.LCFI7:
 652              		.cfi_def_cfa_offset 0
ARM GAS  /tmp/ccCpEZfe.s 			page 46


 653              		.cfi_restore 4
 654              		.cfi_restore 14
 271:Drivers/BSP/Components/lis2dw12/lis2dw12.c ****   }
 655              		.loc 1 271 12 view .LVU158
 656 0026 0020     		movs	r0, #0
 657              	.LVL52:
 284:Drivers/BSP/Components/lis2dw12/lis2dw12.c **** 
 658              		.loc 1 284 1 view .LVU159
 659 0028 7047     		bx	lr
 660              	.LVL53:
 661              	.L67:
 662              	.LCFI8:
 663              		.cfi_def_cfa_offset 8
 664              		.cfi_offset 4, -8
 665              		.cfi_offset 14, -4
 278:Drivers/BSP/Components/lis2dw12/lis2dw12.c ****   }
 666              		.loc 1 278 12 view .LVU160
 667 002a 4FF0FF30 		mov	r0, #-1
 668 002e F9E7     		b	.L64
 669              		.cfi_endproc
 670              	.LFE5:
 672              		.section	.text.LIS2DW12_ACC_Disable,"ax",%progbits
 673              		.align	1
 674              		.global	LIS2DW12_ACC_Disable
 675              		.syntax unified
 676              		.thumb
 677              		.thumb_func
 678              		.fpu fpv4-sp-d16
 680              	LIS2DW12_ACC_Disable:
 681              	.LVL54:
 682              	.LFB6:
 292:Drivers/BSP/Components/lis2dw12/lis2dw12.c ****   /* Check if the component is already disabled */
 683              		.loc 1 292 1 is_stmt 1 view -0
 684              		.cfi_startproc
 685              		@ args = 0, pretend = 0, frame = 0
 686              		@ frame_needed = 0, uses_anonymous_args = 0
 294:Drivers/BSP/Components/lis2dw12/lis2dw12.c ****   {
 687              		.loc 1 294 3 view .LVU162
 294:Drivers/BSP/Components/lis2dw12/lis2dw12.c ****   {
 688              		.loc 1 294 11 is_stmt 0 view .LVU163
 689 0000 90F83130 		ldrb	r3, [r0, #49]	@ zero_extendqisi2
 294:Drivers/BSP/Components/lis2dw12/lis2dw12.c ****   {
 690              		.loc 1 294 6 view .LVU164
 691 0004 0BB9     		cbnz	r3, .L80
 296:Drivers/BSP/Components/lis2dw12/lis2dw12.c ****   }
 692              		.loc 1 296 12 view .LVU165
 693 0006 0020     		movs	r0, #0
 694              	.LVL55:
 308:Drivers/BSP/Components/lis2dw12/lis2dw12.c **** 
 695              		.loc 1 308 1 view .LVU166
 696 0008 7047     		bx	lr
 697              	.LVL56:
 698              	.L80:
 292:Drivers/BSP/Components/lis2dw12/lis2dw12.c ****   /* Check if the component is already disabled */
 699              		.loc 1 292 1 view .LVU167
 700 000a 10B5     		push	{r4, lr}
 701              	.LCFI9:
ARM GAS  /tmp/ccCpEZfe.s 			page 47


 702              		.cfi_def_cfa_offset 8
 703              		.cfi_offset 4, -8
 704              		.cfi_offset 14, -4
 705 000c 0446     		mov	r4, r0
 300:Drivers/BSP/Components/lis2dw12/lis2dw12.c ****   {
 706              		.loc 1 300 3 is_stmt 1 view .LVU168
 300:Drivers/BSP/Components/lis2dw12/lis2dw12.c ****   {
 707              		.loc 1 300 7 is_stmt 0 view .LVU169
 708 000e 0021     		movs	r1, #0
 709 0010 2030     		adds	r0, r0, #32
 710              	.LVL57:
 300:Drivers/BSP/Components/lis2dw12/lis2dw12.c ****   {
 711              		.loc 1 300 7 view .LVU170
 712 0012 FFF7FEFF 		bl	lis2dw12_data_rate_set
 713              	.LVL58:
 300:Drivers/BSP/Components/lis2dw12/lis2dw12.c ****   {
 714              		.loc 1 300 6 view .LVU171
 715 0016 10B9     		cbnz	r0, .L75
 305:Drivers/BSP/Components/lis2dw12/lis2dw12.c **** 
 716              		.loc 1 305 3 is_stmt 1 view .LVU172
 305:Drivers/BSP/Components/lis2dw12/lis2dw12.c **** 
 717              		.loc 1 305 24 is_stmt 0 view .LVU173
 718 0018 84F83100 		strb	r0, [r4, #49]
 307:Drivers/BSP/Components/lis2dw12/lis2dw12.c **** }
 719              		.loc 1 307 3 is_stmt 1 view .LVU174
 720              	.L72:
 308:Drivers/BSP/Components/lis2dw12/lis2dw12.c **** 
 721              		.loc 1 308 1 is_stmt 0 view .LVU175
 722 001c 10BD     		pop	{r4, pc}
 723              	.LVL59:
 724              	.L75:
 302:Drivers/BSP/Components/lis2dw12/lis2dw12.c ****   }
 725              		.loc 1 302 12 view .LVU176
 726 001e 4FF0FF30 		mov	r0, #-1
 727 0022 FBE7     		b	.L72
 728              		.cfi_endproc
 729              	.LFE6:
 731              		.section	.text.LIS2DW12_DeInit,"ax",%progbits
 732              		.align	1
 733              		.global	LIS2DW12_DeInit
 734              		.syntax unified
 735              		.thumb
 736              		.thumb_func
 737              		.fpu fpv4-sp-d16
 739              	LIS2DW12_DeInit:
 740              	.LVL60:
 741              	.LFB2:
 202:Drivers/BSP/Components/lis2dw12/lis2dw12.c ****   /* Disable the component */
 742              		.loc 1 202 1 is_stmt 1 view -0
 743              		.cfi_startproc
 744              		@ args = 0, pretend = 0, frame = 0
 745              		@ frame_needed = 0, uses_anonymous_args = 0
 202:Drivers/BSP/Components/lis2dw12/lis2dw12.c ****   /* Disable the component */
 746              		.loc 1 202 1 is_stmt 0 view .LVU178
 747 0000 10B5     		push	{r4, lr}
 748              	.LCFI10:
 749              		.cfi_def_cfa_offset 8
ARM GAS  /tmp/ccCpEZfe.s 			page 48


 750              		.cfi_offset 4, -8
 751              		.cfi_offset 14, -4
 752 0002 0446     		mov	r4, r0
 204:Drivers/BSP/Components/lis2dw12/lis2dw12.c ****   {
 753              		.loc 1 204 3 is_stmt 1 view .LVU179
 204:Drivers/BSP/Components/lis2dw12/lis2dw12.c ****   {
 754              		.loc 1 204 7 is_stmt 0 view .LVU180
 755 0004 FFF7FEFF 		bl	LIS2DW12_ACC_Disable
 756              	.LVL61:
 204:Drivers/BSP/Components/lis2dw12/lis2dw12.c ****   {
 757              		.loc 1 204 6 view .LVU181
 758 0008 48B9     		cbnz	r0, .L83
 210:Drivers/BSP/Components/lis2dw12/lis2dw12.c ****   /* Reset operating mode to default value. */
 759              		.loc 1 210 3 is_stmt 1 view .LVU182
 210:Drivers/BSP/Components/lis2dw12/lis2dw12.c ****   /* Reset operating mode to default value. */
 760              		.loc 1 210 17 is_stmt 0 view .LVU183
 761 000a 0023     		movs	r3, #0
 762 000c 6363     		str	r3, [r4, #52]	@ float
 212:Drivers/BSP/Components/lis2dw12/lis2dw12.c ****   /* Reset low noise to default value (disabled). */
 763              		.loc 1 212 3 is_stmt 1 view .LVU184
 212:Drivers/BSP/Components/lis2dw12/lis2dw12.c ****   /* Reset low noise to default value (disabled). */
 764              		.loc 1 212 28 is_stmt 0 view .LVU185
 765 000e 0023     		movs	r3, #0
 766 0010 84F83830 		strb	r3, [r4, #56]
 214:Drivers/BSP/Components/lis2dw12/lis2dw12.c **** 
 767              		.loc 1 214 3 is_stmt 1 view .LVU186
 214:Drivers/BSP/Components/lis2dw12/lis2dw12.c **** 
 768              		.loc 1 214 23 is_stmt 0 view .LVU187
 769 0014 84F83930 		strb	r3, [r4, #57]
 216:Drivers/BSP/Components/lis2dw12/lis2dw12.c **** 
 770              		.loc 1 216 3 is_stmt 1 view .LVU188
 216:Drivers/BSP/Components/lis2dw12/lis2dw12.c **** 
 771              		.loc 1 216 24 is_stmt 0 view .LVU189
 772 0018 84F83030 		strb	r3, [r4, #48]
 218:Drivers/BSP/Components/lis2dw12/lis2dw12.c **** }
 773              		.loc 1 218 3 is_stmt 1 view .LVU190
 774              	.L81:
 219:Drivers/BSP/Components/lis2dw12/lis2dw12.c **** 
 775              		.loc 1 219 1 is_stmt 0 view .LVU191
 776 001c 10BD     		pop	{r4, pc}
 777              	.LVL62:
 778              	.L83:
 206:Drivers/BSP/Components/lis2dw12/lis2dw12.c ****   }
 779              		.loc 1 206 12 view .LVU192
 780 001e 4FF0FF30 		mov	r0, #-1
 781 0022 FBE7     		b	.L81
 782              		.cfi_endproc
 783              	.LFE2:
 785              		.section	.text.LIS2DW12_Init,"ax",%progbits
 786              		.align	1
 787              		.global	LIS2DW12_Init
 788              		.syntax unified
 789              		.thumb
 790              		.thumb_func
 791              		.fpu fpv4-sp-d16
 793              	LIS2DW12_Init:
 794              	.LVL63:
ARM GAS  /tmp/ccCpEZfe.s 			page 49


 795              	.LFB1:
 146:Drivers/BSP/Components/lis2dw12/lis2dw12.c ****   /* Enable register address automatically incremented during a multiple byte
 796              		.loc 1 146 1 is_stmt 1 view -0
 797              		.cfi_startproc
 798              		@ args = 0, pretend = 0, frame = 0
 799              		@ frame_needed = 0, uses_anonymous_args = 0
 146:Drivers/BSP/Components/lis2dw12/lis2dw12.c ****   /* Enable register address automatically incremented during a multiple byte
 800              		.loc 1 146 1 is_stmt 0 view .LVU194
 801 0000 38B5     		push	{r3, r4, r5, lr}
 802              	.LCFI11:
 803              		.cfi_def_cfa_offset 16
 804              		.cfi_offset 3, -16
 805              		.cfi_offset 4, -12
 806              		.cfi_offset 5, -8
 807              		.cfi_offset 14, -4
 808 0002 0446     		mov	r4, r0
 149:Drivers/BSP/Components/lis2dw12/lis2dw12.c ****   {
 809              		.loc 1 149 3 is_stmt 1 view .LVU195
 149:Drivers/BSP/Components/lis2dw12/lis2dw12.c ****   {
 810              		.loc 1 149 7 is_stmt 0 view .LVU196
 811 0004 00F12005 		add	r5, r0, #32
 812 0008 0121     		movs	r1, #1
 813 000a 2846     		mov	r0, r5
 814              	.LVL64:
 149:Drivers/BSP/Components/lis2dw12/lis2dw12.c ****   {
 815              		.loc 1 149 7 view .LVU197
 816 000c FFF7FEFF 		bl	lis2dw12_auto_increment_set
 817              	.LVL65:
 149:Drivers/BSP/Components/lis2dw12/lis2dw12.c ****   {
 818              		.loc 1 149 6 view .LVU198
 819 0010 10BB     		cbnz	r0, .L87
 155:Drivers/BSP/Components/lis2dw12/lis2dw12.c ****   {
 820              		.loc 1 155 3 is_stmt 1 view .LVU199
 155:Drivers/BSP/Components/lis2dw12/lis2dw12.c ****   {
 821              		.loc 1 155 7 is_stmt 0 view .LVU200
 822 0012 0121     		movs	r1, #1
 823 0014 2846     		mov	r0, r5
 824 0016 FFF7FEFF 		bl	lis2dw12_block_data_update_set
 825              	.LVL66:
 155:Drivers/BSP/Components/lis2dw12/lis2dw12.c ****   {
 826              		.loc 1 155 6 view .LVU201
 827 001a 00BB     		cbnz	r0, .L88
 161:Drivers/BSP/Components/lis2dw12/lis2dw12.c ****   {
 828              		.loc 1 161 3 is_stmt 1 view .LVU202
 161:Drivers/BSP/Components/lis2dw12/lis2dw12.c ****   {
 829              		.loc 1 161 7 is_stmt 0 view .LVU203
 830 001c 0021     		movs	r1, #0
 831 001e 2846     		mov	r0, r5
 832 0020 FFF7FEFF 		bl	lis2dw12_fifo_mode_set
 833              	.LVL67:
 161:Drivers/BSP/Components/lis2dw12/lis2dw12.c ****   {
 834              		.loc 1 161 6 view .LVU204
 835 0024 F0B9     		cbnz	r0, .L89
 167:Drivers/BSP/Components/lis2dw12/lis2dw12.c ****   {
 836              		.loc 1 167 3 is_stmt 1 view .LVU205
 167:Drivers/BSP/Components/lis2dw12/lis2dw12.c ****   {
 837              		.loc 1 167 7 is_stmt 0 view .LVU206
ARM GAS  /tmp/ccCpEZfe.s 			page 50


 838 0026 0421     		movs	r1, #4
 839 0028 2846     		mov	r0, r5
 840 002a FFF7FEFF 		bl	lis2dw12_power_mode_set
 841              	.LVL68:
 167:Drivers/BSP/Components/lis2dw12/lis2dw12.c ****   {
 842              		.loc 1 167 6 view .LVU207
 843 002e E0B9     		cbnz	r0, .L90
 173:Drivers/BSP/Components/lis2dw12/lis2dw12.c ****   /* Select default operating mode. */
 844              		.loc 1 173 3 is_stmt 1 view .LVU208
 173:Drivers/BSP/Components/lis2dw12/lis2dw12.c ****   /* Select default operating mode. */
 845              		.loc 1 173 17 is_stmt 0 view .LVU209
 846 0030 124B     		ldr	r3, .L94
 847 0032 6363     		str	r3, [r4, #52]	@ float
 175:Drivers/BSP/Components/lis2dw12/lis2dw12.c ****   /* Select default low noise (disabled). */
 848              		.loc 1 175 3 is_stmt 1 view .LVU210
 175:Drivers/BSP/Components/lis2dw12/lis2dw12.c ****   /* Select default low noise (disabled). */
 849              		.loc 1 175 28 is_stmt 0 view .LVU211
 850 0034 0021     		movs	r1, #0
 851 0036 84F83810 		strb	r1, [r4, #56]
 177:Drivers/BSP/Components/lis2dw12/lis2dw12.c **** 
 852              		.loc 1 177 3 is_stmt 1 view .LVU212
 177:Drivers/BSP/Components/lis2dw12/lis2dw12.c **** 
 853              		.loc 1 177 23 is_stmt 0 view .LVU213
 854 003a 84F83910 		strb	r1, [r4, #57]
 180:Drivers/BSP/Components/lis2dw12/lis2dw12.c ****   {
 855              		.loc 1 180 3 is_stmt 1 view .LVU214
 180:Drivers/BSP/Components/lis2dw12/lis2dw12.c ****   {
 856              		.loc 1 180 7 is_stmt 0 view .LVU215
 857 003e 2846     		mov	r0, r5
 858 0040 FFF7FEFF 		bl	lis2dw12_data_rate_set
 859              	.LVL69:
 180:Drivers/BSP/Components/lis2dw12/lis2dw12.c ****   {
 860              		.loc 1 180 6 view .LVU216
 861 0044 A0B9     		cbnz	r0, .L91
 186:Drivers/BSP/Components/lis2dw12/lis2dw12.c ****   {
 862              		.loc 1 186 3 is_stmt 1 view .LVU217
 186:Drivers/BSP/Components/lis2dw12/lis2dw12.c ****   {
 863              		.loc 1 186 7 is_stmt 0 view .LVU218
 864 0046 0021     		movs	r1, #0
 865 0048 2846     		mov	r0, r5
 866 004a FFF7FEFF 		bl	lis2dw12_full_scale_set
 867              	.LVL70:
 186:Drivers/BSP/Components/lis2dw12/lis2dw12.c ****   {
 868              		.loc 1 186 6 view .LVU219
 869 004e 90B9     		cbnz	r0, .L92
 191:Drivers/BSP/Components/lis2dw12/lis2dw12.c **** 
 870              		.loc 1 191 3 is_stmt 1 view .LVU220
 191:Drivers/BSP/Components/lis2dw12/lis2dw12.c **** 
 871              		.loc 1 191 24 is_stmt 0 view .LVU221
 872 0050 0123     		movs	r3, #1
 873 0052 84F83030 		strb	r3, [r4, #48]
 193:Drivers/BSP/Components/lis2dw12/lis2dw12.c **** }
 874              		.loc 1 193 3 is_stmt 1 view .LVU222
 875              	.L85:
 194:Drivers/BSP/Components/lis2dw12/lis2dw12.c **** 
 876              		.loc 1 194 1 is_stmt 0 view .LVU223
 877 0056 38BD     		pop	{r3, r4, r5, pc}
ARM GAS  /tmp/ccCpEZfe.s 			page 51


 878              	.LVL71:
 879              	.L87:
 151:Drivers/BSP/Components/lis2dw12/lis2dw12.c ****   }
 880              		.loc 1 151 12 view .LVU224
 881 0058 4FF0FF30 		mov	r0, #-1
 882 005c FBE7     		b	.L85
 883              	.L88:
 157:Drivers/BSP/Components/lis2dw12/lis2dw12.c ****   }
 884              		.loc 1 157 12 view .LVU225
 885 005e 4FF0FF30 		mov	r0, #-1
 886 0062 F8E7     		b	.L85
 887              	.L89:
 163:Drivers/BSP/Components/lis2dw12/lis2dw12.c ****   }
 888              		.loc 1 163 12 view .LVU226
 889 0064 4FF0FF30 		mov	r0, #-1
 890 0068 F5E7     		b	.L85
 891              	.L90:
 169:Drivers/BSP/Components/lis2dw12/lis2dw12.c ****   }
 892              		.loc 1 169 12 view .LVU227
 893 006a 4FF0FF30 		mov	r0, #-1
 894 006e F2E7     		b	.L85
 895              	.L91:
 182:Drivers/BSP/Components/lis2dw12/lis2dw12.c ****   }
 896              		.loc 1 182 12 view .LVU228
 897 0070 4FF0FF30 		mov	r0, #-1
 898 0074 EFE7     		b	.L85
 899              	.L92:
 188:Drivers/BSP/Components/lis2dw12/lis2dw12.c ****   }
 900              		.loc 1 188 12 view .LVU229
 901 0076 4FF0FF30 		mov	r0, #-1
 902 007a ECE7     		b	.L85
 903              	.L95:
 904              		.align	2
 905              	.L94:
 906 007c 0000C842 		.word	1120403456
 907              		.cfi_endproc
 908              	.LFE1:
 910              		.section	.text.LIS2DW12_ACC_SetFullScale,"ax",%progbits
 911              		.align	1
 912              		.global	LIS2DW12_ACC_SetFullScale
 913              		.syntax unified
 914              		.thumb
 915              		.thumb_func
 916              		.fpu fpv4-sp-d16
 918              	LIS2DW12_ACC_SetFullScale:
 919              	.LVL72:
 920              	.LFB12:
 695:Drivers/BSP/Components/lis2dw12/lis2dw12.c ****   lis2dw12_fs_t new_fs;
 921              		.loc 1 695 1 is_stmt 1 view -0
 922              		.cfi_startproc
 923              		@ args = 0, pretend = 0, frame = 0
 924              		@ frame_needed = 0, uses_anonymous_args = 0
 695:Drivers/BSP/Components/lis2dw12/lis2dw12.c ****   lis2dw12_fs_t new_fs;
 925              		.loc 1 695 1 is_stmt 0 view .LVU231
 926 0000 08B5     		push	{r3, lr}
 927              	.LCFI12:
 928              		.cfi_def_cfa_offset 8
ARM GAS  /tmp/ccCpEZfe.s 			page 52


 929              		.cfi_offset 3, -8
 930              		.cfi_offset 14, -4
 696:Drivers/BSP/Components/lis2dw12/lis2dw12.c **** 
 931              		.loc 1 696 3 is_stmt 1 view .LVU232
 700:Drivers/BSP/Components/lis2dw12/lis2dw12.c ****            : (FullScale <= 4) ? LIS2DW12_4g
 932              		.loc 1 700 3 view .LVU233
 701:Drivers/BSP/Components/lis2dw12/lis2dw12.c ****            : (FullScale <= 8) ? LIS2DW12_8g
 933              		.loc 1 701 12 is_stmt 0 view .LVU234
 934 0002 0229     		cmp	r1, #2
 935 0004 05DD     		ble	.L99
 701:Drivers/BSP/Components/lis2dw12/lis2dw12.c ****            : (FullScale <= 8) ? LIS2DW12_8g
 936              		.loc 1 701 12 discriminator 1 view .LVU235
 937 0006 0429     		cmp	r1, #4
 938 0008 09DD     		ble	.L100
 701:Drivers/BSP/Components/lis2dw12/lis2dw12.c ****            : (FullScale <= 8) ? LIS2DW12_8g
 939              		.loc 1 701 12 discriminator 3 view .LVU236
 940 000a 0829     		cmp	r1, #8
 941 000c 09DC     		bgt	.L101
 701:Drivers/BSP/Components/lis2dw12/lis2dw12.c ****            : (FullScale <= 8) ? LIS2DW12_8g
 942              		.loc 1 701 12 view .LVU237
 943 000e 0221     		movs	r1, #2
 944              	.LVL73:
 701:Drivers/BSP/Components/lis2dw12/lis2dw12.c ****            : (FullScale <= 8) ? LIS2DW12_8g
 945              		.loc 1 701 12 view .LVU238
 946 0010 00E0     		b	.L97
 947              	.LVL74:
 948              	.L99:
 701:Drivers/BSP/Components/lis2dw12/lis2dw12.c ****            : (FullScale <= 8) ? LIS2DW12_8g
 949              		.loc 1 701 12 view .LVU239
 950 0012 0021     		movs	r1, #0
 951              	.LVL75:
 952              	.L97:
 705:Drivers/BSP/Components/lis2dw12/lis2dw12.c ****   {
 953              		.loc 1 705 3 is_stmt 1 view .LVU240
 705:Drivers/BSP/Components/lis2dw12/lis2dw12.c ****   {
 954              		.loc 1 705 7 is_stmt 0 view .LVU241
 955 0014 2030     		adds	r0, r0, #32
 956              	.LVL76:
 705:Drivers/BSP/Components/lis2dw12/lis2dw12.c ****   {
 957              		.loc 1 705 7 view .LVU242
 958 0016 FFF7FEFF 		bl	lis2dw12_full_scale_set
 959              	.LVL77:
 705:Drivers/BSP/Components/lis2dw12/lis2dw12.c ****   {
 960              		.loc 1 705 6 view .LVU243
 961 001a 20B9     		cbnz	r0, .L104
 962              	.L96:
 711:Drivers/BSP/Components/lis2dw12/lis2dw12.c **** 
 963              		.loc 1 711 1 view .LVU244
 964 001c 08BD     		pop	{r3, pc}
 965              	.LVL78:
 966              	.L100:
 701:Drivers/BSP/Components/lis2dw12/lis2dw12.c ****            : (FullScale <= 8) ? LIS2DW12_8g
 967              		.loc 1 701 12 view .LVU245
 968 001e 0121     		movs	r1, #1
 969              	.LVL79:
 701:Drivers/BSP/Components/lis2dw12/lis2dw12.c ****            : (FullScale <= 8) ? LIS2DW12_8g
 970              		.loc 1 701 12 view .LVU246
ARM GAS  /tmp/ccCpEZfe.s 			page 53


 971 0020 F8E7     		b	.L97
 972              	.LVL80:
 973              	.L101:
 701:Drivers/BSP/Components/lis2dw12/lis2dw12.c ****            : (FullScale <= 8) ? LIS2DW12_8g
 974              		.loc 1 701 12 view .LVU247
 975 0022 0321     		movs	r1, #3
 976              	.LVL81:
 701:Drivers/BSP/Components/lis2dw12/lis2dw12.c ****            : (FullScale <= 8) ? LIS2DW12_8g
 977              		.loc 1 701 12 view .LVU248
 978 0024 F6E7     		b	.L97
 979              	.LVL82:
 980              	.L104:
 707:Drivers/BSP/Components/lis2dw12/lis2dw12.c ****   }
 981              		.loc 1 707 12 view .LVU249
 982 0026 4FF0FF30 		mov	r0, #-1
 983 002a F7E7     		b	.L96
 984              		.cfi_endproc
 985              	.LFE12:
 987              		.section	.text.LIS2DW12_ReadID,"ax",%progbits
 988              		.align	1
 989              		.global	LIS2DW12_ReadID
 990              		.syntax unified
 991              		.thumb
 992              		.thumb_func
 993              		.fpu fpv4-sp-d16
 995              	LIS2DW12_ReadID:
 996              	.LVL83:
 997              	.LFB3:
 228:Drivers/BSP/Components/lis2dw12/lis2dw12.c ****   if (lis2dw12_device_id_get(&(pObj->Ctx), Id) != LIS2DW12_OK)
 998              		.loc 1 228 1 is_stmt 1 view -0
 999              		.cfi_startproc
 1000              		@ args = 0, pretend = 0, frame = 0
 1001              		@ frame_needed = 0, uses_anonymous_args = 0
 228:Drivers/BSP/Components/lis2dw12/lis2dw12.c ****   if (lis2dw12_device_id_get(&(pObj->Ctx), Id) != LIS2DW12_OK)
 1002              		.loc 1 228 1 is_stmt 0 view .LVU251
 1003 0000 08B5     		push	{r3, lr}
 1004              	.LCFI13:
 1005              		.cfi_def_cfa_offset 8
 1006              		.cfi_offset 3, -8
 1007              		.cfi_offset 14, -4
 229:Drivers/BSP/Components/lis2dw12/lis2dw12.c ****   {
 1008              		.loc 1 229 3 is_stmt 1 view .LVU252
 229:Drivers/BSP/Components/lis2dw12/lis2dw12.c ****   {
 1009              		.loc 1 229 7 is_stmt 0 view .LVU253
 1010 0002 2030     		adds	r0, r0, #32
 1011              	.LVL84:
 229:Drivers/BSP/Components/lis2dw12/lis2dw12.c ****   {
 1012              		.loc 1 229 7 view .LVU254
 1013 0004 FFF7FEFF 		bl	lis2dw12_device_id_get
 1014              	.LVL85:
 229:Drivers/BSP/Components/lis2dw12/lis2dw12.c ****   {
 1015              		.loc 1 229 6 view .LVU255
 1016 0008 00B9     		cbnz	r0, .L109
 1017              	.L105:
 235:Drivers/BSP/Components/lis2dw12/lis2dw12.c **** 
 1018              		.loc 1 235 1 view .LVU256
 1019 000a 08BD     		pop	{r3, pc}
ARM GAS  /tmp/ccCpEZfe.s 			page 54


 1020              	.L109:
 231:Drivers/BSP/Components/lis2dw12/lis2dw12.c ****   }
 1021              		.loc 1 231 12 view .LVU257
 1022 000c 4FF0FF30 		mov	r0, #-1
 1023 0010 FBE7     		b	.L105
 1024              		.cfi_endproc
 1025              	.LFE3:
 1027              		.section	.text.LIS2DW12_ACC_GetFullScale,"ax",%progbits
 1028              		.align	1
 1029              		.global	LIS2DW12_ACC_GetFullScale
 1030              		.syntax unified
 1031              		.thumb
 1032              		.thumb_func
 1033              		.fpu fpv4-sp-d16
 1035              	LIS2DW12_ACC_GetFullScale:
 1036              	.LVL86:
 1037              	.LFB11:
 651:Drivers/BSP/Components/lis2dw12/lis2dw12.c ****   int32_t ret = LIS2DW12_OK;
 1038              		.loc 1 651 1 is_stmt 1 view -0
 1039              		.cfi_startproc
 1040              		@ args = 0, pretend = 0, frame = 8
 1041              		@ frame_needed = 0, uses_anonymous_args = 0
 651:Drivers/BSP/Components/lis2dw12/lis2dw12.c ****   int32_t ret = LIS2DW12_OK;
 1042              		.loc 1 651 1 is_stmt 0 view .LVU259
 1043 0000 10B5     		push	{r4, lr}
 1044              	.LCFI14:
 1045              		.cfi_def_cfa_offset 8
 1046              		.cfi_offset 4, -8
 1047              		.cfi_offset 14, -4
 1048 0002 82B0     		sub	sp, sp, #8
 1049              	.LCFI15:
 1050              		.cfi_def_cfa_offset 16
 1051 0004 0C46     		mov	r4, r1
 652:Drivers/BSP/Components/lis2dw12/lis2dw12.c ****   lis2dw12_fs_t fs_low_level;
 1052              		.loc 1 652 3 is_stmt 1 view .LVU260
 1053              	.LVL87:
 653:Drivers/BSP/Components/lis2dw12/lis2dw12.c **** 
 1054              		.loc 1 653 3 view .LVU261
 656:Drivers/BSP/Components/lis2dw12/lis2dw12.c ****   {
 1055              		.loc 1 656 3 view .LVU262
 656:Drivers/BSP/Components/lis2dw12/lis2dw12.c ****   {
 1056              		.loc 1 656 7 is_stmt 0 view .LVU263
 1057 0006 0DF10701 		add	r1, sp, #7
 1058              	.LVL88:
 656:Drivers/BSP/Components/lis2dw12/lis2dw12.c ****   {
 1059              		.loc 1 656 7 view .LVU264
 1060 000a 2030     		adds	r0, r0, #32
 1061              	.LVL89:
 656:Drivers/BSP/Components/lis2dw12/lis2dw12.c ****   {
 1062              		.loc 1 656 7 view .LVU265
 1063 000c FFF7FEFF 		bl	lis2dw12_full_scale_get
 1064              	.LVL90:
 656:Drivers/BSP/Components/lis2dw12/lis2dw12.c ****   {
 1065              		.loc 1 656 6 view .LVU266
 1066 0010 C0B9     		cbnz	r0, .L118
 661:Drivers/BSP/Components/lis2dw12/lis2dw12.c ****   {
 1067              		.loc 1 661 3 is_stmt 1 view .LVU267
ARM GAS  /tmp/ccCpEZfe.s 			page 55


 1068 0012 9DF80730 		ldrb	r3, [sp, #7]	@ zero_extendqisi2
 1069 0016 032B     		cmp	r3, #3
 1070 0018 10D8     		bhi	.L112
 1071 001a DFE803F0 		tbb	[pc, r3]
 1072              	.L114:
 1073 001e 02       		.byte	(.L117-.L114)/2
 1074 001f 06       		.byte	(.L116-.L114)/2
 1075 0020 09       		.byte	(.L115-.L114)/2
 1076 0021 0C       		.byte	(.L113-.L114)/2
 1077              		.p2align 1
 1078              	.L117:
 664:Drivers/BSP/Components/lis2dw12/lis2dw12.c ****       break;
 1079              		.loc 1 664 7 view .LVU268
 664:Drivers/BSP/Components/lis2dw12/lis2dw12.c ****       break;
 1080              		.loc 1 664 18 is_stmt 0 view .LVU269
 1081 0022 0223     		movs	r3, #2
 1082 0024 2360     		str	r3, [r4]
 665:Drivers/BSP/Components/lis2dw12/lis2dw12.c **** 
 1083              		.loc 1 665 7 is_stmt 1 view .LVU270
 1084              	.LVL91:
 1085              	.L110:
 686:Drivers/BSP/Components/lis2dw12/lis2dw12.c **** 
 1086              		.loc 1 686 1 is_stmt 0 view .LVU271
 1087 0026 02B0     		add	sp, sp, #8
 1088              	.LCFI16:
 1089              		.cfi_remember_state
 1090              		.cfi_def_cfa_offset 8
 1091              		@ sp needed
 1092 0028 10BD     		pop	{r4, pc}
 1093              	.LVL92:
 1094              	.L116:
 1095              	.LCFI17:
 1096              		.cfi_restore_state
 668:Drivers/BSP/Components/lis2dw12/lis2dw12.c ****       break;
 1097              		.loc 1 668 7 is_stmt 1 view .LVU272
 668:Drivers/BSP/Components/lis2dw12/lis2dw12.c ****       break;
 1098              		.loc 1 668 18 is_stmt 0 view .LVU273
 1099 002a 0423     		movs	r3, #4
 1100 002c 2360     		str	r3, [r4]
 669:Drivers/BSP/Components/lis2dw12/lis2dw12.c **** 
 1101              		.loc 1 669 7 is_stmt 1 view .LVU274
 1102 002e FAE7     		b	.L110
 1103              	.L115:
 672:Drivers/BSP/Components/lis2dw12/lis2dw12.c ****       break;
 1104              		.loc 1 672 7 view .LVU275
 672:Drivers/BSP/Components/lis2dw12/lis2dw12.c ****       break;
 1105              		.loc 1 672 18 is_stmt 0 view .LVU276
 1106 0030 0823     		movs	r3, #8
 1107 0032 2360     		str	r3, [r4]
 673:Drivers/BSP/Components/lis2dw12/lis2dw12.c **** 
 1108              		.loc 1 673 7 is_stmt 1 view .LVU277
 1109 0034 F7E7     		b	.L110
 1110              	.L113:
 676:Drivers/BSP/Components/lis2dw12/lis2dw12.c ****       break;
 1111              		.loc 1 676 7 view .LVU278
 676:Drivers/BSP/Components/lis2dw12/lis2dw12.c ****       break;
 1112              		.loc 1 676 18 is_stmt 0 view .LVU279
ARM GAS  /tmp/ccCpEZfe.s 			page 56


 1113 0036 1023     		movs	r3, #16
 1114 0038 2360     		str	r3, [r4]
 677:Drivers/BSP/Components/lis2dw12/lis2dw12.c **** 
 1115              		.loc 1 677 7 is_stmt 1 view .LVU280
 1116 003a F4E7     		b	.L110
 1117              	.L112:
 680:Drivers/BSP/Components/lis2dw12/lis2dw12.c ****       ret = LIS2DW12_ERROR;
 1118              		.loc 1 680 7 view .LVU281
 680:Drivers/BSP/Components/lis2dw12/lis2dw12.c ****       ret = LIS2DW12_ERROR;
 1119              		.loc 1 680 18 is_stmt 0 view .LVU282
 1120 003c 4FF0FF30 		mov	r0, #-1
 1121 0040 2060     		str	r0, [r4]
 681:Drivers/BSP/Components/lis2dw12/lis2dw12.c ****       break;
 1122              		.loc 1 681 7 is_stmt 1 view .LVU283
 1123              	.LVL93:
 682:Drivers/BSP/Components/lis2dw12/lis2dw12.c ****   }
 1124              		.loc 1 682 7 view .LVU284
 1125 0042 F0E7     		b	.L110
 1126              	.LVL94:
 1127              	.L118:
 658:Drivers/BSP/Components/lis2dw12/lis2dw12.c ****   }
 1128              		.loc 1 658 12 is_stmt 0 view .LVU285
 1129 0044 4FF0FF30 		mov	r0, #-1
 1130              	.LVL95:
 658:Drivers/BSP/Components/lis2dw12/lis2dw12.c ****   }
 1131              		.loc 1 658 12 view .LVU286
 1132 0048 EDE7     		b	.L110
 1133              		.cfi_endproc
 1134              	.LFE11:
 1136              		.section	.text.LIS2DW12_ACC_GetSensitivity,"ax",%progbits
 1137              		.align	1
 1138              		.global	LIS2DW12_ACC_GetSensitivity
 1139              		.syntax unified
 1140              		.thumb
 1141              		.thumb_func
 1142              		.fpu fpv4-sp-d16
 1144              	LIS2DW12_ACC_GetSensitivity:
 1145              	.LVL96:
 1146              	.LFB7:
 317:Drivers/BSP/Components/lis2dw12/lis2dw12.c ****   int32_t ret = LIS2DW12_OK;
 1147              		.loc 1 317 1 is_stmt 1 view -0
 1148              		.cfi_startproc
 1149              		@ args = 0, pretend = 0, frame = 8
 1150              		@ frame_needed = 0, uses_anonymous_args = 0
 317:Drivers/BSP/Components/lis2dw12/lis2dw12.c ****   int32_t ret = LIS2DW12_OK;
 1151              		.loc 1 317 1 is_stmt 0 view .LVU288
 1152 0000 30B5     		push	{r4, r5, lr}
 1153              	.LCFI18:
 1154              		.cfi_def_cfa_offset 12
 1155              		.cfi_offset 4, -12
 1156              		.cfi_offset 5, -8
 1157              		.cfi_offset 14, -4
 1158 0002 83B0     		sub	sp, sp, #12
 1159              	.LCFI19:
 1160              		.cfi_def_cfa_offset 24
 1161 0004 0D46     		mov	r5, r1
 318:Drivers/BSP/Components/lis2dw12/lis2dw12.c ****   lis2dw12_fs_t full_scale;
ARM GAS  /tmp/ccCpEZfe.s 			page 57


 1162              		.loc 1 318 3 is_stmt 1 view .LVU289
 1163              	.LVL97:
 319:Drivers/BSP/Components/lis2dw12/lis2dw12.c ****   lis2dw12_mode_t mode;
 1164              		.loc 1 319 3 view .LVU290
 320:Drivers/BSP/Components/lis2dw12/lis2dw12.c **** 
 1165              		.loc 1 320 3 view .LVU291
 323:Drivers/BSP/Components/lis2dw12/lis2dw12.c ****   {
 1166              		.loc 1 323 3 view .LVU292
 323:Drivers/BSP/Components/lis2dw12/lis2dw12.c ****   {
 1167              		.loc 1 323 7 is_stmt 0 view .LVU293
 1168 0006 00F12004 		add	r4, r0, #32
 1169 000a 0DF10701 		add	r1, sp, #7
 1170              	.LVL98:
 323:Drivers/BSP/Components/lis2dw12/lis2dw12.c ****   {
 1171              		.loc 1 323 7 view .LVU294
 1172 000e 2046     		mov	r0, r4
 1173              	.LVL99:
 323:Drivers/BSP/Components/lis2dw12/lis2dw12.c ****   {
 1174              		.loc 1 323 7 view .LVU295
 1175 0010 FFF7FEFF 		bl	lis2dw12_full_scale_get
 1176              	.LVL100:
 323:Drivers/BSP/Components/lis2dw12/lis2dw12.c ****   {
 1177              		.loc 1 323 6 view .LVU296
 1178 0014 0028     		cmp	r0, #0
 1179 0016 52D1     		bne	.L138
 329:Drivers/BSP/Components/lis2dw12/lis2dw12.c ****   {
 1180              		.loc 1 329 3 is_stmt 1 view .LVU297
 329:Drivers/BSP/Components/lis2dw12/lis2dw12.c ****   {
 1181              		.loc 1 329 7 is_stmt 0 view .LVU298
 1182 0018 0DF10601 		add	r1, sp, #6
 1183 001c 2046     		mov	r0, r4
 1184 001e FFF7FEFF 		bl	lis2dw12_power_mode_get
 1185              	.LVL101:
 329:Drivers/BSP/Components/lis2dw12/lis2dw12.c ****   {
 1186              		.loc 1 329 6 view .LVU299
 1187 0022 0028     		cmp	r0, #0
 1188 0024 4ED1     		bne	.L139
 334:Drivers/BSP/Components/lis2dw12/lis2dw12.c ****   {
 1189              		.loc 1 334 3 is_stmt 1 view .LVU300
 1190 0026 9DF80630 		ldrb	r3, [sp, #6]	@ zero_extendqisi2
 1191 002a 1B2B     		cmp	r3, #27
 1192 002c 41D8     		bhi	.L122
 1193 002e DFE803F0 		tbb	[pc, r3]
 1194              	.L124:
 1195 0032 0E       		.byte	(.L125-.L124)/2
 1196 0033 27       		.byte	(.L123-.L124)/2
 1197 0034 27       		.byte	(.L123-.L124)/2
 1198 0035 27       		.byte	(.L123-.L124)/2
 1199 0036 27       		.byte	(.L123-.L124)/2
 1200 0037 40       		.byte	(.L122-.L124)/2
 1201 0038 40       		.byte	(.L122-.L124)/2
 1202 0039 40       		.byte	(.L122-.L124)/2
 1203 003a 0E       		.byte	(.L125-.L124)/2
 1204 003b 27       		.byte	(.L123-.L124)/2
 1205 003c 27       		.byte	(.L123-.L124)/2
 1206 003d 27       		.byte	(.L123-.L124)/2
 1207 003e 40       		.byte	(.L122-.L124)/2
ARM GAS  /tmp/ccCpEZfe.s 			page 58


 1208 003f 40       		.byte	(.L122-.L124)/2
 1209 0040 40       		.byte	(.L122-.L124)/2
 1210 0041 40       		.byte	(.L122-.L124)/2
 1211 0042 0E       		.byte	(.L125-.L124)/2
 1212 0043 27       		.byte	(.L123-.L124)/2
 1213 0044 27       		.byte	(.L123-.L124)/2
 1214 0045 27       		.byte	(.L123-.L124)/2
 1215 0046 27       		.byte	(.L123-.L124)/2
 1216 0047 40       		.byte	(.L122-.L124)/2
 1217 0048 40       		.byte	(.L122-.L124)/2
 1218 0049 40       		.byte	(.L122-.L124)/2
 1219 004a 0E       		.byte	(.L125-.L124)/2
 1220 004b 27       		.byte	(.L123-.L124)/2
 1221 004c 27       		.byte	(.L123-.L124)/2
 1222 004d 27       		.byte	(.L123-.L124)/2
 1223              		.p2align 1
 1224              	.L125:
 340:Drivers/BSP/Components/lis2dw12/lis2dw12.c ****       {
 1225              		.loc 1 340 7 view .LVU301
 1226 004e 9DF80730 		ldrb	r3, [sp, #7]	@ zero_extendqisi2
 1227 0052 032B     		cmp	r3, #3
 1228 0054 0FD8     		bhi	.L126
 1229 0056 DFE803F0 		tbb	[pc, r3]
 1230              	.L128:
 1231 005a 02       		.byte	(.L131-.L128)/2
 1232 005b 05       		.byte	(.L130-.L128)/2
 1233 005c 08       		.byte	(.L129-.L128)/2
 1234 005d 0B       		.byte	(.L127-.L128)/2
 1235              		.p2align 1
 1236              	.L131:
 343:Drivers/BSP/Components/lis2dw12/lis2dw12.c ****           break;
 1237              		.loc 1 343 11 view .LVU302
 343:Drivers/BSP/Components/lis2dw12/lis2dw12.c ****           break;
 1238              		.loc 1 343 24 is_stmt 0 view .LVU303
 1239 005e 1B4B     		ldr	r3, .L141
 1240 0060 2B60     		str	r3, [r5]	@ float
 344:Drivers/BSP/Components/lis2dw12/lis2dw12.c **** 
 1241              		.loc 1 344 11 is_stmt 1 view .LVU304
 1242 0062 2AE0     		b	.L120
 1243              	.L130:
 347:Drivers/BSP/Components/lis2dw12/lis2dw12.c ****           break;
 1244              		.loc 1 347 11 view .LVU305
 347:Drivers/BSP/Components/lis2dw12/lis2dw12.c ****           break;
 1245              		.loc 1 347 24 is_stmt 0 view .LVU306
 1246 0064 1A4B     		ldr	r3, .L141+4
 1247 0066 2B60     		str	r3, [r5]	@ float
 348:Drivers/BSP/Components/lis2dw12/lis2dw12.c **** 
 1248              		.loc 1 348 11 is_stmt 1 view .LVU307
 1249 0068 27E0     		b	.L120
 1250              	.L129:
 351:Drivers/BSP/Components/lis2dw12/lis2dw12.c ****           break;
 1251              		.loc 1 351 11 view .LVU308
 351:Drivers/BSP/Components/lis2dw12/lis2dw12.c ****           break;
 1252              		.loc 1 351 24 is_stmt 0 view .LVU309
 1253 006a 1A4B     		ldr	r3, .L141+8
 1254 006c 2B60     		str	r3, [r5]	@ float
 352:Drivers/BSP/Components/lis2dw12/lis2dw12.c **** 
ARM GAS  /tmp/ccCpEZfe.s 			page 59


 1255              		.loc 1 352 11 is_stmt 1 view .LVU310
 1256 006e 24E0     		b	.L120
 1257              	.L127:
 355:Drivers/BSP/Components/lis2dw12/lis2dw12.c ****           break;
 1258              		.loc 1 355 11 view .LVU311
 355:Drivers/BSP/Components/lis2dw12/lis2dw12.c ****           break;
 1259              		.loc 1 355 24 is_stmt 0 view .LVU312
 1260 0070 194B     		ldr	r3, .L141+12
 1261 0072 2B60     		str	r3, [r5]	@ float
 356:Drivers/BSP/Components/lis2dw12/lis2dw12.c **** 
 1262              		.loc 1 356 11 is_stmt 1 view .LVU313
 1263 0074 21E0     		b	.L120
 1264              	.L126:
 359:Drivers/BSP/Components/lis2dw12/lis2dw12.c ****           ret = LIS2DW12_ERROR;
 1265              		.loc 1 359 11 view .LVU314
 359:Drivers/BSP/Components/lis2dw12/lis2dw12.c ****           ret = LIS2DW12_ERROR;
 1266              		.loc 1 359 24 is_stmt 0 view .LVU315
 1267 0076 194B     		ldr	r3, .L141+16
 1268 0078 2B60     		str	r3, [r5]	@ float
 360:Drivers/BSP/Components/lis2dw12/lis2dw12.c ****           break;
 1269              		.loc 1 360 11 is_stmt 1 view .LVU316
 1270              	.LVL102:
 361:Drivers/BSP/Components/lis2dw12/lis2dw12.c ****       }
 1271              		.loc 1 361 11 view .LVU317
 360:Drivers/BSP/Components/lis2dw12/lis2dw12.c ****           break;
 1272              		.loc 1 360 15 is_stmt 0 view .LVU318
 1273 007a 4FF0FF30 		mov	r0, #-1
 361:Drivers/BSP/Components/lis2dw12/lis2dw12.c ****       }
 1274              		.loc 1 361 11 view .LVU319
 1275 007e 1CE0     		b	.L120
 1276              	.LVL103:
 1277              	.L123:
 379:Drivers/BSP/Components/lis2dw12/lis2dw12.c ****       {
 1278              		.loc 1 379 7 is_stmt 1 view .LVU320
 1279 0080 9DF80730 		ldrb	r3, [sp, #7]	@ zero_extendqisi2
 1280 0084 032B     		cmp	r3, #3
 1281 0086 0FD8     		bhi	.L132
 1282 0088 DFE803F0 		tbb	[pc, r3]
 1283              	.L134:
 1284 008c 02       		.byte	(.L137-.L134)/2
 1285 008d 05       		.byte	(.L136-.L134)/2
 1286 008e 08       		.byte	(.L135-.L134)/2
 1287 008f 0B       		.byte	(.L133-.L134)/2
 1288              		.p2align 1
 1289              	.L137:
 382:Drivers/BSP/Components/lis2dw12/lis2dw12.c ****           break;
 1290              		.loc 1 382 11 view .LVU321
 382:Drivers/BSP/Components/lis2dw12/lis2dw12.c ****           break;
 1291              		.loc 1 382 24 is_stmt 0 view .LVU322
 1292 0090 134B     		ldr	r3, .L141+20
 1293 0092 2B60     		str	r3, [r5]	@ float
 383:Drivers/BSP/Components/lis2dw12/lis2dw12.c **** 
 1294              		.loc 1 383 11 is_stmt 1 view .LVU323
 1295 0094 11E0     		b	.L120
 1296              	.L136:
 386:Drivers/BSP/Components/lis2dw12/lis2dw12.c ****           break;
 1297              		.loc 1 386 11 view .LVU324
ARM GAS  /tmp/ccCpEZfe.s 			page 60


 386:Drivers/BSP/Components/lis2dw12/lis2dw12.c ****           break;
 1298              		.loc 1 386 24 is_stmt 0 view .LVU325
 1299 0096 134B     		ldr	r3, .L141+24
 1300 0098 2B60     		str	r3, [r5]	@ float
 387:Drivers/BSP/Components/lis2dw12/lis2dw12.c **** 
 1301              		.loc 1 387 11 is_stmt 1 view .LVU326
 1302 009a 0EE0     		b	.L120
 1303              	.L135:
 390:Drivers/BSP/Components/lis2dw12/lis2dw12.c ****           break;
 1304              		.loc 1 390 11 view .LVU327
 390:Drivers/BSP/Components/lis2dw12/lis2dw12.c ****           break;
 1305              		.loc 1 390 24 is_stmt 0 view .LVU328
 1306 009c 0B4B     		ldr	r3, .L141
 1307 009e 2B60     		str	r3, [r5]	@ float
 391:Drivers/BSP/Components/lis2dw12/lis2dw12.c **** 
 1308              		.loc 1 391 11 is_stmt 1 view .LVU329
 1309 00a0 0BE0     		b	.L120
 1310              	.L133:
 394:Drivers/BSP/Components/lis2dw12/lis2dw12.c ****           break;
 1311              		.loc 1 394 11 view .LVU330
 394:Drivers/BSP/Components/lis2dw12/lis2dw12.c ****           break;
 1312              		.loc 1 394 24 is_stmt 0 view .LVU331
 1313 00a2 0B4B     		ldr	r3, .L141+4
 1314 00a4 2B60     		str	r3, [r5]	@ float
 395:Drivers/BSP/Components/lis2dw12/lis2dw12.c **** 
 1315              		.loc 1 395 11 is_stmt 1 view .LVU332
 1316 00a6 08E0     		b	.L120
 1317              	.L132:
 398:Drivers/BSP/Components/lis2dw12/lis2dw12.c ****           ret = LIS2DW12_ERROR;
 1318              		.loc 1 398 11 view .LVU333
 398:Drivers/BSP/Components/lis2dw12/lis2dw12.c ****           ret = LIS2DW12_ERROR;
 1319              		.loc 1 398 24 is_stmt 0 view .LVU334
 1320 00a8 0C4B     		ldr	r3, .L141+16
 1321 00aa 2B60     		str	r3, [r5]	@ float
 399:Drivers/BSP/Components/lis2dw12/lis2dw12.c ****           break;
 1322              		.loc 1 399 11 is_stmt 1 view .LVU335
 1323              	.LVL104:
 400:Drivers/BSP/Components/lis2dw12/lis2dw12.c ****       }
 1324              		.loc 1 400 11 view .LVU336
 399:Drivers/BSP/Components/lis2dw12/lis2dw12.c ****           break;
 1325              		.loc 1 399 15 is_stmt 0 view .LVU337
 1326 00ac 4FF0FF30 		mov	r0, #-1
 400:Drivers/BSP/Components/lis2dw12/lis2dw12.c ****       }
 1327              		.loc 1 400 11 view .LVU338
 1328 00b0 03E0     		b	.L120
 1329              	.LVL105:
 1330              	.L122:
 405:Drivers/BSP/Components/lis2dw12/lis2dw12.c ****       ret = LIS2DW12_ERROR;
 1331              		.loc 1 405 7 is_stmt 1 view .LVU339
 405:Drivers/BSP/Components/lis2dw12/lis2dw12.c ****       ret = LIS2DW12_ERROR;
 1332              		.loc 1 405 20 is_stmt 0 view .LVU340
 1333 00b2 0A4B     		ldr	r3, .L141+16
 1334 00b4 2B60     		str	r3, [r5]	@ float
 406:Drivers/BSP/Components/lis2dw12/lis2dw12.c ****       break;
 1335              		.loc 1 406 7 is_stmt 1 view .LVU341
 1336              	.LVL106:
 407:Drivers/BSP/Components/lis2dw12/lis2dw12.c ****   }
ARM GAS  /tmp/ccCpEZfe.s 			page 61


 1337              		.loc 1 407 7 view .LVU342
 406:Drivers/BSP/Components/lis2dw12/lis2dw12.c ****       break;
 1338              		.loc 1 406 11 is_stmt 0 view .LVU343
 1339 00b6 4FF0FF30 		mov	r0, #-1
 1340              	.LVL107:
 1341              	.L120:
 411:Drivers/BSP/Components/lis2dw12/lis2dw12.c **** 
 1342              		.loc 1 411 1 view .LVU344
 1343 00ba 03B0     		add	sp, sp, #12
 1344              	.LCFI20:
 1345              		.cfi_remember_state
 1346              		.cfi_def_cfa_offset 12
 1347              		@ sp needed
 1348 00bc 30BD     		pop	{r4, r5, pc}
 1349              	.LVL108:
 1350              	.L138:
 1351              	.LCFI21:
 1352              		.cfi_restore_state
 325:Drivers/BSP/Components/lis2dw12/lis2dw12.c ****   }
 1353              		.loc 1 325 12 view .LVU345
 1354 00be 4FF0FF30 		mov	r0, #-1
 1355 00c2 FAE7     		b	.L120
 1356              	.L139:
 331:Drivers/BSP/Components/lis2dw12/lis2dw12.c ****   }
 1357              		.loc 1 331 12 view .LVU346
 1358 00c4 4FF0FF30 		mov	r0, #-1
 1359              	.LVL109:
 331:Drivers/BSP/Components/lis2dw12/lis2dw12.c ****   }
 1360              		.loc 1 331 12 view .LVU347
 1361 00c8 F7E7     		b	.L120
 1362              	.L142:
 1363 00ca 00BF     		.align	2
 1364              	.L141:
 1365 00cc 23DB793F 		.word	1064950563
 1366 00d0 23DBF93F 		.word	1073339171
 1367 00d4 23DB7940 		.word	1081727779
 1368 00d8 23DBF940 		.word	1090116387
 1369 00dc 000080BF 		.word	-1082130432
 1370 00e0 23DB793E 		.word	1048173347
 1371 00e4 23DBF93E 		.word	1056561955
 1372              		.cfi_endproc
 1373              	.LFE7:
 1375              		.section	.text.LIS2DW12_ACC_GetOutputDataRate,"ax",%progbits
 1376              		.align	1
 1377              		.global	LIS2DW12_ACC_GetOutputDataRate
 1378              		.syntax unified
 1379              		.thumb
 1380              		.thumb_func
 1381              		.fpu fpv4-sp-d16
 1383              	LIS2DW12_ACC_GetOutputDataRate:
 1384              	.LVL110:
 1385              	.LFB8:
 420:Drivers/BSP/Components/lis2dw12/lis2dw12.c ****   int32_t ret = LIS2DW12_OK;
 1386              		.loc 1 420 1 is_stmt 1 view -0
 1387              		.cfi_startproc
 1388              		@ args = 0, pretend = 0, frame = 8
 1389              		@ frame_needed = 0, uses_anonymous_args = 0
ARM GAS  /tmp/ccCpEZfe.s 			page 62


 420:Drivers/BSP/Components/lis2dw12/lis2dw12.c ****   int32_t ret = LIS2DW12_OK;
 1390              		.loc 1 420 1 is_stmt 0 view .LVU349
 1391 0000 30B5     		push	{r4, r5, lr}
 1392              	.LCFI22:
 1393              		.cfi_def_cfa_offset 12
 1394              		.cfi_offset 4, -12
 1395              		.cfi_offset 5, -8
 1396              		.cfi_offset 14, -4
 1397 0002 83B0     		sub	sp, sp, #12
 1398              	.LCFI23:
 1399              		.cfi_def_cfa_offset 24
 1400 0004 0D46     		mov	r5, r1
 421:Drivers/BSP/Components/lis2dw12/lis2dw12.c ****   lis2dw12_odr_t odr_low_level;
 1401              		.loc 1 421 3 is_stmt 1 view .LVU350
 1402              	.LVL111:
 422:Drivers/BSP/Components/lis2dw12/lis2dw12.c ****   lis2dw12_mode_t mode;
 1403              		.loc 1 422 3 view .LVU351
 423:Drivers/BSP/Components/lis2dw12/lis2dw12.c **** 
 1404              		.loc 1 423 3 view .LVU352
 426:Drivers/BSP/Components/lis2dw12/lis2dw12.c ****   {
 1405              		.loc 1 426 3 view .LVU353
 426:Drivers/BSP/Components/lis2dw12/lis2dw12.c ****   {
 1406              		.loc 1 426 7 is_stmt 0 view .LVU354
 1407 0006 00F12004 		add	r4, r0, #32
 1408 000a 0DF10701 		add	r1, sp, #7
 1409              	.LVL112:
 426:Drivers/BSP/Components/lis2dw12/lis2dw12.c ****   {
 1410              		.loc 1 426 7 view .LVU355
 1411 000e 2046     		mov	r0, r4
 1412              	.LVL113:
 426:Drivers/BSP/Components/lis2dw12/lis2dw12.c ****   {
 1413              		.loc 1 426 7 view .LVU356
 1414 0010 FFF7FEFF 		bl	lis2dw12_data_rate_get
 1415              	.LVL114:
 426:Drivers/BSP/Components/lis2dw12/lis2dw12.c ****   {
 1416              		.loc 1 426 6 view .LVU357
 1417 0014 0028     		cmp	r0, #0
 1418 0016 40F0BD80 		bne	.L173
 432:Drivers/BSP/Components/lis2dw12/lis2dw12.c ****   {
 1419              		.loc 1 432 3 is_stmt 1 view .LVU358
 432:Drivers/BSP/Components/lis2dw12/lis2dw12.c ****   {
 1420              		.loc 1 432 7 is_stmt 0 view .LVU359
 1421 001a 0DF10601 		add	r1, sp, #6
 1422 001e 2046     		mov	r0, r4
 1423 0020 FFF7FEFF 		bl	lis2dw12_power_mode_get
 1424              	.LVL115:
 432:Drivers/BSP/Components/lis2dw12/lis2dw12.c ****   {
 1425              		.loc 1 432 6 view .LVU360
 1426 0024 0028     		cmp	r0, #0
 1427 0026 40F0B880 		bne	.L174
 437:Drivers/BSP/Components/lis2dw12/lis2dw12.c ****   {
 1428              		.loc 1 437 3 is_stmt 1 view .LVU361
 1429 002a 9DF80730 		ldrb	r3, [sp, #7]	@ zero_extendqisi2
 1430 002e 322B     		cmp	r3, #50
 1431 0030 00F2AB80 		bhi	.L145
 1432 0034 DFE803F0 		tbb	[pc, r3]
 1433              	.L147:
ARM GAS  /tmp/ccCpEZfe.s 			page 63


 1434 0038 1A       		.byte	(.L146-.L147)/2
 1435 0039 1E       		.byte	(.L156-.L147)/2
 1436 003a 3D       		.byte	(.L155-.L147)/2
 1437 003b 40       		.byte	(.L154-.L147)/2
 1438 003c 43       		.byte	(.L153-.L147)/2
 1439 003d 46       		.byte	(.L152-.L147)/2
 1440 003e 49       		.byte	(.L151-.L147)/2
 1441 003f 4C       		.byte	(.L150-.L147)/2
 1442 0040 6B       		.byte	(.L149-.L147)/2
 1443 0041 8A       		.byte	(.L148-.L147)/2
 1444 0042 A9       		.byte	(.L145-.L147)/2
 1445 0043 A9       		.byte	(.L145-.L147)/2
 1446 0044 A9       		.byte	(.L145-.L147)/2
 1447 0045 A9       		.byte	(.L145-.L147)/2
 1448 0046 A9       		.byte	(.L145-.L147)/2
 1449 0047 A9       		.byte	(.L145-.L147)/2
 1450 0048 A9       		.byte	(.L145-.L147)/2
 1451 0049 A9       		.byte	(.L145-.L147)/2
 1452 004a 1A       		.byte	(.L146-.L147)/2
 1453 004b A9       		.byte	(.L145-.L147)/2
 1454 004c A9       		.byte	(.L145-.L147)/2
 1455 004d A9       		.byte	(.L145-.L147)/2
 1456 004e A9       		.byte	(.L145-.L147)/2
 1457 004f A9       		.byte	(.L145-.L147)/2
 1458 0050 A9       		.byte	(.L145-.L147)/2
 1459 0051 A9       		.byte	(.L145-.L147)/2
 1460 0052 A9       		.byte	(.L145-.L147)/2
 1461 0053 A9       		.byte	(.L145-.L147)/2
 1462 0054 A9       		.byte	(.L145-.L147)/2
 1463 0055 A9       		.byte	(.L145-.L147)/2
 1464 0056 A9       		.byte	(.L145-.L147)/2
 1465 0057 A9       		.byte	(.L145-.L147)/2
 1466 0058 A9       		.byte	(.L145-.L147)/2
 1467 0059 A9       		.byte	(.L145-.L147)/2
 1468 005a A9       		.byte	(.L145-.L147)/2
 1469 005b A9       		.byte	(.L145-.L147)/2
 1470 005c A9       		.byte	(.L145-.L147)/2
 1471 005d A9       		.byte	(.L145-.L147)/2
 1472 005e A9       		.byte	(.L145-.L147)/2
 1473 005f A9       		.byte	(.L145-.L147)/2
 1474 0060 A9       		.byte	(.L145-.L147)/2
 1475 0061 A9       		.byte	(.L145-.L147)/2
 1476 0062 A9       		.byte	(.L145-.L147)/2
 1477 0063 A9       		.byte	(.L145-.L147)/2
 1478 0064 A9       		.byte	(.L145-.L147)/2
 1479 0065 A9       		.byte	(.L145-.L147)/2
 1480 0066 A9       		.byte	(.L145-.L147)/2
 1481 0067 A9       		.byte	(.L145-.L147)/2
 1482 0068 A9       		.byte	(.L145-.L147)/2
 1483 0069 A9       		.byte	(.L145-.L147)/2
 1484 006a 1A       		.byte	(.L146-.L147)/2
 1485 006b 00       		.p2align 1
 1486              	.L146:
 442:Drivers/BSP/Components/lis2dw12/lis2dw12.c ****       break;
 1487              		.loc 1 442 7 view .LVU362
 442:Drivers/BSP/Components/lis2dw12/lis2dw12.c ****       break;
 1488              		.loc 1 442 12 is_stmt 0 view .LVU363
ARM GAS  /tmp/ccCpEZfe.s 			page 64


 1489 006c 0023     		movs	r3, #0
 1490 006e 2B60     		str	r3, [r5]	@ float
 443:Drivers/BSP/Components/lis2dw12/lis2dw12.c **** 
 1491              		.loc 1 443 7 is_stmt 1 view .LVU364
 1492              	.LVL116:
 1493              	.L143:
 608:Drivers/BSP/Components/lis2dw12/lis2dw12.c **** 
 1494              		.loc 1 608 1 is_stmt 0 view .LVU365
 1495 0070 03B0     		add	sp, sp, #12
 1496              	.LCFI24:
 1497              		.cfi_remember_state
 1498              		.cfi_def_cfa_offset 12
 1499              		@ sp needed
 1500 0072 30BD     		pop	{r4, r5, pc}
 1501              	.LVL117:
 1502              	.L156:
 1503              	.LCFI25:
 1504              		.cfi_restore_state
 446:Drivers/BSP/Components/lis2dw12/lis2dw12.c ****       {
 1505              		.loc 1 446 7 is_stmt 1 view .LVU366
 1506 0074 9DF80630 		ldrb	r3, [sp, #6]	@ zero_extendqisi2
 1507 0078 1B2B     		cmp	r3, #27
 1508 007a 15D8     		bhi	.L157
 1509 007c DFE803F0 		tbb	[pc, r3]
 1510              	.L159:
 1511 0080 11       		.byte	(.L158-.L159)/2
 1512 0081 11       		.byte	(.L158-.L159)/2
 1513 0082 11       		.byte	(.L158-.L159)/2
 1514 0083 11       		.byte	(.L158-.L159)/2
 1515 0084 0E       		.byte	(.L160-.L159)/2
 1516 0085 14       		.byte	(.L157-.L159)/2
 1517 0086 14       		.byte	(.L157-.L159)/2
 1518 0087 14       		.byte	(.L157-.L159)/2
 1519 0088 11       		.byte	(.L158-.L159)/2
 1520 0089 11       		.byte	(.L158-.L159)/2
 1521 008a 11       		.byte	(.L158-.L159)/2
 1522 008b 11       		.byte	(.L158-.L159)/2
 1523 008c 14       		.byte	(.L157-.L159)/2
 1524 008d 14       		.byte	(.L157-.L159)/2
 1525 008e 14       		.byte	(.L157-.L159)/2
 1526 008f 14       		.byte	(.L157-.L159)/2
 1527 0090 11       		.byte	(.L158-.L159)/2
 1528 0091 11       		.byte	(.L158-.L159)/2
 1529 0092 11       		.byte	(.L158-.L159)/2
 1530 0093 11       		.byte	(.L158-.L159)/2
 1531 0094 0E       		.byte	(.L160-.L159)/2
 1532 0095 14       		.byte	(.L157-.L159)/2
 1533 0096 14       		.byte	(.L157-.L159)/2
 1534 0097 14       		.byte	(.L157-.L159)/2
 1535 0098 11       		.byte	(.L158-.L159)/2
 1536 0099 11       		.byte	(.L158-.L159)/2
 1537 009a 11       		.byte	(.L158-.L159)/2
 1538 009b 11       		.byte	(.L158-.L159)/2
 1539              		.p2align 1
 1540              	.L160:
 450:Drivers/BSP/Components/lis2dw12/lis2dw12.c ****           break;
 1541              		.loc 1 450 11 view .LVU367
ARM GAS  /tmp/ccCpEZfe.s 			page 65


 450:Drivers/BSP/Components/lis2dw12/lis2dw12.c ****           break;
 1542              		.loc 1 450 16 is_stmt 0 view .LVU368
 1543 009c 404B     		ldr	r3, .L176
 1544 009e 2B60     		str	r3, [r5]	@ float
 451:Drivers/BSP/Components/lis2dw12/lis2dw12.c **** 
 1545              		.loc 1 451 11 is_stmt 1 view .LVU369
 1546 00a0 E6E7     		b	.L143
 1547              	.L158:
 469:Drivers/BSP/Components/lis2dw12/lis2dw12.c ****           break;
 1548              		.loc 1 469 11 view .LVU370
 469:Drivers/BSP/Components/lis2dw12/lis2dw12.c ****           break;
 1549              		.loc 1 469 16 is_stmt 0 view .LVU371
 1550 00a2 404B     		ldr	r3, .L176+4
 1551 00a4 2B60     		str	r3, [r5]	@ float
 470:Drivers/BSP/Components/lis2dw12/lis2dw12.c **** 
 1552              		.loc 1 470 11 is_stmt 1 view .LVU372
 1553 00a6 E3E7     		b	.L143
 1554              	.L157:
 473:Drivers/BSP/Components/lis2dw12/lis2dw12.c ****           ret = LIS2DW12_ERROR;
 1555              		.loc 1 473 11 view .LVU373
 473:Drivers/BSP/Components/lis2dw12/lis2dw12.c ****           ret = LIS2DW12_ERROR;
 1556              		.loc 1 473 16 is_stmt 0 view .LVU374
 1557 00a8 3F4B     		ldr	r3, .L176+8
 1558 00aa 2B60     		str	r3, [r5]	@ float
 474:Drivers/BSP/Components/lis2dw12/lis2dw12.c ****           break;
 1559              		.loc 1 474 11 is_stmt 1 view .LVU375
 1560              	.LVL118:
 475:Drivers/BSP/Components/lis2dw12/lis2dw12.c ****       }
 1561              		.loc 1 475 11 view .LVU376
 474:Drivers/BSP/Components/lis2dw12/lis2dw12.c ****           break;
 1562              		.loc 1 474 15 is_stmt 0 view .LVU377
 1563 00ac 4FF0FF30 		mov	r0, #-1
 475:Drivers/BSP/Components/lis2dw12/lis2dw12.c ****       }
 1564              		.loc 1 475 11 view .LVU378
 1565 00b0 DEE7     		b	.L143
 1566              	.LVL119:
 1567              	.L155:
 480:Drivers/BSP/Components/lis2dw12/lis2dw12.c ****       break;
 1568              		.loc 1 480 7 is_stmt 1 view .LVU379
 480:Drivers/BSP/Components/lis2dw12/lis2dw12.c ****       break;
 1569              		.loc 1 480 12 is_stmt 0 view .LVU380
 1570 00b2 3B4B     		ldr	r3, .L176
 1571 00b4 2B60     		str	r3, [r5]	@ float
 481:Drivers/BSP/Components/lis2dw12/lis2dw12.c **** 
 1572              		.loc 1 481 7 is_stmt 1 view .LVU381
 1573 00b6 DBE7     		b	.L143
 1574              	.L154:
 484:Drivers/BSP/Components/lis2dw12/lis2dw12.c ****       break;
 1575              		.loc 1 484 7 view .LVU382
 484:Drivers/BSP/Components/lis2dw12/lis2dw12.c ****       break;
 1576              		.loc 1 484 12 is_stmt 0 view .LVU383
 1577 00b8 3C4B     		ldr	r3, .L176+12
 1578 00ba 2B60     		str	r3, [r5]	@ float
 485:Drivers/BSP/Components/lis2dw12/lis2dw12.c **** 
 1579              		.loc 1 485 7 is_stmt 1 view .LVU384
 1580 00bc D8E7     		b	.L143
 1581              	.L153:
ARM GAS  /tmp/ccCpEZfe.s 			page 66


 488:Drivers/BSP/Components/lis2dw12/lis2dw12.c ****       break;
 1582              		.loc 1 488 7 view .LVU385
 488:Drivers/BSP/Components/lis2dw12/lis2dw12.c ****       break;
 1583              		.loc 1 488 12 is_stmt 0 view .LVU386
 1584 00be 3C4B     		ldr	r3, .L176+16
 1585 00c0 2B60     		str	r3, [r5]	@ float
 489:Drivers/BSP/Components/lis2dw12/lis2dw12.c **** 
 1586              		.loc 1 489 7 is_stmt 1 view .LVU387
 1587 00c2 D5E7     		b	.L143
 1588              	.L152:
 492:Drivers/BSP/Components/lis2dw12/lis2dw12.c ****       break;
 1589              		.loc 1 492 7 view .LVU388
 492:Drivers/BSP/Components/lis2dw12/lis2dw12.c ****       break;
 1590              		.loc 1 492 12 is_stmt 0 view .LVU389
 1591 00c4 3B4B     		ldr	r3, .L176+20
 1592 00c6 2B60     		str	r3, [r5]	@ float
 493:Drivers/BSP/Components/lis2dw12/lis2dw12.c **** 
 1593              		.loc 1 493 7 is_stmt 1 view .LVU390
 1594 00c8 D2E7     		b	.L143
 1595              	.L151:
 496:Drivers/BSP/Components/lis2dw12/lis2dw12.c ****       break;
 1596              		.loc 1 496 7 view .LVU391
 496:Drivers/BSP/Components/lis2dw12/lis2dw12.c ****       break;
 1597              		.loc 1 496 12 is_stmt 0 view .LVU392
 1598 00ca 3B4B     		ldr	r3, .L176+24
 1599 00cc 2B60     		str	r3, [r5]	@ float
 497:Drivers/BSP/Components/lis2dw12/lis2dw12.c **** 
 1600              		.loc 1 497 7 is_stmt 1 view .LVU393
 1601 00ce CFE7     		b	.L143
 1602              	.L150:
 500:Drivers/BSP/Components/lis2dw12/lis2dw12.c ****       {
 1603              		.loc 1 500 7 view .LVU394
 1604 00d0 9DF80630 		ldrb	r3, [sp, #6]	@ zero_extendqisi2
 1605 00d4 1B2B     		cmp	r3, #27
 1606 00d6 15D8     		bhi	.L161
 1607 00d8 DFE803F0 		tbb	[pc, r3]
 1608              	.L163:
 1609 00dc 11       		.byte	(.L162-.L163)/2
 1610 00dd 11       		.byte	(.L162-.L163)/2
 1611 00de 11       		.byte	(.L162-.L163)/2
 1612 00df 11       		.byte	(.L162-.L163)/2
 1613 00e0 0E       		.byte	(.L164-.L163)/2
 1614 00e1 14       		.byte	(.L161-.L163)/2
 1615 00e2 14       		.byte	(.L161-.L163)/2
 1616 00e3 14       		.byte	(.L161-.L163)/2
 1617 00e4 11       		.byte	(.L162-.L163)/2
 1618 00e5 11       		.byte	(.L162-.L163)/2
 1619 00e6 11       		.byte	(.L162-.L163)/2
 1620 00e7 11       		.byte	(.L162-.L163)/2
 1621 00e8 14       		.byte	(.L161-.L163)/2
 1622 00e9 14       		.byte	(.L161-.L163)/2
 1623 00ea 14       		.byte	(.L161-.L163)/2
 1624 00eb 14       		.byte	(.L161-.L163)/2
 1625 00ec 11       		.byte	(.L162-.L163)/2
 1626 00ed 11       		.byte	(.L162-.L163)/2
 1627 00ee 11       		.byte	(.L162-.L163)/2
 1628 00ef 11       		.byte	(.L162-.L163)/2
ARM GAS  /tmp/ccCpEZfe.s 			page 67


 1629 00f0 0E       		.byte	(.L164-.L163)/2
 1630 00f1 14       		.byte	(.L161-.L163)/2
 1631 00f2 14       		.byte	(.L161-.L163)/2
 1632 00f3 14       		.byte	(.L161-.L163)/2
 1633 00f4 11       		.byte	(.L162-.L163)/2
 1634 00f5 11       		.byte	(.L162-.L163)/2
 1635 00f6 11       		.byte	(.L162-.L163)/2
 1636 00f7 11       		.byte	(.L162-.L163)/2
 1637              		.p2align 1
 1638              	.L164:
 504:Drivers/BSP/Components/lis2dw12/lis2dw12.c ****           break;
 1639              		.loc 1 504 11 view .LVU395
 504:Drivers/BSP/Components/lis2dw12/lis2dw12.c ****           break;
 1640              		.loc 1 504 16 is_stmt 0 view .LVU396
 1641 00f8 304B     		ldr	r3, .L176+28
 1642 00fa 2B60     		str	r3, [r5]	@ float
 505:Drivers/BSP/Components/lis2dw12/lis2dw12.c **** 
 1643              		.loc 1 505 11 is_stmt 1 view .LVU397
 1644 00fc B8E7     		b	.L143
 1645              	.L162:
 523:Drivers/BSP/Components/lis2dw12/lis2dw12.c ****           break;
 1646              		.loc 1 523 11 view .LVU398
 523:Drivers/BSP/Components/lis2dw12/lis2dw12.c ****           break;
 1647              		.loc 1 523 16 is_stmt 0 view .LVU399
 1648 00fe 2E4B     		ldr	r3, .L176+24
 1649 0100 2B60     		str	r3, [r5]	@ float
 524:Drivers/BSP/Components/lis2dw12/lis2dw12.c **** 
 1650              		.loc 1 524 11 is_stmt 1 view .LVU400
 1651 0102 B5E7     		b	.L143
 1652              	.L161:
 527:Drivers/BSP/Components/lis2dw12/lis2dw12.c ****           ret = LIS2DW12_ERROR;
 1653              		.loc 1 527 11 view .LVU401
 527:Drivers/BSP/Components/lis2dw12/lis2dw12.c ****           ret = LIS2DW12_ERROR;
 1654              		.loc 1 527 16 is_stmt 0 view .LVU402
 1655 0104 284B     		ldr	r3, .L176+8
 1656 0106 2B60     		str	r3, [r5]	@ float
 528:Drivers/BSP/Components/lis2dw12/lis2dw12.c ****           break;
 1657              		.loc 1 528 11 is_stmt 1 view .LVU403
 1658              	.LVL120:
 529:Drivers/BSP/Components/lis2dw12/lis2dw12.c ****       }
 1659              		.loc 1 529 11 view .LVU404
 528:Drivers/BSP/Components/lis2dw12/lis2dw12.c ****           break;
 1660              		.loc 1 528 15 is_stmt 0 view .LVU405
 1661 0108 4FF0FF30 		mov	r0, #-1
 529:Drivers/BSP/Components/lis2dw12/lis2dw12.c ****       }
 1662              		.loc 1 529 11 view .LVU406
 1663 010c B0E7     		b	.L143
 1664              	.LVL121:
 1665              	.L149:
 534:Drivers/BSP/Components/lis2dw12/lis2dw12.c ****       {
 1666              		.loc 1 534 7 is_stmt 1 view .LVU407
 1667 010e 9DF80630 		ldrb	r3, [sp, #6]	@ zero_extendqisi2
 1668 0112 1B2B     		cmp	r3, #27
 1669 0114 15D8     		bhi	.L165
 1670 0116 DFE803F0 		tbb	[pc, r3]
 1671              	.L167:
 1672 011a 11       		.byte	(.L166-.L167)/2
ARM GAS  /tmp/ccCpEZfe.s 			page 68


 1673 011b 11       		.byte	(.L166-.L167)/2
 1674 011c 11       		.byte	(.L166-.L167)/2
 1675 011d 11       		.byte	(.L166-.L167)/2
 1676 011e 0E       		.byte	(.L168-.L167)/2
 1677 011f 14       		.byte	(.L165-.L167)/2
 1678 0120 14       		.byte	(.L165-.L167)/2
 1679 0121 14       		.byte	(.L165-.L167)/2
 1680 0122 11       		.byte	(.L166-.L167)/2
 1681 0123 11       		.byte	(.L166-.L167)/2
 1682 0124 11       		.byte	(.L166-.L167)/2
 1683 0125 11       		.byte	(.L166-.L167)/2
 1684 0126 14       		.byte	(.L165-.L167)/2
 1685 0127 14       		.byte	(.L165-.L167)/2
 1686 0128 14       		.byte	(.L165-.L167)/2
 1687 0129 14       		.byte	(.L165-.L167)/2
 1688 012a 11       		.byte	(.L166-.L167)/2
 1689 012b 11       		.byte	(.L166-.L167)/2
 1690 012c 11       		.byte	(.L166-.L167)/2
 1691 012d 11       		.byte	(.L166-.L167)/2
 1692 012e 0E       		.byte	(.L168-.L167)/2
 1693 012f 14       		.byte	(.L165-.L167)/2
 1694 0130 14       		.byte	(.L165-.L167)/2
 1695 0131 14       		.byte	(.L165-.L167)/2
 1696 0132 11       		.byte	(.L166-.L167)/2
 1697 0133 11       		.byte	(.L166-.L167)/2
 1698 0134 11       		.byte	(.L166-.L167)/2
 1699 0135 11       		.byte	(.L166-.L167)/2
 1700              		.p2align 1
 1701              	.L168:
 538:Drivers/BSP/Components/lis2dw12/lis2dw12.c ****           break;
 1702              		.loc 1 538 11 view .LVU408
 538:Drivers/BSP/Components/lis2dw12/lis2dw12.c ****           break;
 1703              		.loc 1 538 16 is_stmt 0 view .LVU409
 1704 0136 224B     		ldr	r3, .L176+32
 1705 0138 2B60     		str	r3, [r5]	@ float
 539:Drivers/BSP/Components/lis2dw12/lis2dw12.c **** 
 1706              		.loc 1 539 11 is_stmt 1 view .LVU410
 1707 013a 99E7     		b	.L143
 1708              	.L166:
 557:Drivers/BSP/Components/lis2dw12/lis2dw12.c ****           break;
 1709              		.loc 1 557 11 view .LVU411
 557:Drivers/BSP/Components/lis2dw12/lis2dw12.c ****           break;
 1710              		.loc 1 557 16 is_stmt 0 view .LVU412
 1711 013c 1E4B     		ldr	r3, .L176+24
 1712 013e 2B60     		str	r3, [r5]	@ float
 558:Drivers/BSP/Components/lis2dw12/lis2dw12.c **** 
 1713              		.loc 1 558 11 is_stmt 1 view .LVU413
 1714 0140 96E7     		b	.L143
 1715              	.L165:
 561:Drivers/BSP/Components/lis2dw12/lis2dw12.c ****           ret = LIS2DW12_ERROR;
 1716              		.loc 1 561 11 view .LVU414
 561:Drivers/BSP/Components/lis2dw12/lis2dw12.c ****           ret = LIS2DW12_ERROR;
 1717              		.loc 1 561 16 is_stmt 0 view .LVU415
 1718 0142 194B     		ldr	r3, .L176+8
 1719 0144 2B60     		str	r3, [r5]	@ float
 562:Drivers/BSP/Components/lis2dw12/lis2dw12.c ****           break;
 1720              		.loc 1 562 11 is_stmt 1 view .LVU416
ARM GAS  /tmp/ccCpEZfe.s 			page 69


 1721              	.LVL122:
 563:Drivers/BSP/Components/lis2dw12/lis2dw12.c ****       }
 1722              		.loc 1 563 11 view .LVU417
 562:Drivers/BSP/Components/lis2dw12/lis2dw12.c ****           break;
 1723              		.loc 1 562 15 is_stmt 0 view .LVU418
 1724 0146 4FF0FF30 		mov	r0, #-1
 563:Drivers/BSP/Components/lis2dw12/lis2dw12.c ****       }
 1725              		.loc 1 563 11 view .LVU419
 1726 014a 91E7     		b	.L143
 1727              	.LVL123:
 1728              	.L148:
 568:Drivers/BSP/Components/lis2dw12/lis2dw12.c ****       {
 1729              		.loc 1 568 7 is_stmt 1 view .LVU420
 1730 014c 9DF80630 		ldrb	r3, [sp, #6]	@ zero_extendqisi2
 1731 0150 1B2B     		cmp	r3, #27
 1732 0152 15D8     		bhi	.L169
 1733 0154 DFE803F0 		tbb	[pc, r3]
 1734              	.L171:
 1735 0158 11       		.byte	(.L170-.L171)/2
 1736 0159 11       		.byte	(.L170-.L171)/2
 1737 015a 11       		.byte	(.L170-.L171)/2
 1738 015b 11       		.byte	(.L170-.L171)/2
 1739 015c 0E       		.byte	(.L172-.L171)/2
 1740 015d 14       		.byte	(.L169-.L171)/2
 1741 015e 14       		.byte	(.L169-.L171)/2
 1742 015f 14       		.byte	(.L169-.L171)/2
 1743 0160 11       		.byte	(.L170-.L171)/2
 1744 0161 11       		.byte	(.L170-.L171)/2
 1745 0162 11       		.byte	(.L170-.L171)/2
 1746 0163 11       		.byte	(.L170-.L171)/2
 1747 0164 14       		.byte	(.L169-.L171)/2
 1748 0165 14       		.byte	(.L169-.L171)/2
 1749 0166 14       		.byte	(.L169-.L171)/2
 1750 0167 14       		.byte	(.L169-.L171)/2
 1751 0168 11       		.byte	(.L170-.L171)/2
 1752 0169 11       		.byte	(.L170-.L171)/2
 1753 016a 11       		.byte	(.L170-.L171)/2
 1754 016b 11       		.byte	(.L170-.L171)/2
 1755 016c 0E       		.byte	(.L172-.L171)/2
 1756 016d 14       		.byte	(.L169-.L171)/2
 1757 016e 14       		.byte	(.L169-.L171)/2
 1758 016f 14       		.byte	(.L169-.L171)/2
 1759 0170 11       		.byte	(.L170-.L171)/2
 1760 0171 11       		.byte	(.L170-.L171)/2
 1761 0172 11       		.byte	(.L170-.L171)/2
 1762 0173 11       		.byte	(.L170-.L171)/2
 1763              		.p2align 1
 1764              	.L172:
 572:Drivers/BSP/Components/lis2dw12/lis2dw12.c ****           break;
 1765              		.loc 1 572 11 view .LVU421
 572:Drivers/BSP/Components/lis2dw12/lis2dw12.c ****           break;
 1766              		.loc 1 572 16 is_stmt 0 view .LVU422
 1767 0174 134B     		ldr	r3, .L176+36
 1768 0176 2B60     		str	r3, [r5]	@ float
 573:Drivers/BSP/Components/lis2dw12/lis2dw12.c **** 
 1769              		.loc 1 573 11 is_stmt 1 view .LVU423
 1770 0178 7AE7     		b	.L143
ARM GAS  /tmp/ccCpEZfe.s 			page 70


 1771              	.L170:
 591:Drivers/BSP/Components/lis2dw12/lis2dw12.c ****           break;
 1772              		.loc 1 591 11 view .LVU424
 591:Drivers/BSP/Components/lis2dw12/lis2dw12.c ****           break;
 1773              		.loc 1 591 16 is_stmt 0 view .LVU425
 1774 017a 0F4B     		ldr	r3, .L176+24
 1775 017c 2B60     		str	r3, [r5]	@ float
 592:Drivers/BSP/Components/lis2dw12/lis2dw12.c **** 
 1776              		.loc 1 592 11 is_stmt 1 view .LVU426
 1777 017e 77E7     		b	.L143
 1778              	.L169:
 595:Drivers/BSP/Components/lis2dw12/lis2dw12.c ****           ret = LIS2DW12_ERROR;
 1779              		.loc 1 595 11 view .LVU427
 595:Drivers/BSP/Components/lis2dw12/lis2dw12.c ****           ret = LIS2DW12_ERROR;
 1780              		.loc 1 595 16 is_stmt 0 view .LVU428
 1781 0180 094B     		ldr	r3, .L176+8
 1782 0182 2B60     		str	r3, [r5]	@ float
 596:Drivers/BSP/Components/lis2dw12/lis2dw12.c ****           break;
 1783              		.loc 1 596 11 is_stmt 1 view .LVU429
 1784              	.LVL124:
 597:Drivers/BSP/Components/lis2dw12/lis2dw12.c ****       }
 1785              		.loc 1 597 11 view .LVU430
 596:Drivers/BSP/Components/lis2dw12/lis2dw12.c ****           break;
 1786              		.loc 1 596 15 is_stmt 0 view .LVU431
 1787 0184 4FF0FF30 		mov	r0, #-1
 597:Drivers/BSP/Components/lis2dw12/lis2dw12.c ****       }
 1788              		.loc 1 597 11 view .LVU432
 1789 0188 72E7     		b	.L143
 1790              	.LVL125:
 1791              	.L145:
 602:Drivers/BSP/Components/lis2dw12/lis2dw12.c ****       ret = LIS2DW12_ERROR;
 1792              		.loc 1 602 7 is_stmt 1 view .LVU433
 602:Drivers/BSP/Components/lis2dw12/lis2dw12.c ****       ret = LIS2DW12_ERROR;
 1793              		.loc 1 602 12 is_stmt 0 view .LVU434
 1794 018a 074B     		ldr	r3, .L176+8
 1795 018c 2B60     		str	r3, [r5]	@ float
 603:Drivers/BSP/Components/lis2dw12/lis2dw12.c ****       break;
 1796              		.loc 1 603 7 is_stmt 1 view .LVU435
 1797              	.LVL126:
 604:Drivers/BSP/Components/lis2dw12/lis2dw12.c ****   }
 1798              		.loc 1 604 7 view .LVU436
 603:Drivers/BSP/Components/lis2dw12/lis2dw12.c ****       break;
 1799              		.loc 1 603 11 is_stmt 0 view .LVU437
 1800 018e 4FF0FF30 		mov	r0, #-1
 604:Drivers/BSP/Components/lis2dw12/lis2dw12.c ****   }
 1801              		.loc 1 604 7 view .LVU438
 1802 0192 6DE7     		b	.L143
 1803              	.LVL127:
 1804              	.L173:
 428:Drivers/BSP/Components/lis2dw12/lis2dw12.c ****   }
 1805              		.loc 1 428 12 view .LVU439
 1806 0194 4FF0FF30 		mov	r0, #-1
 1807 0198 6AE7     		b	.L143
 1808              	.L174:
 434:Drivers/BSP/Components/lis2dw12/lis2dw12.c ****   }
 1809              		.loc 1 434 12 view .LVU440
 1810 019a 4FF0FF30 		mov	r0, #-1
ARM GAS  /tmp/ccCpEZfe.s 			page 71


 1811              	.LVL128:
 434:Drivers/BSP/Components/lis2dw12/lis2dw12.c ****   }
 1812              		.loc 1 434 12 view .LVU441
 1813 019e 67E7     		b	.L143
 1814              	.L177:
 1815              		.align	2
 1816              	.L176:
 1817 01a0 00004841 		.word	1095237632
 1818 01a4 CDCCCC3F 		.word	1070386381
 1819 01a8 000080BF 		.word	-1082130432
 1820 01ac 0000C841 		.word	1103626240
 1821 01b0 00004842 		.word	1112014848
 1822 01b4 0000C842 		.word	1120403456
 1823 01b8 00004843 		.word	1128792064
 1824 01bc 0000C843 		.word	1137180672
 1825 01c0 00004844 		.word	1145569280
 1826 01c4 0000C844 		.word	1153957888
 1827              		.cfi_endproc
 1828              	.LFE8:
 1830              		.section	.text.LIS2DW12_ACC_GetAxesRaw,"ax",%progbits
 1831              		.align	1
 1832              		.global	LIS2DW12_ACC_GetAxesRaw
 1833              		.syntax unified
 1834              		.thumb
 1835              		.thumb_func
 1836              		.fpu fpv4-sp-d16
 1838              	LIS2DW12_ACC_GetAxesRaw:
 1839              	.LVL129:
 1840              	.LFB13:
 720:Drivers/BSP/Components/lis2dw12/lis2dw12.c ****   lis2dw12_axis3bit16_t data_raw;
 1841              		.loc 1 720 1 is_stmt 1 view -0
 1842              		.cfi_startproc
 1843              		@ args = 0, pretend = 0, frame = 16
 1844              		@ frame_needed = 0, uses_anonymous_args = 0
 720:Drivers/BSP/Components/lis2dw12/lis2dw12.c ****   lis2dw12_axis3bit16_t data_raw;
 1845              		.loc 1 720 1 is_stmt 0 view .LVU443
 1846 0000 30B5     		push	{r4, r5, lr}
 1847              	.LCFI26:
 1848              		.cfi_def_cfa_offset 12
 1849              		.cfi_offset 4, -12
 1850              		.cfi_offset 5, -8
 1851              		.cfi_offset 14, -4
 1852 0002 85B0     		sub	sp, sp, #20
 1853              	.LCFI27:
 1854              		.cfi_def_cfa_offset 32
 1855 0004 0D46     		mov	r5, r1
 721:Drivers/BSP/Components/lis2dw12/lis2dw12.c ****   lis2dw12_mode_t mode;
 1856              		.loc 1 721 3 is_stmt 1 view .LVU444
 722:Drivers/BSP/Components/lis2dw12/lis2dw12.c ****   int32_t ret = LIS2DW12_OK;
 1857              		.loc 1 722 3 view .LVU445
 723:Drivers/BSP/Components/lis2dw12/lis2dw12.c **** 
 1858              		.loc 1 723 3 view .LVU446
 1859              	.LVL130:
 726:Drivers/BSP/Components/lis2dw12/lis2dw12.c ****   {
 1860              		.loc 1 726 3 view .LVU447
 726:Drivers/BSP/Components/lis2dw12/lis2dw12.c ****   {
 1861              		.loc 1 726 7 is_stmt 0 view .LVU448
ARM GAS  /tmp/ccCpEZfe.s 			page 72


 1862 0006 00F12004 		add	r4, r0, #32
 1863 000a 0DF10701 		add	r1, sp, #7
 1864              	.LVL131:
 726:Drivers/BSP/Components/lis2dw12/lis2dw12.c ****   {
 1865              		.loc 1 726 7 view .LVU449
 1866 000e 2046     		mov	r0, r4
 1867              	.LVL132:
 726:Drivers/BSP/Components/lis2dw12/lis2dw12.c ****   {
 1868              		.loc 1 726 7 view .LVU450
 1869 0010 FFF7FEFF 		bl	lis2dw12_power_mode_get
 1870              	.LVL133:
 726:Drivers/BSP/Components/lis2dw12/lis2dw12.c ****   {
 1871              		.loc 1 726 6 view .LVU451
 1872 0014 0028     		cmp	r0, #0
 1873 0016 4CD1     		bne	.L189
 732:Drivers/BSP/Components/lis2dw12/lis2dw12.c ****   {
 1874              		.loc 1 732 3 is_stmt 1 view .LVU452
 732:Drivers/BSP/Components/lis2dw12/lis2dw12.c ****   {
 1875              		.loc 1 732 7 is_stmt 0 view .LVU453
 1876 0018 02A9     		add	r1, sp, #8
 1877 001a 2046     		mov	r0, r4
 1878 001c FFF7FEFF 		bl	lis2dw12_acceleration_raw_get
 1879              	.LVL134:
 732:Drivers/BSP/Components/lis2dw12/lis2dw12.c ****   {
 1880              		.loc 1 732 6 view .LVU454
 1881 0020 0028     		cmp	r0, #0
 1882 0022 49D1     		bne	.L190
 737:Drivers/BSP/Components/lis2dw12/lis2dw12.c ****   {
 1883              		.loc 1 737 3 is_stmt 1 view .LVU455
 1884 0024 9DF80730 		ldrb	r3, [sp, #7]	@ zero_extendqisi2
 1885 0028 1B2B     		cmp	r3, #27
 1886 002a 48D8     		bhi	.L191
 1887 002c DFE803F0 		tbb	[pc, r3]
 1888              	.L181:
 1889 0030 0E       		.byte	(.L182-.L181)/2
 1890 0031 28       		.byte	(.L180-.L181)/2
 1891 0032 28       		.byte	(.L180-.L181)/2
 1892 0033 28       		.byte	(.L180-.L181)/2
 1893 0034 28       		.byte	(.L180-.L181)/2
 1894 0035 47       		.byte	(.L191-.L181)/2
 1895 0036 47       		.byte	(.L191-.L181)/2
 1896 0037 47       		.byte	(.L191-.L181)/2
 1897 0038 0E       		.byte	(.L182-.L181)/2
 1898 0039 28       		.byte	(.L180-.L181)/2
 1899 003a 28       		.byte	(.L180-.L181)/2
 1900 003b 28       		.byte	(.L180-.L181)/2
 1901 003c 47       		.byte	(.L191-.L181)/2
 1902 003d 47       		.byte	(.L191-.L181)/2
 1903 003e 47       		.byte	(.L191-.L181)/2
 1904 003f 47       		.byte	(.L191-.L181)/2
 1905 0040 0E       		.byte	(.L182-.L181)/2
 1906 0041 28       		.byte	(.L180-.L181)/2
 1907 0042 28       		.byte	(.L180-.L181)/2
 1908 0043 28       		.byte	(.L180-.L181)/2
 1909 0044 28       		.byte	(.L180-.L181)/2
 1910 0045 47       		.byte	(.L191-.L181)/2
 1911 0046 47       		.byte	(.L191-.L181)/2
ARM GAS  /tmp/ccCpEZfe.s 			page 73


 1912 0047 47       		.byte	(.L191-.L181)/2
 1913 0048 0E       		.byte	(.L182-.L181)/2
 1914 0049 28       		.byte	(.L180-.L181)/2
 1915 004a 28       		.byte	(.L180-.L181)/2
 1916 004b 28       		.byte	(.L180-.L181)/2
 1917              		.p2align 1
 1918              	.L182:
 744:Drivers/BSP/Components/lis2dw12/lis2dw12.c ****       Value->y = (data_raw.i16bit[1] / 16);
 1919              		.loc 1 744 7 view .LVU456
 744:Drivers/BSP/Components/lis2dw12/lis2dw12.c ****       Value->y = (data_raw.i16bit[1] / 16);
 1920              		.loc 1 744 34 is_stmt 0 view .LVU457
 1921 004c BDF90830 		ldrsh	r3, [sp, #8]
 744:Drivers/BSP/Components/lis2dw12/lis2dw12.c ****       Value->y = (data_raw.i16bit[1] / 16);
 1922              		.loc 1 744 16 view .LVU458
 1923 0050 002B     		cmp	r3, #0
 1924 0052 0FDB     		blt	.L193
 1925              	.L183:
 1926 0054 1B11     		asrs	r3, r3, #4
 1927 0056 2B80     		strh	r3, [r5]	@ movhi
 745:Drivers/BSP/Components/lis2dw12/lis2dw12.c ****       Value->z = (data_raw.i16bit[2] / 16);
 1928              		.loc 1 745 7 is_stmt 1 view .LVU459
 745:Drivers/BSP/Components/lis2dw12/lis2dw12.c ****       Value->z = (data_raw.i16bit[2] / 16);
 1929              		.loc 1 745 34 is_stmt 0 view .LVU460
 1930 0058 BDF90A30 		ldrsh	r3, [sp, #10]
 745:Drivers/BSP/Components/lis2dw12/lis2dw12.c ****       Value->z = (data_raw.i16bit[2] / 16);
 1931              		.loc 1 745 16 view .LVU461
 1932 005c 002B     		cmp	r3, #0
 1933 005e 0BDB     		blt	.L194
 1934              	.L184:
 1935 0060 1B11     		asrs	r3, r3, #4
 1936 0062 6B80     		strh	r3, [r5, #2]	@ movhi
 746:Drivers/BSP/Components/lis2dw12/lis2dw12.c ****       break;
 1937              		.loc 1 746 7 is_stmt 1 view .LVU462
 746:Drivers/BSP/Components/lis2dw12/lis2dw12.c ****       break;
 1938              		.loc 1 746 34 is_stmt 0 view .LVU463
 1939 0064 BDF90C30 		ldrsh	r3, [sp, #12]
 746:Drivers/BSP/Components/lis2dw12/lis2dw12.c ****       break;
 1940              		.loc 1 746 16 view .LVU464
 1941 0068 002B     		cmp	r3, #0
 1942 006a 07DB     		blt	.L195
 1943              	.L185:
 1944 006c 1B11     		asrs	r3, r3, #4
 1945 006e AB80     		strh	r3, [r5, #4]	@ movhi
 747:Drivers/BSP/Components/lis2dw12/lis2dw12.c **** 
 1946              		.loc 1 747 7 is_stmt 1 view .LVU465
 1947              	.LVL135:
 1948              	.L178:
 775:Drivers/BSP/Components/lis2dw12/lis2dw12.c **** 
 1949              		.loc 1 775 1 is_stmt 0 view .LVU466
 1950 0070 05B0     		add	sp, sp, #20
 1951              	.LCFI28:
 1952              		.cfi_remember_state
 1953              		.cfi_def_cfa_offset 12
 1954              		@ sp needed
 1955 0072 30BD     		pop	{r4, r5, pc}
 1956              	.LVL136:
 1957              	.L193:
ARM GAS  /tmp/ccCpEZfe.s 			page 74


 1958              	.LCFI29:
 1959              		.cfi_restore_state
 744:Drivers/BSP/Components/lis2dw12/lis2dw12.c ****       Value->y = (data_raw.i16bit[1] / 16);
 1960              		.loc 1 744 16 view .LVU467
 1961 0074 0F33     		adds	r3, r3, #15
 1962 0076 EDE7     		b	.L183
 1963              	.L194:
 745:Drivers/BSP/Components/lis2dw12/lis2dw12.c ****       Value->z = (data_raw.i16bit[2] / 16);
 1964              		.loc 1 745 16 view .LVU468
 1965 0078 0F33     		adds	r3, r3, #15
 1966 007a F1E7     		b	.L184
 1967              	.L195:
 746:Drivers/BSP/Components/lis2dw12/lis2dw12.c ****       break;
 1968              		.loc 1 746 16 view .LVU469
 1969 007c 0F33     		adds	r3, r3, #15
 1970 007e F5E7     		b	.L185
 1971              	.L180:
 764:Drivers/BSP/Components/lis2dw12/lis2dw12.c ****       Value->y = (data_raw.i16bit[1] / 4);
 1972              		.loc 1 764 7 is_stmt 1 view .LVU470
 764:Drivers/BSP/Components/lis2dw12/lis2dw12.c ****       Value->y = (data_raw.i16bit[1] / 4);
 1973              		.loc 1 764 34 is_stmt 0 view .LVU471
 1974 0080 BDF90830 		ldrsh	r3, [sp, #8]
 764:Drivers/BSP/Components/lis2dw12/lis2dw12.c ****       Value->y = (data_raw.i16bit[1] / 4);
 1975              		.loc 1 764 16 view .LVU472
 1976 0084 002B     		cmp	r3, #0
 1977 0086 0EDB     		blt	.L196
 1978              	.L186:
 1979 0088 9B10     		asrs	r3, r3, #2
 1980 008a 2B80     		strh	r3, [r5]	@ movhi
 765:Drivers/BSP/Components/lis2dw12/lis2dw12.c ****       Value->z = (data_raw.i16bit[2] / 4);
 1981              		.loc 1 765 7 is_stmt 1 view .LVU473
 765:Drivers/BSP/Components/lis2dw12/lis2dw12.c ****       Value->z = (data_raw.i16bit[2] / 4);
 1982              		.loc 1 765 34 is_stmt 0 view .LVU474
 1983 008c BDF90A30 		ldrsh	r3, [sp, #10]
 765:Drivers/BSP/Components/lis2dw12/lis2dw12.c ****       Value->z = (data_raw.i16bit[2] / 4);
 1984              		.loc 1 765 16 view .LVU475
 1985 0090 002B     		cmp	r3, #0
 1986 0092 0ADB     		blt	.L197
 1987              	.L187:
 1988 0094 9B10     		asrs	r3, r3, #2
 1989 0096 6B80     		strh	r3, [r5, #2]	@ movhi
 766:Drivers/BSP/Components/lis2dw12/lis2dw12.c ****       break;
 1990              		.loc 1 766 7 is_stmt 1 view .LVU476
 766:Drivers/BSP/Components/lis2dw12/lis2dw12.c ****       break;
 1991              		.loc 1 766 34 is_stmt 0 view .LVU477
 1992 0098 BDF90C30 		ldrsh	r3, [sp, #12]
 766:Drivers/BSP/Components/lis2dw12/lis2dw12.c ****       break;
 1993              		.loc 1 766 16 view .LVU478
 1994 009c 002B     		cmp	r3, #0
 1995 009e 06DB     		blt	.L198
 1996              	.L188:
 1997 00a0 9B10     		asrs	r3, r3, #2
 1998 00a2 AB80     		strh	r3, [r5, #4]	@ movhi
 767:Drivers/BSP/Components/lis2dw12/lis2dw12.c **** 
 1999              		.loc 1 767 7 is_stmt 1 view .LVU479
 2000 00a4 E4E7     		b	.L178
 2001              	.L196:
ARM GAS  /tmp/ccCpEZfe.s 			page 75


 764:Drivers/BSP/Components/lis2dw12/lis2dw12.c ****       Value->y = (data_raw.i16bit[1] / 4);
 2002              		.loc 1 764 16 is_stmt 0 view .LVU480
 2003 00a6 0333     		adds	r3, r3, #3
 2004 00a8 EEE7     		b	.L186
 2005              	.L197:
 765:Drivers/BSP/Components/lis2dw12/lis2dw12.c ****       Value->z = (data_raw.i16bit[2] / 4);
 2006              		.loc 1 765 16 view .LVU481
 2007 00aa 0333     		adds	r3, r3, #3
 2008 00ac F2E7     		b	.L187
 2009              	.L198:
 766:Drivers/BSP/Components/lis2dw12/lis2dw12.c ****       break;
 2010              		.loc 1 766 16 view .LVU482
 2011 00ae 0333     		adds	r3, r3, #3
 2012 00b0 F6E7     		b	.L188
 2013              	.L189:
 728:Drivers/BSP/Components/lis2dw12/lis2dw12.c ****   }
 2014              		.loc 1 728 12 view .LVU483
 2015 00b2 4FF0FF30 		mov	r0, #-1
 2016 00b6 DBE7     		b	.L178
 2017              	.L190:
 734:Drivers/BSP/Components/lis2dw12/lis2dw12.c ****   }
 2018              		.loc 1 734 12 view .LVU484
 2019 00b8 4FF0FF30 		mov	r0, #-1
 2020 00bc D8E7     		b	.L178
 2021              	.L191:
 737:Drivers/BSP/Components/lis2dw12/lis2dw12.c ****   {
 2022              		.loc 1 737 3 view .LVU485
 2023 00be 4FF0FF30 		mov	r0, #-1
 2024              	.LVL137:
 737:Drivers/BSP/Components/lis2dw12/lis2dw12.c ****   {
 2025              		.loc 1 737 3 view .LVU486
 2026 00c2 D5E7     		b	.L178
 2027              		.cfi_endproc
 2028              	.LFE13:
 2030              		.section	.text.LIS2DW12_ACC_GetAxes,"ax",%progbits
 2031              		.align	1
 2032              		.global	LIS2DW12_ACC_GetAxes
 2033              		.syntax unified
 2034              		.thumb
 2035              		.thumb_func
 2036              		.fpu fpv4-sp-d16
 2038              	LIS2DW12_ACC_GetAxes:
 2039              	.LVL138:
 2040              	.LFB14:
 784:Drivers/BSP/Components/lis2dw12/lis2dw12.c ****   LIS2DW12_AxesRaw_t data_raw;
 2041              		.loc 1 784 1 is_stmt 1 view -0
 2042              		.cfi_startproc
 2043              		@ args = 0, pretend = 0, frame = 16
 2044              		@ frame_needed = 0, uses_anonymous_args = 0
 784:Drivers/BSP/Components/lis2dw12/lis2dw12.c ****   LIS2DW12_AxesRaw_t data_raw;
 2045              		.loc 1 784 1 is_stmt 0 view .LVU488
 2046 0000 30B5     		push	{r4, r5, lr}
 2047              	.LCFI30:
 2048              		.cfi_def_cfa_offset 12
 2049              		.cfi_offset 4, -12
 2050              		.cfi_offset 5, -8
 2051              		.cfi_offset 14, -4
ARM GAS  /tmp/ccCpEZfe.s 			page 76


 2052 0002 85B0     		sub	sp, sp, #20
 2053              	.LCFI31:
 2054              		.cfi_def_cfa_offset 32
 2055 0004 0546     		mov	r5, r0
 2056 0006 0C46     		mov	r4, r1
 785:Drivers/BSP/Components/lis2dw12/lis2dw12.c ****   float sensitivity = 0.0f;
 2057              		.loc 1 785 3 is_stmt 1 view .LVU489
 786:Drivers/BSP/Components/lis2dw12/lis2dw12.c **** 
 2058              		.loc 1 786 3 view .LVU490
 786:Drivers/BSP/Components/lis2dw12/lis2dw12.c **** 
 2059              		.loc 1 786 9 is_stmt 0 view .LVU491
 2060 0008 0023     		movs	r3, #0
 2061 000a 0193     		str	r3, [sp, #4]	@ float
 789:Drivers/BSP/Components/lis2dw12/lis2dw12.c ****   {
 2062              		.loc 1 789 3 is_stmt 1 view .LVU492
 789:Drivers/BSP/Components/lis2dw12/lis2dw12.c ****   {
 2063              		.loc 1 789 7 is_stmt 0 view .LVU493
 2064 000c 02A9     		add	r1, sp, #8
 2065              	.LVL139:
 789:Drivers/BSP/Components/lis2dw12/lis2dw12.c ****   {
 2066              		.loc 1 789 7 view .LVU494
 2067 000e FFF7FEFF 		bl	LIS2DW12_ACC_GetAxesRaw
 2068              	.LVL140:
 789:Drivers/BSP/Components/lis2dw12/lis2dw12.c ****   {
 2069              		.loc 1 789 6 view .LVU495
 2070 0012 60BB     		cbnz	r0, .L201
 795:Drivers/BSP/Components/lis2dw12/lis2dw12.c ****   {
 2071              		.loc 1 795 3 is_stmt 1 view .LVU496
 795:Drivers/BSP/Components/lis2dw12/lis2dw12.c ****   {
 2072              		.loc 1 795 7 is_stmt 0 view .LVU497
 2073 0014 01A9     		add	r1, sp, #4
 2074 0016 2846     		mov	r0, r5
 2075 0018 FFF7FEFF 		bl	LIS2DW12_ACC_GetSensitivity
 2076              	.LVL141:
 795:Drivers/BSP/Components/lis2dw12/lis2dw12.c ****   {
 2077              		.loc 1 795 6 view .LVU498
 2078 001c 50BB     		cbnz	r0, .L202
 801:Drivers/BSP/Components/lis2dw12/lis2dw12.c ****   Acceleration->y = (int32_t)((float)((float)data_raw.y * sensitivity));
 2079              		.loc 1 801 3 is_stmt 1 view .LVU499
 801:Drivers/BSP/Components/lis2dw12/lis2dw12.c ****   Acceleration->y = (int32_t)((float)((float)data_raw.y * sensitivity));
 2080              		.loc 1 801 54 is_stmt 0 view .LVU500
 2081 001e BDF90830 		ldrsh	r3, [sp, #8]
 2082 0022 07EE103A 		vmov	s14, r3	@ int
 801:Drivers/BSP/Components/lis2dw12/lis2dw12.c ****   Acceleration->y = (int32_t)((float)((float)data_raw.y * sensitivity));
 2083              		.loc 1 801 39 view .LVU501
 2084 0026 B8EEC77A 		vcvt.f32.s32	s14, s14
 801:Drivers/BSP/Components/lis2dw12/lis2dw12.c ****   Acceleration->y = (int32_t)((float)((float)data_raw.y * sensitivity));
 2085              		.loc 1 801 31 view .LVU502
 2086 002a DDED017A 		vldr.32	s15, [sp, #4]
 2087 002e 27EE277A 		vmul.f32	s14, s14, s15
 801:Drivers/BSP/Components/lis2dw12/lis2dw12.c ****   Acceleration->y = (int32_t)((float)((float)data_raw.y * sensitivity));
 2088              		.loc 1 801 21 view .LVU503
 2089 0032 BDEEC77A 		vcvt.s32.f32	s14, s14
 801:Drivers/BSP/Components/lis2dw12/lis2dw12.c ****   Acceleration->y = (int32_t)((float)((float)data_raw.y * sensitivity));
 2090              		.loc 1 801 19 view .LVU504
 2091 0036 84ED007A 		vstr.32	s14, [r4]	@ int
 802:Drivers/BSP/Components/lis2dw12/lis2dw12.c ****   Acceleration->z = (int32_t)((float)((float)data_raw.z * sensitivity));
ARM GAS  /tmp/ccCpEZfe.s 			page 77


 2092              		.loc 1 802 3 is_stmt 1 view .LVU505
 802:Drivers/BSP/Components/lis2dw12/lis2dw12.c ****   Acceleration->z = (int32_t)((float)((float)data_raw.z * sensitivity));
 2093              		.loc 1 802 54 is_stmt 0 view .LVU506
 2094 003a BDF90A30 		ldrsh	r3, [sp, #10]
 2095 003e 07EE103A 		vmov	s14, r3	@ int
 802:Drivers/BSP/Components/lis2dw12/lis2dw12.c ****   Acceleration->z = (int32_t)((float)((float)data_raw.z * sensitivity));
 2096              		.loc 1 802 39 view .LVU507
 2097 0042 B8EEC77A 		vcvt.f32.s32	s14, s14
 802:Drivers/BSP/Components/lis2dw12/lis2dw12.c ****   Acceleration->z = (int32_t)((float)((float)data_raw.z * sensitivity));
 2098              		.loc 1 802 31 view .LVU508
 2099 0046 27EE277A 		vmul.f32	s14, s14, s15
 802:Drivers/BSP/Components/lis2dw12/lis2dw12.c ****   Acceleration->z = (int32_t)((float)((float)data_raw.z * sensitivity));
 2100              		.loc 1 802 21 view .LVU509
 2101 004a BDEEC77A 		vcvt.s32.f32	s14, s14
 802:Drivers/BSP/Components/lis2dw12/lis2dw12.c ****   Acceleration->z = (int32_t)((float)((float)data_raw.z * sensitivity));
 2102              		.loc 1 802 19 view .LVU510
 2103 004e 84ED017A 		vstr.32	s14, [r4, #4]	@ int
 803:Drivers/BSP/Components/lis2dw12/lis2dw12.c **** 
 2104              		.loc 1 803 3 is_stmt 1 view .LVU511
 803:Drivers/BSP/Components/lis2dw12/lis2dw12.c **** 
 2105              		.loc 1 803 54 is_stmt 0 view .LVU512
 2106 0052 BDF90C30 		ldrsh	r3, [sp, #12]
 2107 0056 07EE103A 		vmov	s14, r3	@ int
 803:Drivers/BSP/Components/lis2dw12/lis2dw12.c **** 
 2108              		.loc 1 803 39 view .LVU513
 2109 005a B8EEC77A 		vcvt.f32.s32	s14, s14
 803:Drivers/BSP/Components/lis2dw12/lis2dw12.c **** 
 2110              		.loc 1 803 31 view .LVU514
 2111 005e 67EE877A 		vmul.f32	s15, s15, s14
 803:Drivers/BSP/Components/lis2dw12/lis2dw12.c **** 
 2112              		.loc 1 803 21 view .LVU515
 2113 0062 FDEEE77A 		vcvt.s32.f32	s15, s15
 803:Drivers/BSP/Components/lis2dw12/lis2dw12.c **** 
 2114              		.loc 1 803 19 view .LVU516
 2115 0066 C4ED027A 		vstr.32	s15, [r4, #8]	@ int
 805:Drivers/BSP/Components/lis2dw12/lis2dw12.c **** }
 2116              		.loc 1 805 3 is_stmt 1 view .LVU517
 2117              	.L199:
 806:Drivers/BSP/Components/lis2dw12/lis2dw12.c **** 
 2118              		.loc 1 806 1 is_stmt 0 view .LVU518
 2119 006a 05B0     		add	sp, sp, #20
 2120              	.LCFI32:
 2121              		.cfi_remember_state
 2122              		.cfi_def_cfa_offset 12
 2123              		@ sp needed
 2124 006c 30BD     		pop	{r4, r5, pc}
 2125              	.LVL142:
 2126              	.L201:
 2127              	.LCFI33:
 2128              		.cfi_restore_state
 791:Drivers/BSP/Components/lis2dw12/lis2dw12.c ****   }
 2129              		.loc 1 791 12 view .LVU519
 2130 006e 4FF0FF30 		mov	r0, #-1
 2131 0072 FAE7     		b	.L199
 2132              	.L202:
 797:Drivers/BSP/Components/lis2dw12/lis2dw12.c ****   }
 2133              		.loc 1 797 12 view .LVU520
ARM GAS  /tmp/ccCpEZfe.s 			page 78


 2134 0074 4FF0FF30 		mov	r0, #-1
 2135 0078 F7E7     		b	.L199
 2136              		.cfi_endproc
 2137              	.LFE14:
 2139              		.section	.text.LIS2DW12_ACC_SetOutputDataRate_With_Mode,"ax",%progbits
 2140              		.align	1
 2141              		.global	LIS2DW12_ACC_SetOutputDataRate_With_Mode
 2142              		.syntax unified
 2143              		.thumb
 2144              		.thumb_func
 2145              		.fpu fpv4-sp-d16
 2147              	LIS2DW12_ACC_SetOutputDataRate_With_Mode:
 2148              	.LVL143:
 2149              	.LFB10:
 632:Drivers/BSP/Components/lis2dw12/lis2dw12.c ****   /* Check if the component is enabled */
 2150              		.loc 1 632 1 is_stmt 1 view -0
 2151              		.cfi_startproc
 2152              		@ args = 0, pretend = 0, frame = 0
 2153              		@ frame_needed = 0, uses_anonymous_args = 0
 632:Drivers/BSP/Components/lis2dw12/lis2dw12.c ****   /* Check if the component is enabled */
 2154              		.loc 1 632 1 is_stmt 0 view .LVU522
 2155 0000 08B5     		push	{r3, lr}
 2156              	.LCFI34:
 2157              		.cfi_def_cfa_offset 8
 2158              		.cfi_offset 3, -8
 2159              		.cfi_offset 14, -4
 634:Drivers/BSP/Components/lis2dw12/lis2dw12.c ****   {
 2160              		.loc 1 634 3 is_stmt 1 view .LVU523
 634:Drivers/BSP/Components/lis2dw12/lis2dw12.c ****   {
 2161              		.loc 1 634 11 is_stmt 0 view .LVU524
 2162 0002 90F83130 		ldrb	r3, [r0, #49]	@ zero_extendqisi2
 634:Drivers/BSP/Components/lis2dw12/lis2dw12.c ****   {
 2163              		.loc 1 634 6 view .LVU525
 2164 0006 012B     		cmp	r3, #1
 2165 0008 02D0     		beq	.L208
 640:Drivers/BSP/Components/lis2dw12/lis2dw12.c ****   }
 2166              		.loc 1 640 5 is_stmt 1 view .LVU526
 640:Drivers/BSP/Components/lis2dw12/lis2dw12.c ****   }
 2167              		.loc 1 640 12 is_stmt 0 view .LVU527
 2168 000a FFF7FEFF 		bl	LIS2DW12_ACC_SetOutputDataRate_When_Disabled
 2169              	.LVL144:
 2170              	.L204:
 642:Drivers/BSP/Components/lis2dw12/lis2dw12.c **** 
 2171              		.loc 1 642 1 view .LVU528
 2172 000e 08BD     		pop	{r3, pc}
 2173              	.LVL145:
 2174              	.L208:
 636:Drivers/BSP/Components/lis2dw12/lis2dw12.c ****   }
 2175              		.loc 1 636 5 is_stmt 1 view .LVU529
 636:Drivers/BSP/Components/lis2dw12/lis2dw12.c ****   }
 2176              		.loc 1 636 12 is_stmt 0 view .LVU530
 2177 0010 FFF7FEFF 		bl	LIS2DW12_ACC_SetOutputDataRate_When_Enabled
 2178              	.LVL146:
 636:Drivers/BSP/Components/lis2dw12/lis2dw12.c ****   }
 2179              		.loc 1 636 12 view .LVU531
 2180 0014 FBE7     		b	.L204
 2181              		.cfi_endproc
ARM GAS  /tmp/ccCpEZfe.s 			page 79


 2182              	.LFE10:
 2184              		.section	.text.LIS2DW12_ACC_SetOutputDataRate,"ax",%progbits
 2185              		.align	1
 2186              		.global	LIS2DW12_ACC_SetOutputDataRate
 2187              		.syntax unified
 2188              		.thumb
 2189              		.thumb_func
 2190              		.fpu fpv4-sp-d16
 2192              	LIS2DW12_ACC_SetOutputDataRate:
 2193              	.LVL147:
 2194              	.LFB9:
 617:Drivers/BSP/Components/lis2dw12/lis2dw12.c ****   /* By default we use High Performance mode and Low Noise disabled */
 2195              		.loc 1 617 1 is_stmt 1 view -0
 2196              		.cfi_startproc
 2197              		@ args = 0, pretend = 0, frame = 0
 2198              		@ frame_needed = 0, uses_anonymous_args = 0
 617:Drivers/BSP/Components/lis2dw12/lis2dw12.c ****   /* By default we use High Performance mode and Low Noise disabled */
 2199              		.loc 1 617 1 is_stmt 0 view .LVU533
 2200 0000 08B5     		push	{r3, lr}
 2201              	.LCFI35:
 2202              		.cfi_def_cfa_offset 8
 2203              		.cfi_offset 3, -8
 2204              		.cfi_offset 14, -4
 619:Drivers/BSP/Components/lis2dw12/lis2dw12.c **** }
 2205              		.loc 1 619 3 is_stmt 1 view .LVU534
 619:Drivers/BSP/Components/lis2dw12/lis2dw12.c **** }
 2206              		.loc 1 619 10 is_stmt 0 view .LVU535
 2207 0002 0022     		movs	r2, #0
 2208 0004 1146     		mov	r1, r2
 2209 0006 FFF7FEFF 		bl	LIS2DW12_ACC_SetOutputDataRate_With_Mode
 2210              	.LVL148:
 620:Drivers/BSP/Components/lis2dw12/lis2dw12.c **** 
 2211              		.loc 1 620 1 view .LVU536
 2212 000a 08BD     		pop	{r3, pc}
 2213              		.cfi_endproc
 2214              	.LFE9:
 2216              		.section	.text.LIS2DW12_Read_Reg,"ax",%progbits
 2217              		.align	1
 2218              		.global	LIS2DW12_Read_Reg
 2219              		.syntax unified
 2220              		.thumb
 2221              		.thumb_func
 2222              		.fpu fpv4-sp-d16
 2224              	LIS2DW12_Read_Reg:
 2225              	.LVL149:
 2226              	.LFB15:
 816:Drivers/BSP/Components/lis2dw12/lis2dw12.c ****   if (lis2dw12_read_reg(&(pObj->Ctx), Reg, Data, 1) != LIS2DW12_OK)
 2227              		.loc 1 816 1 is_stmt 1 view -0
 2228              		.cfi_startproc
 2229              		@ args = 0, pretend = 0, frame = 0
 2230              		@ frame_needed = 0, uses_anonymous_args = 0
 816:Drivers/BSP/Components/lis2dw12/lis2dw12.c ****   if (lis2dw12_read_reg(&(pObj->Ctx), Reg, Data, 1) != LIS2DW12_OK)
 2231              		.loc 1 816 1 is_stmt 0 view .LVU538
 2232 0000 08B5     		push	{r3, lr}
 2233              	.LCFI36:
 2234              		.cfi_def_cfa_offset 8
 2235              		.cfi_offset 3, -8
ARM GAS  /tmp/ccCpEZfe.s 			page 80


 2236              		.cfi_offset 14, -4
 817:Drivers/BSP/Components/lis2dw12/lis2dw12.c ****   {
 2237              		.loc 1 817 3 is_stmt 1 view .LVU539
 817:Drivers/BSP/Components/lis2dw12/lis2dw12.c ****   {
 2238              		.loc 1 817 7 is_stmt 0 view .LVU540
 2239 0002 0123     		movs	r3, #1
 2240 0004 2030     		adds	r0, r0, #32
 2241              	.LVL150:
 817:Drivers/BSP/Components/lis2dw12/lis2dw12.c ****   {
 2242              		.loc 1 817 7 view .LVU541
 2243 0006 FFF7FEFF 		bl	lis2dw12_read_reg
 2244              	.LVL151:
 817:Drivers/BSP/Components/lis2dw12/lis2dw12.c ****   {
 2245              		.loc 1 817 6 view .LVU542
 2246 000a 00B9     		cbnz	r0, .L215
 2247              	.L211:
 823:Drivers/BSP/Components/lis2dw12/lis2dw12.c **** 
 2248              		.loc 1 823 1 view .LVU543
 2249 000c 08BD     		pop	{r3, pc}
 2250              	.L215:
 819:Drivers/BSP/Components/lis2dw12/lis2dw12.c ****   }
 2251              		.loc 1 819 12 view .LVU544
 2252 000e 4FF0FF30 		mov	r0, #-1
 2253 0012 FBE7     		b	.L211
 2254              		.cfi_endproc
 2255              	.LFE15:
 2257              		.section	.text.LIS2DW12_Write_Reg,"ax",%progbits
 2258              		.align	1
 2259              		.global	LIS2DW12_Write_Reg
 2260              		.syntax unified
 2261              		.thumb
 2262              		.thumb_func
 2263              		.fpu fpv4-sp-d16
 2265              	LIS2DW12_Write_Reg:
 2266              	.LVL152:
 2267              	.LFB16:
 833:Drivers/BSP/Components/lis2dw12/lis2dw12.c ****   if (lis2dw12_write_reg(&(pObj->Ctx), Reg, &Data, 1) != LIS2DW12_OK)
 2268              		.loc 1 833 1 is_stmt 1 view -0
 2269              		.cfi_startproc
 2270              		@ args = 0, pretend = 0, frame = 8
 2271              		@ frame_needed = 0, uses_anonymous_args = 0
 833:Drivers/BSP/Components/lis2dw12/lis2dw12.c ****   if (lis2dw12_write_reg(&(pObj->Ctx), Reg, &Data, 1) != LIS2DW12_OK)
 2272              		.loc 1 833 1 is_stmt 0 view .LVU546
 2273 0000 00B5     		push	{lr}
 2274              	.LCFI37:
 2275              		.cfi_def_cfa_offset 4
 2276              		.cfi_offset 14, -4
 2277 0002 83B0     		sub	sp, sp, #12
 2278              	.LCFI38:
 2279              		.cfi_def_cfa_offset 16
 2280 0004 8DF80720 		strb	r2, [sp, #7]
 834:Drivers/BSP/Components/lis2dw12/lis2dw12.c ****   {
 2281              		.loc 1 834 3 is_stmt 1 view .LVU547
 834:Drivers/BSP/Components/lis2dw12/lis2dw12.c ****   {
 2282              		.loc 1 834 7 is_stmt 0 view .LVU548
 2283 0008 0123     		movs	r3, #1
 2284 000a 0DF10702 		add	r2, sp, #7
ARM GAS  /tmp/ccCpEZfe.s 			page 81


 2285              	.LVL153:
 834:Drivers/BSP/Components/lis2dw12/lis2dw12.c ****   {
 2286              		.loc 1 834 7 view .LVU549
 2287 000e 2030     		adds	r0, r0, #32
 2288              	.LVL154:
 834:Drivers/BSP/Components/lis2dw12/lis2dw12.c ****   {
 2289              		.loc 1 834 7 view .LVU550
 2290 0010 FFF7FEFF 		bl	lis2dw12_write_reg
 2291              	.LVL155:
 834:Drivers/BSP/Components/lis2dw12/lis2dw12.c ****   {
 2292              		.loc 1 834 6 view .LVU551
 2293 0014 10B9     		cbnz	r0, .L220
 2294              	.L216:
 840:Drivers/BSP/Components/lis2dw12/lis2dw12.c **** 
 2295              		.loc 1 840 1 view .LVU552
 2296 0016 03B0     		add	sp, sp, #12
 2297              	.LCFI39:
 2298              		.cfi_remember_state
 2299              		.cfi_def_cfa_offset 4
 2300              		@ sp needed
 2301 0018 5DF804FB 		ldr	pc, [sp], #4
 2302              	.L220:
 2303              	.LCFI40:
 2304              		.cfi_restore_state
 836:Drivers/BSP/Components/lis2dw12/lis2dw12.c ****   }
 2305              		.loc 1 836 12 view .LVU553
 2306 001c 4FF0FF30 		mov	r0, #-1
 2307 0020 F9E7     		b	.L216
 2308              		.cfi_endproc
 2309              	.LFE16:
 2311              		.section	.text.LIS2DW12_RegisterBusIO,"ax",%progbits
 2312              		.align	1
 2313              		.global	LIS2DW12_RegisterBusIO
 2314              		.syntax unified
 2315              		.thumb
 2316              		.thumb_func
 2317              		.fpu fpv4-sp-d16
 2319              	LIS2DW12_RegisterBusIO:
 2320              	.LVL156:
 2321              	.LFB0:
  88:Drivers/BSP/Components/lis2dw12/lis2dw12.c ****   int32_t ret = LIS2DW12_OK;
 2322              		.loc 1 88 1 is_stmt 1 view -0
 2323              		.cfi_startproc
 2324              		@ args = 0, pretend = 0, frame = 0
 2325              		@ frame_needed = 0, uses_anonymous_args = 0
  89:Drivers/BSP/Components/lis2dw12/lis2dw12.c **** 
 2326              		.loc 1 89 3 view .LVU555
  91:Drivers/BSP/Components/lis2dw12/lis2dw12.c ****   {
 2327              		.loc 1 91 3 view .LVU556
  91:Drivers/BSP/Components/lis2dw12/lis2dw12.c ****   {
 2328              		.loc 1 91 6 is_stmt 0 view .LVU557
 2329 0000 0028     		cmp	r0, #0
 2330 0002 2BD0     		beq	.L223
  88:Drivers/BSP/Components/lis2dw12/lis2dw12.c ****   int32_t ret = LIS2DW12_OK;
 2331              		.loc 1 88 1 view .LVU558
 2332 0004 10B5     		push	{r4, lr}
 2333              	.LCFI41:
ARM GAS  /tmp/ccCpEZfe.s 			page 82


 2334              		.cfi_def_cfa_offset 8
 2335              		.cfi_offset 4, -8
 2336              		.cfi_offset 14, -4
 2337 0006 0446     		mov	r4, r0
  97:Drivers/BSP/Components/lis2dw12/lis2dw12.c ****     pObj->IO.DeInit    = pIO->DeInit;
 2338              		.loc 1 97 5 is_stmt 1 view .LVU559
  97:Drivers/BSP/Components/lis2dw12/lis2dw12.c ****     pObj->IO.DeInit    = pIO->DeInit;
 2339              		.loc 1 97 29 is_stmt 0 view .LVU560
 2340 0008 0B68     		ldr	r3, [r1]
  97:Drivers/BSP/Components/lis2dw12/lis2dw12.c ****     pObj->IO.DeInit    = pIO->DeInit;
 2341              		.loc 1 97 24 view .LVU561
 2342 000a 0360     		str	r3, [r0]
  98:Drivers/BSP/Components/lis2dw12/lis2dw12.c ****     pObj->IO.BusType   = pIO->BusType;
 2343              		.loc 1 98 5 is_stmt 1 view .LVU562
  98:Drivers/BSP/Components/lis2dw12/lis2dw12.c ****     pObj->IO.BusType   = pIO->BusType;
 2344              		.loc 1 98 29 is_stmt 0 view .LVU563
 2345 000c 4A68     		ldr	r2, [r1, #4]
  98:Drivers/BSP/Components/lis2dw12/lis2dw12.c ****     pObj->IO.BusType   = pIO->BusType;
 2346              		.loc 1 98 24 view .LVU564
 2347 000e 4260     		str	r2, [r0, #4]
  99:Drivers/BSP/Components/lis2dw12/lis2dw12.c ****     pObj->IO.Address   = pIO->Address;
 2348              		.loc 1 99 5 is_stmt 1 view .LVU565
  99:Drivers/BSP/Components/lis2dw12/lis2dw12.c ****     pObj->IO.Address   = pIO->Address;
 2349              		.loc 1 99 29 is_stmt 0 view .LVU566
 2350 0010 8A68     		ldr	r2, [r1, #8]
  99:Drivers/BSP/Components/lis2dw12/lis2dw12.c ****     pObj->IO.Address   = pIO->Address;
 2351              		.loc 1 99 24 view .LVU567
 2352 0012 8260     		str	r2, [r0, #8]
 100:Drivers/BSP/Components/lis2dw12/lis2dw12.c ****     pObj->IO.WriteReg  = pIO->WriteReg;
 2353              		.loc 1 100 5 is_stmt 1 view .LVU568
 100:Drivers/BSP/Components/lis2dw12/lis2dw12.c ****     pObj->IO.WriteReg  = pIO->WriteReg;
 2354              		.loc 1 100 29 is_stmt 0 view .LVU569
 2355 0014 0A7B     		ldrb	r2, [r1, #12]	@ zero_extendqisi2
 100:Drivers/BSP/Components/lis2dw12/lis2dw12.c ****     pObj->IO.WriteReg  = pIO->WriteReg;
 2356              		.loc 1 100 24 view .LVU570
 2357 0016 0273     		strb	r2, [r0, #12]
 101:Drivers/BSP/Components/lis2dw12/lis2dw12.c ****     pObj->IO.ReadReg   = pIO->ReadReg;
 2358              		.loc 1 101 5 is_stmt 1 view .LVU571
 101:Drivers/BSP/Components/lis2dw12/lis2dw12.c ****     pObj->IO.ReadReg   = pIO->ReadReg;
 2359              		.loc 1 101 29 is_stmt 0 view .LVU572
 2360 0018 0A69     		ldr	r2, [r1, #16]
 101:Drivers/BSP/Components/lis2dw12/lis2dw12.c ****     pObj->IO.ReadReg   = pIO->ReadReg;
 2361              		.loc 1 101 24 view .LVU573
 2362 001a 0261     		str	r2, [r0, #16]
 102:Drivers/BSP/Components/lis2dw12/lis2dw12.c ****     pObj->IO.GetTick   = pIO->GetTick;
 2363              		.loc 1 102 5 is_stmt 1 view .LVU574
 102:Drivers/BSP/Components/lis2dw12/lis2dw12.c ****     pObj->IO.GetTick   = pIO->GetTick;
 2364              		.loc 1 102 29 is_stmt 0 view .LVU575
 2365 001c 4A69     		ldr	r2, [r1, #20]
 102:Drivers/BSP/Components/lis2dw12/lis2dw12.c ****     pObj->IO.GetTick   = pIO->GetTick;
 2366              		.loc 1 102 24 view .LVU576
 2367 001e 4261     		str	r2, [r0, #20]
 103:Drivers/BSP/Components/lis2dw12/lis2dw12.c **** 
 2368              		.loc 1 103 5 is_stmt 1 view .LVU577
 103:Drivers/BSP/Components/lis2dw12/lis2dw12.c **** 
 2369              		.loc 1 103 29 is_stmt 0 view .LVU578
 2370 0020 8A69     		ldr	r2, [r1, #24]
ARM GAS  /tmp/ccCpEZfe.s 			page 83


 103:Drivers/BSP/Components/lis2dw12/lis2dw12.c **** 
 2371              		.loc 1 103 24 view .LVU579
 2372 0022 8261     		str	r2, [r0, #24]
 105:Drivers/BSP/Components/lis2dw12/lis2dw12.c ****     pObj->Ctx.write_reg = WriteRegWrap;
 2373              		.loc 1 105 5 is_stmt 1 view .LVU580
 105:Drivers/BSP/Components/lis2dw12/lis2dw12.c ****     pObj->Ctx.write_reg = WriteRegWrap;
 2374              		.loc 1 105 25 is_stmt 0 view .LVU581
 2375 0024 124A     		ldr	r2, .L232
 2376 0026 4262     		str	r2, [r0, #36]
 106:Drivers/BSP/Components/lis2dw12/lis2dw12.c ****     pObj->Ctx.mdelay    = pIO->Delay;
 2377              		.loc 1 106 5 is_stmt 1 view .LVU582
 106:Drivers/BSP/Components/lis2dw12/lis2dw12.c ****     pObj->Ctx.mdelay    = pIO->Delay;
 2378              		.loc 1 106 25 is_stmt 0 view .LVU583
 2379 0028 124A     		ldr	r2, .L232+4
 2380 002a 0262     		str	r2, [r0, #32]
 107:Drivers/BSP/Components/lis2dw12/lis2dw12.c ****     pObj->Ctx.handle   = pObj;
 2381              		.loc 1 107 5 is_stmt 1 view .LVU584
 107:Drivers/BSP/Components/lis2dw12/lis2dw12.c ****     pObj->Ctx.handle   = pObj;
 2382              		.loc 1 107 30 is_stmt 0 view .LVU585
 2383 002c CA69     		ldr	r2, [r1, #28]
 107:Drivers/BSP/Components/lis2dw12/lis2dw12.c ****     pObj->Ctx.handle   = pObj;
 2384              		.loc 1 107 25 view .LVU586
 2385 002e 8262     		str	r2, [r0, #40]
 108:Drivers/BSP/Components/lis2dw12/lis2dw12.c **** 
 2386              		.loc 1 108 5 is_stmt 1 view .LVU587
 108:Drivers/BSP/Components/lis2dw12/lis2dw12.c **** 
 2387              		.loc 1 108 24 is_stmt 0 view .LVU588
 2388 0030 C062     		str	r0, [r0, #44]
 110:Drivers/BSP/Components/lis2dw12/lis2dw12.c ****     {
 2389              		.loc 1 110 5 is_stmt 1 view .LVU589
 110:Drivers/BSP/Components/lis2dw12/lis2dw12.c ****     {
 2390              		.loc 1 110 8 is_stmt 0 view .LVU590
 2391 0032 B3B1     		cbz	r3, .L224
 114:Drivers/BSP/Components/lis2dw12/lis2dw12.c ****     {
 2392              		.loc 1 114 10 is_stmt 1 view .LVU591
 114:Drivers/BSP/Components/lis2dw12/lis2dw12.c ****     {
 2393              		.loc 1 114 14 is_stmt 0 view .LVU592
 2394 0034 9847     		blx	r3
 2395              	.LVL157:
 114:Drivers/BSP/Components/lis2dw12/lis2dw12.c ****     {
 2396              		.loc 1 114 13 view .LVU593
 2397 0036 B8B9     		cbnz	r0, .L225
 120:Drivers/BSP/Components/lis2dw12/lis2dw12.c ****       {
 2398              		.loc 1 120 7 is_stmt 1 view .LVU594
 120:Drivers/BSP/Components/lis2dw12/lis2dw12.c ****       {
 2399              		.loc 1 120 19 is_stmt 0 view .LVU595
 2400 0038 A368     		ldr	r3, [r4, #8]
 120:Drivers/BSP/Components/lis2dw12/lis2dw12.c ****       {
 2401              		.loc 1 120 10 view .LVU596
 2402 003a 022B     		cmp	r3, #2
 2403 003c 00D0     		beq	.L231
 2404              	.LVL158:
 2405              	.L221:
 138:Drivers/BSP/Components/lis2dw12/lis2dw12.c **** 
 2406              		.loc 1 138 1 view .LVU597
 2407 003e 10BD     		pop	{r4, pc}
 2408              	.LVL159:
ARM GAS  /tmp/ccCpEZfe.s 			page 84


 2409              	.L231:
 123:Drivers/BSP/Components/lis2dw12/lis2dw12.c ****         {
 2410              		.loc 1 123 9 is_stmt 1 view .LVU598
 123:Drivers/BSP/Components/lis2dw12/lis2dw12.c ****         {
 2411              		.loc 1 123 17 is_stmt 0 view .LVU599
 2412 0040 94F83030 		ldrb	r3, [r4, #48]	@ zero_extendqisi2
 123:Drivers/BSP/Components/lis2dw12/lis2dw12.c ****         {
 2413              		.loc 1 123 12 view .LVU600
 2414 0044 002B     		cmp	r3, #0
 2415 0046 FAD1     		bne	.L221
 2416              	.LBB2:
 126:Drivers/BSP/Components/lis2dw12/lis2dw12.c **** 
 2417              		.loc 1 126 11 is_stmt 1 view .LVU601
 2418              	.LVL160:
 128:Drivers/BSP/Components/lis2dw12/lis2dw12.c ****           {
 2419              		.loc 1 128 11 view .LVU602
 128:Drivers/BSP/Components/lis2dw12/lis2dw12.c ****           {
 2420              		.loc 1 128 15 is_stmt 0 view .LVU603
 2421 0048 0522     		movs	r2, #5
 2422 004a 2121     		movs	r1, #33
 2423 004c 2046     		mov	r0, r4
 2424 004e FFF7FEFF 		bl	LIS2DW12_Write_Reg
 2425              	.LVL161:
 128:Drivers/BSP/Components/lis2dw12/lis2dw12.c ****           {
 2426              		.loc 1 128 14 view .LVU604
 2427 0052 0028     		cmp	r0, #0
 2428 0054 F3D0     		beq	.L221
 130:Drivers/BSP/Components/lis2dw12/lis2dw12.c ****           }
 2429              		.loc 1 130 17 view .LVU605
 2430 0056 4FF0FF30 		mov	r0, #-1
 2431              	.LVL162:
 130:Drivers/BSP/Components/lis2dw12/lis2dw12.c ****           }
 2432              		.loc 1 130 17 view .LVU606
 2433              	.LBE2:
 137:Drivers/BSP/Components/lis2dw12/lis2dw12.c **** }
 2434              		.loc 1 137 3 is_stmt 1 view .LVU607
 137:Drivers/BSP/Components/lis2dw12/lis2dw12.c **** }
 2435              		.loc 1 137 10 is_stmt 0 view .LVU608
 2436 005a F0E7     		b	.L221
 2437              	.LVL163:
 2438              	.L223:
 2439              	.LCFI42:
 2440              		.cfi_def_cfa_offset 0
 2441              		.cfi_restore 4
 2442              		.cfi_restore 14
  93:Drivers/BSP/Components/lis2dw12/lis2dw12.c ****   }
 2443              		.loc 1 93 9 view .LVU609
 2444 005c 4FF0FF30 		mov	r0, #-1
 2445              	.LVL164:
 138:Drivers/BSP/Components/lis2dw12/lis2dw12.c **** 
 2446              		.loc 1 138 1 view .LVU610
 2447 0060 7047     		bx	lr
 2448              	.LVL165:
 2449              	.L224:
 2450              	.LCFI43:
 2451              		.cfi_def_cfa_offset 8
 2452              		.cfi_offset 4, -8
ARM GAS  /tmp/ccCpEZfe.s 			page 85


 2453              		.cfi_offset 14, -4
 112:Drivers/BSP/Components/lis2dw12/lis2dw12.c ****     }
 2454              		.loc 1 112 11 view .LVU611
 2455 0062 4FF0FF30 		mov	r0, #-1
 2456              	.LVL166:
 112:Drivers/BSP/Components/lis2dw12/lis2dw12.c ****     }
 2457              		.loc 1 112 11 view .LVU612
 2458 0066 EAE7     		b	.L221
 2459              	.LVL167:
 2460              	.L225:
 116:Drivers/BSP/Components/lis2dw12/lis2dw12.c ****     }
 2461              		.loc 1 116 11 view .LVU613
 2462 0068 4FF0FF30 		mov	r0, #-1
 2463 006c E7E7     		b	.L221
 2464              	.L233:
 2465 006e 00BF     		.align	2
 2466              	.L232:
 2467 0070 00000000 		.word	ReadRegWrap
 2468 0074 00000000 		.word	WriteRegWrap
 2469              		.cfi_endproc
 2470              	.LFE0:
 2472              		.section	.text.LIS2DW12_Set_Interrupt_Latch,"ax",%progbits
 2473              		.align	1
 2474              		.global	LIS2DW12_Set_Interrupt_Latch
 2475              		.syntax unified
 2476              		.thumb
 2477              		.thumb_func
 2478              		.fpu fpv4-sp-d16
 2480              	LIS2DW12_Set_Interrupt_Latch:
 2481              	.LVL168:
 2482              	.LFB17:
 849:Drivers/BSP/Components/lis2dw12/lis2dw12.c ****   if (Status > 1U)
 2483              		.loc 1 849 1 is_stmt 1 view -0
 2484              		.cfi_startproc
 2485              		@ args = 0, pretend = 0, frame = 0
 2486              		@ frame_needed = 0, uses_anonymous_args = 0
 850:Drivers/BSP/Components/lis2dw12/lis2dw12.c ****   {
 2487              		.loc 1 850 3 view .LVU615
 850:Drivers/BSP/Components/lis2dw12/lis2dw12.c ****   {
 2488              		.loc 1 850 6 is_stmt 0 view .LVU616
 2489 0000 0129     		cmp	r1, #1
 2490 0002 05D8     		bhi	.L236
 849:Drivers/BSP/Components/lis2dw12/lis2dw12.c ****   if (Status > 1U)
 2491              		.loc 1 849 1 view .LVU617
 2492 0004 08B5     		push	{r3, lr}
 2493              	.LCFI44:
 2494              		.cfi_def_cfa_offset 8
 2495              		.cfi_offset 3, -8
 2496              		.cfi_offset 14, -4
 855:Drivers/BSP/Components/lis2dw12/lis2dw12.c ****   {
 2497              		.loc 1 855 3 is_stmt 1 view .LVU618
 855:Drivers/BSP/Components/lis2dw12/lis2dw12.c ****   {
 2498              		.loc 1 855 7 is_stmt 0 view .LVU619
 2499 0006 2030     		adds	r0, r0, #32
 2500              	.LVL169:
 855:Drivers/BSP/Components/lis2dw12/lis2dw12.c ****   {
 2501              		.loc 1 855 7 view .LVU620
ARM GAS  /tmp/ccCpEZfe.s 			page 86


 2502 0008 FFF7FEFF 		bl	lis2dw12_int_notification_set
 2503              	.LVL170:
 855:Drivers/BSP/Components/lis2dw12/lis2dw12.c ****   {
 2504              		.loc 1 855 6 view .LVU621
 2505 000c 18B9     		cbnz	r0, .L242
 2506              	.L234:
 861:Drivers/BSP/Components/lis2dw12/lis2dw12.c **** 
 2507              		.loc 1 861 1 view .LVU622
 2508 000e 08BD     		pop	{r3, pc}
 2509              	.LVL171:
 2510              	.L236:
 2511              	.LCFI45:
 2512              		.cfi_def_cfa_offset 0
 2513              		.cfi_restore 3
 2514              		.cfi_restore 14
 852:Drivers/BSP/Components/lis2dw12/lis2dw12.c ****   }
 2515              		.loc 1 852 12 view .LVU623
 2516 0010 4FF0FF30 		mov	r0, #-1
 2517              	.LVL172:
 861:Drivers/BSP/Components/lis2dw12/lis2dw12.c **** 
 2518              		.loc 1 861 1 view .LVU624
 2519 0014 7047     		bx	lr
 2520              	.LVL173:
 2521              	.L242:
 2522              	.LCFI46:
 2523              		.cfi_def_cfa_offset 8
 2524              		.cfi_offset 3, -8
 2525              		.cfi_offset 14, -4
 857:Drivers/BSP/Components/lis2dw12/lis2dw12.c ****   }
 2526              		.loc 1 857 12 view .LVU625
 2527 0016 4FF0FF30 		mov	r0, #-1
 2528 001a F8E7     		b	.L234
 2529              		.cfi_endproc
 2530              	.LFE17:
 2532              		.section	.text.LIS2DW12_ACC_Enable_DRDY_Interrupt,"ax",%progbits
 2533              		.align	1
 2534              		.global	LIS2DW12_ACC_Enable_DRDY_Interrupt
 2535              		.syntax unified
 2536              		.thumb
 2537              		.thumb_func
 2538              		.fpu fpv4-sp-d16
 2540              	LIS2DW12_ACC_Enable_DRDY_Interrupt:
 2541              	.LVL174:
 2542              	.LFB18:
 869:Drivers/BSP/Components/lis2dw12/lis2dw12.c ****   lis2dw12_ctrl5_int2_pad_ctrl_t int2_pad_ctrl;
 2543              		.loc 1 869 1 is_stmt 1 view -0
 2544              		.cfi_startproc
 2545              		@ args = 0, pretend = 0, frame = 8
 2546              		@ frame_needed = 0, uses_anonymous_args = 0
 869:Drivers/BSP/Components/lis2dw12/lis2dw12.c ****   lis2dw12_ctrl5_int2_pad_ctrl_t int2_pad_ctrl;
 2547              		.loc 1 869 1 is_stmt 0 view .LVU627
 2548 0000 10B5     		push	{r4, lr}
 2549              	.LCFI47:
 2550              		.cfi_def_cfa_offset 8
 2551              		.cfi_offset 4, -8
 2552              		.cfi_offset 14, -4
 2553 0002 82B0     		sub	sp, sp, #8
ARM GAS  /tmp/ccCpEZfe.s 			page 87


 2554              	.LCFI48:
 2555              		.cfi_def_cfa_offset 16
 870:Drivers/BSP/Components/lis2dw12/lis2dw12.c **** 
 2556              		.loc 1 870 3 is_stmt 1 view .LVU628
 873:Drivers/BSP/Components/lis2dw12/lis2dw12.c ****   {
 2557              		.loc 1 873 3 view .LVU629
 873:Drivers/BSP/Components/lis2dw12/lis2dw12.c ****   {
 2558              		.loc 1 873 7 is_stmt 0 view .LVU630
 2559 0004 00F12004 		add	r4, r0, #32
 2560 0008 0121     		movs	r1, #1
 2561 000a 2046     		mov	r0, r4
 2562              	.LVL175:
 873:Drivers/BSP/Components/lis2dw12/lis2dw12.c ****   {
 2563              		.loc 1 873 7 view .LVU631
 2564 000c FFF7FEFF 		bl	lis2dw12_data_ready_mode_set
 2565              	.LVL176:
 873:Drivers/BSP/Components/lis2dw12/lis2dw12.c ****   {
 2566              		.loc 1 873 6 view .LVU632
 2567 0010 88B9     		cbnz	r0, .L245
 877:Drivers/BSP/Components/lis2dw12/lis2dw12.c ****   {
 2568              		.loc 1 877 3 is_stmt 1 view .LVU633
 877:Drivers/BSP/Components/lis2dw12/lis2dw12.c ****   {
 2569              		.loc 1 877 7 is_stmt 0 view .LVU634
 2570 0012 01A9     		add	r1, sp, #4
 2571 0014 2046     		mov	r0, r4
 2572 0016 FFF7FEFF 		bl	lis2dw12_pin_int2_route_get
 2573              	.LVL177:
 877:Drivers/BSP/Components/lis2dw12/lis2dw12.c ****   {
 2574              		.loc 1 877 6 view .LVU635
 2575 001a 78B9     		cbnz	r0, .L246
 881:Drivers/BSP/Components/lis2dw12/lis2dw12.c ****   if (lis2dw12_pin_int2_route_set(&(pObj->Ctx), &int2_pad_ctrl) != LIS2DW12_OK)
 2576              		.loc 1 881 3 is_stmt 1 view .LVU636
 881:Drivers/BSP/Components/lis2dw12/lis2dw12.c ****   if (lis2dw12_pin_int2_route_set(&(pObj->Ctx), &int2_pad_ctrl) != LIS2DW12_OK)
 2577              		.loc 1 881 27 is_stmt 0 view .LVU637
 2578 001c 9DF80430 		ldrb	r3, [sp, #4]	@ zero_extendqisi2
 2579 0020 43F00103 		orr	r3, r3, #1
 2580 0024 8DF80430 		strb	r3, [sp, #4]
 882:Drivers/BSP/Components/lis2dw12/lis2dw12.c ****   {
 2581              		.loc 1 882 3 is_stmt 1 view .LVU638
 882:Drivers/BSP/Components/lis2dw12/lis2dw12.c ****   {
 2582              		.loc 1 882 7 is_stmt 0 view .LVU639
 2583 0028 01A9     		add	r1, sp, #4
 2584 002a 2046     		mov	r0, r4
 2585 002c FFF7FEFF 		bl	lis2dw12_pin_int2_route_set
 2586              	.LVL178:
 882:Drivers/BSP/Components/lis2dw12/lis2dw12.c ****   {
 2587              		.loc 1 882 6 view .LVU640
 2588 0030 38B9     		cbnz	r0, .L249
 2589              	.L243:
 888:Drivers/BSP/Components/lis2dw12/lis2dw12.c **** 
 2590              		.loc 1 888 1 view .LVU641
 2591 0032 02B0     		add	sp, sp, #8
 2592              	.LCFI49:
 2593              		.cfi_remember_state
 2594              		.cfi_def_cfa_offset 8
 2595              		@ sp needed
 2596 0034 10BD     		pop	{r4, pc}
ARM GAS  /tmp/ccCpEZfe.s 			page 88


 2597              	.LVL179:
 2598              	.L245:
 2599              	.LCFI50:
 2600              		.cfi_restore_state
 875:Drivers/BSP/Components/lis2dw12/lis2dw12.c ****   }
 2601              		.loc 1 875 12 view .LVU642
 2602 0036 4FF0FF30 		mov	r0, #-1
 2603 003a FAE7     		b	.L243
 2604              	.L246:
 879:Drivers/BSP/Components/lis2dw12/lis2dw12.c ****   }
 2605              		.loc 1 879 12 view .LVU643
 2606 003c 4FF0FF30 		mov	r0, #-1
 2607 0040 F7E7     		b	.L243
 2608              	.L249:
 884:Drivers/BSP/Components/lis2dw12/lis2dw12.c ****   }
 2609              		.loc 1 884 12 view .LVU644
 2610 0042 4FF0FF30 		mov	r0, #-1
 2611 0046 F4E7     		b	.L243
 2612              		.cfi_endproc
 2613              	.LFE18:
 2615              		.section	.text.LIS2DW12_ACC_Disable_DRDY_Interrupt,"ax",%progbits
 2616              		.align	1
 2617              		.global	LIS2DW12_ACC_Disable_DRDY_Interrupt
 2618              		.syntax unified
 2619              		.thumb
 2620              		.thumb_func
 2621              		.fpu fpv4-sp-d16
 2623              	LIS2DW12_ACC_Disable_DRDY_Interrupt:
 2624              	.LVL180:
 2625              	.LFB19:
 896:Drivers/BSP/Components/lis2dw12/lis2dw12.c ****   lis2dw12_ctrl5_int2_pad_ctrl_t int2_pad_ctrl;
 2626              		.loc 1 896 1 is_stmt 1 view -0
 2627              		.cfi_startproc
 2628              		@ args = 0, pretend = 0, frame = 8
 2629              		@ frame_needed = 0, uses_anonymous_args = 0
 896:Drivers/BSP/Components/lis2dw12/lis2dw12.c ****   lis2dw12_ctrl5_int2_pad_ctrl_t int2_pad_ctrl;
 2630              		.loc 1 896 1 is_stmt 0 view .LVU646
 2631 0000 10B5     		push	{r4, lr}
 2632              	.LCFI51:
 2633              		.cfi_def_cfa_offset 8
 2634              		.cfi_offset 4, -8
 2635              		.cfi_offset 14, -4
 2636 0002 82B0     		sub	sp, sp, #8
 2637              	.LCFI52:
 2638              		.cfi_def_cfa_offset 16
 897:Drivers/BSP/Components/lis2dw12/lis2dw12.c **** 
 2639              		.loc 1 897 3 is_stmt 1 view .LVU647
 899:Drivers/BSP/Components/lis2dw12/lis2dw12.c ****   {
 2640              		.loc 1 899 3 view .LVU648
 899:Drivers/BSP/Components/lis2dw12/lis2dw12.c ****   {
 2641              		.loc 1 899 7 is_stmt 0 view .LVU649
 2642 0004 00F12004 		add	r4, r0, #32
 2643 0008 01A9     		add	r1, sp, #4
 2644 000a 2046     		mov	r0, r4
 2645              	.LVL181:
 899:Drivers/BSP/Components/lis2dw12/lis2dw12.c ****   {
 2646              		.loc 1 899 7 view .LVU650
ARM GAS  /tmp/ccCpEZfe.s 			page 89


 2647 000c FFF7FEFF 		bl	lis2dw12_pin_int2_route_get
 2648              	.LVL182:
 899:Drivers/BSP/Components/lis2dw12/lis2dw12.c ****   {
 2649              		.loc 1 899 6 view .LVU651
 2650 0010 60B9     		cbnz	r0, .L252
 903:Drivers/BSP/Components/lis2dw12/lis2dw12.c ****   if (lis2dw12_pin_int2_route_set(&(pObj->Ctx), &int2_pad_ctrl) != LIS2DW12_OK)
 2651              		.loc 1 903 3 is_stmt 1 view .LVU652
 903:Drivers/BSP/Components/lis2dw12/lis2dw12.c ****   if (lis2dw12_pin_int2_route_set(&(pObj->Ctx), &int2_pad_ctrl) != LIS2DW12_OK)
 2652              		.loc 1 903 27 is_stmt 0 view .LVU653
 2653 0012 9DF80430 		ldrb	r3, [sp, #4]	@ zero_extendqisi2
 2654 0016 6FF30003 		bfc	r3, #0, #1
 2655 001a 8DF80430 		strb	r3, [sp, #4]
 904:Drivers/BSP/Components/lis2dw12/lis2dw12.c ****   {
 2656              		.loc 1 904 3 is_stmt 1 view .LVU654
 904:Drivers/BSP/Components/lis2dw12/lis2dw12.c ****   {
 2657              		.loc 1 904 7 is_stmt 0 view .LVU655
 2658 001e 01A9     		add	r1, sp, #4
 2659 0020 2046     		mov	r0, r4
 2660 0022 FFF7FEFF 		bl	lis2dw12_pin_int2_route_set
 2661              	.LVL183:
 904:Drivers/BSP/Components/lis2dw12/lis2dw12.c ****   {
 2662              		.loc 1 904 6 view .LVU656
 2663 0026 20B9     		cbnz	r0, .L255
 2664              	.L250:
 910:Drivers/BSP/Components/lis2dw12/lis2dw12.c **** 
 2665              		.loc 1 910 1 view .LVU657
 2666 0028 02B0     		add	sp, sp, #8
 2667              	.LCFI53:
 2668              		.cfi_remember_state
 2669              		.cfi_def_cfa_offset 8
 2670              		@ sp needed
 2671 002a 10BD     		pop	{r4, pc}
 2672              	.LVL184:
 2673              	.L252:
 2674              	.LCFI54:
 2675              		.cfi_restore_state
 901:Drivers/BSP/Components/lis2dw12/lis2dw12.c ****   }
 2676              		.loc 1 901 12 view .LVU658
 2677 002c 4FF0FF30 		mov	r0, #-1
 2678 0030 FAE7     		b	.L250
 2679              	.L255:
 906:Drivers/BSP/Components/lis2dw12/lis2dw12.c ****   }
 2680              		.loc 1 906 12 view .LVU659
 2681 0032 4FF0FF30 		mov	r0, #-1
 2682 0036 F7E7     		b	.L250
 2683              		.cfi_endproc
 2684              	.LFE19:
 2686              		.section	.text.LIS2DW12_ACC_Set_Filter_Mode,"ax",%progbits
 2687              		.align	1
 2688              		.global	LIS2DW12_ACC_Set_Filter_Mode
 2689              		.syntax unified
 2690              		.thumb
 2691              		.thumb_func
 2692              		.fpu fpv4-sp-d16
 2694              	LIS2DW12_ACC_Set_Filter_Mode:
 2695              	.LVL185:
 2696              	.LFB20:
ARM GAS  /tmp/ccCpEZfe.s 			page 90


 919:Drivers/BSP/Components/lis2dw12/lis2dw12.c ****   if (lis2dw12_filter_bandwidth_set(&(pObj->Ctx), (lis2dw12_bw_filt_t)filterMode) != LIS2DW12_OK)
 2697              		.loc 1 919 1 is_stmt 1 view -0
 2698              		.cfi_startproc
 2699              		@ args = 0, pretend = 0, frame = 0
 2700              		@ frame_needed = 0, uses_anonymous_args = 0
 919:Drivers/BSP/Components/lis2dw12/lis2dw12.c ****   if (lis2dw12_filter_bandwidth_set(&(pObj->Ctx), (lis2dw12_bw_filt_t)filterMode) != LIS2DW12_OK)
 2701              		.loc 1 919 1 is_stmt 0 view .LVU661
 2702 0000 08B5     		push	{r3, lr}
 2703              	.LCFI55:
 2704              		.cfi_def_cfa_offset 8
 2705              		.cfi_offset 3, -8
 2706              		.cfi_offset 14, -4
 920:Drivers/BSP/Components/lis2dw12/lis2dw12.c ****   {
 2707              		.loc 1 920 3 is_stmt 1 view .LVU662
 920:Drivers/BSP/Components/lis2dw12/lis2dw12.c ****   {
 2708              		.loc 1 920 7 is_stmt 0 view .LVU663
 2709 0002 2030     		adds	r0, r0, #32
 2710              	.LVL186:
 920:Drivers/BSP/Components/lis2dw12/lis2dw12.c ****   {
 2711              		.loc 1 920 7 view .LVU664
 2712 0004 FFF7FEFF 		bl	lis2dw12_filter_bandwidth_set
 2713              	.LVL187:
 920:Drivers/BSP/Components/lis2dw12/lis2dw12.c ****   {
 2714              		.loc 1 920 6 view .LVU665
 2715 0008 00B9     		cbnz	r0, .L260
 2716              	.L256:
 926:Drivers/BSP/Components/lis2dw12/lis2dw12.c **** 
 2717              		.loc 1 926 1 view .LVU666
 2718 000a 08BD     		pop	{r3, pc}
 2719              	.L260:
 922:Drivers/BSP/Components/lis2dw12/lis2dw12.c ****   }
 2720              		.loc 1 922 12 view .LVU667
 2721 000c 4FF0FF30 		mov	r0, #-1
 2722 0010 FBE7     		b	.L256
 2723              		.cfi_endproc
 2724              	.LFE20:
 2726              		.section	.text.LIS2DW12_ACC_Enable_Wake_Up_Detection,"ax",%progbits
 2727              		.align	1
 2728              		.global	LIS2DW12_ACC_Enable_Wake_Up_Detection
 2729              		.syntax unified
 2730              		.thumb
 2731              		.thumb_func
 2732              		.fpu fpv4-sp-d16
 2734              	LIS2DW12_ACC_Enable_Wake_Up_Detection:
 2735              	.LVL188:
 2736              	.LFB21:
 934:Drivers/BSP/Components/lis2dw12/lis2dw12.c ****   int32_t ret = LIS2DW12_OK;
 2737              		.loc 1 934 1 is_stmt 1 view -0
 2738              		.cfi_startproc
 2739              		@ args = 0, pretend = 0, frame = 8
 2740              		@ frame_needed = 0, uses_anonymous_args = 0
 934:Drivers/BSP/Components/lis2dw12/lis2dw12.c ****   int32_t ret = LIS2DW12_OK;
 2741              		.loc 1 934 1 is_stmt 0 view .LVU669
 2742 0000 10B5     		push	{r4, lr}
 2743              	.LCFI56:
 2744              		.cfi_def_cfa_offset 8
 2745              		.cfi_offset 4, -8
ARM GAS  /tmp/ccCpEZfe.s 			page 91


 2746              		.cfi_offset 14, -4
 2747 0002 82B0     		sub	sp, sp, #8
 2748              	.LCFI57:
 2749              		.cfi_def_cfa_offset 16
 2750 0004 0446     		mov	r4, r0
 935:Drivers/BSP/Components/lis2dw12/lis2dw12.c ****   lis2dw12_ctrl4_int1_pad_ctrl_t val;
 2751              		.loc 1 935 3 is_stmt 1 view .LVU670
 2752              	.LVL189:
 936:Drivers/BSP/Components/lis2dw12/lis2dw12.c **** 
 2753              		.loc 1 936 3 view .LVU671
 939:Drivers/BSP/Components/lis2dw12/lis2dw12.c ****   {
 2754              		.loc 1 939 3 view .LVU672
 939:Drivers/BSP/Components/lis2dw12/lis2dw12.c ****   {
 2755              		.loc 1 939 7 is_stmt 0 view .LVU673
 2756 0006 9FED1C0A 		vldr.32	s0, .L271
 2757 000a FFF7FEFF 		bl	LIS2DW12_ACC_SetOutputDataRate
 2758              	.LVL190:
 939:Drivers/BSP/Components/lis2dw12/lis2dw12.c ****   {
 2759              		.loc 1 939 6 view .LVU674
 2760 000e 08BB     		cbnz	r0, .L263
 945:Drivers/BSP/Components/lis2dw12/lis2dw12.c ****   {
 2761              		.loc 1 945 3 is_stmt 1 view .LVU675
 945:Drivers/BSP/Components/lis2dw12/lis2dw12.c ****   {
 2762              		.loc 1 945 7 is_stmt 0 view .LVU676
 2763 0010 0221     		movs	r1, #2
 2764 0012 2046     		mov	r0, r4
 2765 0014 FFF7FEFF 		bl	LIS2DW12_ACC_SetFullScale
 2766              	.LVL191:
 945:Drivers/BSP/Components/lis2dw12/lis2dw12.c ****   {
 2767              		.loc 1 945 6 view .LVU677
 2768 0018 F8B9     		cbnz	r0, .L264
 951:Drivers/BSP/Components/lis2dw12/lis2dw12.c ****   {
 2769              		.loc 1 951 3 is_stmt 1 view .LVU678
 951:Drivers/BSP/Components/lis2dw12/lis2dw12.c ****   {
 2770              		.loc 1 951 7 is_stmt 0 view .LVU679
 2771 001a 2034     		adds	r4, r4, #32
 2772              	.LVL192:
 951:Drivers/BSP/Components/lis2dw12/lis2dw12.c ****   {
 2773              		.loc 1 951 7 view .LVU680
 2774 001c 0021     		movs	r1, #0
 2775 001e 2046     		mov	r0, r4
 2776 0020 FFF7FEFF 		bl	lis2dw12_wkup_dur_set
 2777              	.LVL193:
 951:Drivers/BSP/Components/lis2dw12/lis2dw12.c ****   {
 2778              		.loc 1 951 6 view .LVU681
 2779 0024 E0B9     		cbnz	r0, .L265
 957:Drivers/BSP/Components/lis2dw12/lis2dw12.c ****   {
 2780              		.loc 1 957 3 is_stmt 1 view .LVU682
 957:Drivers/BSP/Components/lis2dw12/lis2dw12.c ****   {
 2781              		.loc 1 957 7 is_stmt 0 view .LVU683
 2782 0026 0221     		movs	r1, #2
 2783 0028 2046     		mov	r0, r4
 2784 002a FFF7FEFF 		bl	lis2dw12_wkup_threshold_set
 2785              	.LVL194:
 957:Drivers/BSP/Components/lis2dw12/lis2dw12.c ****   {
 2786              		.loc 1 957 6 view .LVU684
 2787 002e D0B9     		cbnz	r0, .L266
ARM GAS  /tmp/ccCpEZfe.s 			page 92


 962:Drivers/BSP/Components/lis2dw12/lis2dw12.c ****   {
 2788              		.loc 1 962 3 is_stmt 1 view .LVU685
 962:Drivers/BSP/Components/lis2dw12/lis2dw12.c ****   {
 2789              		.loc 1 962 7 is_stmt 0 view .LVU686
 2790 0030 01A9     		add	r1, sp, #4
 2791 0032 2046     		mov	r0, r4
 2792 0034 FFF7FEFF 		bl	lis2dw12_pin_int1_route_get
 2793              	.LVL195:
 962:Drivers/BSP/Components/lis2dw12/lis2dw12.c ****   {
 2794              		.loc 1 962 6 view .LVU687
 2795 0038 C0B9     		cbnz	r0, .L267
 967:Drivers/BSP/Components/lis2dw12/lis2dw12.c **** 
 2796              		.loc 1 967 3 is_stmt 1 view .LVU688
 967:Drivers/BSP/Components/lis2dw12/lis2dw12.c **** 
 2797              		.loc 1 967 15 is_stmt 0 view .LVU689
 2798 003a 9DF80430 		ldrb	r3, [sp, #4]	@ zero_extendqisi2
 2799 003e 43F02003 		orr	r3, r3, #32
 2800 0042 8DF80430 		strb	r3, [sp, #4]
 969:Drivers/BSP/Components/lis2dw12/lis2dw12.c ****   {
 2801              		.loc 1 969 3 is_stmt 1 view .LVU690
 969:Drivers/BSP/Components/lis2dw12/lis2dw12.c ****   {
 2802              		.loc 1 969 7 is_stmt 0 view .LVU691
 2803 0046 01A9     		add	r1, sp, #4
 2804 0048 2046     		mov	r0, r4
 2805 004a FFF7FEFF 		bl	lis2dw12_pin_int1_route_set
 2806              	.LVL196:
 969:Drivers/BSP/Components/lis2dw12/lis2dw12.c ****   {
 2807              		.loc 1 969 6 view .LVU692
 2808 004e 80B9     		cbnz	r0, .L270
 2809              	.LVL197:
 2810              	.L261:
 975:Drivers/BSP/Components/lis2dw12/lis2dw12.c **** 
 2811              		.loc 1 975 1 view .LVU693
 2812 0050 02B0     		add	sp, sp, #8
 2813              	.LCFI58:
 2814              		.cfi_remember_state
 2815              		.cfi_def_cfa_offset 8
 2816              		@ sp needed
 2817 0052 10BD     		pop	{r4, pc}
 2818              	.LVL198:
 2819              	.L263:
 2820              	.LCFI59:
 2821              		.cfi_restore_state
 941:Drivers/BSP/Components/lis2dw12/lis2dw12.c ****   }
 2822              		.loc 1 941 12 view .LVU694
 2823 0054 4FF0FF30 		mov	r0, #-1
 2824 0058 FAE7     		b	.L261
 2825              	.L264:
 947:Drivers/BSP/Components/lis2dw12/lis2dw12.c ****   }
 2826              		.loc 1 947 12 view .LVU695
 2827 005a 4FF0FF30 		mov	r0, #-1
 2828 005e F7E7     		b	.L261
 2829              	.LVL199:
 2830              	.L265:
 953:Drivers/BSP/Components/lis2dw12/lis2dw12.c ****   }
 2831              		.loc 1 953 12 view .LVU696
 2832 0060 4FF0FF30 		mov	r0, #-1
ARM GAS  /tmp/ccCpEZfe.s 			page 93


 2833 0064 F4E7     		b	.L261
 2834              	.L266:
 959:Drivers/BSP/Components/lis2dw12/lis2dw12.c ****   }
 2835              		.loc 1 959 12 view .LVU697
 2836 0066 4FF0FF30 		mov	r0, #-1
 2837 006a F1E7     		b	.L261
 2838              	.L267:
 964:Drivers/BSP/Components/lis2dw12/lis2dw12.c ****   }
 2839              		.loc 1 964 12 view .LVU698
 2840 006c 4FF0FF30 		mov	r0, #-1
 2841 0070 EEE7     		b	.L261
 2842              	.L270:
 971:Drivers/BSP/Components/lis2dw12/lis2dw12.c ****   }
 2843              		.loc 1 971 12 view .LVU699
 2844 0072 4FF0FF30 		mov	r0, #-1
 2845 0076 EBE7     		b	.L261
 2846              	.L272:
 2847              		.align	2
 2848              	.L271:
 2849 0078 00004843 		.word	1128792064
 2850              		.cfi_endproc
 2851              	.LFE21:
 2853              		.section	.text.LIS2DW12_ACC_Disable_Wake_Up_Detection,"ax",%progbits
 2854              		.align	1
 2855              		.global	LIS2DW12_ACC_Disable_Wake_Up_Detection
 2856              		.syntax unified
 2857              		.thumb
 2858              		.thumb_func
 2859              		.fpu fpv4-sp-d16
 2861              	LIS2DW12_ACC_Disable_Wake_Up_Detection:
 2862              	.LVL200:
 2863              	.LFB22:
 983:Drivers/BSP/Components/lis2dw12/lis2dw12.c ****   lis2dw12_ctrl4_int1_pad_ctrl_t ctrl4_int1_reg;
 2864              		.loc 1 983 1 is_stmt 1 view -0
 2865              		.cfi_startproc
 2866              		@ args = 0, pretend = 0, frame = 16
 2867              		@ frame_needed = 0, uses_anonymous_args = 0
 983:Drivers/BSP/Components/lis2dw12/lis2dw12.c ****   lis2dw12_ctrl4_int1_pad_ctrl_t ctrl4_int1_reg;
 2868              		.loc 1 983 1 is_stmt 0 view .LVU701
 2869 0000 10B5     		push	{r4, lr}
 2870              	.LCFI60:
 2871              		.cfi_def_cfa_offset 8
 2872              		.cfi_offset 4, -8
 2873              		.cfi_offset 14, -4
 2874 0002 84B0     		sub	sp, sp, #16
 2875              	.LCFI61:
 2876              		.cfi_def_cfa_offset 24
 984:Drivers/BSP/Components/lis2dw12/lis2dw12.c ****   lis2dw12_ctrl5_int2_pad_ctrl_t ctrl5_int2_reg;
 2877              		.loc 1 984 3 is_stmt 1 view .LVU702
 985:Drivers/BSP/Components/lis2dw12/lis2dw12.c ****   lis2dw12_ctrl_reg7_t ctrl_reg7;
 2878              		.loc 1 985 3 view .LVU703
 986:Drivers/BSP/Components/lis2dw12/lis2dw12.c **** 
 2879              		.loc 1 986 3 view .LVU704
 989:Drivers/BSP/Components/lis2dw12/lis2dw12.c ****   {
 2880              		.loc 1 989 3 view .LVU705
 989:Drivers/BSP/Components/lis2dw12/lis2dw12.c ****   {
 2881              		.loc 1 989 7 is_stmt 0 view .LVU706
ARM GAS  /tmp/ccCpEZfe.s 			page 94


 2882 0004 00F12004 		add	r4, r0, #32
 2883 0008 0123     		movs	r3, #1
 2884 000a 03AA     		add	r2, sp, #12
 2885 000c 2321     		movs	r1, #35
 2886 000e 2046     		mov	r0, r4
 2887              	.LVL201:
 989:Drivers/BSP/Components/lis2dw12/lis2dw12.c ****   {
 2888              		.loc 1 989 7 view .LVU707
 2889 0010 FFF7FEFF 		bl	lis2dw12_read_reg
 2890              	.LVL202:
 989:Drivers/BSP/Components/lis2dw12/lis2dw12.c ****   {
 2891              		.loc 1 989 6 view .LVU708
 2892 0014 0028     		cmp	r0, #0
 2893 0016 41D1     		bne	.L276
 994:Drivers/BSP/Components/lis2dw12/lis2dw12.c **** 
 2894              		.loc 1 994 3 is_stmt 1 view .LVU709
 994:Drivers/BSP/Components/lis2dw12/lis2dw12.c **** 
 2895              		.loc 1 994 26 is_stmt 0 view .LVU710
 2896 0018 9DF80C30 		ldrb	r3, [sp, #12]	@ zero_extendqisi2
 2897 001c 6FF34513 		bfc	r3, #5, #1
 2898 0020 8DF80C30 		strb	r3, [sp, #12]
 996:Drivers/BSP/Components/lis2dw12/lis2dw12.c ****   {
 2899              		.loc 1 996 3 is_stmt 1 view .LVU711
 996:Drivers/BSP/Components/lis2dw12/lis2dw12.c ****   {
 2900              		.loc 1 996 7 is_stmt 0 view .LVU712
 2901 0024 0123     		movs	r3, #1
 2902 0026 03AA     		add	r2, sp, #12
 2903 0028 2321     		movs	r1, #35
 2904 002a 2046     		mov	r0, r4
 2905 002c FFF7FEFF 		bl	lis2dw12_write_reg
 2906              	.LVL203:
 996:Drivers/BSP/Components/lis2dw12/lis2dw12.c ****   {
 2907              		.loc 1 996 6 view .LVU713
 2908 0030 B8BB     		cbnz	r0, .L277
1002:Drivers/BSP/Components/lis2dw12/lis2dw12.c ****   {
 2909              		.loc 1 1002 3 is_stmt 1 view .LVU714
1002:Drivers/BSP/Components/lis2dw12/lis2dw12.c ****   {
 2910              		.loc 1 1002 7 is_stmt 0 view .LVU715
 2911 0032 0123     		movs	r3, #1
 2912 0034 02AA     		add	r2, sp, #8
 2913 0036 2421     		movs	r1, #36
 2914 0038 2046     		mov	r0, r4
 2915 003a FFF7FEFF 		bl	lis2dw12_read_reg
 2916              	.LVL204:
1002:Drivers/BSP/Components/lis2dw12/lis2dw12.c ****   {
 2917              		.loc 1 1002 6 view .LVU716
 2918 003e 98BB     		cbnz	r0, .L278
1008:Drivers/BSP/Components/lis2dw12/lis2dw12.c ****   {
 2919              		.loc 1 1008 3 is_stmt 1 view .LVU717
1008:Drivers/BSP/Components/lis2dw12/lis2dw12.c ****   {
 2920              		.loc 1 1008 37 is_stmt 0 view .LVU718
 2921 0040 9DF80830 		ldrb	r3, [sp, #8]	@ zero_extendqisi2
1008:Drivers/BSP/Components/lis2dw12/lis2dw12.c ****   {
 2922              		.loc 1 1008 6 view .LVU719
 2923 0044 13F0400F 		tst	r3, #64
 2924 0048 04D1     		bne	.L275
1008:Drivers/BSP/Components/lis2dw12/lis2dw12.c ****   {
ARM GAS  /tmp/ccCpEZfe.s 			page 95


 2925              		.loc 1 1008 73 discriminator 1 view .LVU720
 2926 004a 9DF80C30 		ldrb	r3, [sp, #12]	@ zero_extendqisi2
 2927 004e 13F0A00F 		tst	r3, #160
 2928 0052 0BD0     		beq	.L284
 2929              	.L275:
1024:Drivers/BSP/Components/lis2dw12/lis2dw12.c ****   {
 2930              		.loc 1 1024 3 is_stmt 1 view .LVU721
1024:Drivers/BSP/Components/lis2dw12/lis2dw12.c ****   {
 2931              		.loc 1 1024 7 is_stmt 0 view .LVU722
 2932 0054 0021     		movs	r1, #0
 2933 0056 2046     		mov	r0, r4
 2934 0058 FFF7FEFF 		bl	lis2dw12_wkup_threshold_set
 2935              	.LVL205:
1024:Drivers/BSP/Components/lis2dw12/lis2dw12.c ****   {
 2936              		.loc 1 1024 6 view .LVU723
 2937 005c 50BB     		cbnz	r0, .L281
1030:Drivers/BSP/Components/lis2dw12/lis2dw12.c ****   {
 2938              		.loc 1 1030 3 is_stmt 1 view .LVU724
1030:Drivers/BSP/Components/lis2dw12/lis2dw12.c ****   {
 2939              		.loc 1 1030 7 is_stmt 0 view .LVU725
 2940 005e 0021     		movs	r1, #0
 2941 0060 2046     		mov	r0, r4
 2942 0062 FFF7FEFF 		bl	lis2dw12_wkup_dur_set
 2943              	.LVL206:
1030:Drivers/BSP/Components/lis2dw12/lis2dw12.c ****   {
 2944              		.loc 1 1030 6 view .LVU726
 2945 0066 40BB     		cbnz	r0, .L285
 2946              	.L273:
1036:Drivers/BSP/Components/lis2dw12/lis2dw12.c **** 
 2947              		.loc 1 1036 1 view .LVU727
 2948 0068 04B0     		add	sp, sp, #16
 2949              	.LCFI62:
 2950              		.cfi_remember_state
 2951              		.cfi_def_cfa_offset 8
 2952              		@ sp needed
 2953 006a 10BD     		pop	{r4, pc}
 2954              	.LVL207:
 2955              	.L284:
 2956              	.LCFI63:
 2957              		.cfi_restore_state
1010:Drivers/BSP/Components/lis2dw12/lis2dw12.c ****     {
 2958              		.loc 1 1010 5 is_stmt 1 view .LVU728
1010:Drivers/BSP/Components/lis2dw12/lis2dw12.c ****     {
 2959              		.loc 1 1010 9 is_stmt 0 view .LVU729
 2960 006c 0123     		movs	r3, #1
 2961 006e 01AA     		add	r2, sp, #4
 2962 0070 3F21     		movs	r1, #63
 2963 0072 2046     		mov	r0, r4
 2964 0074 FFF7FEFF 		bl	lis2dw12_read_reg
 2965              	.LVL208:
1010:Drivers/BSP/Components/lis2dw12/lis2dw12.c ****     {
 2966              		.loc 1 1010 8 view .LVU730
 2967 0078 C8B9     		cbnz	r0, .L279
1015:Drivers/BSP/Components/lis2dw12/lis2dw12.c **** 
 2968              		.loc 1 1015 5 is_stmt 1 view .LVU731
1015:Drivers/BSP/Components/lis2dw12/lis2dw12.c **** 
 2969              		.loc 1 1015 33 is_stmt 0 view .LVU732
ARM GAS  /tmp/ccCpEZfe.s 			page 96


 2970 007a 9DF80430 		ldrb	r3, [sp, #4]	@ zero_extendqisi2
 2971 007e 6FF34513 		bfc	r3, #5, #1
 2972 0082 8DF80430 		strb	r3, [sp, #4]
1017:Drivers/BSP/Components/lis2dw12/lis2dw12.c ****     {
 2973              		.loc 1 1017 5 is_stmt 1 view .LVU733
1017:Drivers/BSP/Components/lis2dw12/lis2dw12.c ****     {
 2974              		.loc 1 1017 9 is_stmt 0 view .LVU734
 2975 0086 0123     		movs	r3, #1
 2976 0088 01AA     		add	r2, sp, #4
 2977 008a 3F21     		movs	r1, #63
 2978 008c 2046     		mov	r0, r4
 2979 008e FFF7FEFF 		bl	lis2dw12_write_reg
 2980              	.LVL209:
1017:Drivers/BSP/Components/lis2dw12/lis2dw12.c ****     {
 2981              		.loc 1 1017 8 view .LVU735
 2982 0092 0028     		cmp	r0, #0
 2983 0094 DED0     		beq	.L275
1019:Drivers/BSP/Components/lis2dw12/lis2dw12.c ****     }
 2984              		.loc 1 1019 14 view .LVU736
 2985 0096 4FF0FF30 		mov	r0, #-1
 2986 009a E5E7     		b	.L273
 2987              	.L276:
 991:Drivers/BSP/Components/lis2dw12/lis2dw12.c ****   }
 2988              		.loc 1 991 12 view .LVU737
 2989 009c 4FF0FF30 		mov	r0, #-1
 2990 00a0 E2E7     		b	.L273
 2991              	.L277:
 998:Drivers/BSP/Components/lis2dw12/lis2dw12.c ****   }
 2992              		.loc 1 998 12 view .LVU738
 2993 00a2 4FF0FF30 		mov	r0, #-1
 2994 00a6 DFE7     		b	.L273
 2995              	.L278:
1004:Drivers/BSP/Components/lis2dw12/lis2dw12.c ****   }
 2996              		.loc 1 1004 12 view .LVU739
 2997 00a8 4FF0FF30 		mov	r0, #-1
 2998 00ac DCE7     		b	.L273
 2999              	.L279:
1012:Drivers/BSP/Components/lis2dw12/lis2dw12.c ****     }
 3000              		.loc 1 1012 14 view .LVU740
 3001 00ae 4FF0FF30 		mov	r0, #-1
 3002 00b2 D9E7     		b	.L273
 3003              	.L281:
1026:Drivers/BSP/Components/lis2dw12/lis2dw12.c ****   }
 3004              		.loc 1 1026 12 view .LVU741
 3005 00b4 4FF0FF30 		mov	r0, #-1
 3006 00b8 D6E7     		b	.L273
 3007              	.L285:
1032:Drivers/BSP/Components/lis2dw12/lis2dw12.c ****   }
 3008              		.loc 1 1032 12 view .LVU742
 3009 00ba 4FF0FF30 		mov	r0, #-1
 3010 00be D3E7     		b	.L273
 3011              		.cfi_endproc
 3012              	.LFE22:
 3014              		.section	.text.LIS2DW12_ACC_Set_Wake_Up_Threshold,"ax",%progbits
 3015              		.align	1
 3016              		.global	LIS2DW12_ACC_Set_Wake_Up_Threshold
 3017              		.syntax unified
ARM GAS  /tmp/ccCpEZfe.s 			page 97


 3018              		.thumb
 3019              		.thumb_func
 3020              		.fpu fpv4-sp-d16
 3022              	LIS2DW12_ACC_Set_Wake_Up_Threshold:
 3023              	.LVL210:
 3024              	.LFB23:
1045:Drivers/BSP/Components/lis2dw12/lis2dw12.c ****   /* Set wake up threshold. */
 3025              		.loc 1 1045 1 is_stmt 1 view -0
 3026              		.cfi_startproc
 3027              		@ args = 0, pretend = 0, frame = 0
 3028              		@ frame_needed = 0, uses_anonymous_args = 0
1045:Drivers/BSP/Components/lis2dw12/lis2dw12.c ****   /* Set wake up threshold. */
 3029              		.loc 1 1045 1 is_stmt 0 view .LVU744
 3030 0000 08B5     		push	{r3, lr}
 3031              	.LCFI64:
 3032              		.cfi_def_cfa_offset 8
 3033              		.cfi_offset 3, -8
 3034              		.cfi_offset 14, -4
1047:Drivers/BSP/Components/lis2dw12/lis2dw12.c ****   {
 3035              		.loc 1 1047 3 is_stmt 1 view .LVU745
1047:Drivers/BSP/Components/lis2dw12/lis2dw12.c ****   {
 3036              		.loc 1 1047 7 is_stmt 0 view .LVU746
 3037 0002 2030     		adds	r0, r0, #32
 3038              	.LVL211:
1047:Drivers/BSP/Components/lis2dw12/lis2dw12.c ****   {
 3039              		.loc 1 1047 7 view .LVU747
 3040 0004 FFF7FEFF 		bl	lis2dw12_wkup_threshold_set
 3041              	.LVL212:
1047:Drivers/BSP/Components/lis2dw12/lis2dw12.c ****   {
 3042              		.loc 1 1047 6 view .LVU748
 3043 0008 00B9     		cbnz	r0, .L290
 3044              	.L286:
1053:Drivers/BSP/Components/lis2dw12/lis2dw12.c **** 
 3045              		.loc 1 1053 1 view .LVU749
 3046 000a 08BD     		pop	{r3, pc}
 3047              	.L290:
1049:Drivers/BSP/Components/lis2dw12/lis2dw12.c ****   }
 3048              		.loc 1 1049 12 view .LVU750
 3049 000c 4FF0FF30 		mov	r0, #-1
 3050 0010 FBE7     		b	.L286
 3051              		.cfi_endproc
 3052              	.LFE23:
 3054              		.section	.text.LIS2DW12_ACC_Set_Wake_Up_Duration,"ax",%progbits
 3055              		.align	1
 3056              		.global	LIS2DW12_ACC_Set_Wake_Up_Duration
 3057              		.syntax unified
 3058              		.thumb
 3059              		.thumb_func
 3060              		.fpu fpv4-sp-d16
 3062              	LIS2DW12_ACC_Set_Wake_Up_Duration:
 3063              	.LVL213:
 3064              	.LFB24:
1062:Drivers/BSP/Components/lis2dw12/lis2dw12.c ****   /* Set wake up duration. */
 3065              		.loc 1 1062 1 is_stmt 1 view -0
 3066              		.cfi_startproc
 3067              		@ args = 0, pretend = 0, frame = 0
 3068              		@ frame_needed = 0, uses_anonymous_args = 0
ARM GAS  /tmp/ccCpEZfe.s 			page 98


1062:Drivers/BSP/Components/lis2dw12/lis2dw12.c ****   /* Set wake up duration. */
 3069              		.loc 1 1062 1 is_stmt 0 view .LVU752
 3070 0000 08B5     		push	{r3, lr}
 3071              	.LCFI65:
 3072              		.cfi_def_cfa_offset 8
 3073              		.cfi_offset 3, -8
 3074              		.cfi_offset 14, -4
1064:Drivers/BSP/Components/lis2dw12/lis2dw12.c ****   {
 3075              		.loc 1 1064 3 is_stmt 1 view .LVU753
1064:Drivers/BSP/Components/lis2dw12/lis2dw12.c ****   {
 3076              		.loc 1 1064 7 is_stmt 0 view .LVU754
 3077 0002 2030     		adds	r0, r0, #32
 3078              	.LVL214:
1064:Drivers/BSP/Components/lis2dw12/lis2dw12.c ****   {
 3079              		.loc 1 1064 7 view .LVU755
 3080 0004 FFF7FEFF 		bl	lis2dw12_wkup_dur_set
 3081              	.LVL215:
1064:Drivers/BSP/Components/lis2dw12/lis2dw12.c ****   {
 3082              		.loc 1 1064 6 view .LVU756
 3083 0008 00B9     		cbnz	r0, .L295
 3084              	.L291:
1070:Drivers/BSP/Components/lis2dw12/lis2dw12.c **** 
 3085              		.loc 1 1070 1 view .LVU757
 3086 000a 08BD     		pop	{r3, pc}
 3087              	.L295:
1066:Drivers/BSP/Components/lis2dw12/lis2dw12.c ****   }
 3088              		.loc 1 1066 12 view .LVU758
 3089 000c 4FF0FF30 		mov	r0, #-1
 3090 0010 FBE7     		b	.L291
 3091              		.cfi_endproc
 3092              	.LFE24:
 3094              		.section	.text.LIS2DW12_ACC_Enable_Inactivity_Detection,"ax",%progbits
 3095              		.align	1
 3096              		.global	LIS2DW12_ACC_Enable_Inactivity_Detection
 3097              		.syntax unified
 3098              		.thumb
 3099              		.thumb_func
 3100              		.fpu fpv4-sp-d16
 3102              	LIS2DW12_ACC_Enable_Inactivity_Detection:
 3103              	.LVL216:
 3104              	.LFB25:
1078:Drivers/BSP/Components/lis2dw12/lis2dw12.c ****   int32_t ret = LIS2DW12_OK;
 3105              		.loc 1 1078 1 is_stmt 1 view -0
 3106              		.cfi_startproc
 3107              		@ args = 0, pretend = 0, frame = 8
 3108              		@ frame_needed = 0, uses_anonymous_args = 0
1078:Drivers/BSP/Components/lis2dw12/lis2dw12.c ****   int32_t ret = LIS2DW12_OK;
 3109              		.loc 1 1078 1 is_stmt 0 view .LVU760
 3110 0000 10B5     		push	{r4, lr}
 3111              	.LCFI66:
 3112              		.cfi_def_cfa_offset 8
 3113              		.cfi_offset 4, -8
 3114              		.cfi_offset 14, -4
 3115 0002 82B0     		sub	sp, sp, #8
 3116              	.LCFI67:
 3117              		.cfi_def_cfa_offset 16
 3118 0004 0446     		mov	r4, r0
ARM GAS  /tmp/ccCpEZfe.s 			page 99


1079:Drivers/BSP/Components/lis2dw12/lis2dw12.c ****   lis2dw12_ctrl5_int2_pad_ctrl_t val;
 3119              		.loc 1 1079 3 is_stmt 1 view .LVU761
 3120              	.LVL217:
1080:Drivers/BSP/Components/lis2dw12/lis2dw12.c **** 
 3121              		.loc 1 1080 3 view .LVU762
1083:Drivers/BSP/Components/lis2dw12/lis2dw12.c ****   {
 3122              		.loc 1 1083 3 view .LVU763
1083:Drivers/BSP/Components/lis2dw12/lis2dw12.c ****   {
 3123              		.loc 1 1083 7 is_stmt 0 view .LVU764
 3124 0006 9FED1C0A 		vldr.32	s0, .L306
 3125 000a FFF7FEFF 		bl	LIS2DW12_ACC_SetOutputDataRate
 3126              	.LVL218:
1083:Drivers/BSP/Components/lis2dw12/lis2dw12.c ****   {
 3127              		.loc 1 1083 6 view .LVU765
 3128 000e 08BB     		cbnz	r0, .L298
1089:Drivers/BSP/Components/lis2dw12/lis2dw12.c ****   {
 3129              		.loc 1 1089 3 is_stmt 1 view .LVU766
1089:Drivers/BSP/Components/lis2dw12/lis2dw12.c ****   {
 3130              		.loc 1 1089 7 is_stmt 0 view .LVU767
 3131 0010 0221     		movs	r1, #2
 3132 0012 2046     		mov	r0, r4
 3133 0014 FFF7FEFF 		bl	LIS2DW12_ACC_SetFullScale
 3134              	.LVL219:
1089:Drivers/BSP/Components/lis2dw12/lis2dw12.c ****   {
 3135              		.loc 1 1089 6 view .LVU768
 3136 0018 F8B9     		cbnz	r0, .L299
1095:Drivers/BSP/Components/lis2dw12/lis2dw12.c ****   {
 3137              		.loc 1 1095 3 is_stmt 1 view .LVU769
1095:Drivers/BSP/Components/lis2dw12/lis2dw12.c ****   {
 3138              		.loc 1 1095 7 is_stmt 0 view .LVU770
 3139 001a 2034     		adds	r4, r4, #32
 3140              	.LVL220:
1095:Drivers/BSP/Components/lis2dw12/lis2dw12.c ****   {
 3141              		.loc 1 1095 7 view .LVU771
 3142 001c 0121     		movs	r1, #1
 3143 001e 2046     		mov	r0, r4
 3144 0020 FFF7FEFF 		bl	lis2dw12_act_sleep_dur_set
 3145              	.LVL221:
1095:Drivers/BSP/Components/lis2dw12/lis2dw12.c ****   {
 3146              		.loc 1 1095 6 view .LVU772
 3147 0024 E0B9     		cbnz	r0, .L300
1101:Drivers/BSP/Components/lis2dw12/lis2dw12.c ****   {
 3148              		.loc 1 1101 3 is_stmt 1 view .LVU773
1101:Drivers/BSP/Components/lis2dw12/lis2dw12.c ****   {
 3149              		.loc 1 1101 7 is_stmt 0 view .LVU774
 3150 0026 0121     		movs	r1, #1
 3151 0028 2046     		mov	r0, r4
 3152 002a FFF7FEFF 		bl	lis2dw12_act_mode_set
 3153              	.LVL222:
1101:Drivers/BSP/Components/lis2dw12/lis2dw12.c ****   {
 3154              		.loc 1 1101 6 view .LVU775
 3155 002e D0B9     		cbnz	r0, .L301
1106:Drivers/BSP/Components/lis2dw12/lis2dw12.c ****   {
 3156              		.loc 1 1106 3 is_stmt 1 view .LVU776
1106:Drivers/BSP/Components/lis2dw12/lis2dw12.c ****   {
 3157              		.loc 1 1106 7 is_stmt 0 view .LVU777
 3158 0030 01A9     		add	r1, sp, #4
ARM GAS  /tmp/ccCpEZfe.s 			page 100


 3159 0032 2046     		mov	r0, r4
 3160 0034 FFF7FEFF 		bl	lis2dw12_pin_int2_route_get
 3161              	.LVL223:
1106:Drivers/BSP/Components/lis2dw12/lis2dw12.c ****   {
 3162              		.loc 1 1106 6 view .LVU778
 3163 0038 C0B9     		cbnz	r0, .L302
1111:Drivers/BSP/Components/lis2dw12/lis2dw12.c **** 
 3164              		.loc 1 1111 3 is_stmt 1 view .LVU779
1111:Drivers/BSP/Components/lis2dw12/lis2dw12.c **** 
 3165              		.loc 1 1111 22 is_stmt 0 view .LVU780
 3166 003a 9DF80430 		ldrb	r3, [sp, #4]	@ zero_extendqisi2
 3167 003e 43F04003 		orr	r3, r3, #64
 3168 0042 8DF80430 		strb	r3, [sp, #4]
1113:Drivers/BSP/Components/lis2dw12/lis2dw12.c ****   {
 3169              		.loc 1 1113 3 is_stmt 1 view .LVU781
1113:Drivers/BSP/Components/lis2dw12/lis2dw12.c ****   {
 3170              		.loc 1 1113 7 is_stmt 0 view .LVU782
 3171 0046 01A9     		add	r1, sp, #4
 3172 0048 2046     		mov	r0, r4
 3173 004a FFF7FEFF 		bl	lis2dw12_pin_int2_route_set
 3174              	.LVL224:
1113:Drivers/BSP/Components/lis2dw12/lis2dw12.c ****   {
 3175              		.loc 1 1113 6 view .LVU783
 3176 004e 80B9     		cbnz	r0, .L305
 3177              	.LVL225:
 3178              	.L296:
1119:Drivers/BSP/Components/lis2dw12/lis2dw12.c **** 
 3179              		.loc 1 1119 1 view .LVU784
 3180 0050 02B0     		add	sp, sp, #8
 3181              	.LCFI68:
 3182              		.cfi_remember_state
 3183              		.cfi_def_cfa_offset 8
 3184              		@ sp needed
 3185 0052 10BD     		pop	{r4, pc}
 3186              	.LVL226:
 3187              	.L298:
 3188              	.LCFI69:
 3189              		.cfi_restore_state
1085:Drivers/BSP/Components/lis2dw12/lis2dw12.c ****   }
 3190              		.loc 1 1085 12 view .LVU785
 3191 0054 4FF0FF30 		mov	r0, #-1
 3192 0058 FAE7     		b	.L296
 3193              	.L299:
1091:Drivers/BSP/Components/lis2dw12/lis2dw12.c ****   }
 3194              		.loc 1 1091 12 view .LVU786
 3195 005a 4FF0FF30 		mov	r0, #-1
 3196 005e F7E7     		b	.L296
 3197              	.LVL227:
 3198              	.L300:
1097:Drivers/BSP/Components/lis2dw12/lis2dw12.c ****   }
 3199              		.loc 1 1097 12 view .LVU787
 3200 0060 4FF0FF30 		mov	r0, #-1
 3201 0064 F4E7     		b	.L296
 3202              	.L301:
1103:Drivers/BSP/Components/lis2dw12/lis2dw12.c ****   }
 3203              		.loc 1 1103 12 view .LVU788
 3204 0066 4FF0FF30 		mov	r0, #-1
ARM GAS  /tmp/ccCpEZfe.s 			page 101


 3205 006a F1E7     		b	.L296
 3206              	.L302:
1108:Drivers/BSP/Components/lis2dw12/lis2dw12.c ****   }
 3207              		.loc 1 1108 12 view .LVU789
 3208 006c 4FF0FF30 		mov	r0, #-1
 3209 0070 EEE7     		b	.L296
 3210              	.L305:
1115:Drivers/BSP/Components/lis2dw12/lis2dw12.c ****   }
 3211              		.loc 1 1115 12 view .LVU790
 3212 0072 4FF0FF30 		mov	r0, #-1
 3213 0076 EBE7     		b	.L296
 3214              	.L307:
 3215              		.align	2
 3216              	.L306:
 3217 0078 00004842 		.word	1112014848
 3218              		.cfi_endproc
 3219              	.LFE25:
 3221              		.section	.text.LIS2DW12_ACC_Disable_Inactivity_Detection,"ax",%progbits
 3222              		.align	1
 3223              		.global	LIS2DW12_ACC_Disable_Inactivity_Detection
 3224              		.syntax unified
 3225              		.thumb
 3226              		.thumb_func
 3227              		.fpu fpv4-sp-d16
 3229              	LIS2DW12_ACC_Disable_Inactivity_Detection:
 3230              	.LVL228:
 3231              	.LFB26:
1127:Drivers/BSP/Components/lis2dw12/lis2dw12.c ****   lis2dw12_ctrl4_int1_pad_ctrl_t ctrl4_int1_reg;
 3232              		.loc 1 1127 1 is_stmt 1 view -0
 3233              		.cfi_startproc
 3234              		@ args = 0, pretend = 0, frame = 16
 3235              		@ frame_needed = 0, uses_anonymous_args = 0
1127:Drivers/BSP/Components/lis2dw12/lis2dw12.c ****   lis2dw12_ctrl4_int1_pad_ctrl_t ctrl4_int1_reg;
 3236              		.loc 1 1127 1 is_stmt 0 view .LVU792
 3237 0000 10B5     		push	{r4, lr}
 3238              	.LCFI70:
 3239              		.cfi_def_cfa_offset 8
 3240              		.cfi_offset 4, -8
 3241              		.cfi_offset 14, -4
 3242 0002 84B0     		sub	sp, sp, #16
 3243              	.LCFI71:
 3244              		.cfi_def_cfa_offset 24
1128:Drivers/BSP/Components/lis2dw12/lis2dw12.c ****   lis2dw12_ctrl5_int2_pad_ctrl_t ctrl5_int2_reg;
 3245              		.loc 1 1128 3 is_stmt 1 view .LVU793
1129:Drivers/BSP/Components/lis2dw12/lis2dw12.c ****   lis2dw12_ctrl_reg7_t ctrl_reg7;
 3246              		.loc 1 1129 3 view .LVU794
1130:Drivers/BSP/Components/lis2dw12/lis2dw12.c **** 
 3247              		.loc 1 1130 3 view .LVU795
1133:Drivers/BSP/Components/lis2dw12/lis2dw12.c ****   {
 3248              		.loc 1 1133 3 view .LVU796
1133:Drivers/BSP/Components/lis2dw12/lis2dw12.c ****   {
 3249              		.loc 1 1133 7 is_stmt 0 view .LVU797
 3250 0004 00F12004 		add	r4, r0, #32
 3251 0008 0123     		movs	r3, #1
 3252 000a 02AA     		add	r2, sp, #8
 3253 000c 2421     		movs	r1, #36
 3254 000e 2046     		mov	r0, r4
ARM GAS  /tmp/ccCpEZfe.s 			page 102


 3255              	.LVL229:
1133:Drivers/BSP/Components/lis2dw12/lis2dw12.c ****   {
 3256              		.loc 1 1133 7 view .LVU798
 3257 0010 FFF7FEFF 		bl	lis2dw12_read_reg
 3258              	.LVL230:
1133:Drivers/BSP/Components/lis2dw12/lis2dw12.c ****   {
 3259              		.loc 1 1133 6 view .LVU799
 3260 0014 0028     		cmp	r0, #0
 3261 0016 41D1     		bne	.L311
1138:Drivers/BSP/Components/lis2dw12/lis2dw12.c **** 
 3262              		.loc 1 1138 3 is_stmt 1 view .LVU800
1138:Drivers/BSP/Components/lis2dw12/lis2dw12.c **** 
 3263              		.loc 1 1138 33 is_stmt 0 view .LVU801
 3264 0018 9DF80830 		ldrb	r3, [sp, #8]	@ zero_extendqisi2
 3265 001c 6FF38613 		bfc	r3, #6, #1
 3266 0020 8DF80830 		strb	r3, [sp, #8]
1140:Drivers/BSP/Components/lis2dw12/lis2dw12.c ****   {
 3267              		.loc 1 1140 3 is_stmt 1 view .LVU802
1140:Drivers/BSP/Components/lis2dw12/lis2dw12.c ****   {
 3268              		.loc 1 1140 7 is_stmt 0 view .LVU803
 3269 0024 0123     		movs	r3, #1
 3270 0026 02AA     		add	r2, sp, #8
 3271 0028 2421     		movs	r1, #36
 3272 002a 2046     		mov	r0, r4
 3273 002c FFF7FEFF 		bl	lis2dw12_write_reg
 3274              	.LVL231:
1140:Drivers/BSP/Components/lis2dw12/lis2dw12.c ****   {
 3275              		.loc 1 1140 6 view .LVU804
 3276 0030 B8BB     		cbnz	r0, .L312
1146:Drivers/BSP/Components/lis2dw12/lis2dw12.c ****   {
 3277              		.loc 1 1146 3 is_stmt 1 view .LVU805
1146:Drivers/BSP/Components/lis2dw12/lis2dw12.c ****   {
 3278              		.loc 1 1146 7 is_stmt 0 view .LVU806
 3279 0032 0123     		movs	r3, #1
 3280 0034 03AA     		add	r2, sp, #12
 3281 0036 2321     		movs	r1, #35
 3282 0038 2046     		mov	r0, r4
 3283 003a FFF7FEFF 		bl	lis2dw12_read_reg
 3284              	.LVL232:
1146:Drivers/BSP/Components/lis2dw12/lis2dw12.c ****   {
 3285              		.loc 1 1146 6 view .LVU807
 3286 003e 98BB     		cbnz	r0, .L313
1152:Drivers/BSP/Components/lis2dw12/lis2dw12.c ****   {
 3287              		.loc 1 1152 3 is_stmt 1 view .LVU808
1152:Drivers/BSP/Components/lis2dw12/lis2dw12.c ****   {
 3288              		.loc 1 1152 37 is_stmt 0 view .LVU809
 3289 0040 9DF80830 		ldrb	r3, [sp, #8]	@ zero_extendqisi2
1152:Drivers/BSP/Components/lis2dw12/lis2dw12.c ****   {
 3290              		.loc 1 1152 6 view .LVU810
 3291 0044 13F0400F 		tst	r3, #64
 3292 0048 04D1     		bne	.L310
1152:Drivers/BSP/Components/lis2dw12/lis2dw12.c ****   {
 3293              		.loc 1 1152 73 discriminator 1 view .LVU811
 3294 004a 9DF80C30 		ldrb	r3, [sp, #12]	@ zero_extendqisi2
 3295 004e 13F0A00F 		tst	r3, #160
 3296 0052 0BD0     		beq	.L319
 3297              	.L310:
ARM GAS  /tmp/ccCpEZfe.s 			page 103


1168:Drivers/BSP/Components/lis2dw12/lis2dw12.c ****   {
 3298              		.loc 1 1168 3 is_stmt 1 view .LVU812
1168:Drivers/BSP/Components/lis2dw12/lis2dw12.c ****   {
 3299              		.loc 1 1168 7 is_stmt 0 view .LVU813
 3300 0054 0021     		movs	r1, #0
 3301 0056 2046     		mov	r0, r4
 3302 0058 FFF7FEFF 		bl	lis2dw12_act_mode_set
 3303              	.LVL233:
1168:Drivers/BSP/Components/lis2dw12/lis2dw12.c ****   {
 3304              		.loc 1 1168 6 view .LVU814
 3305 005c 50BB     		cbnz	r0, .L316
1174:Drivers/BSP/Components/lis2dw12/lis2dw12.c ****   {
 3306              		.loc 1 1174 3 is_stmt 1 view .LVU815
1174:Drivers/BSP/Components/lis2dw12/lis2dw12.c ****   {
 3307              		.loc 1 1174 7 is_stmt 0 view .LVU816
 3308 005e 0021     		movs	r1, #0
 3309 0060 2046     		mov	r0, r4
 3310 0062 FFF7FEFF 		bl	lis2dw12_act_sleep_dur_set
 3311              	.LVL234:
1174:Drivers/BSP/Components/lis2dw12/lis2dw12.c ****   {
 3312              		.loc 1 1174 6 view .LVU817
 3313 0066 40BB     		cbnz	r0, .L320
 3314              	.L308:
1180:Drivers/BSP/Components/lis2dw12/lis2dw12.c **** 
 3315              		.loc 1 1180 1 view .LVU818
 3316 0068 04B0     		add	sp, sp, #16
 3317              	.LCFI72:
 3318              		.cfi_remember_state
 3319              		.cfi_def_cfa_offset 8
 3320              		@ sp needed
 3321 006a 10BD     		pop	{r4, pc}
 3322              	.LVL235:
 3323              	.L319:
 3324              	.LCFI73:
 3325              		.cfi_restore_state
1154:Drivers/BSP/Components/lis2dw12/lis2dw12.c ****     {
 3326              		.loc 1 1154 5 is_stmt 1 view .LVU819
1154:Drivers/BSP/Components/lis2dw12/lis2dw12.c ****     {
 3327              		.loc 1 1154 9 is_stmt 0 view .LVU820
 3328 006c 0123     		movs	r3, #1
 3329 006e 01AA     		add	r2, sp, #4
 3330 0070 3F21     		movs	r1, #63
 3331 0072 2046     		mov	r0, r4
 3332 0074 FFF7FEFF 		bl	lis2dw12_read_reg
 3333              	.LVL236:
1154:Drivers/BSP/Components/lis2dw12/lis2dw12.c ****     {
 3334              		.loc 1 1154 8 view .LVU821
 3335 0078 C8B9     		cbnz	r0, .L314
1159:Drivers/BSP/Components/lis2dw12/lis2dw12.c **** 
 3336              		.loc 1 1159 5 is_stmt 1 view .LVU822
1159:Drivers/BSP/Components/lis2dw12/lis2dw12.c **** 
 3337              		.loc 1 1159 33 is_stmt 0 view .LVU823
 3338 007a 9DF80430 		ldrb	r3, [sp, #4]	@ zero_extendqisi2
 3339 007e 6FF34513 		bfc	r3, #5, #1
 3340 0082 8DF80430 		strb	r3, [sp, #4]
1161:Drivers/BSP/Components/lis2dw12/lis2dw12.c ****     {
 3341              		.loc 1 1161 5 is_stmt 1 view .LVU824
ARM GAS  /tmp/ccCpEZfe.s 			page 104


1161:Drivers/BSP/Components/lis2dw12/lis2dw12.c ****     {
 3342              		.loc 1 1161 9 is_stmt 0 view .LVU825
 3343 0086 0123     		movs	r3, #1
 3344 0088 01AA     		add	r2, sp, #4
 3345 008a 3F21     		movs	r1, #63
 3346 008c 2046     		mov	r0, r4
 3347 008e FFF7FEFF 		bl	lis2dw12_write_reg
 3348              	.LVL237:
1161:Drivers/BSP/Components/lis2dw12/lis2dw12.c ****     {
 3349              		.loc 1 1161 8 view .LVU826
 3350 0092 0028     		cmp	r0, #0
 3351 0094 DED0     		beq	.L310
1163:Drivers/BSP/Components/lis2dw12/lis2dw12.c ****     }
 3352              		.loc 1 1163 14 view .LVU827
 3353 0096 4FF0FF30 		mov	r0, #-1
 3354 009a E5E7     		b	.L308
 3355              	.L311:
1135:Drivers/BSP/Components/lis2dw12/lis2dw12.c ****   }
 3356              		.loc 1 1135 12 view .LVU828
 3357 009c 4FF0FF30 		mov	r0, #-1
 3358 00a0 E2E7     		b	.L308
 3359              	.L312:
1142:Drivers/BSP/Components/lis2dw12/lis2dw12.c ****   }
 3360              		.loc 1 1142 12 view .LVU829
 3361 00a2 4FF0FF30 		mov	r0, #-1
 3362 00a6 DFE7     		b	.L308
 3363              	.L313:
1148:Drivers/BSP/Components/lis2dw12/lis2dw12.c ****   }
 3364              		.loc 1 1148 12 view .LVU830
 3365 00a8 4FF0FF30 		mov	r0, #-1
 3366 00ac DCE7     		b	.L308
 3367              	.L314:
1156:Drivers/BSP/Components/lis2dw12/lis2dw12.c ****     }
 3368              		.loc 1 1156 14 view .LVU831
 3369 00ae 4FF0FF30 		mov	r0, #-1
 3370 00b2 D9E7     		b	.L308
 3371              	.L316:
1170:Drivers/BSP/Components/lis2dw12/lis2dw12.c ****   }
 3372              		.loc 1 1170 12 view .LVU832
 3373 00b4 4FF0FF30 		mov	r0, #-1
 3374 00b8 D6E7     		b	.L308
 3375              	.L320:
1176:Drivers/BSP/Components/lis2dw12/lis2dw12.c ****   }
 3376              		.loc 1 1176 12 view .LVU833
 3377 00ba 4FF0FF30 		mov	r0, #-1
 3378 00be D3E7     		b	.L308
 3379              		.cfi_endproc
 3380              	.LFE26:
 3382              		.section	.text.LIS2DW12_ACC_Set_Sleep_Duration,"ax",%progbits
 3383              		.align	1
 3384              		.global	LIS2DW12_ACC_Set_Sleep_Duration
 3385              		.syntax unified
 3386              		.thumb
 3387              		.thumb_func
 3388              		.fpu fpv4-sp-d16
 3390              	LIS2DW12_ACC_Set_Sleep_Duration:
 3391              	.LVL238:
ARM GAS  /tmp/ccCpEZfe.s 			page 105


 3392              	.LFB27:
1189:Drivers/BSP/Components/lis2dw12/lis2dw12.c ****   /* Set sleep duration. */
 3393              		.loc 1 1189 1 is_stmt 1 view -0
 3394              		.cfi_startproc
 3395              		@ args = 0, pretend = 0, frame = 0
 3396              		@ frame_needed = 0, uses_anonymous_args = 0
1189:Drivers/BSP/Components/lis2dw12/lis2dw12.c ****   /* Set sleep duration. */
 3397              		.loc 1 1189 1 is_stmt 0 view .LVU835
 3398 0000 08B5     		push	{r3, lr}
 3399              	.LCFI74:
 3400              		.cfi_def_cfa_offset 8
 3401              		.cfi_offset 3, -8
 3402              		.cfi_offset 14, -4
1191:Drivers/BSP/Components/lis2dw12/lis2dw12.c ****   {
 3403              		.loc 1 1191 3 is_stmt 1 view .LVU836
1191:Drivers/BSP/Components/lis2dw12/lis2dw12.c ****   {
 3404              		.loc 1 1191 7 is_stmt 0 view .LVU837
 3405 0002 2030     		adds	r0, r0, #32
 3406              	.LVL239:
1191:Drivers/BSP/Components/lis2dw12/lis2dw12.c ****   {
 3407              		.loc 1 1191 7 view .LVU838
 3408 0004 FFF7FEFF 		bl	lis2dw12_act_sleep_dur_set
 3409              	.LVL240:
1191:Drivers/BSP/Components/lis2dw12/lis2dw12.c ****   {
 3410              		.loc 1 1191 6 view .LVU839
 3411 0008 00B9     		cbnz	r0, .L325
 3412              	.L321:
1197:Drivers/BSP/Components/lis2dw12/lis2dw12.c **** 
 3413              		.loc 1 1197 1 view .LVU840
 3414 000a 08BD     		pop	{r3, pc}
 3415              	.L325:
1193:Drivers/BSP/Components/lis2dw12/lis2dw12.c ****   }
 3416              		.loc 1 1193 12 view .LVU841
 3417 000c 4FF0FF30 		mov	r0, #-1
 3418 0010 FBE7     		b	.L321
 3419              		.cfi_endproc
 3420              	.LFE27:
 3422              		.section	.text.LIS2DW12_ACC_Enable_6D_Orientation,"ax",%progbits
 3423              		.align	1
 3424              		.global	LIS2DW12_ACC_Enable_6D_Orientation
 3425              		.syntax unified
 3426              		.thumb
 3427              		.thumb_func
 3428              		.fpu fpv4-sp-d16
 3430              	LIS2DW12_ACC_Enable_6D_Orientation:
 3431              	.LVL241:
 3432              	.LFB28:
1205:Drivers/BSP/Components/lis2dw12/lis2dw12.c ****   int32_t ret = LIS2DW12_OK;
 3433              		.loc 1 1205 1 is_stmt 1 view -0
 3434              		.cfi_startproc
 3435              		@ args = 0, pretend = 0, frame = 8
 3436              		@ frame_needed = 0, uses_anonymous_args = 0
1205:Drivers/BSP/Components/lis2dw12/lis2dw12.c ****   int32_t ret = LIS2DW12_OK;
 3437              		.loc 1 1205 1 is_stmt 0 view .LVU843
 3438 0000 10B5     		push	{r4, lr}
 3439              	.LCFI75:
 3440              		.cfi_def_cfa_offset 8
ARM GAS  /tmp/ccCpEZfe.s 			page 106


 3441              		.cfi_offset 4, -8
 3442              		.cfi_offset 14, -4
 3443 0002 82B0     		sub	sp, sp, #8
 3444              	.LCFI76:
 3445              		.cfi_def_cfa_offset 16
 3446 0004 0446     		mov	r4, r0
1206:Drivers/BSP/Components/lis2dw12/lis2dw12.c ****   lis2dw12_ctrl4_int1_pad_ctrl_t val;
 3447              		.loc 1 1206 3 is_stmt 1 view .LVU844
 3448              	.LVL242:
1207:Drivers/BSP/Components/lis2dw12/lis2dw12.c **** 
 3449              		.loc 1 1207 3 view .LVU845
1210:Drivers/BSP/Components/lis2dw12/lis2dw12.c ****   {
 3450              		.loc 1 1210 3 view .LVU846
1210:Drivers/BSP/Components/lis2dw12/lis2dw12.c ****   {
 3451              		.loc 1 1210 7 is_stmt 0 view .LVU847
 3452 0006 9FED180A 		vldr.32	s0, .L335
 3453 000a FFF7FEFF 		bl	LIS2DW12_ACC_SetOutputDataRate
 3454              	.LVL243:
1210:Drivers/BSP/Components/lis2dw12/lis2dw12.c ****   {
 3455              		.loc 1 1210 6 view .LVU848
 3456 000e E0B9     		cbnz	r0, .L328
1216:Drivers/BSP/Components/lis2dw12/lis2dw12.c ****   {
 3457              		.loc 1 1216 3 is_stmt 1 view .LVU849
1216:Drivers/BSP/Components/lis2dw12/lis2dw12.c ****   {
 3458              		.loc 1 1216 7 is_stmt 0 view .LVU850
 3459 0010 0221     		movs	r1, #2
 3460 0012 2046     		mov	r0, r4
 3461 0014 FFF7FEFF 		bl	LIS2DW12_ACC_SetFullScale
 3462              	.LVL244:
1216:Drivers/BSP/Components/lis2dw12/lis2dw12.c ****   {
 3463              		.loc 1 1216 6 view .LVU851
 3464 0018 D0B9     		cbnz	r0, .L329
1222:Drivers/BSP/Components/lis2dw12/lis2dw12.c ****   {
 3465              		.loc 1 1222 3 is_stmt 1 view .LVU852
1222:Drivers/BSP/Components/lis2dw12/lis2dw12.c ****   {
 3466              		.loc 1 1222 7 is_stmt 0 view .LVU853
 3467 001a 2034     		adds	r4, r4, #32
 3468              	.LVL245:
1222:Drivers/BSP/Components/lis2dw12/lis2dw12.c ****   {
 3469              		.loc 1 1222 7 view .LVU854
 3470 001c 0221     		movs	r1, #2
 3471 001e 2046     		mov	r0, r4
 3472 0020 FFF7FEFF 		bl	lis2dw12_6d_threshold_set
 3473              	.LVL246:
1222:Drivers/BSP/Components/lis2dw12/lis2dw12.c ****   {
 3474              		.loc 1 1222 6 view .LVU855
 3475 0024 B8B9     		cbnz	r0, .L330
1228:Drivers/BSP/Components/lis2dw12/lis2dw12.c ****   {
 3476              		.loc 1 1228 3 is_stmt 1 view .LVU856
1228:Drivers/BSP/Components/lis2dw12/lis2dw12.c ****   {
 3477              		.loc 1 1228 7 is_stmt 0 view .LVU857
 3478 0026 01A9     		add	r1, sp, #4
 3479 0028 2046     		mov	r0, r4
 3480 002a FFF7FEFF 		bl	lis2dw12_pin_int1_route_get
 3481              	.LVL247:
1228:Drivers/BSP/Components/lis2dw12/lis2dw12.c ****   {
 3482              		.loc 1 1228 6 view .LVU858
ARM GAS  /tmp/ccCpEZfe.s 			page 107


 3483 002e A8B9     		cbnz	r0, .L331
1233:Drivers/BSP/Components/lis2dw12/lis2dw12.c **** 
 3484              		.loc 1 1233 3 is_stmt 1 view .LVU859
1233:Drivers/BSP/Components/lis2dw12/lis2dw12.c **** 
 3485              		.loc 1 1233 15 is_stmt 0 view .LVU860
 3486 0030 9DF80430 		ldrb	r3, [sp, #4]	@ zero_extendqisi2
 3487 0034 43F08003 		orr	r3, r3, #128
 3488 0038 8DF80430 		strb	r3, [sp, #4]
1235:Drivers/BSP/Components/lis2dw12/lis2dw12.c ****   {
 3489              		.loc 1 1235 3 is_stmt 1 view .LVU861
1235:Drivers/BSP/Components/lis2dw12/lis2dw12.c ****   {
 3490              		.loc 1 1235 7 is_stmt 0 view .LVU862
 3491 003c 01A9     		add	r1, sp, #4
 3492 003e 2046     		mov	r0, r4
 3493 0040 FFF7FEFF 		bl	lis2dw12_pin_int1_route_set
 3494              	.LVL248:
1235:Drivers/BSP/Components/lis2dw12/lis2dw12.c ****   {
 3495              		.loc 1 1235 6 view .LVU863
 3496 0044 68B9     		cbnz	r0, .L334
 3497              	.LVL249:
 3498              	.L326:
1241:Drivers/BSP/Components/lis2dw12/lis2dw12.c **** 
 3499              		.loc 1 1241 1 view .LVU864
 3500 0046 02B0     		add	sp, sp, #8
 3501              	.LCFI77:
 3502              		.cfi_remember_state
 3503              		.cfi_def_cfa_offset 8
 3504              		@ sp needed
 3505 0048 10BD     		pop	{r4, pc}
 3506              	.LVL250:
 3507              	.L328:
 3508              	.LCFI78:
 3509              		.cfi_restore_state
1212:Drivers/BSP/Components/lis2dw12/lis2dw12.c ****   }
 3510              		.loc 1 1212 12 view .LVU865
 3511 004a 4FF0FF30 		mov	r0, #-1
 3512 004e FAE7     		b	.L326
 3513              	.L329:
1218:Drivers/BSP/Components/lis2dw12/lis2dw12.c ****   }
 3514              		.loc 1 1218 12 view .LVU866
 3515 0050 4FF0FF30 		mov	r0, #-1
 3516 0054 F7E7     		b	.L326
 3517              	.LVL251:
 3518              	.L330:
1224:Drivers/BSP/Components/lis2dw12/lis2dw12.c ****   }
 3519              		.loc 1 1224 12 view .LVU867
 3520 0056 4FF0FF30 		mov	r0, #-1
 3521 005a F4E7     		b	.L326
 3522              	.L331:
1230:Drivers/BSP/Components/lis2dw12/lis2dw12.c ****   }
 3523              		.loc 1 1230 12 view .LVU868
 3524 005c 4FF0FF30 		mov	r0, #-1
 3525 0060 F1E7     		b	.L326
 3526              	.L334:
1237:Drivers/BSP/Components/lis2dw12/lis2dw12.c ****   }
 3527              		.loc 1 1237 12 view .LVU869
 3528 0062 4FF0FF30 		mov	r0, #-1
ARM GAS  /tmp/ccCpEZfe.s 			page 108


 3529 0066 EEE7     		b	.L326
 3530              	.L336:
 3531              		.align	2
 3532              	.L335:
 3533 0068 00004843 		.word	1128792064
 3534              		.cfi_endproc
 3535              	.LFE28:
 3537              		.section	.text.LIS2DW12_ACC_Disable_6D_Orientation,"ax",%progbits
 3538              		.align	1
 3539              		.global	LIS2DW12_ACC_Disable_6D_Orientation
 3540              		.syntax unified
 3541              		.thumb
 3542              		.thumb_func
 3543              		.fpu fpv4-sp-d16
 3545              	LIS2DW12_ACC_Disable_6D_Orientation:
 3546              	.LVL252:
 3547              	.LFB29:
1249:Drivers/BSP/Components/lis2dw12/lis2dw12.c ****   lis2dw12_ctrl4_int1_pad_ctrl_t ctrl4_int1_reg;
 3548              		.loc 1 1249 1 is_stmt 1 view -0
 3549              		.cfi_startproc
 3550              		@ args = 0, pretend = 0, frame = 16
 3551              		@ frame_needed = 0, uses_anonymous_args = 0
1249:Drivers/BSP/Components/lis2dw12/lis2dw12.c ****   lis2dw12_ctrl4_int1_pad_ctrl_t ctrl4_int1_reg;
 3552              		.loc 1 1249 1 is_stmt 0 view .LVU871
 3553 0000 10B5     		push	{r4, lr}
 3554              	.LCFI79:
 3555              		.cfi_def_cfa_offset 8
 3556              		.cfi_offset 4, -8
 3557              		.cfi_offset 14, -4
 3558 0002 84B0     		sub	sp, sp, #16
 3559              	.LCFI80:
 3560              		.cfi_def_cfa_offset 24
1250:Drivers/BSP/Components/lis2dw12/lis2dw12.c ****   lis2dw12_ctrl5_int2_pad_ctrl_t ctrl5_int2_reg;
 3561              		.loc 1 1250 3 is_stmt 1 view .LVU872
1251:Drivers/BSP/Components/lis2dw12/lis2dw12.c ****   lis2dw12_ctrl_reg7_t ctrl_reg7;
 3562              		.loc 1 1251 3 view .LVU873
1252:Drivers/BSP/Components/lis2dw12/lis2dw12.c **** 
 3563              		.loc 1 1252 3 view .LVU874
1255:Drivers/BSP/Components/lis2dw12/lis2dw12.c ****   {
 3564              		.loc 1 1255 3 view .LVU875
1255:Drivers/BSP/Components/lis2dw12/lis2dw12.c ****   {
 3565              		.loc 1 1255 7 is_stmt 0 view .LVU876
 3566 0004 00F12004 		add	r4, r0, #32
 3567 0008 0123     		movs	r3, #1
 3568 000a 03AA     		add	r2, sp, #12
 3569 000c 2321     		movs	r1, #35
 3570 000e 2046     		mov	r0, r4
 3571              	.LVL253:
1255:Drivers/BSP/Components/lis2dw12/lis2dw12.c ****   {
 3572              		.loc 1 1255 7 view .LVU877
 3573 0010 FFF7FEFF 		bl	lis2dw12_read_reg
 3574              	.LVL254:
1255:Drivers/BSP/Components/lis2dw12/lis2dw12.c ****   {
 3575              		.loc 1 1255 6 view .LVU878
 3576 0014 0028     		cmp	r0, #0
 3577 0016 3CD1     		bne	.L340
1260:Drivers/BSP/Components/lis2dw12/lis2dw12.c **** 
ARM GAS  /tmp/ccCpEZfe.s 			page 109


 3578              		.loc 1 1260 3 is_stmt 1 view .LVU879
1260:Drivers/BSP/Components/lis2dw12/lis2dw12.c **** 
 3579              		.loc 1 1260 26 is_stmt 0 view .LVU880
 3580 0018 9DF80C30 		ldrb	r3, [sp, #12]	@ zero_extendqisi2
 3581 001c 6FF3C713 		bfc	r3, #7, #1
 3582 0020 8DF80C30 		strb	r3, [sp, #12]
1262:Drivers/BSP/Components/lis2dw12/lis2dw12.c ****   {
 3583              		.loc 1 1262 3 is_stmt 1 view .LVU881
1262:Drivers/BSP/Components/lis2dw12/lis2dw12.c ****   {
 3584              		.loc 1 1262 7 is_stmt 0 view .LVU882
 3585 0024 0123     		movs	r3, #1
 3586 0026 03AA     		add	r2, sp, #12
 3587 0028 2321     		movs	r1, #35
 3588 002a 2046     		mov	r0, r4
 3589 002c FFF7FEFF 		bl	lis2dw12_write_reg
 3590              	.LVL255:
1262:Drivers/BSP/Components/lis2dw12/lis2dw12.c ****   {
 3591              		.loc 1 1262 6 view .LVU883
 3592 0030 90BB     		cbnz	r0, .L341
1268:Drivers/BSP/Components/lis2dw12/lis2dw12.c ****   {
 3593              		.loc 1 1268 3 is_stmt 1 view .LVU884
1268:Drivers/BSP/Components/lis2dw12/lis2dw12.c ****   {
 3594              		.loc 1 1268 7 is_stmt 0 view .LVU885
 3595 0032 0123     		movs	r3, #1
 3596 0034 02AA     		add	r2, sp, #8
 3597 0036 2421     		movs	r1, #36
 3598 0038 2046     		mov	r0, r4
 3599 003a FFF7FEFF 		bl	lis2dw12_read_reg
 3600              	.LVL256:
1268:Drivers/BSP/Components/lis2dw12/lis2dw12.c ****   {
 3601              		.loc 1 1268 6 view .LVU886
 3602 003e 70BB     		cbnz	r0, .L342
1274:Drivers/BSP/Components/lis2dw12/lis2dw12.c ****   {
 3603              		.loc 1 1274 3 is_stmt 1 view .LVU887
1274:Drivers/BSP/Components/lis2dw12/lis2dw12.c ****   {
 3604              		.loc 1 1274 37 is_stmt 0 view .LVU888
 3605 0040 9DF80830 		ldrb	r3, [sp, #8]	@ zero_extendqisi2
1274:Drivers/BSP/Components/lis2dw12/lis2dw12.c ****   {
 3606              		.loc 1 1274 6 view .LVU889
 3607 0044 13F0400F 		tst	r3, #64
 3608 0048 04D1     		bne	.L339
1274:Drivers/BSP/Components/lis2dw12/lis2dw12.c ****   {
 3609              		.loc 1 1274 73 discriminator 1 view .LVU890
 3610 004a 9DF80C30 		ldrb	r3, [sp, #12]	@ zero_extendqisi2
 3611 004e 13F0A00F 		tst	r3, #160
 3612 0052 06D0     		beq	.L347
 3613              	.L339:
1290:Drivers/BSP/Components/lis2dw12/lis2dw12.c ****   {
 3614              		.loc 1 1290 3 is_stmt 1 view .LVU891
1290:Drivers/BSP/Components/lis2dw12/lis2dw12.c ****   {
 3615              		.loc 1 1290 7 is_stmt 0 view .LVU892
 3616 0054 0021     		movs	r1, #0
 3617 0056 2046     		mov	r0, r4
 3618 0058 FFF7FEFF 		bl	lis2dw12_6d_threshold_set
 3619              	.LVL257:
1290:Drivers/BSP/Components/lis2dw12/lis2dw12.c ****   {
 3620              		.loc 1 1290 6 view .LVU893
ARM GAS  /tmp/ccCpEZfe.s 			page 110


 3621 005c 28BB     		cbnz	r0, .L348
 3622              	.L337:
1296:Drivers/BSP/Components/lis2dw12/lis2dw12.c **** 
 3623              		.loc 1 1296 1 view .LVU894
 3624 005e 04B0     		add	sp, sp, #16
 3625              	.LCFI81:
 3626              		.cfi_remember_state
 3627              		.cfi_def_cfa_offset 8
 3628              		@ sp needed
 3629 0060 10BD     		pop	{r4, pc}
 3630              	.LVL258:
 3631              	.L347:
 3632              	.LCFI82:
 3633              		.cfi_restore_state
1276:Drivers/BSP/Components/lis2dw12/lis2dw12.c ****     {
 3634              		.loc 1 1276 5 is_stmt 1 view .LVU895
1276:Drivers/BSP/Components/lis2dw12/lis2dw12.c ****     {
 3635              		.loc 1 1276 9 is_stmt 0 view .LVU896
 3636 0062 0123     		movs	r3, #1
 3637 0064 01AA     		add	r2, sp, #4
 3638 0066 3F21     		movs	r1, #63
 3639 0068 2046     		mov	r0, r4
 3640 006a FFF7FEFF 		bl	lis2dw12_read_reg
 3641              	.LVL259:
1276:Drivers/BSP/Components/lis2dw12/lis2dw12.c ****     {
 3642              		.loc 1 1276 8 view .LVU897
 3643 006e C8B9     		cbnz	r0, .L343
1281:Drivers/BSP/Components/lis2dw12/lis2dw12.c **** 
 3644              		.loc 1 1281 5 is_stmt 1 view .LVU898
1281:Drivers/BSP/Components/lis2dw12/lis2dw12.c **** 
 3645              		.loc 1 1281 33 is_stmt 0 view .LVU899
 3646 0070 9DF80430 		ldrb	r3, [sp, #4]	@ zero_extendqisi2
 3647 0074 6FF34513 		bfc	r3, #5, #1
 3648 0078 8DF80430 		strb	r3, [sp, #4]
1283:Drivers/BSP/Components/lis2dw12/lis2dw12.c ****     {
 3649              		.loc 1 1283 5 is_stmt 1 view .LVU900
1283:Drivers/BSP/Components/lis2dw12/lis2dw12.c ****     {
 3650              		.loc 1 1283 9 is_stmt 0 view .LVU901
 3651 007c 0123     		movs	r3, #1
 3652 007e 01AA     		add	r2, sp, #4
 3653 0080 3F21     		movs	r1, #63
 3654 0082 2046     		mov	r0, r4
 3655 0084 FFF7FEFF 		bl	lis2dw12_write_reg
 3656              	.LVL260:
1283:Drivers/BSP/Components/lis2dw12/lis2dw12.c ****     {
 3657              		.loc 1 1283 8 view .LVU902
 3658 0088 0028     		cmp	r0, #0
 3659 008a E3D0     		beq	.L339
1285:Drivers/BSP/Components/lis2dw12/lis2dw12.c ****     }
 3660              		.loc 1 1285 14 view .LVU903
 3661 008c 4FF0FF30 		mov	r0, #-1
 3662 0090 E5E7     		b	.L337
 3663              	.L340:
1257:Drivers/BSP/Components/lis2dw12/lis2dw12.c ****   }
 3664              		.loc 1 1257 12 view .LVU904
 3665 0092 4FF0FF30 		mov	r0, #-1
 3666 0096 E2E7     		b	.L337
ARM GAS  /tmp/ccCpEZfe.s 			page 111


 3667              	.L341:
1264:Drivers/BSP/Components/lis2dw12/lis2dw12.c ****   }
 3668              		.loc 1 1264 12 view .LVU905
 3669 0098 4FF0FF30 		mov	r0, #-1
 3670 009c DFE7     		b	.L337
 3671              	.L342:
1270:Drivers/BSP/Components/lis2dw12/lis2dw12.c ****   }
 3672              		.loc 1 1270 12 view .LVU906
 3673 009e 4FF0FF30 		mov	r0, #-1
 3674 00a2 DCE7     		b	.L337
 3675              	.L343:
1278:Drivers/BSP/Components/lis2dw12/lis2dw12.c ****     }
 3676              		.loc 1 1278 14 view .LVU907
 3677 00a4 4FF0FF30 		mov	r0, #-1
 3678 00a8 D9E7     		b	.L337
 3679              	.L348:
1292:Drivers/BSP/Components/lis2dw12/lis2dw12.c ****   }
 3680              		.loc 1 1292 12 view .LVU908
 3681 00aa 4FF0FF30 		mov	r0, #-1
 3682 00ae D6E7     		b	.L337
 3683              		.cfi_endproc
 3684              	.LFE29:
 3686              		.section	.text.LIS2DW12_ACC_Set_6D_Orientation_Threshold,"ax",%progbits
 3687              		.align	1
 3688              		.global	LIS2DW12_ACC_Set_6D_Orientation_Threshold
 3689              		.syntax unified
 3690              		.thumb
 3691              		.thumb_func
 3692              		.fpu fpv4-sp-d16
 3694              	LIS2DW12_ACC_Set_6D_Orientation_Threshold:
 3695              	.LVL261:
 3696              	.LFB30:
1305:Drivers/BSP/Components/lis2dw12/lis2dw12.c ****   if (Threshold > 3)
 3697              		.loc 1 1305 1 is_stmt 1 view -0
 3698              		.cfi_startproc
 3699              		@ args = 0, pretend = 0, frame = 0
 3700              		@ frame_needed = 0, uses_anonymous_args = 0
1306:Drivers/BSP/Components/lis2dw12/lis2dw12.c ****   {
 3701              		.loc 1 1306 3 view .LVU910
1306:Drivers/BSP/Components/lis2dw12/lis2dw12.c ****   {
 3702              		.loc 1 1306 6 is_stmt 0 view .LVU911
 3703 0000 0329     		cmp	r1, #3
 3704 0002 05D8     		bhi	.L351
1305:Drivers/BSP/Components/lis2dw12/lis2dw12.c ****   if (Threshold > 3)
 3705              		.loc 1 1305 1 view .LVU912
 3706 0004 08B5     		push	{r3, lr}
 3707              	.LCFI83:
 3708              		.cfi_def_cfa_offset 8
 3709              		.cfi_offset 3, -8
 3710              		.cfi_offset 14, -4
1311:Drivers/BSP/Components/lis2dw12/lis2dw12.c ****   {
 3711              		.loc 1 1311 3 is_stmt 1 view .LVU913
1311:Drivers/BSP/Components/lis2dw12/lis2dw12.c ****   {
 3712              		.loc 1 1311 7 is_stmt 0 view .LVU914
 3713 0006 2030     		adds	r0, r0, #32
 3714              	.LVL262:
1311:Drivers/BSP/Components/lis2dw12/lis2dw12.c ****   {
ARM GAS  /tmp/ccCpEZfe.s 			page 112


 3715              		.loc 1 1311 7 view .LVU915
 3716 0008 FFF7FEFF 		bl	lis2dw12_6d_threshold_set
 3717              	.LVL263:
1311:Drivers/BSP/Components/lis2dw12/lis2dw12.c ****   {
 3718              		.loc 1 1311 6 view .LVU916
 3719 000c 18B9     		cbnz	r0, .L357
 3720              	.L349:
1317:Drivers/BSP/Components/lis2dw12/lis2dw12.c **** 
 3721              		.loc 1 1317 1 view .LVU917
 3722 000e 08BD     		pop	{r3, pc}
 3723              	.LVL264:
 3724              	.L351:
 3725              	.LCFI84:
 3726              		.cfi_def_cfa_offset 0
 3727              		.cfi_restore 3
 3728              		.cfi_restore 14
1308:Drivers/BSP/Components/lis2dw12/lis2dw12.c ****   }
 3729              		.loc 1 1308 12 view .LVU918
 3730 0010 4FF0FF30 		mov	r0, #-1
 3731              	.LVL265:
1317:Drivers/BSP/Components/lis2dw12/lis2dw12.c **** 
 3732              		.loc 1 1317 1 view .LVU919
 3733 0014 7047     		bx	lr
 3734              	.LVL266:
 3735              	.L357:
 3736              	.LCFI85:
 3737              		.cfi_def_cfa_offset 8
 3738              		.cfi_offset 3, -8
 3739              		.cfi_offset 14, -4
1313:Drivers/BSP/Components/lis2dw12/lis2dw12.c ****   }
 3740              		.loc 1 1313 12 view .LVU920
 3741 0016 4FF0FF30 		mov	r0, #-1
 3742 001a F8E7     		b	.L349
 3743              		.cfi_endproc
 3744              	.LFE30:
 3746              		.section	.text.LIS2DW12_ACC_Get_6D_Orientation_XL,"ax",%progbits
 3747              		.align	1
 3748              		.global	LIS2DW12_ACC_Get_6D_Orientation_XL
 3749              		.syntax unified
 3750              		.thumb
 3751              		.thumb_func
 3752              		.fpu fpv4-sp-d16
 3754              	LIS2DW12_ACC_Get_6D_Orientation_XL:
 3755              	.LVL267:
 3756              	.LFB31:
1326:Drivers/BSP/Components/lis2dw12/lis2dw12.c ****   lis2dw12_sixd_src_t data;
 3757              		.loc 1 1326 1 is_stmt 1 view -0
 3758              		.cfi_startproc
 3759              		@ args = 0, pretend = 0, frame = 8
 3760              		@ frame_needed = 0, uses_anonymous_args = 0
1326:Drivers/BSP/Components/lis2dw12/lis2dw12.c ****   lis2dw12_sixd_src_t data;
 3761              		.loc 1 1326 1 is_stmt 0 view .LVU922
 3762 0000 10B5     		push	{r4, lr}
 3763              	.LCFI86:
 3764              		.cfi_def_cfa_offset 8
 3765              		.cfi_offset 4, -8
 3766              		.cfi_offset 14, -4
ARM GAS  /tmp/ccCpEZfe.s 			page 113


 3767 0002 82B0     		sub	sp, sp, #8
 3768              	.LCFI87:
 3769              		.cfi_def_cfa_offset 16
 3770 0004 0C46     		mov	r4, r1
1327:Drivers/BSP/Components/lis2dw12/lis2dw12.c **** 
 3771              		.loc 1 1327 3 is_stmt 1 view .LVU923
1329:Drivers/BSP/Components/lis2dw12/lis2dw12.c ****   {
 3772              		.loc 1 1329 3 view .LVU924
1329:Drivers/BSP/Components/lis2dw12/lis2dw12.c ****   {
 3773              		.loc 1 1329 7 is_stmt 0 view .LVU925
 3774 0006 0123     		movs	r3, #1
 3775 0008 01AA     		add	r2, sp, #4
 3776 000a 3A21     		movs	r1, #58
 3777              	.LVL268:
1329:Drivers/BSP/Components/lis2dw12/lis2dw12.c ****   {
 3778              		.loc 1 1329 7 view .LVU926
 3779 000c 2030     		adds	r0, r0, #32
 3780              	.LVL269:
1329:Drivers/BSP/Components/lis2dw12/lis2dw12.c ****   {
 3781              		.loc 1 1329 7 view .LVU927
 3782 000e FFF7FEFF 		bl	lis2dw12_read_reg
 3783              	.LVL270:
1329:Drivers/BSP/Components/lis2dw12/lis2dw12.c ****   {
 3784              		.loc 1 1329 6 view .LVU928
 3785 0012 30B9     		cbnz	r0, .L360
1334:Drivers/BSP/Components/lis2dw12/lis2dw12.c **** 
 3786              		.loc 1 1334 3 is_stmt 1 view .LVU929
1334:Drivers/BSP/Components/lis2dw12/lis2dw12.c **** 
 3787              		.loc 1 1334 15 is_stmt 0 view .LVU930
 3788 0014 9DF80430 		ldrb	r3, [sp, #4]	@ zero_extendqisi2
 3789 0018 C3F30003 		ubfx	r3, r3, #0, #1
1334:Drivers/BSP/Components/lis2dw12/lis2dw12.c **** 
 3790              		.loc 1 1334 9 view .LVU931
 3791 001c 2370     		strb	r3, [r4]
1336:Drivers/BSP/Components/lis2dw12/lis2dw12.c **** }
 3792              		.loc 1 1336 3 is_stmt 1 view .LVU932
 3793              	.L358:
1337:Drivers/BSP/Components/lis2dw12/lis2dw12.c **** 
 3794              		.loc 1 1337 1 is_stmt 0 view .LVU933
 3795 001e 02B0     		add	sp, sp, #8
 3796              	.LCFI88:
 3797              		.cfi_remember_state
 3798              		.cfi_def_cfa_offset 8
 3799              		@ sp needed
 3800 0020 10BD     		pop	{r4, pc}
 3801              	.LVL271:
 3802              	.L360:
 3803              	.LCFI89:
 3804              		.cfi_restore_state
1331:Drivers/BSP/Components/lis2dw12/lis2dw12.c ****   }
 3805              		.loc 1 1331 12 view .LVU934
 3806 0022 4FF0FF30 		mov	r0, #-1
 3807 0026 FAE7     		b	.L358
 3808              		.cfi_endproc
 3809              	.LFE31:
 3811              		.section	.text.LIS2DW12_ACC_Get_6D_Orientation_XH,"ax",%progbits
 3812              		.align	1
ARM GAS  /tmp/ccCpEZfe.s 			page 114


 3813              		.global	LIS2DW12_ACC_Get_6D_Orientation_XH
 3814              		.syntax unified
 3815              		.thumb
 3816              		.thumb_func
 3817              		.fpu fpv4-sp-d16
 3819              	LIS2DW12_ACC_Get_6D_Orientation_XH:
 3820              	.LVL272:
 3821              	.LFB32:
1346:Drivers/BSP/Components/lis2dw12/lis2dw12.c ****   lis2dw12_sixd_src_t data;
 3822              		.loc 1 1346 1 is_stmt 1 view -0
 3823              		.cfi_startproc
 3824              		@ args = 0, pretend = 0, frame = 8
 3825              		@ frame_needed = 0, uses_anonymous_args = 0
1346:Drivers/BSP/Components/lis2dw12/lis2dw12.c ****   lis2dw12_sixd_src_t data;
 3826              		.loc 1 1346 1 is_stmt 0 view .LVU936
 3827 0000 10B5     		push	{r4, lr}
 3828              	.LCFI90:
 3829              		.cfi_def_cfa_offset 8
 3830              		.cfi_offset 4, -8
 3831              		.cfi_offset 14, -4
 3832 0002 82B0     		sub	sp, sp, #8
 3833              	.LCFI91:
 3834              		.cfi_def_cfa_offset 16
 3835 0004 0C46     		mov	r4, r1
1347:Drivers/BSP/Components/lis2dw12/lis2dw12.c **** 
 3836              		.loc 1 1347 3 is_stmt 1 view .LVU937
1349:Drivers/BSP/Components/lis2dw12/lis2dw12.c ****   {
 3837              		.loc 1 1349 3 view .LVU938
1349:Drivers/BSP/Components/lis2dw12/lis2dw12.c ****   {
 3838              		.loc 1 1349 7 is_stmt 0 view .LVU939
 3839 0006 0123     		movs	r3, #1
 3840 0008 01AA     		add	r2, sp, #4
 3841 000a 3A21     		movs	r1, #58
 3842              	.LVL273:
1349:Drivers/BSP/Components/lis2dw12/lis2dw12.c ****   {
 3843              		.loc 1 1349 7 view .LVU940
 3844 000c 2030     		adds	r0, r0, #32
 3845              	.LVL274:
1349:Drivers/BSP/Components/lis2dw12/lis2dw12.c ****   {
 3846              		.loc 1 1349 7 view .LVU941
 3847 000e FFF7FEFF 		bl	lis2dw12_read_reg
 3848              	.LVL275:
1349:Drivers/BSP/Components/lis2dw12/lis2dw12.c ****   {
 3849              		.loc 1 1349 6 view .LVU942
 3850 0012 30B9     		cbnz	r0, .L364
1354:Drivers/BSP/Components/lis2dw12/lis2dw12.c **** 
 3851              		.loc 1 1354 3 is_stmt 1 view .LVU943
1354:Drivers/BSP/Components/lis2dw12/lis2dw12.c **** 
 3852              		.loc 1 1354 16 is_stmt 0 view .LVU944
 3853 0014 9DF80430 		ldrb	r3, [sp, #4]	@ zero_extendqisi2
 3854 0018 C3F34003 		ubfx	r3, r3, #1, #1
1354:Drivers/BSP/Components/lis2dw12/lis2dw12.c **** 
 3855              		.loc 1 1354 10 view .LVU945
 3856 001c 2370     		strb	r3, [r4]
1356:Drivers/BSP/Components/lis2dw12/lis2dw12.c **** }
 3857              		.loc 1 1356 3 is_stmt 1 view .LVU946
 3858              	.L362:
ARM GAS  /tmp/ccCpEZfe.s 			page 115


1357:Drivers/BSP/Components/lis2dw12/lis2dw12.c **** 
 3859              		.loc 1 1357 1 is_stmt 0 view .LVU947
 3860 001e 02B0     		add	sp, sp, #8
 3861              	.LCFI92:
 3862              		.cfi_remember_state
 3863              		.cfi_def_cfa_offset 8
 3864              		@ sp needed
 3865 0020 10BD     		pop	{r4, pc}
 3866              	.LVL276:
 3867              	.L364:
 3868              	.LCFI93:
 3869              		.cfi_restore_state
1351:Drivers/BSP/Components/lis2dw12/lis2dw12.c ****   }
 3870              		.loc 1 1351 12 view .LVU948
 3871 0022 4FF0FF30 		mov	r0, #-1
 3872 0026 FAE7     		b	.L362
 3873              		.cfi_endproc
 3874              	.LFE32:
 3876              		.section	.text.LIS2DW12_ACC_Get_6D_Orientation_YL,"ax",%progbits
 3877              		.align	1
 3878              		.global	LIS2DW12_ACC_Get_6D_Orientation_YL
 3879              		.syntax unified
 3880              		.thumb
 3881              		.thumb_func
 3882              		.fpu fpv4-sp-d16
 3884              	LIS2DW12_ACC_Get_6D_Orientation_YL:
 3885              	.LVL277:
 3886              	.LFB33:
1366:Drivers/BSP/Components/lis2dw12/lis2dw12.c ****   lis2dw12_sixd_src_t data;
 3887              		.loc 1 1366 1 is_stmt 1 view -0
 3888              		.cfi_startproc
 3889              		@ args = 0, pretend = 0, frame = 8
 3890              		@ frame_needed = 0, uses_anonymous_args = 0
1366:Drivers/BSP/Components/lis2dw12/lis2dw12.c ****   lis2dw12_sixd_src_t data;
 3891              		.loc 1 1366 1 is_stmt 0 view .LVU950
 3892 0000 10B5     		push	{r4, lr}
 3893              	.LCFI94:
 3894              		.cfi_def_cfa_offset 8
 3895              		.cfi_offset 4, -8
 3896              		.cfi_offset 14, -4
 3897 0002 82B0     		sub	sp, sp, #8
 3898              	.LCFI95:
 3899              		.cfi_def_cfa_offset 16
 3900 0004 0C46     		mov	r4, r1
1367:Drivers/BSP/Components/lis2dw12/lis2dw12.c **** 
 3901              		.loc 1 1367 3 is_stmt 1 view .LVU951
1369:Drivers/BSP/Components/lis2dw12/lis2dw12.c ****   {
 3902              		.loc 1 1369 3 view .LVU952
1369:Drivers/BSP/Components/lis2dw12/lis2dw12.c ****   {
 3903              		.loc 1 1369 7 is_stmt 0 view .LVU953
 3904 0006 0123     		movs	r3, #1
 3905 0008 01AA     		add	r2, sp, #4
 3906 000a 3A21     		movs	r1, #58
 3907              	.LVL278:
1369:Drivers/BSP/Components/lis2dw12/lis2dw12.c ****   {
 3908              		.loc 1 1369 7 view .LVU954
 3909 000c 2030     		adds	r0, r0, #32
ARM GAS  /tmp/ccCpEZfe.s 			page 116


 3910              	.LVL279:
1369:Drivers/BSP/Components/lis2dw12/lis2dw12.c ****   {
 3911              		.loc 1 1369 7 view .LVU955
 3912 000e FFF7FEFF 		bl	lis2dw12_read_reg
 3913              	.LVL280:
1369:Drivers/BSP/Components/lis2dw12/lis2dw12.c ****   {
 3914              		.loc 1 1369 6 view .LVU956
 3915 0012 30B9     		cbnz	r0, .L368
1374:Drivers/BSP/Components/lis2dw12/lis2dw12.c **** 
 3916              		.loc 1 1374 3 is_stmt 1 view .LVU957
1374:Drivers/BSP/Components/lis2dw12/lis2dw12.c **** 
 3917              		.loc 1 1374 15 is_stmt 0 view .LVU958
 3918 0014 9DF80430 		ldrb	r3, [sp, #4]	@ zero_extendqisi2
 3919 0018 C3F38003 		ubfx	r3, r3, #2, #1
1374:Drivers/BSP/Components/lis2dw12/lis2dw12.c **** 
 3920              		.loc 1 1374 9 view .LVU959
 3921 001c 2370     		strb	r3, [r4]
1376:Drivers/BSP/Components/lis2dw12/lis2dw12.c **** }
 3922              		.loc 1 1376 3 is_stmt 1 view .LVU960
 3923              	.L366:
1377:Drivers/BSP/Components/lis2dw12/lis2dw12.c **** 
 3924              		.loc 1 1377 1 is_stmt 0 view .LVU961
 3925 001e 02B0     		add	sp, sp, #8
 3926              	.LCFI96:
 3927              		.cfi_remember_state
 3928              		.cfi_def_cfa_offset 8
 3929              		@ sp needed
 3930 0020 10BD     		pop	{r4, pc}
 3931              	.LVL281:
 3932              	.L368:
 3933              	.LCFI97:
 3934              		.cfi_restore_state
1371:Drivers/BSP/Components/lis2dw12/lis2dw12.c ****   }
 3935              		.loc 1 1371 12 view .LVU962
 3936 0022 4FF0FF30 		mov	r0, #-1
 3937 0026 FAE7     		b	.L366
 3938              		.cfi_endproc
 3939              	.LFE33:
 3941              		.section	.text.LIS2DW12_ACC_Get_6D_Orientation_YH,"ax",%progbits
 3942              		.align	1
 3943              		.global	LIS2DW12_ACC_Get_6D_Orientation_YH
 3944              		.syntax unified
 3945              		.thumb
 3946              		.thumb_func
 3947              		.fpu fpv4-sp-d16
 3949              	LIS2DW12_ACC_Get_6D_Orientation_YH:
 3950              	.LVL282:
 3951              	.LFB34:
1386:Drivers/BSP/Components/lis2dw12/lis2dw12.c ****   lis2dw12_sixd_src_t data;
 3952              		.loc 1 1386 1 is_stmt 1 view -0
 3953              		.cfi_startproc
 3954              		@ args = 0, pretend = 0, frame = 8
 3955              		@ frame_needed = 0, uses_anonymous_args = 0
1386:Drivers/BSP/Components/lis2dw12/lis2dw12.c ****   lis2dw12_sixd_src_t data;
 3956              		.loc 1 1386 1 is_stmt 0 view .LVU964
 3957 0000 10B5     		push	{r4, lr}
 3958              	.LCFI98:
ARM GAS  /tmp/ccCpEZfe.s 			page 117


 3959              		.cfi_def_cfa_offset 8
 3960              		.cfi_offset 4, -8
 3961              		.cfi_offset 14, -4
 3962 0002 82B0     		sub	sp, sp, #8
 3963              	.LCFI99:
 3964              		.cfi_def_cfa_offset 16
 3965 0004 0C46     		mov	r4, r1
1387:Drivers/BSP/Components/lis2dw12/lis2dw12.c **** 
 3966              		.loc 1 1387 3 is_stmt 1 view .LVU965
1389:Drivers/BSP/Components/lis2dw12/lis2dw12.c ****   {
 3967              		.loc 1 1389 3 view .LVU966
1389:Drivers/BSP/Components/lis2dw12/lis2dw12.c ****   {
 3968              		.loc 1 1389 7 is_stmt 0 view .LVU967
 3969 0006 0123     		movs	r3, #1
 3970 0008 01AA     		add	r2, sp, #4
 3971 000a 3A21     		movs	r1, #58
 3972              	.LVL283:
1389:Drivers/BSP/Components/lis2dw12/lis2dw12.c ****   {
 3973              		.loc 1 1389 7 view .LVU968
 3974 000c 2030     		adds	r0, r0, #32
 3975              	.LVL284:
1389:Drivers/BSP/Components/lis2dw12/lis2dw12.c ****   {
 3976              		.loc 1 1389 7 view .LVU969
 3977 000e FFF7FEFF 		bl	lis2dw12_read_reg
 3978              	.LVL285:
1389:Drivers/BSP/Components/lis2dw12/lis2dw12.c ****   {
 3979              		.loc 1 1389 6 view .LVU970
 3980 0012 30B9     		cbnz	r0, .L372
1394:Drivers/BSP/Components/lis2dw12/lis2dw12.c **** 
 3981              		.loc 1 1394 3 is_stmt 1 view .LVU971
1394:Drivers/BSP/Components/lis2dw12/lis2dw12.c **** 
 3982              		.loc 1 1394 16 is_stmt 0 view .LVU972
 3983 0014 9DF80430 		ldrb	r3, [sp, #4]	@ zero_extendqisi2
 3984 0018 C3F3C003 		ubfx	r3, r3, #3, #1
1394:Drivers/BSP/Components/lis2dw12/lis2dw12.c **** 
 3985              		.loc 1 1394 10 view .LVU973
 3986 001c 2370     		strb	r3, [r4]
1396:Drivers/BSP/Components/lis2dw12/lis2dw12.c **** }
 3987              		.loc 1 1396 3 is_stmt 1 view .LVU974
 3988              	.L370:
1397:Drivers/BSP/Components/lis2dw12/lis2dw12.c **** 
 3989              		.loc 1 1397 1 is_stmt 0 view .LVU975
 3990 001e 02B0     		add	sp, sp, #8
 3991              	.LCFI100:
 3992              		.cfi_remember_state
 3993              		.cfi_def_cfa_offset 8
 3994              		@ sp needed
 3995 0020 10BD     		pop	{r4, pc}
 3996              	.LVL286:
 3997              	.L372:
 3998              	.LCFI101:
 3999              		.cfi_restore_state
1391:Drivers/BSP/Components/lis2dw12/lis2dw12.c ****   }
 4000              		.loc 1 1391 12 view .LVU976
 4001 0022 4FF0FF30 		mov	r0, #-1
 4002 0026 FAE7     		b	.L370
 4003              		.cfi_endproc
ARM GAS  /tmp/ccCpEZfe.s 			page 118


 4004              	.LFE34:
 4006              		.section	.text.LIS2DW12_ACC_Get_6D_Orientation_ZL,"ax",%progbits
 4007              		.align	1
 4008              		.global	LIS2DW12_ACC_Get_6D_Orientation_ZL
 4009              		.syntax unified
 4010              		.thumb
 4011              		.thumb_func
 4012              		.fpu fpv4-sp-d16
 4014              	LIS2DW12_ACC_Get_6D_Orientation_ZL:
 4015              	.LVL287:
 4016              	.LFB35:
1406:Drivers/BSP/Components/lis2dw12/lis2dw12.c ****   lis2dw12_sixd_src_t data;
 4017              		.loc 1 1406 1 is_stmt 1 view -0
 4018              		.cfi_startproc
 4019              		@ args = 0, pretend = 0, frame = 8
 4020              		@ frame_needed = 0, uses_anonymous_args = 0
1406:Drivers/BSP/Components/lis2dw12/lis2dw12.c ****   lis2dw12_sixd_src_t data;
 4021              		.loc 1 1406 1 is_stmt 0 view .LVU978
 4022 0000 10B5     		push	{r4, lr}
 4023              	.LCFI102:
 4024              		.cfi_def_cfa_offset 8
 4025              		.cfi_offset 4, -8
 4026              		.cfi_offset 14, -4
 4027 0002 82B0     		sub	sp, sp, #8
 4028              	.LCFI103:
 4029              		.cfi_def_cfa_offset 16
 4030 0004 0C46     		mov	r4, r1
1407:Drivers/BSP/Components/lis2dw12/lis2dw12.c **** 
 4031              		.loc 1 1407 3 is_stmt 1 view .LVU979
1409:Drivers/BSP/Components/lis2dw12/lis2dw12.c ****   {
 4032              		.loc 1 1409 3 view .LVU980
1409:Drivers/BSP/Components/lis2dw12/lis2dw12.c ****   {
 4033              		.loc 1 1409 7 is_stmt 0 view .LVU981
 4034 0006 0123     		movs	r3, #1
 4035 0008 01AA     		add	r2, sp, #4
 4036 000a 3A21     		movs	r1, #58
 4037              	.LVL288:
1409:Drivers/BSP/Components/lis2dw12/lis2dw12.c ****   {
 4038              		.loc 1 1409 7 view .LVU982
 4039 000c 2030     		adds	r0, r0, #32
 4040              	.LVL289:
1409:Drivers/BSP/Components/lis2dw12/lis2dw12.c ****   {
 4041              		.loc 1 1409 7 view .LVU983
 4042 000e FFF7FEFF 		bl	lis2dw12_read_reg
 4043              	.LVL290:
1409:Drivers/BSP/Components/lis2dw12/lis2dw12.c ****   {
 4044              		.loc 1 1409 6 view .LVU984
 4045 0012 30B9     		cbnz	r0, .L376
1414:Drivers/BSP/Components/lis2dw12/lis2dw12.c **** 
 4046              		.loc 1 1414 3 is_stmt 1 view .LVU985
1414:Drivers/BSP/Components/lis2dw12/lis2dw12.c **** 
 4047              		.loc 1 1414 15 is_stmt 0 view .LVU986
 4048 0014 9DF80430 		ldrb	r3, [sp, #4]	@ zero_extendqisi2
 4049 0018 C3F30013 		ubfx	r3, r3, #4, #1
1414:Drivers/BSP/Components/lis2dw12/lis2dw12.c **** 
 4050              		.loc 1 1414 9 view .LVU987
 4051 001c 2370     		strb	r3, [r4]
ARM GAS  /tmp/ccCpEZfe.s 			page 119


1416:Drivers/BSP/Components/lis2dw12/lis2dw12.c **** }
 4052              		.loc 1 1416 3 is_stmt 1 view .LVU988
 4053              	.L374:
1417:Drivers/BSP/Components/lis2dw12/lis2dw12.c **** 
 4054              		.loc 1 1417 1 is_stmt 0 view .LVU989
 4055 001e 02B0     		add	sp, sp, #8
 4056              	.LCFI104:
 4057              		.cfi_remember_state
 4058              		.cfi_def_cfa_offset 8
 4059              		@ sp needed
 4060 0020 10BD     		pop	{r4, pc}
 4061              	.LVL291:
 4062              	.L376:
 4063              	.LCFI105:
 4064              		.cfi_restore_state
1411:Drivers/BSP/Components/lis2dw12/lis2dw12.c ****   }
 4065              		.loc 1 1411 12 view .LVU990
 4066 0022 4FF0FF30 		mov	r0, #-1
 4067 0026 FAE7     		b	.L374
 4068              		.cfi_endproc
 4069              	.LFE35:
 4071              		.section	.text.LIS2DW12_ACC_Get_6D_Orientation_ZH,"ax",%progbits
 4072              		.align	1
 4073              		.global	LIS2DW12_ACC_Get_6D_Orientation_ZH
 4074              		.syntax unified
 4075              		.thumb
 4076              		.thumb_func
 4077              		.fpu fpv4-sp-d16
 4079              	LIS2DW12_ACC_Get_6D_Orientation_ZH:
 4080              	.LVL292:
 4081              	.LFB36:
1426:Drivers/BSP/Components/lis2dw12/lis2dw12.c ****   lis2dw12_sixd_src_t data;
 4082              		.loc 1 1426 1 is_stmt 1 view -0
 4083              		.cfi_startproc
 4084              		@ args = 0, pretend = 0, frame = 8
 4085              		@ frame_needed = 0, uses_anonymous_args = 0
1426:Drivers/BSP/Components/lis2dw12/lis2dw12.c ****   lis2dw12_sixd_src_t data;
 4086              		.loc 1 1426 1 is_stmt 0 view .LVU992
 4087 0000 10B5     		push	{r4, lr}
 4088              	.LCFI106:
 4089              		.cfi_def_cfa_offset 8
 4090              		.cfi_offset 4, -8
 4091              		.cfi_offset 14, -4
 4092 0002 82B0     		sub	sp, sp, #8
 4093              	.LCFI107:
 4094              		.cfi_def_cfa_offset 16
 4095 0004 0C46     		mov	r4, r1
1427:Drivers/BSP/Components/lis2dw12/lis2dw12.c **** 
 4096              		.loc 1 1427 3 is_stmt 1 view .LVU993
1429:Drivers/BSP/Components/lis2dw12/lis2dw12.c ****   {
 4097              		.loc 1 1429 3 view .LVU994
1429:Drivers/BSP/Components/lis2dw12/lis2dw12.c ****   {
 4098              		.loc 1 1429 7 is_stmt 0 view .LVU995
 4099 0006 0123     		movs	r3, #1
 4100 0008 01AA     		add	r2, sp, #4
 4101 000a 3A21     		movs	r1, #58
 4102              	.LVL293:
ARM GAS  /tmp/ccCpEZfe.s 			page 120


1429:Drivers/BSP/Components/lis2dw12/lis2dw12.c ****   {
 4103              		.loc 1 1429 7 view .LVU996
 4104 000c 2030     		adds	r0, r0, #32
 4105              	.LVL294:
1429:Drivers/BSP/Components/lis2dw12/lis2dw12.c ****   {
 4106              		.loc 1 1429 7 view .LVU997
 4107 000e FFF7FEFF 		bl	lis2dw12_read_reg
 4108              	.LVL295:
1429:Drivers/BSP/Components/lis2dw12/lis2dw12.c ****   {
 4109              		.loc 1 1429 6 view .LVU998
 4110 0012 30B9     		cbnz	r0, .L380
1434:Drivers/BSP/Components/lis2dw12/lis2dw12.c **** 
 4111              		.loc 1 1434 3 is_stmt 1 view .LVU999
1434:Drivers/BSP/Components/lis2dw12/lis2dw12.c **** 
 4112              		.loc 1 1434 16 is_stmt 0 view .LVU1000
 4113 0014 9DF80430 		ldrb	r3, [sp, #4]	@ zero_extendqisi2
 4114 0018 C3F34013 		ubfx	r3, r3, #5, #1
1434:Drivers/BSP/Components/lis2dw12/lis2dw12.c **** 
 4115              		.loc 1 1434 10 view .LVU1001
 4116 001c 2370     		strb	r3, [r4]
1436:Drivers/BSP/Components/lis2dw12/lis2dw12.c **** }
 4117              		.loc 1 1436 3 is_stmt 1 view .LVU1002
 4118              	.L378:
1437:Drivers/BSP/Components/lis2dw12/lis2dw12.c **** 
 4119              		.loc 1 1437 1 is_stmt 0 view .LVU1003
 4120 001e 02B0     		add	sp, sp, #8
 4121              	.LCFI108:
 4122              		.cfi_remember_state
 4123              		.cfi_def_cfa_offset 8
 4124              		@ sp needed
 4125 0020 10BD     		pop	{r4, pc}
 4126              	.LVL296:
 4127              	.L380:
 4128              	.LCFI109:
 4129              		.cfi_restore_state
1431:Drivers/BSP/Components/lis2dw12/lis2dw12.c ****   }
 4130              		.loc 1 1431 12 view .LVU1004
 4131 0022 4FF0FF30 		mov	r0, #-1
 4132 0026 FAE7     		b	.L378
 4133              		.cfi_endproc
 4134              	.LFE36:
 4136              		.section	.text.LIS2DW12_ACC_Get_Event_Status,"ax",%progbits
 4137              		.align	1
 4138              		.global	LIS2DW12_ACC_Get_Event_Status
 4139              		.syntax unified
 4140              		.thumb
 4141              		.thumb_func
 4142              		.fpu fpv4-sp-d16
 4144              	LIS2DW12_ACC_Get_Event_Status:
 4145              	.LVL297:
 4146              	.LFB37:
1446:Drivers/BSP/Components/lis2dw12/lis2dw12.c ****   lis2dw12_status_t status_reg;
 4147              		.loc 1 1446 1 is_stmt 1 view -0
 4148              		.cfi_startproc
 4149              		@ args = 0, pretend = 0, frame = 16
 4150              		@ frame_needed = 0, uses_anonymous_args = 0
1446:Drivers/BSP/Components/lis2dw12/lis2dw12.c ****   lis2dw12_status_t status_reg;
ARM GAS  /tmp/ccCpEZfe.s 			page 121


 4151              		.loc 1 1446 1 is_stmt 0 view .LVU1006
 4152 0000 30B5     		push	{r4, r5, lr}
 4153              	.LCFI110:
 4154              		.cfi_def_cfa_offset 12
 4155              		.cfi_offset 4, -12
 4156              		.cfi_offset 5, -8
 4157              		.cfi_offset 14, -4
 4158 0002 85B0     		sub	sp, sp, #20
 4159              	.LCFI111:
 4160              		.cfi_def_cfa_offset 32
 4161 0004 0D46     		mov	r5, r1
1447:Drivers/BSP/Components/lis2dw12/lis2dw12.c ****   lis2dw12_ctrl4_int1_pad_ctrl_t ctrl4_int1_reg;
 4162              		.loc 1 1447 3 is_stmt 1 view .LVU1007
1448:Drivers/BSP/Components/lis2dw12/lis2dw12.c ****   lis2dw12_ctrl5_int2_pad_ctrl_t ctrl5_int2_reg;
 4163              		.loc 1 1448 3 view .LVU1008
1449:Drivers/BSP/Components/lis2dw12/lis2dw12.c **** 
 4164              		.loc 1 1449 3 view .LVU1009
1451:Drivers/BSP/Components/lis2dw12/lis2dw12.c **** 
 4165              		.loc 1 1451 3 view .LVU1010
1451:Drivers/BSP/Components/lis2dw12/lis2dw12.c **** 
 4166              		.loc 1 1451 9 is_stmt 0 view .LVU1011
 4167 0006 0023     		movs	r3, #0
 4168 0008 0B60     		str	r3, [r1]	@ unaligned
1453:Drivers/BSP/Components/lis2dw12/lis2dw12.c ****   {
 4169              		.loc 1 1453 3 is_stmt 1 view .LVU1012
1453:Drivers/BSP/Components/lis2dw12/lis2dw12.c ****   {
 4170              		.loc 1 1453 7 is_stmt 0 view .LVU1013
 4171 000a 00F12004 		add	r4, r0, #32
 4172 000e 0123     		movs	r3, #1
 4173 0010 03AA     		add	r2, sp, #12
 4174 0012 2721     		movs	r1, #39
 4175              	.LVL298:
1453:Drivers/BSP/Components/lis2dw12/lis2dw12.c ****   {
 4176              		.loc 1 1453 7 view .LVU1014
 4177 0014 2046     		mov	r0, r4
 4178              	.LVL299:
1453:Drivers/BSP/Components/lis2dw12/lis2dw12.c ****   {
 4179              		.loc 1 1453 7 view .LVU1015
 4180 0016 FFF7FEFF 		bl	lis2dw12_read_reg
 4181              	.LVL300:
1453:Drivers/BSP/Components/lis2dw12/lis2dw12.c ****   {
 4182              		.loc 1 1453 6 view .LVU1016
 4183 001a C8BB     		cbnz	r0, .L386
1458:Drivers/BSP/Components/lis2dw12/lis2dw12.c ****   {
 4184              		.loc 1 1458 3 is_stmt 1 view .LVU1017
1458:Drivers/BSP/Components/lis2dw12/lis2dw12.c ****   {
 4185              		.loc 1 1458 7 is_stmt 0 view .LVU1018
 4186 001c 0123     		movs	r3, #1
 4187 001e 02AA     		add	r2, sp, #8
 4188 0020 2321     		movs	r1, #35
 4189 0022 2046     		mov	r0, r4
 4190 0024 FFF7FEFF 		bl	lis2dw12_read_reg
 4191              	.LVL301:
1458:Drivers/BSP/Components/lis2dw12/lis2dw12.c ****   {
 4192              		.loc 1 1458 6 view .LVU1019
 4193 0028 A8BB     		cbnz	r0, .L387
1463:Drivers/BSP/Components/lis2dw12/lis2dw12.c ****   {
ARM GAS  /tmp/ccCpEZfe.s 			page 122


 4194              		.loc 1 1463 3 is_stmt 1 view .LVU1020
1463:Drivers/BSP/Components/lis2dw12/lis2dw12.c ****   {
 4195              		.loc 1 1463 7 is_stmt 0 view .LVU1021
 4196 002a 0123     		movs	r3, #1
 4197 002c 01AA     		add	r2, sp, #4
 4198 002e 2421     		movs	r1, #36
 4199 0030 2046     		mov	r0, r4
 4200 0032 FFF7FEFF 		bl	lis2dw12_read_reg
 4201              	.LVL302:
1463:Drivers/BSP/Components/lis2dw12/lis2dw12.c ****   {
 4202              		.loc 1 1463 6 view .LVU1022
 4203 0036 88BB     		cbnz	r0, .L388
1468:Drivers/BSP/Components/lis2dw12/lis2dw12.c ****   {
 4204              		.loc 1 1468 3 is_stmt 1 view .LVU1023
1468:Drivers/BSP/Components/lis2dw12/lis2dw12.c ****   {
 4205              		.loc 1 1468 30 is_stmt 0 view .LVU1024
 4206 0038 9DF80830 		ldrb	r3, [sp, #8]	@ zero_extendqisi2
1468:Drivers/BSP/Components/lis2dw12/lis2dw12.c ****   {
 4207              		.loc 1 1468 6 view .LVU1025
 4208 003c 13F0200F 		tst	r3, #32
 4209 0040 08D0     		beq	.L384
1470:Drivers/BSP/Components/lis2dw12/lis2dw12.c ****     {
 4210              		.loc 1 1470 5 is_stmt 1 view .LVU1026
1470:Drivers/BSP/Components/lis2dw12/lis2dw12.c ****     {
 4211              		.loc 1 1470 26 is_stmt 0 view .LVU1027
 4212 0042 9DF80C30 		ldrb	r3, [sp, #12]	@ zero_extendqisi2
1470:Drivers/BSP/Components/lis2dw12/lis2dw12.c ****     {
 4213              		.loc 1 1470 8 view .LVU1028
 4214 0046 13F0400F 		tst	r3, #64
 4215 004a 03D0     		beq	.L384
1472:Drivers/BSP/Components/lis2dw12/lis2dw12.c ****     }
 4216              		.loc 1 1472 7 is_stmt 1 view .LVU1029
1472:Drivers/BSP/Components/lis2dw12/lis2dw12.c ****     }
 4217              		.loc 1 1472 28 is_stmt 0 view .LVU1030
 4218 004c 2B78     		ldrb	r3, [r5]	@ zero_extendqisi2
 4219 004e 43F00803 		orr	r3, r3, #8
 4220 0052 2B70     		strb	r3, [r5]
 4221              	.L384:
1476:Drivers/BSP/Components/lis2dw12/lis2dw12.c ****   {
 4222              		.loc 1 1476 3 is_stmt 1 view .LVU1031
1476:Drivers/BSP/Components/lis2dw12/lis2dw12.c ****   {
 4223              		.loc 1 1476 6 is_stmt 0 view .LVU1032
 4224 0054 9DF90830 		ldrsb	r3, [sp, #8]
 4225 0058 002B     		cmp	r3, #0
 4226 005a 0FDB     		blt	.L390
 4227              	.L385:
1484:Drivers/BSP/Components/lis2dw12/lis2dw12.c ****   {
 4228              		.loc 1 1484 3 is_stmt 1 view .LVU1033
1484:Drivers/BSP/Components/lis2dw12/lis2dw12.c ****   {
 4229              		.loc 1 1484 37 is_stmt 0 view .LVU1034
 4230 005c 9DF80430 		ldrb	r3, [sp, #4]	@ zero_extendqisi2
1484:Drivers/BSP/Components/lis2dw12/lis2dw12.c ****   {
 4231              		.loc 1 1484 6 view .LVU1035
 4232 0060 13F0400F 		tst	r3, #64
 4233 0064 08D0     		beq	.L382
1486:Drivers/BSP/Components/lis2dw12/lis2dw12.c ****     {
 4234              		.loc 1 1486 5 is_stmt 1 view .LVU1036
ARM GAS  /tmp/ccCpEZfe.s 			page 123


1486:Drivers/BSP/Components/lis2dw12/lis2dw12.c ****     {
 4235              		.loc 1 1486 32 is_stmt 0 view .LVU1037
 4236 0066 9DF80C30 		ldrb	r3, [sp, #12]	@ zero_extendqisi2
1486:Drivers/BSP/Components/lis2dw12/lis2dw12.c ****     {
 4237              		.loc 1 1486 8 view .LVU1038
 4238 006a 13F0200F 		tst	r3, #32
 4239 006e 03D0     		beq	.L382
1488:Drivers/BSP/Components/lis2dw12/lis2dw12.c ****     }
 4240              		.loc 1 1488 7 is_stmt 1 view .LVU1039
1488:Drivers/BSP/Components/lis2dw12/lis2dw12.c ****     }
 4241              		.loc 1 1488 27 is_stmt 0 view .LVU1040
 4242 0070 2B78     		ldrb	r3, [r5]	@ zero_extendqisi2
 4243 0072 43F08003 		orr	r3, r3, #128
 4244 0076 2B70     		strb	r3, [r5]
 4245              	.L382:
1493:Drivers/BSP/Components/lis2dw12/lis2dw12.c **** 
 4246              		.loc 1 1493 1 view .LVU1041
 4247 0078 05B0     		add	sp, sp, #20
 4248              	.LCFI112:
 4249              		.cfi_remember_state
 4250              		.cfi_def_cfa_offset 12
 4251              		@ sp needed
 4252 007a 30BD     		pop	{r4, r5, pc}
 4253              	.LVL303:
 4254              	.L390:
 4255              	.LCFI113:
 4256              		.cfi_restore_state
1478:Drivers/BSP/Components/lis2dw12/lis2dw12.c ****     {
 4257              		.loc 1 1478 5 is_stmt 1 view .LVU1042
1478:Drivers/BSP/Components/lis2dw12/lis2dw12.c ****     {
 4258              		.loc 1 1478 27 is_stmt 0 view .LVU1043
 4259 007c 9DF80C30 		ldrb	r3, [sp, #12]	@ zero_extendqisi2
1478:Drivers/BSP/Components/lis2dw12/lis2dw12.c ****     {
 4260              		.loc 1 1478 8 view .LVU1044
 4261 0080 13F0040F 		tst	r3, #4
 4262 0084 EAD0     		beq	.L385
1480:Drivers/BSP/Components/lis2dw12/lis2dw12.c ****     }
 4263              		.loc 1 1480 7 is_stmt 1 view .LVU1045
1480:Drivers/BSP/Components/lis2dw12/lis2dw12.c ****     }
 4264              		.loc 1 1480 36 is_stmt 0 view .LVU1046
 4265 0086 2B78     		ldrb	r3, [r5]	@ zero_extendqisi2
 4266 0088 43F04003 		orr	r3, r3, #64
 4267 008c 2B70     		strb	r3, [r5]
 4268 008e E5E7     		b	.L385
 4269              	.L386:
1455:Drivers/BSP/Components/lis2dw12/lis2dw12.c ****   }
 4270              		.loc 1 1455 12 view .LVU1047
 4271 0090 4FF0FF30 		mov	r0, #-1
 4272 0094 F0E7     		b	.L382
 4273              	.L387:
1460:Drivers/BSP/Components/lis2dw12/lis2dw12.c ****   }
 4274              		.loc 1 1460 12 view .LVU1048
 4275 0096 4FF0FF30 		mov	r0, #-1
 4276 009a EDE7     		b	.L382
 4277              	.L388:
1465:Drivers/BSP/Components/lis2dw12/lis2dw12.c ****   }
 4278              		.loc 1 1465 12 view .LVU1049
ARM GAS  /tmp/ccCpEZfe.s 			page 124


 4279 009c 4FF0FF30 		mov	r0, #-1
 4280 00a0 EAE7     		b	.L382
 4281              		.cfi_endproc
 4282              	.LFE37:
 4284              		.section	.text.LIS2DW12_ACC_Set_SelfTest,"ax",%progbits
 4285              		.align	1
 4286              		.global	LIS2DW12_ACC_Set_SelfTest
 4287              		.syntax unified
 4288              		.thumb
 4289              		.thumb_func
 4290              		.fpu fpv4-sp-d16
 4292              	LIS2DW12_ACC_Set_SelfTest:
 4293              	.LVL304:
 4294              	.LFB38:
1502:Drivers/BSP/Components/lis2dw12/lis2dw12.c ****   lis2dw12_st_t reg;
 4295              		.loc 1 1502 1 is_stmt 1 view -0
 4296              		.cfi_startproc
 4297              		@ args = 0, pretend = 0, frame = 0
 4298              		@ frame_needed = 0, uses_anonymous_args = 0
1503:Drivers/BSP/Components/lis2dw12/lis2dw12.c **** 
 4299              		.loc 1 1503 3 view .LVU1051
1505:Drivers/BSP/Components/lis2dw12/lis2dw12.c ****   {
 4300              		.loc 1 1505 3 view .LVU1052
1505:Drivers/BSP/Components/lis2dw12/lis2dw12.c ****   {
 4301              		.loc 1 1505 6 is_stmt 0 view .LVU1053
 4302 0000 0229     		cmp	r1, #2
 4303 0002 09D8     		bhi	.L394
1502:Drivers/BSP/Components/lis2dw12/lis2dw12.c ****   lis2dw12_st_t reg;
 4304              		.loc 1 1502 1 view .LVU1054
 4305 0004 08B5     		push	{r3, lr}
 4306              	.LCFI114:
 4307              		.cfi_def_cfa_offset 8
 4308              		.cfi_offset 3, -8
 4309              		.cfi_offset 14, -4
1510:Drivers/BSP/Components/lis2dw12/lis2dw12.c ****         : (Val == 1U)  ? LIS2DW12_XL_ST_POSITIVE
 4310              		.loc 1 1510 3 is_stmt 1 view .LVU1055
1511:Drivers/BSP/Components/lis2dw12/lis2dw12.c ****         :                LIS2DW12_XL_ST_NEGATIVE;
 4311              		.loc 1 1511 9 is_stmt 0 view .LVU1056
 4312 0006 11B1     		cbz	r1, .L393
1511:Drivers/BSP/Components/lis2dw12/lis2dw12.c ****         :                LIS2DW12_XL_ST_NEGATIVE;
 4313              		.loc 1 1511 9 discriminator 1 view .LVU1057
 4314 0008 0129     		cmp	r1, #1
 4315 000a 00D0     		beq	.L393
1511:Drivers/BSP/Components/lis2dw12/lis2dw12.c ****         :                LIS2DW12_XL_ST_NEGATIVE;
 4316              		.loc 1 1511 9 view .LVU1058
 4317 000c 0221     		movs	r1, #2
 4318              	.LVL305:
 4319              	.L393:
1514:Drivers/BSP/Components/lis2dw12/lis2dw12.c ****   {
 4320              		.loc 1 1514 3 is_stmt 1 view .LVU1059
1514:Drivers/BSP/Components/lis2dw12/lis2dw12.c ****   {
 4321              		.loc 1 1514 7 is_stmt 0 view .LVU1060
 4322 000e 2030     		adds	r0, r0, #32
 4323              	.LVL306:
1514:Drivers/BSP/Components/lis2dw12/lis2dw12.c ****   {
 4324              		.loc 1 1514 7 view .LVU1061
 4325 0010 FFF7FEFF 		bl	lis2dw12_self_test_set
ARM GAS  /tmp/ccCpEZfe.s 			page 125


 4326              	.LVL307:
1514:Drivers/BSP/Components/lis2dw12/lis2dw12.c ****   {
 4327              		.loc 1 1514 6 view .LVU1062
 4328 0014 18B9     		cbnz	r0, .L401
 4329              	.L391:
1520:Drivers/BSP/Components/lis2dw12/lis2dw12.c **** 
 4330              		.loc 1 1520 1 view .LVU1063
 4331 0016 08BD     		pop	{r3, pc}
 4332              	.LVL308:
 4333              	.L394:
 4334              	.LCFI115:
 4335              		.cfi_def_cfa_offset 0
 4336              		.cfi_restore 3
 4337              		.cfi_restore 14
1507:Drivers/BSP/Components/lis2dw12/lis2dw12.c ****   }
 4338              		.loc 1 1507 12 view .LVU1064
 4339 0018 4FF0FF30 		mov	r0, #-1
 4340              	.LVL309:
1520:Drivers/BSP/Components/lis2dw12/lis2dw12.c **** 
 4341              		.loc 1 1520 1 view .LVU1065
 4342 001c 7047     		bx	lr
 4343              	.LVL310:
 4344              	.L401:
 4345              	.LCFI116:
 4346              		.cfi_def_cfa_offset 8
 4347              		.cfi_offset 3, -8
 4348              		.cfi_offset 14, -4
1516:Drivers/BSP/Components/lis2dw12/lis2dw12.c ****   }
 4349              		.loc 1 1516 12 view .LVU1066
 4350 001e 4FF0FF30 		mov	r0, #-1
 4351 0022 F8E7     		b	.L391
 4352              		.cfi_endproc
 4353              	.LFE38:
 4355              		.section	.text.LIS2DW12_ACC_Get_DRDY_Status,"ax",%progbits
 4356              		.align	1
 4357              		.global	LIS2DW12_ACC_Get_DRDY_Status
 4358              		.syntax unified
 4359              		.thumb
 4360              		.thumb_func
 4361              		.fpu fpv4-sp-d16
 4363              	LIS2DW12_ACC_Get_DRDY_Status:
 4364              	.LVL311:
 4365              	.LFB39:
1529:Drivers/BSP/Components/lis2dw12/lis2dw12.c ****   if (lis2dw12_flag_data_ready_get(&(pObj->Ctx), Status) != LIS2DW12_OK)
 4366              		.loc 1 1529 1 is_stmt 1 view -0
 4367              		.cfi_startproc
 4368              		@ args = 0, pretend = 0, frame = 0
 4369              		@ frame_needed = 0, uses_anonymous_args = 0
1529:Drivers/BSP/Components/lis2dw12/lis2dw12.c ****   if (lis2dw12_flag_data_ready_get(&(pObj->Ctx), Status) != LIS2DW12_OK)
 4370              		.loc 1 1529 1 is_stmt 0 view .LVU1068
 4371 0000 08B5     		push	{r3, lr}
 4372              	.LCFI117:
 4373              		.cfi_def_cfa_offset 8
 4374              		.cfi_offset 3, -8
 4375              		.cfi_offset 14, -4
1530:Drivers/BSP/Components/lis2dw12/lis2dw12.c ****   {
 4376              		.loc 1 1530 3 is_stmt 1 view .LVU1069
ARM GAS  /tmp/ccCpEZfe.s 			page 126


1530:Drivers/BSP/Components/lis2dw12/lis2dw12.c ****   {
 4377              		.loc 1 1530 7 is_stmt 0 view .LVU1070
 4378 0002 2030     		adds	r0, r0, #32
 4379              	.LVL312:
1530:Drivers/BSP/Components/lis2dw12/lis2dw12.c ****   {
 4380              		.loc 1 1530 7 view .LVU1071
 4381 0004 FFF7FEFF 		bl	lis2dw12_flag_data_ready_get
 4382              	.LVL313:
1530:Drivers/BSP/Components/lis2dw12/lis2dw12.c ****   {
 4383              		.loc 1 1530 6 view .LVU1072
 4384 0008 00B9     		cbnz	r0, .L406
 4385              	.L402:
1536:Drivers/BSP/Components/lis2dw12/lis2dw12.c **** 
 4386              		.loc 1 1536 1 view .LVU1073
 4387 000a 08BD     		pop	{r3, pc}
 4388              	.L406:
1532:Drivers/BSP/Components/lis2dw12/lis2dw12.c ****   }
 4389              		.loc 1 1532 12 view .LVU1074
 4390 000c 4FF0FF30 		mov	r0, #-1
 4391 0010 FBE7     		b	.L402
 4392              		.cfi_endproc
 4393              	.LFE39:
 4395              		.section	.text.LIS2DW12_ACC_Get_Init_Status,"ax",%progbits
 4396              		.align	1
 4397              		.global	LIS2DW12_ACC_Get_Init_Status
 4398              		.syntax unified
 4399              		.thumb
 4400              		.thumb_func
 4401              		.fpu fpv4-sp-d16
 4403              	LIS2DW12_ACC_Get_Init_Status:
 4404              	.LVL314:
 4405              	.LFB40:
1545:Drivers/BSP/Components/lis2dw12/lis2dw12.c ****   if (pObj == NULL)
 4406              		.loc 1 1545 1 is_stmt 1 view -0
 4407              		.cfi_startproc
 4408              		@ args = 0, pretend = 0, frame = 0
 4409              		@ frame_needed = 0, uses_anonymous_args = 0
 4410              		@ link register save eliminated.
1546:Drivers/BSP/Components/lis2dw12/lis2dw12.c ****   {
 4411              		.loc 1 1546 3 view .LVU1076
1546:Drivers/BSP/Components/lis2dw12/lis2dw12.c ****   {
 4412              		.loc 1 1546 6 is_stmt 0 view .LVU1077
 4413 0000 20B1     		cbz	r0, .L409
1551:Drivers/BSP/Components/lis2dw12/lis2dw12.c **** 
 4414              		.loc 1 1551 3 is_stmt 1 view .LVU1078
1551:Drivers/BSP/Components/lis2dw12/lis2dw12.c **** 
 4415              		.loc 1 1551 17 is_stmt 0 view .LVU1079
 4416 0002 90F83030 		ldrb	r3, [r0, #48]	@ zero_extendqisi2
1551:Drivers/BSP/Components/lis2dw12/lis2dw12.c **** 
 4417              		.loc 1 1551 11 view .LVU1080
 4418 0006 0B70     		strb	r3, [r1]
1553:Drivers/BSP/Components/lis2dw12/lis2dw12.c **** }
 4419              		.loc 1 1553 3 is_stmt 1 view .LVU1081
1553:Drivers/BSP/Components/lis2dw12/lis2dw12.c **** }
 4420              		.loc 1 1553 10 is_stmt 0 view .LVU1082
 4421 0008 0020     		movs	r0, #0
 4422              	.LVL315:
ARM GAS  /tmp/ccCpEZfe.s 			page 127


1553:Drivers/BSP/Components/lis2dw12/lis2dw12.c **** }
 4423              		.loc 1 1553 10 view .LVU1083
 4424 000a 7047     		bx	lr
 4425              	.LVL316:
 4426              	.L409:
1548:Drivers/BSP/Components/lis2dw12/lis2dw12.c ****   }
 4427              		.loc 1 1548 12 view .LVU1084
 4428 000c 4FF0FF30 		mov	r0, #-1
 4429              	.LVL317:
1554:Drivers/BSP/Components/lis2dw12/lis2dw12.c **** 
 4430              		.loc 1 1554 1 view .LVU1085
 4431 0010 7047     		bx	lr
 4432              		.cfi_endproc
 4433              	.LFE40:
 4435              		.section	.text.LIS2DW12_FIFO_Get_Num_Samples,"ax",%progbits
 4436              		.align	1
 4437              		.global	LIS2DW12_FIFO_Get_Num_Samples
 4438              		.syntax unified
 4439              		.thumb
 4440              		.thumb_func
 4441              		.fpu fpv4-sp-d16
 4443              	LIS2DW12_FIFO_Get_Num_Samples:
 4444              	.LVL318:
 4445              	.LFB41:
1563:Drivers/BSP/Components/lis2dw12/lis2dw12.c ****   lis2dw12_fifo_samples_t FIFO_Samples;
 4446              		.loc 1 1563 1 is_stmt 1 view -0
 4447              		.cfi_startproc
 4448              		@ args = 0, pretend = 0, frame = 8
 4449              		@ frame_needed = 0, uses_anonymous_args = 0
1563:Drivers/BSP/Components/lis2dw12/lis2dw12.c ****   lis2dw12_fifo_samples_t FIFO_Samples;
 4450              		.loc 1 1563 1 is_stmt 0 view .LVU1087
 4451 0000 10B5     		push	{r4, lr}
 4452              	.LCFI118:
 4453              		.cfi_def_cfa_offset 8
 4454              		.cfi_offset 4, -8
 4455              		.cfi_offset 14, -4
 4456 0002 82B0     		sub	sp, sp, #8
 4457              	.LCFI119:
 4458              		.cfi_def_cfa_offset 16
 4459 0004 0C46     		mov	r4, r1
1564:Drivers/BSP/Components/lis2dw12/lis2dw12.c **** 
 4460              		.loc 1 1564 3 is_stmt 1 view .LVU1088
1566:Drivers/BSP/Components/lis2dw12/lis2dw12.c ****   {
 4461              		.loc 1 1566 3 view .LVU1089
1566:Drivers/BSP/Components/lis2dw12/lis2dw12.c ****   {
 4462              		.loc 1 1566 7 is_stmt 0 view .LVU1090
 4463 0006 0123     		movs	r3, #1
 4464 0008 01AA     		add	r2, sp, #4
 4465 000a 2F21     		movs	r1, #47
 4466              	.LVL319:
1566:Drivers/BSP/Components/lis2dw12/lis2dw12.c ****   {
 4467              		.loc 1 1566 7 view .LVU1091
 4468 000c 2030     		adds	r0, r0, #32
 4469              	.LVL320:
1566:Drivers/BSP/Components/lis2dw12/lis2dw12.c ****   {
 4470              		.loc 1 1566 7 view .LVU1092
 4471 000e FFF7FEFF 		bl	lis2dw12_read_reg
ARM GAS  /tmp/ccCpEZfe.s 			page 128


 4472              	.LVL321:
1566:Drivers/BSP/Components/lis2dw12/lis2dw12.c ****   {
 4473              		.loc 1 1566 6 view .LVU1093
 4474 0012 70B9     		cbnz	r0, .L413
1571:Drivers/BSP/Components/lis2dw12/lis2dw12.c ****   {
 4475              		.loc 1 1571 3 is_stmt 1 view .LVU1094
1571:Drivers/BSP/Components/lis2dw12/lis2dw12.c ****   {
 4476              		.loc 1 1571 25 is_stmt 0 view .LVU1095
 4477 0014 9DF80430 		ldrb	r3, [sp, #4]	@ zero_extendqisi2
 4478 0018 03F03F03 		and	r3, r3, #63
1571:Drivers/BSP/Components/lis2dw12/lis2dw12.c ****   {
 4479              		.loc 1 1571 6 view .LVU1096
 4480 001c 202B     		cmp	r3, #32
 4481 001e 06D0     		beq	.L415
1577:Drivers/BSP/Components/lis2dw12/lis2dw12.c ****   }
 4482              		.loc 1 1577 5 is_stmt 1 view .LVU1097
1577:Drivers/BSP/Components/lis2dw12/lis2dw12.c ****   }
 4483              		.loc 1 1577 31 is_stmt 0 view .LVU1098
 4484 0020 9DF80430 		ldrb	r3, [sp, #4]	@ zero_extendqisi2
 4485 0024 03F03F03 		and	r3, r3, #63
1577:Drivers/BSP/Components/lis2dw12/lis2dw12.c ****   }
 4486              		.loc 1 1577 17 view .LVU1099
 4487 0028 2380     		strh	r3, [r4]	@ movhi
 4488              	.L410:
1581:Drivers/BSP/Components/lis2dw12/lis2dw12.c **** 
 4489              		.loc 1 1581 1 view .LVU1100
 4490 002a 02B0     		add	sp, sp, #8
 4491              	.LCFI120:
 4492              		.cfi_remember_state
 4493              		.cfi_def_cfa_offset 8
 4494              		@ sp needed
 4495 002c 10BD     		pop	{r4, pc}
 4496              	.LVL322:
 4497              	.L415:
 4498              	.LCFI121:
 4499              		.cfi_restore_state
1573:Drivers/BSP/Components/lis2dw12/lis2dw12.c ****   }
 4500              		.loc 1 1573 5 is_stmt 1 view .LVU1101
1573:Drivers/BSP/Components/lis2dw12/lis2dw12.c ****   }
 4501              		.loc 1 1573 17 is_stmt 0 view .LVU1102
 4502 002e 2380     		strh	r3, [r4]	@ movhi
 4503 0030 FBE7     		b	.L410
 4504              	.L413:
1568:Drivers/BSP/Components/lis2dw12/lis2dw12.c ****   }
 4505              		.loc 1 1568 12 view .LVU1103
 4506 0032 4FF0FF30 		mov	r0, #-1
 4507 0036 F8E7     		b	.L410
 4508              		.cfi_endproc
 4509              	.LFE41:
 4511              		.section	.text.LIS2DW12_FIFO_Set_Mode,"ax",%progbits
 4512              		.align	1
 4513              		.global	LIS2DW12_FIFO_Set_Mode
 4514              		.syntax unified
 4515              		.thumb
 4516              		.thumb_func
 4517              		.fpu fpv4-sp-d16
 4519              	LIS2DW12_FIFO_Set_Mode:
ARM GAS  /tmp/ccCpEZfe.s 			page 129


 4520              	.LVL323:
 4521              	.LFB42:
1590:Drivers/BSP/Components/lis2dw12/lis2dw12.c ****   int32_t ret = LIS2DW12_OK;
 4522              		.loc 1 1590 1 is_stmt 1 view -0
 4523              		.cfi_startproc
 4524              		@ args = 0, pretend = 0, frame = 0
 4525              		@ frame_needed = 0, uses_anonymous_args = 0
1591:Drivers/BSP/Components/lis2dw12/lis2dw12.c **** 
 4526              		.loc 1 1591 3 view .LVU1105
1594:Drivers/BSP/Components/lis2dw12/lis2dw12.c ****   {
 4527              		.loc 1 1594 3 view .LVU1106
 4528 0000 0629     		cmp	r1, #6
 4529 0002 0AD8     		bhi	.L418
1590:Drivers/BSP/Components/lis2dw12/lis2dw12.c ****   int32_t ret = LIS2DW12_OK;
 4530              		.loc 1 1590 1 is_stmt 0 view .LVU1107
 4531 0004 08B5     		push	{r3, lr}
 4532              	.LCFI122:
 4533              		.cfi_def_cfa_offset 8
 4534              		.cfi_offset 3, -8
 4535              		.cfi_offset 14, -4
 4536 0006 0123     		movs	r3, #1
 4537 0008 8B40     		lsls	r3, r3, r1
 4538 000a 13F05B0F 		tst	r3, #91
 4539 000e 07D0     		beq	.L419
1608:Drivers/BSP/Components/lis2dw12/lis2dw12.c ****   {
 4540              		.loc 1 1608 3 is_stmt 1 view .LVU1108
1613:Drivers/BSP/Components/lis2dw12/lis2dw12.c ****   {
 4541              		.loc 1 1613 3 view .LVU1109
1613:Drivers/BSP/Components/lis2dw12/lis2dw12.c ****   {
 4542              		.loc 1 1613 7 is_stmt 0 view .LVU1110
 4543 0010 2030     		adds	r0, r0, #32
 4544              	.LVL324:
1613:Drivers/BSP/Components/lis2dw12/lis2dw12.c ****   {
 4545              		.loc 1 1613 7 view .LVU1111
 4546 0012 FFF7FEFF 		bl	lis2dw12_fifo_mode_set
 4547              	.LVL325:
1613:Drivers/BSP/Components/lis2dw12/lis2dw12.c ****   {
 4548              		.loc 1 1613 6 view .LVU1112
 4549 0016 30B9     		cbnz	r0, .L425
 4550              	.LVL326:
 4551              	.L416:
1619:Drivers/BSP/Components/lis2dw12/lis2dw12.c **** 
 4552              		.loc 1 1619 1 view .LVU1113
 4553 0018 08BD     		pop	{r3, pc}
 4554              	.LVL327:
 4555              	.L418:
 4556              	.LCFI123:
 4557              		.cfi_def_cfa_offset 0
 4558              		.cfi_restore 3
 4559              		.cfi_restore 14
1590:Drivers/BSP/Components/lis2dw12/lis2dw12.c ****   int32_t ret = LIS2DW12_OK;
 4560              		.loc 1 1590 1 view .LVU1114
 4561 001a 4FF0FF30 		mov	r0, #-1
 4562              	.LVL328:
1619:Drivers/BSP/Components/lis2dw12/lis2dw12.c **** 
 4563              		.loc 1 1619 1 view .LVU1115
 4564 001e 7047     		bx	lr
ARM GAS  /tmp/ccCpEZfe.s 			page 130


 4565              	.LVL329:
 4566              	.L419:
 4567              	.LCFI124:
 4568              		.cfi_def_cfa_offset 8
 4569              		.cfi_offset 3, -8
 4570              		.cfi_offset 14, -4
1615:Drivers/BSP/Components/lis2dw12/lis2dw12.c ****   }
 4571              		.loc 1 1615 12 view .LVU1116
 4572 0020 4FF0FF30 		mov	r0, #-1
 4573              	.LVL330:
1615:Drivers/BSP/Components/lis2dw12/lis2dw12.c ****   }
 4574              		.loc 1 1615 12 view .LVU1117
 4575 0024 F8E7     		b	.L416
 4576              	.LVL331:
 4577              	.L425:
1615:Drivers/BSP/Components/lis2dw12/lis2dw12.c ****   }
 4578              		.loc 1 1615 12 view .LVU1118
 4579 0026 4FF0FF30 		mov	r0, #-1
 4580              	.LVL332:
1615:Drivers/BSP/Components/lis2dw12/lis2dw12.c ****   }
 4581              		.loc 1 1615 12 view .LVU1119
 4582 002a F5E7     		b	.L416
 4583              		.cfi_endproc
 4584              	.LFE42:
 4586              		.global	LIS2DW12_ACC_Driver
 4587              		.global	LIS2DW12_COMMON_Driver
 4588              		.section	.data.LIS2DW12_ACC_Driver,"aw"
 4589              		.align	2
 4592              	LIS2DW12_ACC_Driver:
 4593 0000 00000000 		.word	LIS2DW12_ACC_Enable
 4594 0004 00000000 		.word	LIS2DW12_ACC_Disable
 4595 0008 00000000 		.word	LIS2DW12_ACC_GetSensitivity
 4596 000c 00000000 		.word	LIS2DW12_ACC_GetOutputDataRate
 4597 0010 00000000 		.word	LIS2DW12_ACC_SetOutputDataRate
 4598 0014 00000000 		.word	LIS2DW12_ACC_GetFullScale
 4599 0018 00000000 		.word	LIS2DW12_ACC_SetFullScale
 4600 001c 00000000 		.word	LIS2DW12_ACC_GetAxes
 4601 0020 00000000 		.word	LIS2DW12_ACC_GetAxesRaw
 4602              		.section	.data.LIS2DW12_COMMON_Driver,"aw"
 4603              		.align	2
 4606              	LIS2DW12_COMMON_Driver:
 4607 0000 00000000 		.word	LIS2DW12_Init
 4608 0004 00000000 		.word	LIS2DW12_DeInit
 4609 0008 00000000 		.word	LIS2DW12_ReadID
 4610 000c 00000000 		.word	LIS2DW12_GetCapabilities
 4611              		.text
 4612              	.Letext0:
 4613              		.file 2 "/usr/lib/gcc/arm-none-eabi/10.3.1/include/stdint.h"
 4614              		.file 3 "Drivers/BSP/Components/lis2dw12/lis2dw12_reg.h"
 4615              		.file 4 "Drivers/BSP/Components/lis2dw12/lis2dw12.h"
ARM GAS  /tmp/ccCpEZfe.s 			page 131


DEFINED SYMBOLS
                            *ABS*:0000000000000000 lis2dw12.c
     /tmp/ccCpEZfe.s:18     .text.LIS2DW12_GetCapabilities:0000000000000000 $t
     /tmp/ccCpEZfe.s:26     .text.LIS2DW12_GetCapabilities:0000000000000000 LIS2DW12_GetCapabilities
     /tmp/ccCpEZfe.s:79     .text.LIS2DW12_GetCapabilities:0000000000000020 $d
     /tmp/ccCpEZfe.s:84     .text.LIS2DW12_ACC_SetOutputDataRate_When_Disabled:0000000000000000 $t
     /tmp/ccCpEZfe.s:90     .text.LIS2DW12_ACC_SetOutputDataRate_When_Disabled:0000000000000000 LIS2DW12_ACC_SetOutputDataRate_When_Disabled
     /tmp/ccCpEZfe.s:191    .text.LIS2DW12_ACC_SetOutputDataRate_When_Disabled:00000000000000a4 $d
     /tmp/ccCpEZfe.s:209    .text.ReadRegWrap:0000000000000000 $t
     /tmp/ccCpEZfe.s:215    .text.ReadRegWrap:0000000000000000 ReadRegWrap
     /tmp/ccCpEZfe.s:245    .text.WriteRegWrap:0000000000000000 $t
     /tmp/ccCpEZfe.s:251    .text.WriteRegWrap:0000000000000000 WriteRegWrap
     /tmp/ccCpEZfe.s:281    .text.LIS2DW12_ACC_SetOutputDataRate_When_Enabled:0000000000000000 $t
     /tmp/ccCpEZfe.s:287    .text.LIS2DW12_ACC_SetOutputDataRate_When_Enabled:0000000000000000 LIS2DW12_ACC_SetOutputDataRate_When_Enabled
     /tmp/ccCpEZfe.s:322    .text.LIS2DW12_ACC_SetOutputDataRate_When_Enabled:000000000000001c $d
     /tmp/ccCpEZfe.s:326    .text.LIS2DW12_ACC_SetOutputDataRate_When_Enabled:0000000000000020 $t
     /tmp/ccCpEZfe.s:595    .text.LIS2DW12_ACC_SetOutputDataRate_When_Enabled:0000000000000190 $d
     /tmp/ccCpEZfe.s:605    .text.LIS2DW12_ACC_Enable:0000000000000000 $t
     /tmp/ccCpEZfe.s:612    .text.LIS2DW12_ACC_Enable:0000000000000000 LIS2DW12_ACC_Enable
     /tmp/ccCpEZfe.s:673    .text.LIS2DW12_ACC_Disable:0000000000000000 $t
     /tmp/ccCpEZfe.s:680    .text.LIS2DW12_ACC_Disable:0000000000000000 LIS2DW12_ACC_Disable
     /tmp/ccCpEZfe.s:732    .text.LIS2DW12_DeInit:0000000000000000 $t
     /tmp/ccCpEZfe.s:739    .text.LIS2DW12_DeInit:0000000000000000 LIS2DW12_DeInit
     /tmp/ccCpEZfe.s:786    .text.LIS2DW12_Init:0000000000000000 $t
     /tmp/ccCpEZfe.s:793    .text.LIS2DW12_Init:0000000000000000 LIS2DW12_Init
     /tmp/ccCpEZfe.s:906    .text.LIS2DW12_Init:000000000000007c $d
     /tmp/ccCpEZfe.s:911    .text.LIS2DW12_ACC_SetFullScale:0000000000000000 $t
     /tmp/ccCpEZfe.s:918    .text.LIS2DW12_ACC_SetFullScale:0000000000000000 LIS2DW12_ACC_SetFullScale
     /tmp/ccCpEZfe.s:988    .text.LIS2DW12_ReadID:0000000000000000 $t
     /tmp/ccCpEZfe.s:995    .text.LIS2DW12_ReadID:0000000000000000 LIS2DW12_ReadID
     /tmp/ccCpEZfe.s:1028   .text.LIS2DW12_ACC_GetFullScale:0000000000000000 $t
     /tmp/ccCpEZfe.s:1035   .text.LIS2DW12_ACC_GetFullScale:0000000000000000 LIS2DW12_ACC_GetFullScale
     /tmp/ccCpEZfe.s:1073   .text.LIS2DW12_ACC_GetFullScale:000000000000001e $d
     /tmp/ccCpEZfe.s:1077   .text.LIS2DW12_ACC_GetFullScale:0000000000000022 $t
     /tmp/ccCpEZfe.s:1137   .text.LIS2DW12_ACC_GetSensitivity:0000000000000000 $t
     /tmp/ccCpEZfe.s:1144   .text.LIS2DW12_ACC_GetSensitivity:0000000000000000 LIS2DW12_ACC_GetSensitivity
     /tmp/ccCpEZfe.s:1195   .text.LIS2DW12_ACC_GetSensitivity:0000000000000032 $d
     /tmp/ccCpEZfe.s:1223   .text.LIS2DW12_ACC_GetSensitivity:000000000000004e $t
     /tmp/ccCpEZfe.s:1231   .text.LIS2DW12_ACC_GetSensitivity:000000000000005a $d
     /tmp/ccCpEZfe.s:1235   .text.LIS2DW12_ACC_GetSensitivity:000000000000005e $t
     /tmp/ccCpEZfe.s:1284   .text.LIS2DW12_ACC_GetSensitivity:000000000000008c $d
     /tmp/ccCpEZfe.s:1288   .text.LIS2DW12_ACC_GetSensitivity:0000000000000090 $t
     /tmp/ccCpEZfe.s:1365   .text.LIS2DW12_ACC_GetSensitivity:00000000000000cc $d
     /tmp/ccCpEZfe.s:1376   .text.LIS2DW12_ACC_GetOutputDataRate:0000000000000000 $t
     /tmp/ccCpEZfe.s:1383   .text.LIS2DW12_ACC_GetOutputDataRate:0000000000000000 LIS2DW12_ACC_GetOutputDataRate
     /tmp/ccCpEZfe.s:1434   .text.LIS2DW12_ACC_GetOutputDataRate:0000000000000038 $d
     /tmp/ccCpEZfe.s:1511   .text.LIS2DW12_ACC_GetOutputDataRate:0000000000000080 $d
     /tmp/ccCpEZfe.s:1539   .text.LIS2DW12_ACC_GetOutputDataRate:000000000000009c $t
     /tmp/ccCpEZfe.s:1609   .text.LIS2DW12_ACC_GetOutputDataRate:00000000000000dc $d
     /tmp/ccCpEZfe.s:1637   .text.LIS2DW12_ACC_GetOutputDataRate:00000000000000f8 $t
     /tmp/ccCpEZfe.s:1672   .text.LIS2DW12_ACC_GetOutputDataRate:000000000000011a $d
     /tmp/ccCpEZfe.s:1700   .text.LIS2DW12_ACC_GetOutputDataRate:0000000000000136 $t
     /tmp/ccCpEZfe.s:1735   .text.LIS2DW12_ACC_GetOutputDataRate:0000000000000158 $d
     /tmp/ccCpEZfe.s:1763   .text.LIS2DW12_ACC_GetOutputDataRate:0000000000000174 $t
     /tmp/ccCpEZfe.s:1817   .text.LIS2DW12_ACC_GetOutputDataRate:00000000000001a0 $d
     /tmp/ccCpEZfe.s:1831   .text.LIS2DW12_ACC_GetAxesRaw:0000000000000000 $t
     /tmp/ccCpEZfe.s:1838   .text.LIS2DW12_ACC_GetAxesRaw:0000000000000000 LIS2DW12_ACC_GetAxesRaw
ARM GAS  /tmp/ccCpEZfe.s 			page 132


     /tmp/ccCpEZfe.s:1889   .text.LIS2DW12_ACC_GetAxesRaw:0000000000000030 $d
     /tmp/ccCpEZfe.s:1917   .text.LIS2DW12_ACC_GetAxesRaw:000000000000004c $t
     /tmp/ccCpEZfe.s:2031   .text.LIS2DW12_ACC_GetAxes:0000000000000000 $t
     /tmp/ccCpEZfe.s:2038   .text.LIS2DW12_ACC_GetAxes:0000000000000000 LIS2DW12_ACC_GetAxes
     /tmp/ccCpEZfe.s:2140   .text.LIS2DW12_ACC_SetOutputDataRate_With_Mode:0000000000000000 $t
     /tmp/ccCpEZfe.s:2147   .text.LIS2DW12_ACC_SetOutputDataRate_With_Mode:0000000000000000 LIS2DW12_ACC_SetOutputDataRate_With_Mode
     /tmp/ccCpEZfe.s:2185   .text.LIS2DW12_ACC_SetOutputDataRate:0000000000000000 $t
     /tmp/ccCpEZfe.s:2192   .text.LIS2DW12_ACC_SetOutputDataRate:0000000000000000 LIS2DW12_ACC_SetOutputDataRate
     /tmp/ccCpEZfe.s:2217   .text.LIS2DW12_Read_Reg:0000000000000000 $t
     /tmp/ccCpEZfe.s:2224   .text.LIS2DW12_Read_Reg:0000000000000000 LIS2DW12_Read_Reg
     /tmp/ccCpEZfe.s:2258   .text.LIS2DW12_Write_Reg:0000000000000000 $t
     /tmp/ccCpEZfe.s:2265   .text.LIS2DW12_Write_Reg:0000000000000000 LIS2DW12_Write_Reg
     /tmp/ccCpEZfe.s:2312   .text.LIS2DW12_RegisterBusIO:0000000000000000 $t
     /tmp/ccCpEZfe.s:2319   .text.LIS2DW12_RegisterBusIO:0000000000000000 LIS2DW12_RegisterBusIO
     /tmp/ccCpEZfe.s:2467   .text.LIS2DW12_RegisterBusIO:0000000000000070 $d
     /tmp/ccCpEZfe.s:2473   .text.LIS2DW12_Set_Interrupt_Latch:0000000000000000 $t
     /tmp/ccCpEZfe.s:2480   .text.LIS2DW12_Set_Interrupt_Latch:0000000000000000 LIS2DW12_Set_Interrupt_Latch
     /tmp/ccCpEZfe.s:2533   .text.LIS2DW12_ACC_Enable_DRDY_Interrupt:0000000000000000 $t
     /tmp/ccCpEZfe.s:2540   .text.LIS2DW12_ACC_Enable_DRDY_Interrupt:0000000000000000 LIS2DW12_ACC_Enable_DRDY_Interrupt
     /tmp/ccCpEZfe.s:2616   .text.LIS2DW12_ACC_Disable_DRDY_Interrupt:0000000000000000 $t
     /tmp/ccCpEZfe.s:2623   .text.LIS2DW12_ACC_Disable_DRDY_Interrupt:0000000000000000 LIS2DW12_ACC_Disable_DRDY_Interrupt
     /tmp/ccCpEZfe.s:2687   .text.LIS2DW12_ACC_Set_Filter_Mode:0000000000000000 $t
     /tmp/ccCpEZfe.s:2694   .text.LIS2DW12_ACC_Set_Filter_Mode:0000000000000000 LIS2DW12_ACC_Set_Filter_Mode
     /tmp/ccCpEZfe.s:2727   .text.LIS2DW12_ACC_Enable_Wake_Up_Detection:0000000000000000 $t
     /tmp/ccCpEZfe.s:2734   .text.LIS2DW12_ACC_Enable_Wake_Up_Detection:0000000000000000 LIS2DW12_ACC_Enable_Wake_Up_Detection
     /tmp/ccCpEZfe.s:2849   .text.LIS2DW12_ACC_Enable_Wake_Up_Detection:0000000000000078 $d
     /tmp/ccCpEZfe.s:2854   .text.LIS2DW12_ACC_Disable_Wake_Up_Detection:0000000000000000 $t
     /tmp/ccCpEZfe.s:2861   .text.LIS2DW12_ACC_Disable_Wake_Up_Detection:0000000000000000 LIS2DW12_ACC_Disable_Wake_Up_Detection
     /tmp/ccCpEZfe.s:3015   .text.LIS2DW12_ACC_Set_Wake_Up_Threshold:0000000000000000 $t
     /tmp/ccCpEZfe.s:3022   .text.LIS2DW12_ACC_Set_Wake_Up_Threshold:0000000000000000 LIS2DW12_ACC_Set_Wake_Up_Threshold
     /tmp/ccCpEZfe.s:3055   .text.LIS2DW12_ACC_Set_Wake_Up_Duration:0000000000000000 $t
     /tmp/ccCpEZfe.s:3062   .text.LIS2DW12_ACC_Set_Wake_Up_Duration:0000000000000000 LIS2DW12_ACC_Set_Wake_Up_Duration
     /tmp/ccCpEZfe.s:3095   .text.LIS2DW12_ACC_Enable_Inactivity_Detection:0000000000000000 $t
     /tmp/ccCpEZfe.s:3102   .text.LIS2DW12_ACC_Enable_Inactivity_Detection:0000000000000000 LIS2DW12_ACC_Enable_Inactivity_Detection
     /tmp/ccCpEZfe.s:3217   .text.LIS2DW12_ACC_Enable_Inactivity_Detection:0000000000000078 $d
     /tmp/ccCpEZfe.s:3222   .text.LIS2DW12_ACC_Disable_Inactivity_Detection:0000000000000000 $t
     /tmp/ccCpEZfe.s:3229   .text.LIS2DW12_ACC_Disable_Inactivity_Detection:0000000000000000 LIS2DW12_ACC_Disable_Inactivity_Detection
     /tmp/ccCpEZfe.s:3383   .text.LIS2DW12_ACC_Set_Sleep_Duration:0000000000000000 $t
     /tmp/ccCpEZfe.s:3390   .text.LIS2DW12_ACC_Set_Sleep_Duration:0000000000000000 LIS2DW12_ACC_Set_Sleep_Duration
     /tmp/ccCpEZfe.s:3423   .text.LIS2DW12_ACC_Enable_6D_Orientation:0000000000000000 $t
     /tmp/ccCpEZfe.s:3430   .text.LIS2DW12_ACC_Enable_6D_Orientation:0000000000000000 LIS2DW12_ACC_Enable_6D_Orientation
     /tmp/ccCpEZfe.s:3533   .text.LIS2DW12_ACC_Enable_6D_Orientation:0000000000000068 $d
     /tmp/ccCpEZfe.s:3538   .text.LIS2DW12_ACC_Disable_6D_Orientation:0000000000000000 $t
     /tmp/ccCpEZfe.s:3545   .text.LIS2DW12_ACC_Disable_6D_Orientation:0000000000000000 LIS2DW12_ACC_Disable_6D_Orientation
     /tmp/ccCpEZfe.s:3687   .text.LIS2DW12_ACC_Set_6D_Orientation_Threshold:0000000000000000 $t
     /tmp/ccCpEZfe.s:3694   .text.LIS2DW12_ACC_Set_6D_Orientation_Threshold:0000000000000000 LIS2DW12_ACC_Set_6D_Orientation_Threshold
     /tmp/ccCpEZfe.s:3747   .text.LIS2DW12_ACC_Get_6D_Orientation_XL:0000000000000000 $t
     /tmp/ccCpEZfe.s:3754   .text.LIS2DW12_ACC_Get_6D_Orientation_XL:0000000000000000 LIS2DW12_ACC_Get_6D_Orientation_XL
     /tmp/ccCpEZfe.s:3812   .text.LIS2DW12_ACC_Get_6D_Orientation_XH:0000000000000000 $t
     /tmp/ccCpEZfe.s:3819   .text.LIS2DW12_ACC_Get_6D_Orientation_XH:0000000000000000 LIS2DW12_ACC_Get_6D_Orientation_XH
     /tmp/ccCpEZfe.s:3877   .text.LIS2DW12_ACC_Get_6D_Orientation_YL:0000000000000000 $t
     /tmp/ccCpEZfe.s:3884   .text.LIS2DW12_ACC_Get_6D_Orientation_YL:0000000000000000 LIS2DW12_ACC_Get_6D_Orientation_YL
     /tmp/ccCpEZfe.s:3942   .text.LIS2DW12_ACC_Get_6D_Orientation_YH:0000000000000000 $t
     /tmp/ccCpEZfe.s:3949   .text.LIS2DW12_ACC_Get_6D_Orientation_YH:0000000000000000 LIS2DW12_ACC_Get_6D_Orientation_YH
     /tmp/ccCpEZfe.s:4007   .text.LIS2DW12_ACC_Get_6D_Orientation_ZL:0000000000000000 $t
     /tmp/ccCpEZfe.s:4014   .text.LIS2DW12_ACC_Get_6D_Orientation_ZL:0000000000000000 LIS2DW12_ACC_Get_6D_Orientation_ZL
     /tmp/ccCpEZfe.s:4072   .text.LIS2DW12_ACC_Get_6D_Orientation_ZH:0000000000000000 $t
ARM GAS  /tmp/ccCpEZfe.s 			page 133


     /tmp/ccCpEZfe.s:4079   .text.LIS2DW12_ACC_Get_6D_Orientation_ZH:0000000000000000 LIS2DW12_ACC_Get_6D_Orientation_ZH
     /tmp/ccCpEZfe.s:4137   .text.LIS2DW12_ACC_Get_Event_Status:0000000000000000 $t
     /tmp/ccCpEZfe.s:4144   .text.LIS2DW12_ACC_Get_Event_Status:0000000000000000 LIS2DW12_ACC_Get_Event_Status
     /tmp/ccCpEZfe.s:4285   .text.LIS2DW12_ACC_Set_SelfTest:0000000000000000 $t
     /tmp/ccCpEZfe.s:4292   .text.LIS2DW12_ACC_Set_SelfTest:0000000000000000 LIS2DW12_ACC_Set_SelfTest
     /tmp/ccCpEZfe.s:4356   .text.LIS2DW12_ACC_Get_DRDY_Status:0000000000000000 $t
     /tmp/ccCpEZfe.s:4363   .text.LIS2DW12_ACC_Get_DRDY_Status:0000000000000000 LIS2DW12_ACC_Get_DRDY_Status
     /tmp/ccCpEZfe.s:4396   .text.LIS2DW12_ACC_Get_Init_Status:0000000000000000 $t
     /tmp/ccCpEZfe.s:4403   .text.LIS2DW12_ACC_Get_Init_Status:0000000000000000 LIS2DW12_ACC_Get_Init_Status
     /tmp/ccCpEZfe.s:4436   .text.LIS2DW12_FIFO_Get_Num_Samples:0000000000000000 $t
     /tmp/ccCpEZfe.s:4443   .text.LIS2DW12_FIFO_Get_Num_Samples:0000000000000000 LIS2DW12_FIFO_Get_Num_Samples
     /tmp/ccCpEZfe.s:4512   .text.LIS2DW12_FIFO_Set_Mode:0000000000000000 $t
     /tmp/ccCpEZfe.s:4519   .text.LIS2DW12_FIFO_Set_Mode:0000000000000000 LIS2DW12_FIFO_Set_Mode
     /tmp/ccCpEZfe.s:4592   .data.LIS2DW12_ACC_Driver:0000000000000000 LIS2DW12_ACC_Driver
     /tmp/ccCpEZfe.s:4606   .data.LIS2DW12_COMMON_Driver:0000000000000000 LIS2DW12_COMMON_Driver
     /tmp/ccCpEZfe.s:4589   .data.LIS2DW12_ACC_Driver:0000000000000000 $d
     /tmp/ccCpEZfe.s:4603   .data.LIS2DW12_COMMON_Driver:0000000000000000 $d
     /tmp/ccCpEZfe.s:1485   .text.LIS2DW12_ACC_GetOutputDataRate:000000000000006b $d
     /tmp/ccCpEZfe.s:1485   .text.LIS2DW12_ACC_GetOutputDataRate:000000000000006c $t

UNDEFINED SYMBOLS
lis2dw12_data_rate_set
lis2dw12_power_mode_set
lis2dw12_auto_increment_set
lis2dw12_block_data_update_set
lis2dw12_fifo_mode_set
lis2dw12_full_scale_set
lis2dw12_device_id_get
lis2dw12_full_scale_get
lis2dw12_power_mode_get
lis2dw12_data_rate_get
lis2dw12_acceleration_raw_get
lis2dw12_read_reg
lis2dw12_write_reg
lis2dw12_int_notification_set
lis2dw12_data_ready_mode_set
lis2dw12_pin_int2_route_get
lis2dw12_pin_int2_route_set
lis2dw12_filter_bandwidth_set
lis2dw12_wkup_dur_set
lis2dw12_wkup_threshold_set
lis2dw12_pin_int1_route_get
lis2dw12_pin_int1_route_set
lis2dw12_act_sleep_dur_set
lis2dw12_act_mode_set
lis2dw12_6d_threshold_set
lis2dw12_self_test_set
lis2dw12_flag_data_ready_get
