ARM GAS  /tmp/ccEdQILT.s 			page 1


   1              		.cpu cortex-m4
   2              		.eabi_attribute 27, 1
   3              		.eabi_attribute 28, 1
   4              		.eabi_attribute 20, 1
   5              		.eabi_attribute 21, 1
   6              		.eabi_attribute 23, 3
   7              		.eabi_attribute 24, 1
   8              		.eabi_attribute 25, 1
   9              		.eabi_attribute 26, 1
  10              		.eabi_attribute 30, 1
  11              		.eabi_attribute 34, 1
  12              		.eabi_attribute 18, 4
  13              		.file	"lis2dw12_reg.c"
  14              		.text
  15              	.Ltext0:
  16              		.cfi_sections	.debug_frame
  17              		.section	.text.lis2dw12_read_reg,"ax",%progbits
  18              		.align	1
  19              		.global	lis2dw12_read_reg
  20              		.arch armv7e-m
  21              		.syntax unified
  22              		.thumb
  23              		.thumb_func
  24              		.fpu fpv4-sp-d16
  26              	lis2dw12_read_reg:
  27              	.LVL0:
  28              	.LFB0:
  29              		.file 1 "Drivers/BSP/Components/lis2dw12/lis2dw12_reg.c"
   1:Drivers/BSP/Components/lis2dw12/lis2dw12_reg.c **** /**
   2:Drivers/BSP/Components/lis2dw12/lis2dw12_reg.c ****   ******************************************************************************
   3:Drivers/BSP/Components/lis2dw12/lis2dw12_reg.c ****   * @file    lis2dw12_reg.c
   4:Drivers/BSP/Components/lis2dw12/lis2dw12_reg.c ****   * @author  Sensors Software Solution Team
   5:Drivers/BSP/Components/lis2dw12/lis2dw12_reg.c ****   * @brief   LIS2DW12 driver file
   6:Drivers/BSP/Components/lis2dw12/lis2dw12_reg.c ****   ******************************************************************************
   7:Drivers/BSP/Components/lis2dw12/lis2dw12_reg.c ****   * @attention
   8:Drivers/BSP/Components/lis2dw12/lis2dw12_reg.c ****   *
   9:Drivers/BSP/Components/lis2dw12/lis2dw12_reg.c ****   * Copyright (c) 2019 STMicroelectronics.
  10:Drivers/BSP/Components/lis2dw12/lis2dw12_reg.c ****   * All rights reserved.
  11:Drivers/BSP/Components/lis2dw12/lis2dw12_reg.c ****   *
  12:Drivers/BSP/Components/lis2dw12/lis2dw12_reg.c ****   * This software is licensed under terms that can be found in the LICENSE file
  13:Drivers/BSP/Components/lis2dw12/lis2dw12_reg.c ****   * in the root directory of this software component.
  14:Drivers/BSP/Components/lis2dw12/lis2dw12_reg.c ****   * If no LICENSE file comes with this software, it is provided AS-IS.
  15:Drivers/BSP/Components/lis2dw12/lis2dw12_reg.c ****   *
  16:Drivers/BSP/Components/lis2dw12/lis2dw12_reg.c ****   ******************************************************************************
  17:Drivers/BSP/Components/lis2dw12/lis2dw12_reg.c ****   */
  18:Drivers/BSP/Components/lis2dw12/lis2dw12_reg.c **** 
  19:Drivers/BSP/Components/lis2dw12/lis2dw12_reg.c **** #include "lis2dw12_reg.h"
  20:Drivers/BSP/Components/lis2dw12/lis2dw12_reg.c **** 
  21:Drivers/BSP/Components/lis2dw12/lis2dw12_reg.c **** /**
  22:Drivers/BSP/Components/lis2dw12/lis2dw12_reg.c ****   * @defgroup  LIS2DW12
  23:Drivers/BSP/Components/lis2dw12/lis2dw12_reg.c ****   * @brief     This file provides a set of functions needed to drive the
  24:Drivers/BSP/Components/lis2dw12/lis2dw12_reg.c ****   *            lis2dw12 enhanced inertial module.
  25:Drivers/BSP/Components/lis2dw12/lis2dw12_reg.c ****   * @{
  26:Drivers/BSP/Components/lis2dw12/lis2dw12_reg.c ****   *
  27:Drivers/BSP/Components/lis2dw12/lis2dw12_reg.c ****   */
  28:Drivers/BSP/Components/lis2dw12/lis2dw12_reg.c **** 
  29:Drivers/BSP/Components/lis2dw12/lis2dw12_reg.c **** /**
ARM GAS  /tmp/ccEdQILT.s 			page 2


  30:Drivers/BSP/Components/lis2dw12/lis2dw12_reg.c ****   * @defgroup  LIS2DW12_Interfaces_Functions
  31:Drivers/BSP/Components/lis2dw12/lis2dw12_reg.c ****   * @brief     This section provide a set of functions used to read and
  32:Drivers/BSP/Components/lis2dw12/lis2dw12_reg.c ****   *            write a generic register of the device.
  33:Drivers/BSP/Components/lis2dw12/lis2dw12_reg.c ****   *            MANDATORY: return 0 -> no Error.
  34:Drivers/BSP/Components/lis2dw12/lis2dw12_reg.c ****   * @{
  35:Drivers/BSP/Components/lis2dw12/lis2dw12_reg.c ****   *
  36:Drivers/BSP/Components/lis2dw12/lis2dw12_reg.c ****   */
  37:Drivers/BSP/Components/lis2dw12/lis2dw12_reg.c **** 
  38:Drivers/BSP/Components/lis2dw12/lis2dw12_reg.c **** /**
  39:Drivers/BSP/Components/lis2dw12/lis2dw12_reg.c ****   * @brief  Read generic device register
  40:Drivers/BSP/Components/lis2dw12/lis2dw12_reg.c ****   *
  41:Drivers/BSP/Components/lis2dw12/lis2dw12_reg.c ****   * @param  ctx   read / write interface definitions(ptr)
  42:Drivers/BSP/Components/lis2dw12/lis2dw12_reg.c ****   * @param  reg   register to read
  43:Drivers/BSP/Components/lis2dw12/lis2dw12_reg.c ****   * @param  data  pointer to buffer that store the data read(ptr)
  44:Drivers/BSP/Components/lis2dw12/lis2dw12_reg.c ****   * @param  len   number of consecutive register to read
  45:Drivers/BSP/Components/lis2dw12/lis2dw12_reg.c ****   * @retval          interface status (MANDATORY: return 0 -> no Error)
  46:Drivers/BSP/Components/lis2dw12/lis2dw12_reg.c ****   *
  47:Drivers/BSP/Components/lis2dw12/lis2dw12_reg.c ****   */
  48:Drivers/BSP/Components/lis2dw12/lis2dw12_reg.c **** int32_t lis2dw12_read_reg(stmdev_ctx_t *ctx, uint8_t reg,
  49:Drivers/BSP/Components/lis2dw12/lis2dw12_reg.c ****                           uint8_t *data,
  50:Drivers/BSP/Components/lis2dw12/lis2dw12_reg.c ****                           uint16_t len)
  51:Drivers/BSP/Components/lis2dw12/lis2dw12_reg.c **** {
  30              		.loc 1 51 1 view -0
  31              		.cfi_startproc
  32              		@ args = 0, pretend = 0, frame = 0
  33              		@ frame_needed = 0, uses_anonymous_args = 0
  34              		.loc 1 51 1 is_stmt 0 view .LVU1
  35 0000 10B5     		push	{r4, lr}
  36              	.LCFI0:
  37              		.cfi_def_cfa_offset 8
  38              		.cfi_offset 4, -8
  39              		.cfi_offset 14, -4
  52:Drivers/BSP/Components/lis2dw12/lis2dw12_reg.c ****   int32_t ret;
  40              		.loc 1 52 3 is_stmt 1 view .LVU2
  53:Drivers/BSP/Components/lis2dw12/lis2dw12_reg.c **** 
  54:Drivers/BSP/Components/lis2dw12/lis2dw12_reg.c ****   ret = ctx->read_reg(ctx->handle, reg, data, len);
  41              		.loc 1 54 3 view .LVU3
  42              		.loc 1 54 12 is_stmt 0 view .LVU4
  43 0002 4468     		ldr	r4, [r0, #4]
  44              		.loc 1 54 9 view .LVU5
  45 0004 C068     		ldr	r0, [r0, #12]
  46              	.LVL1:
  47              		.loc 1 54 9 view .LVU6
  48 0006 A047     		blx	r4
  49              	.LVL2:
  55:Drivers/BSP/Components/lis2dw12/lis2dw12_reg.c **** 
  56:Drivers/BSP/Components/lis2dw12/lis2dw12_reg.c ****   return ret;
  50              		.loc 1 56 3 is_stmt 1 view .LVU7
  57:Drivers/BSP/Components/lis2dw12/lis2dw12_reg.c **** }
  51              		.loc 1 57 1 is_stmt 0 view .LVU8
  52 0008 10BD     		pop	{r4, pc}
  53              		.cfi_endproc
  54              	.LFE0:
  56              		.section	.text.lis2dw12_write_reg,"ax",%progbits
  57              		.align	1
  58              		.global	lis2dw12_write_reg
  59              		.syntax unified
ARM GAS  /tmp/ccEdQILT.s 			page 3


  60              		.thumb
  61              		.thumb_func
  62              		.fpu fpv4-sp-d16
  64              	lis2dw12_write_reg:
  65              	.LVL3:
  66              	.LFB1:
  58:Drivers/BSP/Components/lis2dw12/lis2dw12_reg.c **** 
  59:Drivers/BSP/Components/lis2dw12/lis2dw12_reg.c **** /**
  60:Drivers/BSP/Components/lis2dw12/lis2dw12_reg.c ****   * @brief  Write generic device register
  61:Drivers/BSP/Components/lis2dw12/lis2dw12_reg.c ****   *
  62:Drivers/BSP/Components/lis2dw12/lis2dw12_reg.c ****   * @param  ctx   read / write interface definitions(ptr)
  63:Drivers/BSP/Components/lis2dw12/lis2dw12_reg.c ****   * @param  reg   register to write
  64:Drivers/BSP/Components/lis2dw12/lis2dw12_reg.c ****   * @param  data  pointer to data to write in register reg(ptr)
  65:Drivers/BSP/Components/lis2dw12/lis2dw12_reg.c ****   * @param  len   number of consecutive register to write
  66:Drivers/BSP/Components/lis2dw12/lis2dw12_reg.c ****   * @retval          interface status (MANDATORY: return 0 -> no Error)
  67:Drivers/BSP/Components/lis2dw12/lis2dw12_reg.c ****   *
  68:Drivers/BSP/Components/lis2dw12/lis2dw12_reg.c ****   */
  69:Drivers/BSP/Components/lis2dw12/lis2dw12_reg.c **** int32_t lis2dw12_write_reg(stmdev_ctx_t *ctx, uint8_t reg,
  70:Drivers/BSP/Components/lis2dw12/lis2dw12_reg.c ****                            uint8_t *data,
  71:Drivers/BSP/Components/lis2dw12/lis2dw12_reg.c ****                            uint16_t len)
  72:Drivers/BSP/Components/lis2dw12/lis2dw12_reg.c **** {
  67              		.loc 1 72 1 is_stmt 1 view -0
  68              		.cfi_startproc
  69              		@ args = 0, pretend = 0, frame = 0
  70              		@ frame_needed = 0, uses_anonymous_args = 0
  71              		.loc 1 72 1 is_stmt 0 view .LVU10
  72 0000 10B5     		push	{r4, lr}
  73              	.LCFI1:
  74              		.cfi_def_cfa_offset 8
  75              		.cfi_offset 4, -8
  76              		.cfi_offset 14, -4
  73:Drivers/BSP/Components/lis2dw12/lis2dw12_reg.c ****   int32_t ret;
  77              		.loc 1 73 3 is_stmt 1 view .LVU11
  74:Drivers/BSP/Components/lis2dw12/lis2dw12_reg.c **** 
  75:Drivers/BSP/Components/lis2dw12/lis2dw12_reg.c ****   ret = ctx->write_reg(ctx->handle, reg, data, len);
  78              		.loc 1 75 3 view .LVU12
  79              		.loc 1 75 12 is_stmt 0 view .LVU13
  80 0002 0468     		ldr	r4, [r0]
  81              		.loc 1 75 9 view .LVU14
  82 0004 C068     		ldr	r0, [r0, #12]
  83              	.LVL4:
  84              		.loc 1 75 9 view .LVU15
  85 0006 A047     		blx	r4
  86              	.LVL5:
  76:Drivers/BSP/Components/lis2dw12/lis2dw12_reg.c **** 
  77:Drivers/BSP/Components/lis2dw12/lis2dw12_reg.c ****   return ret;
  87              		.loc 1 77 3 is_stmt 1 view .LVU16
  78:Drivers/BSP/Components/lis2dw12/lis2dw12_reg.c **** }
  88              		.loc 1 78 1 is_stmt 0 view .LVU17
  89 0008 10BD     		pop	{r4, pc}
  90              		.cfi_endproc
  91              	.LFE1:
  93              		.section	.text.lis2dw12_from_fs2_to_mg,"ax",%progbits
  94              		.align	1
  95              		.global	lis2dw12_from_fs2_to_mg
  96              		.syntax unified
  97              		.thumb
ARM GAS  /tmp/ccEdQILT.s 			page 4


  98              		.thumb_func
  99              		.fpu fpv4-sp-d16
 101              	lis2dw12_from_fs2_to_mg:
 102              	.LVL6:
 103              	.LFB2:
  79:Drivers/BSP/Components/lis2dw12/lis2dw12_reg.c **** 
  80:Drivers/BSP/Components/lis2dw12/lis2dw12_reg.c **** /**
  81:Drivers/BSP/Components/lis2dw12/lis2dw12_reg.c ****   * @}
  82:Drivers/BSP/Components/lis2dw12/lis2dw12_reg.c ****   *
  83:Drivers/BSP/Components/lis2dw12/lis2dw12_reg.c ****   */
  84:Drivers/BSP/Components/lis2dw12/lis2dw12_reg.c **** 
  85:Drivers/BSP/Components/lis2dw12/lis2dw12_reg.c **** /**
  86:Drivers/BSP/Components/lis2dw12/lis2dw12_reg.c ****   * @defgroup    LIS2DW12_Sensitivity
  87:Drivers/BSP/Components/lis2dw12/lis2dw12_reg.c ****   * @brief       These functions convert raw-data into engineering units.
  88:Drivers/BSP/Components/lis2dw12/lis2dw12_reg.c ****   * @{
  89:Drivers/BSP/Components/lis2dw12/lis2dw12_reg.c ****   *
  90:Drivers/BSP/Components/lis2dw12/lis2dw12_reg.c ****   */
  91:Drivers/BSP/Components/lis2dw12/lis2dw12_reg.c **** 
  92:Drivers/BSP/Components/lis2dw12/lis2dw12_reg.c **** float_t lis2dw12_from_fs2_to_mg(int16_t lsb)
  93:Drivers/BSP/Components/lis2dw12/lis2dw12_reg.c **** {
 104              		.loc 1 93 1 is_stmt 1 view -0
 105              		.cfi_startproc
 106              		@ args = 0, pretend = 0, frame = 0
 107              		@ frame_needed = 0, uses_anonymous_args = 0
 108              		@ link register save eliminated.
 109              		.loc 1 93 1 is_stmt 0 view .LVU19
 110 0000 07EE900A 		vmov	s15, r0	@ int
  94:Drivers/BSP/Components/lis2dw12/lis2dw12_reg.c ****   return ((float_t)lsb) * 0.061f;
 111              		.loc 1 94 3 is_stmt 1 view .LVU20
 112              		.loc 1 94 11 is_stmt 0 view .LVU21
 113 0004 F8EEE77A 		vcvt.f32.s32	s15, s15
  95:Drivers/BSP/Components/lis2dw12/lis2dw12_reg.c **** }
 114              		.loc 1 95 1 view .LVU22
 115 0008 9FED020A 		vldr.32	s0, .L6
 116 000c 27EE800A 		vmul.f32	s0, s15, s0
 117 0010 7047     		bx	lr
 118              	.L7:
 119 0012 00BF     		.align	2
 120              	.L6:
 121 0014 23DB793D 		.word	1031396131
 122              		.cfi_endproc
 123              	.LFE2:
 125              		.section	.text.lis2dw12_from_fs4_to_mg,"ax",%progbits
 126              		.align	1
 127              		.global	lis2dw12_from_fs4_to_mg
 128              		.syntax unified
 129              		.thumb
 130              		.thumb_func
 131              		.fpu fpv4-sp-d16
 133              	lis2dw12_from_fs4_to_mg:
 134              	.LVL7:
 135              	.LFB3:
  96:Drivers/BSP/Components/lis2dw12/lis2dw12_reg.c **** 
  97:Drivers/BSP/Components/lis2dw12/lis2dw12_reg.c **** float_t lis2dw12_from_fs4_to_mg(int16_t lsb)
  98:Drivers/BSP/Components/lis2dw12/lis2dw12_reg.c **** {
 136              		.loc 1 98 1 is_stmt 1 view -0
 137              		.cfi_startproc
ARM GAS  /tmp/ccEdQILT.s 			page 5


 138              		@ args = 0, pretend = 0, frame = 0
 139              		@ frame_needed = 0, uses_anonymous_args = 0
 140              		@ link register save eliminated.
 141              		.loc 1 98 1 is_stmt 0 view .LVU24
 142 0000 07EE900A 		vmov	s15, r0	@ int
  99:Drivers/BSP/Components/lis2dw12/lis2dw12_reg.c ****   return ((float_t)lsb) * 0.122f;
 143              		.loc 1 99 3 is_stmt 1 view .LVU25
 144              		.loc 1 99 11 is_stmt 0 view .LVU26
 145 0004 F8EEE77A 		vcvt.f32.s32	s15, s15
 100:Drivers/BSP/Components/lis2dw12/lis2dw12_reg.c **** }
 146              		.loc 1 100 1 view .LVU27
 147 0008 9FED020A 		vldr.32	s0, .L9
 148 000c 27EE800A 		vmul.f32	s0, s15, s0
 149 0010 7047     		bx	lr
 150              	.L10:
 151 0012 00BF     		.align	2
 152              	.L9:
 153 0014 23DBF93D 		.word	1039784739
 154              		.cfi_endproc
 155              	.LFE3:
 157              		.section	.text.lis2dw12_from_fs8_to_mg,"ax",%progbits
 158              		.align	1
 159              		.global	lis2dw12_from_fs8_to_mg
 160              		.syntax unified
 161              		.thumb
 162              		.thumb_func
 163              		.fpu fpv4-sp-d16
 165              	lis2dw12_from_fs8_to_mg:
 166              	.LVL8:
 167              	.LFB4:
 101:Drivers/BSP/Components/lis2dw12/lis2dw12_reg.c **** 
 102:Drivers/BSP/Components/lis2dw12/lis2dw12_reg.c **** float_t lis2dw12_from_fs8_to_mg(int16_t lsb)
 103:Drivers/BSP/Components/lis2dw12/lis2dw12_reg.c **** {
 168              		.loc 1 103 1 is_stmt 1 view -0
 169              		.cfi_startproc
 170              		@ args = 0, pretend = 0, frame = 0
 171              		@ frame_needed = 0, uses_anonymous_args = 0
 172              		@ link register save eliminated.
 173              		.loc 1 103 1 is_stmt 0 view .LVU29
 174 0000 07EE900A 		vmov	s15, r0	@ int
 104:Drivers/BSP/Components/lis2dw12/lis2dw12_reg.c ****   return ((float_t)lsb) * 0.244f;
 175              		.loc 1 104 3 is_stmt 1 view .LVU30
 176              		.loc 1 104 11 is_stmt 0 view .LVU31
 177 0004 F8EEE77A 		vcvt.f32.s32	s15, s15
 105:Drivers/BSP/Components/lis2dw12/lis2dw12_reg.c **** }
 178              		.loc 1 105 1 view .LVU32
 179 0008 9FED020A 		vldr.32	s0, .L12
 180 000c 27EE800A 		vmul.f32	s0, s15, s0
 181 0010 7047     		bx	lr
 182              	.L13:
 183 0012 00BF     		.align	2
 184              	.L12:
 185 0014 23DB793E 		.word	1048173347
 186              		.cfi_endproc
 187              	.LFE4:
 189              		.section	.text.lis2dw12_from_fs16_to_mg,"ax",%progbits
 190              		.align	1
ARM GAS  /tmp/ccEdQILT.s 			page 6


 191              		.global	lis2dw12_from_fs16_to_mg
 192              		.syntax unified
 193              		.thumb
 194              		.thumb_func
 195              		.fpu fpv4-sp-d16
 197              	lis2dw12_from_fs16_to_mg:
 198              	.LVL9:
 199              	.LFB5:
 106:Drivers/BSP/Components/lis2dw12/lis2dw12_reg.c **** 
 107:Drivers/BSP/Components/lis2dw12/lis2dw12_reg.c **** float_t lis2dw12_from_fs16_to_mg(int16_t lsb)
 108:Drivers/BSP/Components/lis2dw12/lis2dw12_reg.c **** {
 200              		.loc 1 108 1 is_stmt 1 view -0
 201              		.cfi_startproc
 202              		@ args = 0, pretend = 0, frame = 0
 203              		@ frame_needed = 0, uses_anonymous_args = 0
 204              		@ link register save eliminated.
 205              		.loc 1 108 1 is_stmt 0 view .LVU34
 206 0000 07EE900A 		vmov	s15, r0	@ int
 109:Drivers/BSP/Components/lis2dw12/lis2dw12_reg.c ****   return ((float_t)lsb) * 0.488f;
 207              		.loc 1 109 3 is_stmt 1 view .LVU35
 208              		.loc 1 109 11 is_stmt 0 view .LVU36
 209 0004 F8EEE77A 		vcvt.f32.s32	s15, s15
 110:Drivers/BSP/Components/lis2dw12/lis2dw12_reg.c **** }
 210              		.loc 1 110 1 view .LVU37
 211 0008 9FED020A 		vldr.32	s0, .L15
 212 000c 27EE800A 		vmul.f32	s0, s15, s0
 213 0010 7047     		bx	lr
 214              	.L16:
 215 0012 00BF     		.align	2
 216              	.L15:
 217 0014 23DBF93E 		.word	1056561955
 218              		.cfi_endproc
 219              	.LFE5:
 221              		.section	.text.lis2dw12_from_fs2_lp1_to_mg,"ax",%progbits
 222              		.align	1
 223              		.global	lis2dw12_from_fs2_lp1_to_mg
 224              		.syntax unified
 225              		.thumb
 226              		.thumb_func
 227              		.fpu fpv4-sp-d16
 229              	lis2dw12_from_fs2_lp1_to_mg:
 230              	.LVL10:
 231              	.LFB6:
 111:Drivers/BSP/Components/lis2dw12/lis2dw12_reg.c **** 
 112:Drivers/BSP/Components/lis2dw12/lis2dw12_reg.c **** float_t lis2dw12_from_fs2_lp1_to_mg(int16_t lsb)
 113:Drivers/BSP/Components/lis2dw12/lis2dw12_reg.c **** {
 232              		.loc 1 113 1 is_stmt 1 view -0
 233              		.cfi_startproc
 234              		@ args = 0, pretend = 0, frame = 0
 235              		@ frame_needed = 0, uses_anonymous_args = 0
 236              		@ link register save eliminated.
 237              		.loc 1 113 1 is_stmt 0 view .LVU39
 238 0000 07EE900A 		vmov	s15, r0	@ int
 114:Drivers/BSP/Components/lis2dw12/lis2dw12_reg.c ****   return ((float_t)lsb) * 0.061f;
 239              		.loc 1 114 3 is_stmt 1 view .LVU40
 240              		.loc 1 114 11 is_stmt 0 view .LVU41
 241 0004 F8EEE77A 		vcvt.f32.s32	s15, s15
ARM GAS  /tmp/ccEdQILT.s 			page 7


 115:Drivers/BSP/Components/lis2dw12/lis2dw12_reg.c **** }
 242              		.loc 1 115 1 view .LVU42
 243 0008 9FED020A 		vldr.32	s0, .L18
 244 000c 27EE800A 		vmul.f32	s0, s15, s0
 245 0010 7047     		bx	lr
 246              	.L19:
 247 0012 00BF     		.align	2
 248              	.L18:
 249 0014 23DB793D 		.word	1031396131
 250              		.cfi_endproc
 251              	.LFE6:
 253              		.section	.text.lis2dw12_from_fs4_lp1_to_mg,"ax",%progbits
 254              		.align	1
 255              		.global	lis2dw12_from_fs4_lp1_to_mg
 256              		.syntax unified
 257              		.thumb
 258              		.thumb_func
 259              		.fpu fpv4-sp-d16
 261              	lis2dw12_from_fs4_lp1_to_mg:
 262              	.LVL11:
 263              	.LFB7:
 116:Drivers/BSP/Components/lis2dw12/lis2dw12_reg.c **** 
 117:Drivers/BSP/Components/lis2dw12/lis2dw12_reg.c **** float_t lis2dw12_from_fs4_lp1_to_mg(int16_t lsb)
 118:Drivers/BSP/Components/lis2dw12/lis2dw12_reg.c **** {
 264              		.loc 1 118 1 is_stmt 1 view -0
 265              		.cfi_startproc
 266              		@ args = 0, pretend = 0, frame = 0
 267              		@ frame_needed = 0, uses_anonymous_args = 0
 268              		@ link register save eliminated.
 269              		.loc 1 118 1 is_stmt 0 view .LVU44
 270 0000 07EE900A 		vmov	s15, r0	@ int
 119:Drivers/BSP/Components/lis2dw12/lis2dw12_reg.c ****   return ((float_t)lsb) * 0.122f;
 271              		.loc 1 119 3 is_stmt 1 view .LVU45
 272              		.loc 1 119 11 is_stmt 0 view .LVU46
 273 0004 F8EEE77A 		vcvt.f32.s32	s15, s15
 120:Drivers/BSP/Components/lis2dw12/lis2dw12_reg.c **** }
 274              		.loc 1 120 1 view .LVU47
 275 0008 9FED020A 		vldr.32	s0, .L21
 276 000c 27EE800A 		vmul.f32	s0, s15, s0
 277 0010 7047     		bx	lr
 278              	.L22:
 279 0012 00BF     		.align	2
 280              	.L21:
 281 0014 23DBF93D 		.word	1039784739
 282              		.cfi_endproc
 283              	.LFE7:
 285              		.section	.text.lis2dw12_from_fs8_lp1_to_mg,"ax",%progbits
 286              		.align	1
 287              		.global	lis2dw12_from_fs8_lp1_to_mg
 288              		.syntax unified
 289              		.thumb
 290              		.thumb_func
 291              		.fpu fpv4-sp-d16
 293              	lis2dw12_from_fs8_lp1_to_mg:
 294              	.LVL12:
 295              	.LFB8:
 121:Drivers/BSP/Components/lis2dw12/lis2dw12_reg.c **** 
ARM GAS  /tmp/ccEdQILT.s 			page 8


 122:Drivers/BSP/Components/lis2dw12/lis2dw12_reg.c **** float_t lis2dw12_from_fs8_lp1_to_mg(int16_t lsb)
 123:Drivers/BSP/Components/lis2dw12/lis2dw12_reg.c **** {
 296              		.loc 1 123 1 is_stmt 1 view -0
 297              		.cfi_startproc
 298              		@ args = 0, pretend = 0, frame = 0
 299              		@ frame_needed = 0, uses_anonymous_args = 0
 300              		@ link register save eliminated.
 301              		.loc 1 123 1 is_stmt 0 view .LVU49
 302 0000 07EE900A 		vmov	s15, r0	@ int
 124:Drivers/BSP/Components/lis2dw12/lis2dw12_reg.c ****   return ((float_t)lsb) * 0.244f;
 303              		.loc 1 124 3 is_stmt 1 view .LVU50
 304              		.loc 1 124 11 is_stmt 0 view .LVU51
 305 0004 F8EEE77A 		vcvt.f32.s32	s15, s15
 125:Drivers/BSP/Components/lis2dw12/lis2dw12_reg.c **** }
 306              		.loc 1 125 1 view .LVU52
 307 0008 9FED020A 		vldr.32	s0, .L24
 308 000c 27EE800A 		vmul.f32	s0, s15, s0
 309 0010 7047     		bx	lr
 310              	.L25:
 311 0012 00BF     		.align	2
 312              	.L24:
 313 0014 23DB793E 		.word	1048173347
 314              		.cfi_endproc
 315              	.LFE8:
 317              		.section	.text.lis2dw12_from_fs16_lp1_to_mg,"ax",%progbits
 318              		.align	1
 319              		.global	lis2dw12_from_fs16_lp1_to_mg
 320              		.syntax unified
 321              		.thumb
 322              		.thumb_func
 323              		.fpu fpv4-sp-d16
 325              	lis2dw12_from_fs16_lp1_to_mg:
 326              	.LVL13:
 327              	.LFB9:
 126:Drivers/BSP/Components/lis2dw12/lis2dw12_reg.c **** 
 127:Drivers/BSP/Components/lis2dw12/lis2dw12_reg.c **** float_t lis2dw12_from_fs16_lp1_to_mg(int16_t lsb)
 128:Drivers/BSP/Components/lis2dw12/lis2dw12_reg.c **** {
 328              		.loc 1 128 1 is_stmt 1 view -0
 329              		.cfi_startproc
 330              		@ args = 0, pretend = 0, frame = 0
 331              		@ frame_needed = 0, uses_anonymous_args = 0
 332              		@ link register save eliminated.
 333              		.loc 1 128 1 is_stmt 0 view .LVU54
 334 0000 07EE900A 		vmov	s15, r0	@ int
 129:Drivers/BSP/Components/lis2dw12/lis2dw12_reg.c ****   return ((float_t)lsb) * 0.488f;
 335              		.loc 1 129 3 is_stmt 1 view .LVU55
 336              		.loc 1 129 11 is_stmt 0 view .LVU56
 337 0004 F8EEE77A 		vcvt.f32.s32	s15, s15
 130:Drivers/BSP/Components/lis2dw12/lis2dw12_reg.c **** }
 338              		.loc 1 130 1 view .LVU57
 339 0008 9FED020A 		vldr.32	s0, .L27
 340 000c 27EE800A 		vmul.f32	s0, s15, s0
 341 0010 7047     		bx	lr
 342              	.L28:
 343 0012 00BF     		.align	2
 344              	.L27:
 345 0014 23DBF93E 		.word	1056561955
ARM GAS  /tmp/ccEdQILT.s 			page 9


 346              		.cfi_endproc
 347              	.LFE9:
 349              		.section	.text.lis2dw12_from_lsb_to_celsius,"ax",%progbits
 350              		.align	1
 351              		.global	lis2dw12_from_lsb_to_celsius
 352              		.syntax unified
 353              		.thumb
 354              		.thumb_func
 355              		.fpu fpv4-sp-d16
 357              	lis2dw12_from_lsb_to_celsius:
 358              	.LVL14:
 359              	.LFB10:
 131:Drivers/BSP/Components/lis2dw12/lis2dw12_reg.c **** 
 132:Drivers/BSP/Components/lis2dw12/lis2dw12_reg.c **** float_t lis2dw12_from_lsb_to_celsius(int16_t lsb)
 133:Drivers/BSP/Components/lis2dw12/lis2dw12_reg.c **** {
 360              		.loc 1 133 1 is_stmt 1 view -0
 361              		.cfi_startproc
 362              		@ args = 0, pretend = 0, frame = 0
 363              		@ frame_needed = 0, uses_anonymous_args = 0
 364              		@ link register save eliminated.
 365              		.loc 1 133 1 is_stmt 0 view .LVU59
 366 0000 07EE900A 		vmov	s15, r0	@ int
 134:Drivers/BSP/Components/lis2dw12/lis2dw12_reg.c ****   return (((float_t)lsb / 256.0f) + 25.0f);
 367              		.loc 1 134 3 is_stmt 1 view .LVU60
 368              		.loc 1 134 12 is_stmt 0 view .LVU61
 369 0004 F8EEE77A 		vcvt.f32.s32	s15, s15
 370              		.loc 1 134 25 view .LVU62
 371 0008 9FED040A 		vldr.32	s0, .L30
 372 000c 67EE807A 		vmul.f32	s15, s15, s0
 135:Drivers/BSP/Components/lis2dw12/lis2dw12_reg.c **** }
 373              		.loc 1 135 1 view .LVU63
 374 0010 B3EE090A 		vmov.f32	s0, #2.5e+1
 375 0014 37EE800A 		vadd.f32	s0, s15, s0
 376 0018 7047     		bx	lr
 377              	.L31:
 378 001a 00BF     		.align	2
 379              	.L30:
 380 001c 0000803B 		.word	998244352
 381              		.cfi_endproc
 382              	.LFE10:
 384              		.section	.text.lis2dw12_power_mode_set,"ax",%progbits
 385              		.align	1
 386              		.global	lis2dw12_power_mode_set
 387              		.syntax unified
 388              		.thumb
 389              		.thumb_func
 390              		.fpu fpv4-sp-d16
 392              	lis2dw12_power_mode_set:
 393              	.LVL15:
 394              	.LFB11:
 136:Drivers/BSP/Components/lis2dw12/lis2dw12_reg.c **** 
 137:Drivers/BSP/Components/lis2dw12/lis2dw12_reg.c **** /**
 138:Drivers/BSP/Components/lis2dw12/lis2dw12_reg.c ****   * @}
 139:Drivers/BSP/Components/lis2dw12/lis2dw12_reg.c ****   *
 140:Drivers/BSP/Components/lis2dw12/lis2dw12_reg.c ****   */
 141:Drivers/BSP/Components/lis2dw12/lis2dw12_reg.c **** 
 142:Drivers/BSP/Components/lis2dw12/lis2dw12_reg.c **** /**
ARM GAS  /tmp/ccEdQILT.s 			page 10


 143:Drivers/BSP/Components/lis2dw12/lis2dw12_reg.c ****   * @defgroup  LIS2DW12_Data_Generation
 144:Drivers/BSP/Components/lis2dw12/lis2dw12_reg.c ****   * @brief     This section groups all the functions concerning
 145:Drivers/BSP/Components/lis2dw12/lis2dw12_reg.c ****   *            data generation
 146:Drivers/BSP/Components/lis2dw12/lis2dw12_reg.c ****   * @{
 147:Drivers/BSP/Components/lis2dw12/lis2dw12_reg.c ****   *
 148:Drivers/BSP/Components/lis2dw12/lis2dw12_reg.c ****   */
 149:Drivers/BSP/Components/lis2dw12/lis2dw12_reg.c **** 
 150:Drivers/BSP/Components/lis2dw12/lis2dw12_reg.c **** /**
 151:Drivers/BSP/Components/lis2dw12/lis2dw12_reg.c ****   * @brief  Select accelerometer operating modes.[set]
 152:Drivers/BSP/Components/lis2dw12/lis2dw12_reg.c ****   *
 153:Drivers/BSP/Components/lis2dw12/lis2dw12_reg.c ****   * @param  ctx      read / write interface definitions
 154:Drivers/BSP/Components/lis2dw12/lis2dw12_reg.c ****   * @param  val      change the values of mode / lp_mode in reg CTRL1
 155:Drivers/BSP/Components/lis2dw12/lis2dw12_reg.c ****   *                  and low_noise in reg CTRL6
 156:Drivers/BSP/Components/lis2dw12/lis2dw12_reg.c ****   * @retval          interface status (MANDATORY: return 0 -> no Error)
 157:Drivers/BSP/Components/lis2dw12/lis2dw12_reg.c ****   *
 158:Drivers/BSP/Components/lis2dw12/lis2dw12_reg.c ****   */
 159:Drivers/BSP/Components/lis2dw12/lis2dw12_reg.c **** int32_t lis2dw12_power_mode_set(stmdev_ctx_t *ctx,
 160:Drivers/BSP/Components/lis2dw12/lis2dw12_reg.c ****                                 lis2dw12_mode_t val)
 161:Drivers/BSP/Components/lis2dw12/lis2dw12_reg.c **** {
 395              		.loc 1 161 1 is_stmt 1 view -0
 396              		.cfi_startproc
 397              		@ args = 0, pretend = 0, frame = 8
 398              		@ frame_needed = 0, uses_anonymous_args = 0
 399              		.loc 1 161 1 is_stmt 0 view .LVU65
 400 0000 30B5     		push	{r4, r5, lr}
 401              	.LCFI2:
 402              		.cfi_def_cfa_offset 12
 403              		.cfi_offset 4, -12
 404              		.cfi_offset 5, -8
 405              		.cfi_offset 14, -4
 406 0002 83B0     		sub	sp, sp, #12
 407              	.LCFI3:
 408              		.cfi_def_cfa_offset 24
 409 0004 0546     		mov	r5, r0
 410 0006 0C46     		mov	r4, r1
 162:Drivers/BSP/Components/lis2dw12/lis2dw12_reg.c ****   lis2dw12_ctrl1_t ctrl1;
 411              		.loc 1 162 3 is_stmt 1 view .LVU66
 163:Drivers/BSP/Components/lis2dw12/lis2dw12_reg.c ****   lis2dw12_ctrl6_t ctrl6;
 412              		.loc 1 163 3 view .LVU67
 164:Drivers/BSP/Components/lis2dw12/lis2dw12_reg.c ****   int32_t ret;
 413              		.loc 1 164 3 view .LVU68
 165:Drivers/BSP/Components/lis2dw12/lis2dw12_reg.c **** 
 166:Drivers/BSP/Components/lis2dw12/lis2dw12_reg.c ****   ret = lis2dw12_read_reg(ctx, LIS2DW12_CTRL1, (uint8_t *) &ctrl1, 1);
 414              		.loc 1 166 3 view .LVU69
 415              		.loc 1 166 9 is_stmt 0 view .LVU70
 416 0008 0123     		movs	r3, #1
 417 000a 01AA     		add	r2, sp, #4
 418 000c 2021     		movs	r1, #32
 419              	.LVL16:
 420              		.loc 1 166 9 view .LVU71
 421 000e FFF7FEFF 		bl	lis2dw12_read_reg
 422              	.LVL17:
 167:Drivers/BSP/Components/lis2dw12/lis2dw12_reg.c **** 
 168:Drivers/BSP/Components/lis2dw12/lis2dw12_reg.c ****   if (ret == 0)
 423              		.loc 1 168 3 is_stmt 1 view .LVU72
 424              		.loc 1 168 6 is_stmt 0 view .LVU73
 425 0012 18B1     		cbz	r0, .L37
ARM GAS  /tmp/ccEdQILT.s 			page 11


 426              	.LVL18:
 427              	.L33:
 169:Drivers/BSP/Components/lis2dw12/lis2dw12_reg.c ****   {
 170:Drivers/BSP/Components/lis2dw12/lis2dw12_reg.c ****     ctrl1.mode = ((uint8_t) val & 0x0CU) >> 2;
 171:Drivers/BSP/Components/lis2dw12/lis2dw12_reg.c ****     ctrl1.lp_mode = (uint8_t) val & 0x03U ;
 172:Drivers/BSP/Components/lis2dw12/lis2dw12_reg.c ****     ret = lis2dw12_write_reg(ctx, LIS2DW12_CTRL1, (uint8_t *) &ctrl1, 1);
 173:Drivers/BSP/Components/lis2dw12/lis2dw12_reg.c ****   }
 174:Drivers/BSP/Components/lis2dw12/lis2dw12_reg.c **** 
 175:Drivers/BSP/Components/lis2dw12/lis2dw12_reg.c ****   if (ret == 0)
 428              		.loc 1 175 3 is_stmt 1 view .LVU74
 429              		.loc 1 175 6 is_stmt 0 view .LVU75
 430 0014 B0B1     		cbz	r0, .L38
 431              	.L34:
 176:Drivers/BSP/Components/lis2dw12/lis2dw12_reg.c ****   {
 177:Drivers/BSP/Components/lis2dw12/lis2dw12_reg.c ****     ret = lis2dw12_read_reg(ctx, LIS2DW12_CTRL6, (uint8_t *) &ctrl6, 1);
 178:Drivers/BSP/Components/lis2dw12/lis2dw12_reg.c ****   }
 179:Drivers/BSP/Components/lis2dw12/lis2dw12_reg.c **** 
 180:Drivers/BSP/Components/lis2dw12/lis2dw12_reg.c ****   if (ret == 0)
 432              		.loc 1 180 3 is_stmt 1 view .LVU76
 433              		.loc 1 180 6 is_stmt 0 view .LVU77
 434 0016 E0B1     		cbz	r0, .L39
 435              	.L32:
 181:Drivers/BSP/Components/lis2dw12/lis2dw12_reg.c ****   {
 182:Drivers/BSP/Components/lis2dw12/lis2dw12_reg.c ****     ctrl6.low_noise = ((uint8_t) val & 0x10U) >> 4;
 183:Drivers/BSP/Components/lis2dw12/lis2dw12_reg.c ****     ret = lis2dw12_write_reg(ctx, LIS2DW12_CTRL6, (uint8_t *) &ctrl6, 1);
 184:Drivers/BSP/Components/lis2dw12/lis2dw12_reg.c ****   }
 185:Drivers/BSP/Components/lis2dw12/lis2dw12_reg.c **** 
 186:Drivers/BSP/Components/lis2dw12/lis2dw12_reg.c ****   return ret;
 187:Drivers/BSP/Components/lis2dw12/lis2dw12_reg.c **** }
 436              		.loc 1 187 1 view .LVU78
 437 0018 03B0     		add	sp, sp, #12
 438              	.LCFI4:
 439              		.cfi_remember_state
 440              		.cfi_def_cfa_offset 12
 441              		@ sp needed
 442 001a 30BD     		pop	{r4, r5, pc}
 443              	.LVL19:
 444              	.L37:
 445              	.LCFI5:
 446              		.cfi_restore_state
 170:Drivers/BSP/Components/lis2dw12/lis2dw12_reg.c ****     ctrl1.lp_mode = (uint8_t) val & 0x03U ;
 447              		.loc 1 170 5 is_stmt 1 view .LVU79
 170:Drivers/BSP/Components/lis2dw12/lis2dw12_reg.c ****     ctrl1.lp_mode = (uint8_t) val & 0x03U ;
 448              		.loc 1 170 42 is_stmt 0 view .LVU80
 449 001c C4F38103 		ubfx	r3, r4, #2, #2
 170:Drivers/BSP/Components/lis2dw12/lis2dw12_reg.c ****     ctrl1.lp_mode = (uint8_t) val & 0x03U ;
 450              		.loc 1 170 16 view .LVU81
 451 0020 9DF80420 		ldrb	r2, [sp, #4]	@ zero_extendqisi2
 452 0024 63F38302 		bfi	r2, r3, #2, #2
 453 0028 8DF80420 		strb	r2, [sp, #4]
 171:Drivers/BSP/Components/lis2dw12/lis2dw12_reg.c ****     ret = lis2dw12_write_reg(ctx, LIS2DW12_CTRL1, (uint8_t *) &ctrl1, 1);
 454              		.loc 1 171 5 is_stmt 1 view .LVU82
 171:Drivers/BSP/Components/lis2dw12/lis2dw12_reg.c ****     ret = lis2dw12_write_reg(ctx, LIS2DW12_CTRL1, (uint8_t *) &ctrl1, 1);
 455              		.loc 1 171 19 is_stmt 0 view .LVU83
 456 002c D3B2     		uxtb	r3, r2
 457 002e 64F30103 		bfi	r3, r4, #0, #2
 458 0032 8DF80430 		strb	r3, [sp, #4]
ARM GAS  /tmp/ccEdQILT.s 			page 12


 172:Drivers/BSP/Components/lis2dw12/lis2dw12_reg.c ****   }
 459              		.loc 1 172 5 is_stmt 1 view .LVU84
 172:Drivers/BSP/Components/lis2dw12/lis2dw12_reg.c ****   }
 460              		.loc 1 172 11 is_stmt 0 view .LVU85
 461 0036 0123     		movs	r3, #1
 462              	.LVL20:
 172:Drivers/BSP/Components/lis2dw12/lis2dw12_reg.c ****   }
 463              		.loc 1 172 11 view .LVU86
 464 0038 01AA     		add	r2, sp, #4
 465 003a 2021     		movs	r1, #32
 466 003c 2846     		mov	r0, r5
 467 003e FFF7FEFF 		bl	lis2dw12_write_reg
 468              	.LVL21:
 172:Drivers/BSP/Components/lis2dw12/lis2dw12_reg.c ****   }
 469              		.loc 1 172 11 view .LVU87
 470 0042 E7E7     		b	.L33
 471              	.L38:
 177:Drivers/BSP/Components/lis2dw12/lis2dw12_reg.c ****   }
 472              		.loc 1 177 5 is_stmt 1 view .LVU88
 177:Drivers/BSP/Components/lis2dw12/lis2dw12_reg.c ****   }
 473              		.loc 1 177 11 is_stmt 0 view .LVU89
 474 0044 0123     		movs	r3, #1
 475 0046 6A46     		mov	r2, sp
 476 0048 2521     		movs	r1, #37
 477 004a 2846     		mov	r0, r5
 478              	.LVL22:
 177:Drivers/BSP/Components/lis2dw12/lis2dw12_reg.c ****   }
 479              		.loc 1 177 11 view .LVU90
 480 004c FFF7FEFF 		bl	lis2dw12_read_reg
 481              	.LVL23:
 177:Drivers/BSP/Components/lis2dw12/lis2dw12_reg.c ****   }
 482              		.loc 1 177 11 view .LVU91
 483 0050 E1E7     		b	.L34
 484              	.L39:
 182:Drivers/BSP/Components/lis2dw12/lis2dw12_reg.c ****     ret = lis2dw12_write_reg(ctx, LIS2DW12_CTRL6, (uint8_t *) &ctrl6, 1);
 485              		.loc 1 182 5 is_stmt 1 view .LVU92
 182:Drivers/BSP/Components/lis2dw12/lis2dw12_reg.c ****     ret = lis2dw12_write_reg(ctx, LIS2DW12_CTRL6, (uint8_t *) &ctrl6, 1);
 486              		.loc 1 182 47 is_stmt 0 view .LVU93
 487 0052 C4F30011 		ubfx	r1, r4, #4, #1
 182:Drivers/BSP/Components/lis2dw12/lis2dw12_reg.c ****     ret = lis2dw12_write_reg(ctx, LIS2DW12_CTRL6, (uint8_t *) &ctrl6, 1);
 488              		.loc 1 182 21 view .LVU94
 489 0056 9DF80030 		ldrb	r3, [sp]	@ zero_extendqisi2
 490 005a 61F38203 		bfi	r3, r1, #2, #1
 491 005e 8DF80030 		strb	r3, [sp]
 183:Drivers/BSP/Components/lis2dw12/lis2dw12_reg.c ****   }
 492              		.loc 1 183 5 is_stmt 1 view .LVU95
 183:Drivers/BSP/Components/lis2dw12/lis2dw12_reg.c ****   }
 493              		.loc 1 183 11 is_stmt 0 view .LVU96
 494 0062 0123     		movs	r3, #1
 495 0064 6A46     		mov	r2, sp
 496 0066 2521     		movs	r1, #37
 497 0068 2846     		mov	r0, r5
 498              	.LVL24:
 183:Drivers/BSP/Components/lis2dw12/lis2dw12_reg.c ****   }
 499              		.loc 1 183 11 view .LVU97
 500 006a FFF7FEFF 		bl	lis2dw12_write_reg
 501              	.LVL25:
ARM GAS  /tmp/ccEdQILT.s 			page 13


 186:Drivers/BSP/Components/lis2dw12/lis2dw12_reg.c **** }
 502              		.loc 1 186 3 is_stmt 1 view .LVU98
 186:Drivers/BSP/Components/lis2dw12/lis2dw12_reg.c **** }
 503              		.loc 1 186 10 is_stmt 0 view .LVU99
 504 006e D3E7     		b	.L32
 505              		.cfi_endproc
 506              	.LFE11:
 508              		.section	.text.lis2dw12_power_mode_get,"ax",%progbits
 509              		.align	1
 510              		.global	lis2dw12_power_mode_get
 511              		.syntax unified
 512              		.thumb
 513              		.thumb_func
 514              		.fpu fpv4-sp-d16
 516              	lis2dw12_power_mode_get:
 517              	.LVL26:
 518              	.LFB12:
 188:Drivers/BSP/Components/lis2dw12/lis2dw12_reg.c **** 
 189:Drivers/BSP/Components/lis2dw12/lis2dw12_reg.c **** /**
 190:Drivers/BSP/Components/lis2dw12/lis2dw12_reg.c ****   * @brief  Select accelerometer operating modes.[get]
 191:Drivers/BSP/Components/lis2dw12/lis2dw12_reg.c ****   *
 192:Drivers/BSP/Components/lis2dw12/lis2dw12_reg.c ****   * @param  ctx      read / write interface definitions
 193:Drivers/BSP/Components/lis2dw12/lis2dw12_reg.c ****   * @param  val      change the values of mode / lp_mode in reg CTRL1
 194:Drivers/BSP/Components/lis2dw12/lis2dw12_reg.c ****   *                  and low_noise in reg CTRL6
 195:Drivers/BSP/Components/lis2dw12/lis2dw12_reg.c ****   * @retval          interface status (MANDATORY: return 0 -> no Error)
 196:Drivers/BSP/Components/lis2dw12/lis2dw12_reg.c ****   *
 197:Drivers/BSP/Components/lis2dw12/lis2dw12_reg.c ****   */
 198:Drivers/BSP/Components/lis2dw12/lis2dw12_reg.c **** int32_t lis2dw12_power_mode_get(stmdev_ctx_t *ctx,
 199:Drivers/BSP/Components/lis2dw12/lis2dw12_reg.c ****                                 lis2dw12_mode_t *val)
 200:Drivers/BSP/Components/lis2dw12/lis2dw12_reg.c **** {
 519              		.loc 1 200 1 is_stmt 1 view -0
 520              		.cfi_startproc
 521              		@ args = 0, pretend = 0, frame = 8
 522              		@ frame_needed = 0, uses_anonymous_args = 0
 523              		.loc 1 200 1 is_stmt 0 view .LVU101
 524 0000 30B5     		push	{r4, r5, lr}
 525              	.LCFI6:
 526              		.cfi_def_cfa_offset 12
 527              		.cfi_offset 4, -12
 528              		.cfi_offset 5, -8
 529              		.cfi_offset 14, -4
 530 0002 83B0     		sub	sp, sp, #12
 531              	.LCFI7:
 532              		.cfi_def_cfa_offset 24
 533 0004 0446     		mov	r4, r0
 534 0006 0D46     		mov	r5, r1
 201:Drivers/BSP/Components/lis2dw12/lis2dw12_reg.c ****   lis2dw12_ctrl1_t ctrl1;
 535              		.loc 1 201 3 is_stmt 1 view .LVU102
 202:Drivers/BSP/Components/lis2dw12/lis2dw12_reg.c ****   lis2dw12_ctrl6_t ctrl6;
 536              		.loc 1 202 3 view .LVU103
 203:Drivers/BSP/Components/lis2dw12/lis2dw12_reg.c ****   int32_t ret;
 537              		.loc 1 203 3 view .LVU104
 204:Drivers/BSP/Components/lis2dw12/lis2dw12_reg.c **** 
 205:Drivers/BSP/Components/lis2dw12/lis2dw12_reg.c ****   ret = lis2dw12_read_reg(ctx, LIS2DW12_CTRL1, (uint8_t *) &ctrl1, 1);
 538              		.loc 1 205 3 view .LVU105
 539              		.loc 1 205 9 is_stmt 0 view .LVU106
 540 0008 0123     		movs	r3, #1
ARM GAS  /tmp/ccEdQILT.s 			page 14


 541 000a 01AA     		add	r2, sp, #4
 542 000c 2021     		movs	r1, #32
 543              	.LVL27:
 544              		.loc 1 205 9 view .LVU107
 545 000e FFF7FEFF 		bl	lis2dw12_read_reg
 546              	.LVL28:
 206:Drivers/BSP/Components/lis2dw12/lis2dw12_reg.c **** 
 207:Drivers/BSP/Components/lis2dw12/lis2dw12_reg.c ****   if (ret == 0)
 547              		.loc 1 207 3 is_stmt 1 view .LVU108
 548              		.loc 1 207 6 is_stmt 0 view .LVU109
 549 0012 08B1     		cbz	r0, .L63
 550              	.LVL29:
 551              	.L40:
 208:Drivers/BSP/Components/lis2dw12/lis2dw12_reg.c ****   {
 209:Drivers/BSP/Components/lis2dw12/lis2dw12_reg.c ****     ret = lis2dw12_read_reg(ctx, LIS2DW12_CTRL6, (uint8_t *) &ctrl6, 1);
 210:Drivers/BSP/Components/lis2dw12/lis2dw12_reg.c **** 
 211:Drivers/BSP/Components/lis2dw12/lis2dw12_reg.c ****     switch (((ctrl6.low_noise << 4) + (ctrl1.mode << 2) +
 212:Drivers/BSP/Components/lis2dw12/lis2dw12_reg.c ****              ctrl1.lp_mode))
 213:Drivers/BSP/Components/lis2dw12/lis2dw12_reg.c ****     {
 214:Drivers/BSP/Components/lis2dw12/lis2dw12_reg.c ****       case LIS2DW12_HIGH_PERFORMANCE:
 215:Drivers/BSP/Components/lis2dw12/lis2dw12_reg.c ****         *val = LIS2DW12_HIGH_PERFORMANCE;
 216:Drivers/BSP/Components/lis2dw12/lis2dw12_reg.c ****         break;
 217:Drivers/BSP/Components/lis2dw12/lis2dw12_reg.c **** 
 218:Drivers/BSP/Components/lis2dw12/lis2dw12_reg.c ****       case LIS2DW12_CONT_LOW_PWR_4:
 219:Drivers/BSP/Components/lis2dw12/lis2dw12_reg.c ****         *val = LIS2DW12_CONT_LOW_PWR_4;
 220:Drivers/BSP/Components/lis2dw12/lis2dw12_reg.c ****         break;
 221:Drivers/BSP/Components/lis2dw12/lis2dw12_reg.c **** 
 222:Drivers/BSP/Components/lis2dw12/lis2dw12_reg.c ****       case LIS2DW12_CONT_LOW_PWR_3:
 223:Drivers/BSP/Components/lis2dw12/lis2dw12_reg.c ****         *val = LIS2DW12_CONT_LOW_PWR_3;
 224:Drivers/BSP/Components/lis2dw12/lis2dw12_reg.c ****         break;
 225:Drivers/BSP/Components/lis2dw12/lis2dw12_reg.c **** 
 226:Drivers/BSP/Components/lis2dw12/lis2dw12_reg.c ****       case LIS2DW12_CONT_LOW_PWR_2:
 227:Drivers/BSP/Components/lis2dw12/lis2dw12_reg.c ****         *val = LIS2DW12_CONT_LOW_PWR_2;
 228:Drivers/BSP/Components/lis2dw12/lis2dw12_reg.c ****         break;
 229:Drivers/BSP/Components/lis2dw12/lis2dw12_reg.c **** 
 230:Drivers/BSP/Components/lis2dw12/lis2dw12_reg.c ****       case LIS2DW12_CONT_LOW_PWR_12bit:
 231:Drivers/BSP/Components/lis2dw12/lis2dw12_reg.c ****         *val = LIS2DW12_CONT_LOW_PWR_12bit;
 232:Drivers/BSP/Components/lis2dw12/lis2dw12_reg.c ****         break;
 233:Drivers/BSP/Components/lis2dw12/lis2dw12_reg.c **** 
 234:Drivers/BSP/Components/lis2dw12/lis2dw12_reg.c ****       case LIS2DW12_SINGLE_LOW_PWR_4:
 235:Drivers/BSP/Components/lis2dw12/lis2dw12_reg.c ****         *val = LIS2DW12_SINGLE_LOW_PWR_4;
 236:Drivers/BSP/Components/lis2dw12/lis2dw12_reg.c ****         break;
 237:Drivers/BSP/Components/lis2dw12/lis2dw12_reg.c **** 
 238:Drivers/BSP/Components/lis2dw12/lis2dw12_reg.c ****       case LIS2DW12_SINGLE_LOW_PWR_3:
 239:Drivers/BSP/Components/lis2dw12/lis2dw12_reg.c ****         *val = LIS2DW12_SINGLE_LOW_PWR_3;
 240:Drivers/BSP/Components/lis2dw12/lis2dw12_reg.c ****         break;
 241:Drivers/BSP/Components/lis2dw12/lis2dw12_reg.c **** 
 242:Drivers/BSP/Components/lis2dw12/lis2dw12_reg.c ****       case LIS2DW12_SINGLE_LOW_PWR_2:
 243:Drivers/BSP/Components/lis2dw12/lis2dw12_reg.c ****         *val = LIS2DW12_SINGLE_LOW_PWR_2;
 244:Drivers/BSP/Components/lis2dw12/lis2dw12_reg.c ****         break;
 245:Drivers/BSP/Components/lis2dw12/lis2dw12_reg.c **** 
 246:Drivers/BSP/Components/lis2dw12/lis2dw12_reg.c ****       case LIS2DW12_SINGLE_LOW_PWR_12bit:
 247:Drivers/BSP/Components/lis2dw12/lis2dw12_reg.c ****         *val = LIS2DW12_SINGLE_LOW_PWR_12bit;
 248:Drivers/BSP/Components/lis2dw12/lis2dw12_reg.c ****         break;
 249:Drivers/BSP/Components/lis2dw12/lis2dw12_reg.c **** 
 250:Drivers/BSP/Components/lis2dw12/lis2dw12_reg.c ****       case LIS2DW12_HIGH_PERFORMANCE_LOW_NOISE:
 251:Drivers/BSP/Components/lis2dw12/lis2dw12_reg.c ****         *val = LIS2DW12_HIGH_PERFORMANCE_LOW_NOISE;
ARM GAS  /tmp/ccEdQILT.s 			page 15


 252:Drivers/BSP/Components/lis2dw12/lis2dw12_reg.c ****         break;
 253:Drivers/BSP/Components/lis2dw12/lis2dw12_reg.c **** 
 254:Drivers/BSP/Components/lis2dw12/lis2dw12_reg.c ****       case LIS2DW12_CONT_LOW_PWR_LOW_NOISE_4:
 255:Drivers/BSP/Components/lis2dw12/lis2dw12_reg.c ****         *val = LIS2DW12_CONT_LOW_PWR_LOW_NOISE_4;
 256:Drivers/BSP/Components/lis2dw12/lis2dw12_reg.c ****         break;
 257:Drivers/BSP/Components/lis2dw12/lis2dw12_reg.c **** 
 258:Drivers/BSP/Components/lis2dw12/lis2dw12_reg.c ****       case LIS2DW12_CONT_LOW_PWR_LOW_NOISE_3:
 259:Drivers/BSP/Components/lis2dw12/lis2dw12_reg.c ****         *val = LIS2DW12_CONT_LOW_PWR_LOW_NOISE_3;
 260:Drivers/BSP/Components/lis2dw12/lis2dw12_reg.c ****         break;
 261:Drivers/BSP/Components/lis2dw12/lis2dw12_reg.c **** 
 262:Drivers/BSP/Components/lis2dw12/lis2dw12_reg.c ****       case LIS2DW12_CONT_LOW_PWR_LOW_NOISE_2:
 263:Drivers/BSP/Components/lis2dw12/lis2dw12_reg.c ****         *val = LIS2DW12_CONT_LOW_PWR_LOW_NOISE_2;
 264:Drivers/BSP/Components/lis2dw12/lis2dw12_reg.c ****         break;
 265:Drivers/BSP/Components/lis2dw12/lis2dw12_reg.c **** 
 266:Drivers/BSP/Components/lis2dw12/lis2dw12_reg.c ****       case LIS2DW12_CONT_LOW_PWR_LOW_NOISE_12bit:
 267:Drivers/BSP/Components/lis2dw12/lis2dw12_reg.c ****         *val = LIS2DW12_CONT_LOW_PWR_LOW_NOISE_12bit;
 268:Drivers/BSP/Components/lis2dw12/lis2dw12_reg.c ****         break;
 269:Drivers/BSP/Components/lis2dw12/lis2dw12_reg.c **** 
 270:Drivers/BSP/Components/lis2dw12/lis2dw12_reg.c ****       case LIS2DW12_SINGLE_LOW_PWR_LOW_NOISE_4:
 271:Drivers/BSP/Components/lis2dw12/lis2dw12_reg.c ****         *val = LIS2DW12_SINGLE_LOW_PWR_LOW_NOISE_4;
 272:Drivers/BSP/Components/lis2dw12/lis2dw12_reg.c ****         break;
 273:Drivers/BSP/Components/lis2dw12/lis2dw12_reg.c **** 
 274:Drivers/BSP/Components/lis2dw12/lis2dw12_reg.c ****       case LIS2DW12_SINGLE_LOW_PWR_LOW_NOISE_3:
 275:Drivers/BSP/Components/lis2dw12/lis2dw12_reg.c ****         *val = LIS2DW12_SINGLE_LOW_PWR_LOW_NOISE_3;
 276:Drivers/BSP/Components/lis2dw12/lis2dw12_reg.c ****         break;
 277:Drivers/BSP/Components/lis2dw12/lis2dw12_reg.c **** 
 278:Drivers/BSP/Components/lis2dw12/lis2dw12_reg.c ****       case LIS2DW12_SINGLE_LOW_PWR_LOW_NOISE_2:
 279:Drivers/BSP/Components/lis2dw12/lis2dw12_reg.c ****         *val = LIS2DW12_SINGLE_LOW_PWR_LOW_NOISE_2;
 280:Drivers/BSP/Components/lis2dw12/lis2dw12_reg.c ****         break;
 281:Drivers/BSP/Components/lis2dw12/lis2dw12_reg.c **** 
 282:Drivers/BSP/Components/lis2dw12/lis2dw12_reg.c ****       case LIS2DW12_SINGLE_LOW_LOW_NOISE_PWR_12bit:
 283:Drivers/BSP/Components/lis2dw12/lis2dw12_reg.c ****         *val = LIS2DW12_SINGLE_LOW_LOW_NOISE_PWR_12bit;
 284:Drivers/BSP/Components/lis2dw12/lis2dw12_reg.c ****         break;
 285:Drivers/BSP/Components/lis2dw12/lis2dw12_reg.c **** 
 286:Drivers/BSP/Components/lis2dw12/lis2dw12_reg.c ****       default:
 287:Drivers/BSP/Components/lis2dw12/lis2dw12_reg.c ****         *val = LIS2DW12_HIGH_PERFORMANCE;
 288:Drivers/BSP/Components/lis2dw12/lis2dw12_reg.c ****         break;
 289:Drivers/BSP/Components/lis2dw12/lis2dw12_reg.c ****     }
 290:Drivers/BSP/Components/lis2dw12/lis2dw12_reg.c ****   }
 291:Drivers/BSP/Components/lis2dw12/lis2dw12_reg.c **** 
 292:Drivers/BSP/Components/lis2dw12/lis2dw12_reg.c ****   return ret;
 293:Drivers/BSP/Components/lis2dw12/lis2dw12_reg.c **** }
 552              		.loc 1 293 1 view .LVU110
 553 0014 03B0     		add	sp, sp, #12
 554              	.LCFI8:
 555              		.cfi_remember_state
 556              		.cfi_def_cfa_offset 12
 557              		@ sp needed
 558 0016 30BD     		pop	{r4, r5, pc}
 559              	.LVL30:
 560              	.L63:
 561              	.LCFI9:
 562              		.cfi_restore_state
 209:Drivers/BSP/Components/lis2dw12/lis2dw12_reg.c **** 
 563              		.loc 1 209 5 is_stmt 1 view .LVU111
 209:Drivers/BSP/Components/lis2dw12/lis2dw12_reg.c **** 
 564              		.loc 1 209 11 is_stmt 0 view .LVU112
ARM GAS  /tmp/ccEdQILT.s 			page 16


 565 0018 0123     		movs	r3, #1
 566              	.LVL31:
 209:Drivers/BSP/Components/lis2dw12/lis2dw12_reg.c **** 
 567              		.loc 1 209 11 view .LVU113
 568 001a 6A46     		mov	r2, sp
 569 001c 2521     		movs	r1, #37
 570 001e 2046     		mov	r0, r4
 571 0020 FFF7FEFF 		bl	lis2dw12_read_reg
 572              	.LVL32:
 211:Drivers/BSP/Components/lis2dw12/lis2dw12_reg.c ****              ctrl1.lp_mode))
 573              		.loc 1 211 5 is_stmt 1 view .LVU114
 211:Drivers/BSP/Components/lis2dw12/lis2dw12_reg.c ****              ctrl1.lp_mode))
 574              		.loc 1 211 20 is_stmt 0 view .LVU115
 575 0024 9DF80030 		ldrb	r3, [sp]	@ zero_extendqisi2
 576 0028 C3F38001 		ubfx	r1, r3, #2, #1
 211:Drivers/BSP/Components/lis2dw12/lis2dw12_reg.c ****              ctrl1.lp_mode))
 577              		.loc 1 211 45 view .LVU116
 578 002c 9DF80420 		ldrb	r2, [sp, #4]	@ zero_extendqisi2
 211:Drivers/BSP/Components/lis2dw12/lis2dw12_reg.c ****              ctrl1.lp_mode))
 579              		.loc 1 211 51 view .LVU117
 580 0030 02F00C03 		and	r3, r2, #12
 211:Drivers/BSP/Components/lis2dw12/lis2dw12_reg.c ****              ctrl1.lp_mode))
 581              		.loc 1 211 37 view .LVU118
 582 0034 03EB0113 		add	r3, r3, r1, lsl #4
 212:Drivers/BSP/Components/lis2dw12/lis2dw12_reg.c ****     {
 583              		.loc 1 212 19 view .LVU119
 584 0038 02F00302 		and	r2, r2, #3
 211:Drivers/BSP/Components/lis2dw12/lis2dw12_reg.c ****              ctrl1.lp_mode))
 585              		.loc 1 211 57 view .LVU120
 586 003c 1344     		add	r3, r3, r2
 211:Drivers/BSP/Components/lis2dw12/lis2dw12_reg.c ****              ctrl1.lp_mode))
 587              		.loc 1 211 5 view .LVU121
 588 003e 1B2B     		cmp	r3, #27
 589 0040 45D8     		bhi	.L42
 590 0042 DFE803F0 		tbb	[pc, r3]
 591              	.L44:
 592 0046 1A       		.byte	(.L61-.L44)/2
 593 0047 17       		.byte	(.L60-.L44)/2
 594 0048 14       		.byte	(.L59-.L44)/2
 595 0049 11       		.byte	(.L58-.L44)/2
 596 004a 0E       		.byte	(.L57-.L44)/2
 597 004b 44       		.byte	(.L42-.L44)/2
 598 004c 44       		.byte	(.L42-.L44)/2
 599 004d 44       		.byte	(.L42-.L44)/2
 600 004e 26       		.byte	(.L56-.L44)/2
 601 004f 23       		.byte	(.L55-.L44)/2
 602 0050 20       		.byte	(.L54-.L44)/2
 603 0051 1D       		.byte	(.L53-.L44)/2
 604 0052 44       		.byte	(.L42-.L44)/2
 605 0053 44       		.byte	(.L42-.L44)/2
 606 0054 44       		.byte	(.L42-.L44)/2
 607 0055 44       		.byte	(.L42-.L44)/2
 608 0056 35       		.byte	(.L52-.L44)/2
 609 0057 32       		.byte	(.L51-.L44)/2
 610 0058 2F       		.byte	(.L50-.L44)/2
 611 0059 2C       		.byte	(.L49-.L44)/2
 612 005a 29       		.byte	(.L48-.L44)/2
ARM GAS  /tmp/ccEdQILT.s 			page 17


 613 005b 44       		.byte	(.L42-.L44)/2
 614 005c 44       		.byte	(.L42-.L44)/2
 615 005d 44       		.byte	(.L42-.L44)/2
 616 005e 41       		.byte	(.L47-.L44)/2
 617 005f 3E       		.byte	(.L46-.L44)/2
 618 0060 3B       		.byte	(.L45-.L44)/2
 619 0061 38       		.byte	(.L43-.L44)/2
 620              		.p2align 1
 621              	.L57:
 215:Drivers/BSP/Components/lis2dw12/lis2dw12_reg.c ****         break;
 622              		.loc 1 215 9 is_stmt 1 view .LVU122
 215:Drivers/BSP/Components/lis2dw12/lis2dw12_reg.c ****         break;
 623              		.loc 1 215 14 is_stmt 0 view .LVU123
 624 0062 0423     		movs	r3, #4
 625 0064 2B70     		strb	r3, [r5]
 216:Drivers/BSP/Components/lis2dw12/lis2dw12_reg.c **** 
 626              		.loc 1 216 9 is_stmt 1 view .LVU124
 627 0066 D5E7     		b	.L40
 628              	.L58:
 219:Drivers/BSP/Components/lis2dw12/lis2dw12_reg.c ****         break;
 629              		.loc 1 219 9 view .LVU125
 219:Drivers/BSP/Components/lis2dw12/lis2dw12_reg.c ****         break;
 630              		.loc 1 219 14 is_stmt 0 view .LVU126
 631 0068 0323     		movs	r3, #3
 632 006a 2B70     		strb	r3, [r5]
 220:Drivers/BSP/Components/lis2dw12/lis2dw12_reg.c **** 
 633              		.loc 1 220 9 is_stmt 1 view .LVU127
 634 006c D2E7     		b	.L40
 635              	.L59:
 223:Drivers/BSP/Components/lis2dw12/lis2dw12_reg.c ****         break;
 636              		.loc 1 223 9 view .LVU128
 223:Drivers/BSP/Components/lis2dw12/lis2dw12_reg.c ****         break;
 637              		.loc 1 223 14 is_stmt 0 view .LVU129
 638 006e 0223     		movs	r3, #2
 639 0070 2B70     		strb	r3, [r5]
 224:Drivers/BSP/Components/lis2dw12/lis2dw12_reg.c **** 
 640              		.loc 1 224 9 is_stmt 1 view .LVU130
 641 0072 CFE7     		b	.L40
 642              	.L60:
 227:Drivers/BSP/Components/lis2dw12/lis2dw12_reg.c ****         break;
 643              		.loc 1 227 9 view .LVU131
 227:Drivers/BSP/Components/lis2dw12/lis2dw12_reg.c ****         break;
 644              		.loc 1 227 14 is_stmt 0 view .LVU132
 645 0074 0123     		movs	r3, #1
 646 0076 2B70     		strb	r3, [r5]
 228:Drivers/BSP/Components/lis2dw12/lis2dw12_reg.c **** 
 647              		.loc 1 228 9 is_stmt 1 view .LVU133
 648 0078 CCE7     		b	.L40
 649              	.L61:
 231:Drivers/BSP/Components/lis2dw12/lis2dw12_reg.c ****         break;
 650              		.loc 1 231 9 view .LVU134
 231:Drivers/BSP/Components/lis2dw12/lis2dw12_reg.c ****         break;
 651              		.loc 1 231 14 is_stmt 0 view .LVU135
 652 007a 0023     		movs	r3, #0
 653 007c 2B70     		strb	r3, [r5]
 232:Drivers/BSP/Components/lis2dw12/lis2dw12_reg.c **** 
 654              		.loc 1 232 9 is_stmt 1 view .LVU136
ARM GAS  /tmp/ccEdQILT.s 			page 18


 655 007e C9E7     		b	.L40
 656              	.L53:
 235:Drivers/BSP/Components/lis2dw12/lis2dw12_reg.c ****         break;
 657              		.loc 1 235 9 view .LVU137
 235:Drivers/BSP/Components/lis2dw12/lis2dw12_reg.c ****         break;
 658              		.loc 1 235 14 is_stmt 0 view .LVU138
 659 0080 0B23     		movs	r3, #11
 660 0082 2B70     		strb	r3, [r5]
 236:Drivers/BSP/Components/lis2dw12/lis2dw12_reg.c **** 
 661              		.loc 1 236 9 is_stmt 1 view .LVU139
 662 0084 C6E7     		b	.L40
 663              	.L54:
 239:Drivers/BSP/Components/lis2dw12/lis2dw12_reg.c ****         break;
 664              		.loc 1 239 9 view .LVU140
 239:Drivers/BSP/Components/lis2dw12/lis2dw12_reg.c ****         break;
 665              		.loc 1 239 14 is_stmt 0 view .LVU141
 666 0086 0A23     		movs	r3, #10
 667 0088 2B70     		strb	r3, [r5]
 240:Drivers/BSP/Components/lis2dw12/lis2dw12_reg.c **** 
 668              		.loc 1 240 9 is_stmt 1 view .LVU142
 669 008a C3E7     		b	.L40
 670              	.L55:
 243:Drivers/BSP/Components/lis2dw12/lis2dw12_reg.c ****         break;
 671              		.loc 1 243 9 view .LVU143
 243:Drivers/BSP/Components/lis2dw12/lis2dw12_reg.c ****         break;
 672              		.loc 1 243 14 is_stmt 0 view .LVU144
 673 008c 0923     		movs	r3, #9
 674 008e 2B70     		strb	r3, [r5]
 244:Drivers/BSP/Components/lis2dw12/lis2dw12_reg.c **** 
 675              		.loc 1 244 9 is_stmt 1 view .LVU145
 676 0090 C0E7     		b	.L40
 677              	.L56:
 247:Drivers/BSP/Components/lis2dw12/lis2dw12_reg.c ****         break;
 678              		.loc 1 247 9 view .LVU146
 247:Drivers/BSP/Components/lis2dw12/lis2dw12_reg.c ****         break;
 679              		.loc 1 247 14 is_stmt 0 view .LVU147
 680 0092 0823     		movs	r3, #8
 681 0094 2B70     		strb	r3, [r5]
 248:Drivers/BSP/Components/lis2dw12/lis2dw12_reg.c **** 
 682              		.loc 1 248 9 is_stmt 1 view .LVU148
 683 0096 BDE7     		b	.L40
 684              	.L48:
 251:Drivers/BSP/Components/lis2dw12/lis2dw12_reg.c ****         break;
 685              		.loc 1 251 9 view .LVU149
 251:Drivers/BSP/Components/lis2dw12/lis2dw12_reg.c ****         break;
 686              		.loc 1 251 14 is_stmt 0 view .LVU150
 687 0098 1423     		movs	r3, #20
 688 009a 2B70     		strb	r3, [r5]
 252:Drivers/BSP/Components/lis2dw12/lis2dw12_reg.c **** 
 689              		.loc 1 252 9 is_stmt 1 view .LVU151
 690 009c BAE7     		b	.L40
 691              	.L49:
 255:Drivers/BSP/Components/lis2dw12/lis2dw12_reg.c ****         break;
 692              		.loc 1 255 9 view .LVU152
 255:Drivers/BSP/Components/lis2dw12/lis2dw12_reg.c ****         break;
 693              		.loc 1 255 14 is_stmt 0 view .LVU153
 694 009e 1323     		movs	r3, #19
ARM GAS  /tmp/ccEdQILT.s 			page 19


 695 00a0 2B70     		strb	r3, [r5]
 256:Drivers/BSP/Components/lis2dw12/lis2dw12_reg.c **** 
 696              		.loc 1 256 9 is_stmt 1 view .LVU154
 697 00a2 B7E7     		b	.L40
 698              	.L50:
 259:Drivers/BSP/Components/lis2dw12/lis2dw12_reg.c ****         break;
 699              		.loc 1 259 9 view .LVU155
 259:Drivers/BSP/Components/lis2dw12/lis2dw12_reg.c ****         break;
 700              		.loc 1 259 14 is_stmt 0 view .LVU156
 701 00a4 1223     		movs	r3, #18
 702 00a6 2B70     		strb	r3, [r5]
 260:Drivers/BSP/Components/lis2dw12/lis2dw12_reg.c **** 
 703              		.loc 1 260 9 is_stmt 1 view .LVU157
 704 00a8 B4E7     		b	.L40
 705              	.L51:
 263:Drivers/BSP/Components/lis2dw12/lis2dw12_reg.c ****         break;
 706              		.loc 1 263 9 view .LVU158
 263:Drivers/BSP/Components/lis2dw12/lis2dw12_reg.c ****         break;
 707              		.loc 1 263 14 is_stmt 0 view .LVU159
 708 00aa 1123     		movs	r3, #17
 709 00ac 2B70     		strb	r3, [r5]
 264:Drivers/BSP/Components/lis2dw12/lis2dw12_reg.c **** 
 710              		.loc 1 264 9 is_stmt 1 view .LVU160
 711 00ae B1E7     		b	.L40
 712              	.L52:
 267:Drivers/BSP/Components/lis2dw12/lis2dw12_reg.c ****         break;
 713              		.loc 1 267 9 view .LVU161
 267:Drivers/BSP/Components/lis2dw12/lis2dw12_reg.c ****         break;
 714              		.loc 1 267 14 is_stmt 0 view .LVU162
 715 00b0 1023     		movs	r3, #16
 716 00b2 2B70     		strb	r3, [r5]
 268:Drivers/BSP/Components/lis2dw12/lis2dw12_reg.c **** 
 717              		.loc 1 268 9 is_stmt 1 view .LVU163
 718 00b4 AEE7     		b	.L40
 719              	.L43:
 271:Drivers/BSP/Components/lis2dw12/lis2dw12_reg.c ****         break;
 720              		.loc 1 271 9 view .LVU164
 271:Drivers/BSP/Components/lis2dw12/lis2dw12_reg.c ****         break;
 721              		.loc 1 271 14 is_stmt 0 view .LVU165
 722 00b6 1B23     		movs	r3, #27
 723 00b8 2B70     		strb	r3, [r5]
 272:Drivers/BSP/Components/lis2dw12/lis2dw12_reg.c **** 
 724              		.loc 1 272 9 is_stmt 1 view .LVU166
 725 00ba ABE7     		b	.L40
 726              	.L45:
 275:Drivers/BSP/Components/lis2dw12/lis2dw12_reg.c ****         break;
 727              		.loc 1 275 9 view .LVU167
 275:Drivers/BSP/Components/lis2dw12/lis2dw12_reg.c ****         break;
 728              		.loc 1 275 14 is_stmt 0 view .LVU168
 729 00bc 1A23     		movs	r3, #26
 730 00be 2B70     		strb	r3, [r5]
 276:Drivers/BSP/Components/lis2dw12/lis2dw12_reg.c **** 
 731              		.loc 1 276 9 is_stmt 1 view .LVU169
 732 00c0 A8E7     		b	.L40
 733              	.L46:
 279:Drivers/BSP/Components/lis2dw12/lis2dw12_reg.c ****         break;
 734              		.loc 1 279 9 view .LVU170
ARM GAS  /tmp/ccEdQILT.s 			page 20


 279:Drivers/BSP/Components/lis2dw12/lis2dw12_reg.c ****         break;
 735              		.loc 1 279 14 is_stmt 0 view .LVU171
 736 00c2 1923     		movs	r3, #25
 737 00c4 2B70     		strb	r3, [r5]
 280:Drivers/BSP/Components/lis2dw12/lis2dw12_reg.c **** 
 738              		.loc 1 280 9 is_stmt 1 view .LVU172
 739 00c6 A5E7     		b	.L40
 740              	.L47:
 283:Drivers/BSP/Components/lis2dw12/lis2dw12_reg.c ****         break;
 741              		.loc 1 283 9 view .LVU173
 283:Drivers/BSP/Components/lis2dw12/lis2dw12_reg.c ****         break;
 742              		.loc 1 283 14 is_stmt 0 view .LVU174
 743 00c8 1823     		movs	r3, #24
 744 00ca 2B70     		strb	r3, [r5]
 284:Drivers/BSP/Components/lis2dw12/lis2dw12_reg.c **** 
 745              		.loc 1 284 9 is_stmt 1 view .LVU175
 746 00cc A2E7     		b	.L40
 747              	.L42:
 287:Drivers/BSP/Components/lis2dw12/lis2dw12_reg.c ****         break;
 748              		.loc 1 287 9 view .LVU176
 287:Drivers/BSP/Components/lis2dw12/lis2dw12_reg.c ****         break;
 749              		.loc 1 287 14 is_stmt 0 view .LVU177
 750 00ce 0423     		movs	r3, #4
 751 00d0 2B70     		strb	r3, [r5]
 288:Drivers/BSP/Components/lis2dw12/lis2dw12_reg.c ****     }
 752              		.loc 1 288 9 is_stmt 1 view .LVU178
 292:Drivers/BSP/Components/lis2dw12/lis2dw12_reg.c **** }
 753              		.loc 1 292 3 view .LVU179
 292:Drivers/BSP/Components/lis2dw12/lis2dw12_reg.c **** }
 754              		.loc 1 292 10 is_stmt 0 view .LVU180
 755 00d2 9FE7     		b	.L40
 756              		.cfi_endproc
 757              	.LFE12:
 759              		.section	.text.lis2dw12_data_rate_set,"ax",%progbits
 760              		.align	1
 761              		.global	lis2dw12_data_rate_set
 762              		.syntax unified
 763              		.thumb
 764              		.thumb_func
 765              		.fpu fpv4-sp-d16
 767              	lis2dw12_data_rate_set:
 768              	.LVL33:
 769              	.LFB13:
 294:Drivers/BSP/Components/lis2dw12/lis2dw12_reg.c **** 
 295:Drivers/BSP/Components/lis2dw12/lis2dw12_reg.c **** /**
 296:Drivers/BSP/Components/lis2dw12/lis2dw12_reg.c ****   * @brief  Accelerometer data rate selection.[set]
 297:Drivers/BSP/Components/lis2dw12/lis2dw12_reg.c ****   *
 298:Drivers/BSP/Components/lis2dw12/lis2dw12_reg.c ****   * @param  ctx      read / write interface definitions
 299:Drivers/BSP/Components/lis2dw12/lis2dw12_reg.c ****   * @param  val      change the values of odr in reg CTRL1
 300:Drivers/BSP/Components/lis2dw12/lis2dw12_reg.c ****   * @retval          interface status (MANDATORY: return 0 -> no Error)
 301:Drivers/BSP/Components/lis2dw12/lis2dw12_reg.c ****   *
 302:Drivers/BSP/Components/lis2dw12/lis2dw12_reg.c ****   */
 303:Drivers/BSP/Components/lis2dw12/lis2dw12_reg.c **** int32_t lis2dw12_data_rate_set(stmdev_ctx_t *ctx, lis2dw12_odr_t val)
 304:Drivers/BSP/Components/lis2dw12/lis2dw12_reg.c **** {
 770              		.loc 1 304 1 is_stmt 1 view -0
 771              		.cfi_startproc
 772              		@ args = 0, pretend = 0, frame = 8
ARM GAS  /tmp/ccEdQILT.s 			page 21


 773              		@ frame_needed = 0, uses_anonymous_args = 0
 774              		.loc 1 304 1 is_stmt 0 view .LVU182
 775 0000 30B5     		push	{r4, r5, lr}
 776              	.LCFI10:
 777              		.cfi_def_cfa_offset 12
 778              		.cfi_offset 4, -12
 779              		.cfi_offset 5, -8
 780              		.cfi_offset 14, -4
 781 0002 83B0     		sub	sp, sp, #12
 782              	.LCFI11:
 783              		.cfi_def_cfa_offset 24
 784 0004 0546     		mov	r5, r0
 785 0006 0C46     		mov	r4, r1
 305:Drivers/BSP/Components/lis2dw12/lis2dw12_reg.c ****   lis2dw12_ctrl1_t ctrl1;
 786              		.loc 1 305 3 is_stmt 1 view .LVU183
 306:Drivers/BSP/Components/lis2dw12/lis2dw12_reg.c ****   lis2dw12_ctrl3_t ctrl3;
 787              		.loc 1 306 3 view .LVU184
 307:Drivers/BSP/Components/lis2dw12/lis2dw12_reg.c ****   int32_t ret;
 788              		.loc 1 307 3 view .LVU185
 308:Drivers/BSP/Components/lis2dw12/lis2dw12_reg.c **** 
 309:Drivers/BSP/Components/lis2dw12/lis2dw12_reg.c ****   ret = lis2dw12_read_reg(ctx, LIS2DW12_CTRL1, (uint8_t *) &ctrl1, 1);
 789              		.loc 1 309 3 view .LVU186
 790              		.loc 1 309 9 is_stmt 0 view .LVU187
 791 0008 0123     		movs	r3, #1
 792 000a 01AA     		add	r2, sp, #4
 793 000c 2021     		movs	r1, #32
 794              	.LVL34:
 795              		.loc 1 309 9 view .LVU188
 796 000e FFF7FEFF 		bl	lis2dw12_read_reg
 797              	.LVL35:
 310:Drivers/BSP/Components/lis2dw12/lis2dw12_reg.c **** 
 311:Drivers/BSP/Components/lis2dw12/lis2dw12_reg.c ****   if (ret == 0)
 798              		.loc 1 311 3 is_stmt 1 view .LVU189
 799              		.loc 1 311 6 is_stmt 0 view .LVU190
 800 0012 18B1     		cbz	r0, .L69
 801              	.LVL36:
 802              	.L65:
 312:Drivers/BSP/Components/lis2dw12/lis2dw12_reg.c ****   {
 313:Drivers/BSP/Components/lis2dw12/lis2dw12_reg.c ****     ctrl1.odr = (uint8_t) val;
 314:Drivers/BSP/Components/lis2dw12/lis2dw12_reg.c ****     ret = lis2dw12_write_reg(ctx, LIS2DW12_CTRL1, (uint8_t *) &ctrl1, 1);
 315:Drivers/BSP/Components/lis2dw12/lis2dw12_reg.c ****   }
 316:Drivers/BSP/Components/lis2dw12/lis2dw12_reg.c **** 
 317:Drivers/BSP/Components/lis2dw12/lis2dw12_reg.c ****   if (ret == 0)
 803              		.loc 1 317 3 is_stmt 1 view .LVU191
 804              		.loc 1 317 6 is_stmt 0 view .LVU192
 805 0014 78B1     		cbz	r0, .L70
 806              	.L66:
 318:Drivers/BSP/Components/lis2dw12/lis2dw12_reg.c ****   {
 319:Drivers/BSP/Components/lis2dw12/lis2dw12_reg.c ****     ret = lis2dw12_read_reg(ctx, LIS2DW12_CTRL3, (uint8_t *) &ctrl3, 1);
 320:Drivers/BSP/Components/lis2dw12/lis2dw12_reg.c ****   }
 321:Drivers/BSP/Components/lis2dw12/lis2dw12_reg.c **** 
 322:Drivers/BSP/Components/lis2dw12/lis2dw12_reg.c ****   if (ret == 0)
 807              		.loc 1 322 3 is_stmt 1 view .LVU193
 808              		.loc 1 322 6 is_stmt 0 view .LVU194
 809 0016 A8B1     		cbz	r0, .L71
 810              	.L64:
 323:Drivers/BSP/Components/lis2dw12/lis2dw12_reg.c ****   {
ARM GAS  /tmp/ccEdQILT.s 			page 22


 324:Drivers/BSP/Components/lis2dw12/lis2dw12_reg.c ****     ctrl3.slp_mode = ((uint8_t) val & 0x30U) >> 4;
 325:Drivers/BSP/Components/lis2dw12/lis2dw12_reg.c ****     ret = lis2dw12_write_reg(ctx, LIS2DW12_CTRL3, (uint8_t *) &ctrl3, 1);
 326:Drivers/BSP/Components/lis2dw12/lis2dw12_reg.c ****   }
 327:Drivers/BSP/Components/lis2dw12/lis2dw12_reg.c **** 
 328:Drivers/BSP/Components/lis2dw12/lis2dw12_reg.c ****   return ret;
 329:Drivers/BSP/Components/lis2dw12/lis2dw12_reg.c **** }
 811              		.loc 1 329 1 view .LVU195
 812 0018 03B0     		add	sp, sp, #12
 813              	.LCFI12:
 814              		.cfi_remember_state
 815              		.cfi_def_cfa_offset 12
 816              		@ sp needed
 817 001a 30BD     		pop	{r4, r5, pc}
 818              	.LVL37:
 819              	.L69:
 820              	.LCFI13:
 821              		.cfi_restore_state
 313:Drivers/BSP/Components/lis2dw12/lis2dw12_reg.c ****     ret = lis2dw12_write_reg(ctx, LIS2DW12_CTRL1, (uint8_t *) &ctrl1, 1);
 822              		.loc 1 313 5 is_stmt 1 view .LVU196
 313:Drivers/BSP/Components/lis2dw12/lis2dw12_reg.c ****     ret = lis2dw12_write_reg(ctx, LIS2DW12_CTRL1, (uint8_t *) &ctrl1, 1);
 823              		.loc 1 313 15 is_stmt 0 view .LVU197
 824 001c 9DF80430 		ldrb	r3, [sp, #4]	@ zero_extendqisi2
 825 0020 64F30713 		bfi	r3, r4, #4, #4
 826 0024 8DF80430 		strb	r3, [sp, #4]
 314:Drivers/BSP/Components/lis2dw12/lis2dw12_reg.c ****   }
 827              		.loc 1 314 5 is_stmt 1 view .LVU198
 314:Drivers/BSP/Components/lis2dw12/lis2dw12_reg.c ****   }
 828              		.loc 1 314 11 is_stmt 0 view .LVU199
 829 0028 0123     		movs	r3, #1
 830              	.LVL38:
 314:Drivers/BSP/Components/lis2dw12/lis2dw12_reg.c ****   }
 831              		.loc 1 314 11 view .LVU200
 832 002a 01AA     		add	r2, sp, #4
 833 002c 2021     		movs	r1, #32
 834 002e 2846     		mov	r0, r5
 835 0030 FFF7FEFF 		bl	lis2dw12_write_reg
 836              	.LVL39:
 314:Drivers/BSP/Components/lis2dw12/lis2dw12_reg.c ****   }
 837              		.loc 1 314 11 view .LVU201
 838 0034 EEE7     		b	.L65
 839              	.L70:
 319:Drivers/BSP/Components/lis2dw12/lis2dw12_reg.c ****   }
 840              		.loc 1 319 5 is_stmt 1 view .LVU202
 319:Drivers/BSP/Components/lis2dw12/lis2dw12_reg.c ****   }
 841              		.loc 1 319 11 is_stmt 0 view .LVU203
 842 0036 0123     		movs	r3, #1
 843 0038 6A46     		mov	r2, sp
 844 003a 2221     		movs	r1, #34
 845 003c 2846     		mov	r0, r5
 846              	.LVL40:
 319:Drivers/BSP/Components/lis2dw12/lis2dw12_reg.c ****   }
 847              		.loc 1 319 11 view .LVU204
 848 003e FFF7FEFF 		bl	lis2dw12_read_reg
 849              	.LVL41:
 319:Drivers/BSP/Components/lis2dw12/lis2dw12_reg.c ****   }
 850              		.loc 1 319 11 view .LVU205
 851 0042 E8E7     		b	.L66
ARM GAS  /tmp/ccEdQILT.s 			page 23


 852              	.L71:
 324:Drivers/BSP/Components/lis2dw12/lis2dw12_reg.c ****     ret = lis2dw12_write_reg(ctx, LIS2DW12_CTRL3, (uint8_t *) &ctrl3, 1);
 853              		.loc 1 324 5 is_stmt 1 view .LVU206
 324:Drivers/BSP/Components/lis2dw12/lis2dw12_reg.c ****     ret = lis2dw12_write_reg(ctx, LIS2DW12_CTRL3, (uint8_t *) &ctrl3, 1);
 854              		.loc 1 324 46 is_stmt 0 view .LVU207
 855 0044 C4F30111 		ubfx	r1, r4, #4, #2
 324:Drivers/BSP/Components/lis2dw12/lis2dw12_reg.c ****     ret = lis2dw12_write_reg(ctx, LIS2DW12_CTRL3, (uint8_t *) &ctrl3, 1);
 856              		.loc 1 324 20 view .LVU208
 857 0048 9DF80030 		ldrb	r3, [sp]	@ zero_extendqisi2
 858 004c 61F30103 		bfi	r3, r1, #0, #2
 859 0050 8DF80030 		strb	r3, [sp]
 325:Drivers/BSP/Components/lis2dw12/lis2dw12_reg.c ****   }
 860              		.loc 1 325 5 is_stmt 1 view .LVU209
 325:Drivers/BSP/Components/lis2dw12/lis2dw12_reg.c ****   }
 861              		.loc 1 325 11 is_stmt 0 view .LVU210
 862 0054 0123     		movs	r3, #1
 863 0056 6A46     		mov	r2, sp
 864 0058 2221     		movs	r1, #34
 865 005a 2846     		mov	r0, r5
 866              	.LVL42:
 325:Drivers/BSP/Components/lis2dw12/lis2dw12_reg.c ****   }
 867              		.loc 1 325 11 view .LVU211
 868 005c FFF7FEFF 		bl	lis2dw12_write_reg
 869              	.LVL43:
 328:Drivers/BSP/Components/lis2dw12/lis2dw12_reg.c **** }
 870              		.loc 1 328 3 is_stmt 1 view .LVU212
 328:Drivers/BSP/Components/lis2dw12/lis2dw12_reg.c **** }
 871              		.loc 1 328 10 is_stmt 0 view .LVU213
 872 0060 DAE7     		b	.L64
 873              		.cfi_endproc
 874              	.LFE13:
 876              		.section	.text.lis2dw12_data_rate_get,"ax",%progbits
 877              		.align	1
 878              		.global	lis2dw12_data_rate_get
 879              		.syntax unified
 880              		.thumb
 881              		.thumb_func
 882              		.fpu fpv4-sp-d16
 884              	lis2dw12_data_rate_get:
 885              	.LVL44:
 886              	.LFB14:
 330:Drivers/BSP/Components/lis2dw12/lis2dw12_reg.c **** 
 331:Drivers/BSP/Components/lis2dw12/lis2dw12_reg.c **** /**
 332:Drivers/BSP/Components/lis2dw12/lis2dw12_reg.c ****   * @brief  Accelerometer data rate selection.[get]
 333:Drivers/BSP/Components/lis2dw12/lis2dw12_reg.c ****   *
 334:Drivers/BSP/Components/lis2dw12/lis2dw12_reg.c ****   * @param  ctx      read / write interface definitions
 335:Drivers/BSP/Components/lis2dw12/lis2dw12_reg.c ****   * @param  val      Get the values of odr in reg CTRL1
 336:Drivers/BSP/Components/lis2dw12/lis2dw12_reg.c ****   * @retval          interface status (MANDATORY: return 0 -> no Error)
 337:Drivers/BSP/Components/lis2dw12/lis2dw12_reg.c ****   *
 338:Drivers/BSP/Components/lis2dw12/lis2dw12_reg.c ****   */
 339:Drivers/BSP/Components/lis2dw12/lis2dw12_reg.c **** int32_t lis2dw12_data_rate_get(stmdev_ctx_t *ctx, lis2dw12_odr_t *val)
 340:Drivers/BSP/Components/lis2dw12/lis2dw12_reg.c **** {
 887              		.loc 1 340 1 is_stmt 1 view -0
 888              		.cfi_startproc
 889              		@ args = 0, pretend = 0, frame = 8
 890              		@ frame_needed = 0, uses_anonymous_args = 0
 891              		.loc 1 340 1 is_stmt 0 view .LVU215
ARM GAS  /tmp/ccEdQILT.s 			page 24


 892 0000 30B5     		push	{r4, r5, lr}
 893              	.LCFI14:
 894              		.cfi_def_cfa_offset 12
 895              		.cfi_offset 4, -12
 896              		.cfi_offset 5, -8
 897              		.cfi_offset 14, -4
 898 0002 83B0     		sub	sp, sp, #12
 899              	.LCFI15:
 900              		.cfi_def_cfa_offset 24
 901 0004 0446     		mov	r4, r0
 902 0006 0D46     		mov	r5, r1
 341:Drivers/BSP/Components/lis2dw12/lis2dw12_reg.c ****   lis2dw12_ctrl1_t ctrl1;
 903              		.loc 1 341 3 is_stmt 1 view .LVU216
 342:Drivers/BSP/Components/lis2dw12/lis2dw12_reg.c ****   lis2dw12_ctrl3_t ctrl3;
 904              		.loc 1 342 3 view .LVU217
 343:Drivers/BSP/Components/lis2dw12/lis2dw12_reg.c ****   int32_t ret;
 905              		.loc 1 343 3 view .LVU218
 344:Drivers/BSP/Components/lis2dw12/lis2dw12_reg.c **** 
 345:Drivers/BSP/Components/lis2dw12/lis2dw12_reg.c ****   ret = lis2dw12_read_reg(ctx, LIS2DW12_CTRL1, (uint8_t *) &ctrl1, 1);
 906              		.loc 1 345 3 view .LVU219
 907              		.loc 1 345 9 is_stmt 0 view .LVU220
 908 0008 0123     		movs	r3, #1
 909 000a 01AA     		add	r2, sp, #4
 910 000c 2021     		movs	r1, #32
 911              	.LVL45:
 912              		.loc 1 345 9 view .LVU221
 913 000e FFF7FEFF 		bl	lis2dw12_read_reg
 914              	.LVL46:
 346:Drivers/BSP/Components/lis2dw12/lis2dw12_reg.c **** 
 347:Drivers/BSP/Components/lis2dw12/lis2dw12_reg.c ****   if (ret == 0)
 915              		.loc 1 347 3 is_stmt 1 view .LVU222
 916              		.loc 1 347 6 is_stmt 0 view .LVU223
 917 0012 08B1     		cbz	r0, .L89
 918              	.LVL47:
 919              	.L72:
 348:Drivers/BSP/Components/lis2dw12/lis2dw12_reg.c ****   {
 349:Drivers/BSP/Components/lis2dw12/lis2dw12_reg.c ****     ret = lis2dw12_read_reg(ctx, LIS2DW12_CTRL3, (uint8_t *) &ctrl3, 1);
 350:Drivers/BSP/Components/lis2dw12/lis2dw12_reg.c **** 
 351:Drivers/BSP/Components/lis2dw12/lis2dw12_reg.c ****     switch ((ctrl3.slp_mode << 4) + ctrl1.odr)
 352:Drivers/BSP/Components/lis2dw12/lis2dw12_reg.c ****     {
 353:Drivers/BSP/Components/lis2dw12/lis2dw12_reg.c ****       case LIS2DW12_XL_ODR_OFF:
 354:Drivers/BSP/Components/lis2dw12/lis2dw12_reg.c ****         *val = LIS2DW12_XL_ODR_OFF;
 355:Drivers/BSP/Components/lis2dw12/lis2dw12_reg.c ****         break;
 356:Drivers/BSP/Components/lis2dw12/lis2dw12_reg.c **** 
 357:Drivers/BSP/Components/lis2dw12/lis2dw12_reg.c ****       case LIS2DW12_XL_ODR_1Hz6_LP_ONLY:
 358:Drivers/BSP/Components/lis2dw12/lis2dw12_reg.c ****         *val = LIS2DW12_XL_ODR_1Hz6_LP_ONLY;
 359:Drivers/BSP/Components/lis2dw12/lis2dw12_reg.c ****         break;
 360:Drivers/BSP/Components/lis2dw12/lis2dw12_reg.c **** 
 361:Drivers/BSP/Components/lis2dw12/lis2dw12_reg.c ****       case LIS2DW12_XL_ODR_12Hz5:
 362:Drivers/BSP/Components/lis2dw12/lis2dw12_reg.c ****         *val = LIS2DW12_XL_ODR_12Hz5;
 363:Drivers/BSP/Components/lis2dw12/lis2dw12_reg.c ****         break;
 364:Drivers/BSP/Components/lis2dw12/lis2dw12_reg.c **** 
 365:Drivers/BSP/Components/lis2dw12/lis2dw12_reg.c ****       case LIS2DW12_XL_ODR_25Hz:
 366:Drivers/BSP/Components/lis2dw12/lis2dw12_reg.c ****         *val = LIS2DW12_XL_ODR_25Hz;
 367:Drivers/BSP/Components/lis2dw12/lis2dw12_reg.c ****         break;
 368:Drivers/BSP/Components/lis2dw12/lis2dw12_reg.c **** 
 369:Drivers/BSP/Components/lis2dw12/lis2dw12_reg.c ****       case LIS2DW12_XL_ODR_50Hz:
ARM GAS  /tmp/ccEdQILT.s 			page 25


 370:Drivers/BSP/Components/lis2dw12/lis2dw12_reg.c ****         *val = LIS2DW12_XL_ODR_50Hz;
 371:Drivers/BSP/Components/lis2dw12/lis2dw12_reg.c ****         break;
 372:Drivers/BSP/Components/lis2dw12/lis2dw12_reg.c **** 
 373:Drivers/BSP/Components/lis2dw12/lis2dw12_reg.c ****       case LIS2DW12_XL_ODR_100Hz:
 374:Drivers/BSP/Components/lis2dw12/lis2dw12_reg.c ****         *val = LIS2DW12_XL_ODR_100Hz;
 375:Drivers/BSP/Components/lis2dw12/lis2dw12_reg.c ****         break;
 376:Drivers/BSP/Components/lis2dw12/lis2dw12_reg.c **** 
 377:Drivers/BSP/Components/lis2dw12/lis2dw12_reg.c ****       case LIS2DW12_XL_ODR_200Hz:
 378:Drivers/BSP/Components/lis2dw12/lis2dw12_reg.c ****         *val = LIS2DW12_XL_ODR_200Hz;
 379:Drivers/BSP/Components/lis2dw12/lis2dw12_reg.c ****         break;
 380:Drivers/BSP/Components/lis2dw12/lis2dw12_reg.c **** 
 381:Drivers/BSP/Components/lis2dw12/lis2dw12_reg.c ****       case LIS2DW12_XL_ODR_400Hz:
 382:Drivers/BSP/Components/lis2dw12/lis2dw12_reg.c ****         *val = LIS2DW12_XL_ODR_400Hz;
 383:Drivers/BSP/Components/lis2dw12/lis2dw12_reg.c ****         break;
 384:Drivers/BSP/Components/lis2dw12/lis2dw12_reg.c **** 
 385:Drivers/BSP/Components/lis2dw12/lis2dw12_reg.c ****       case LIS2DW12_XL_ODR_800Hz:
 386:Drivers/BSP/Components/lis2dw12/lis2dw12_reg.c ****         *val = LIS2DW12_XL_ODR_800Hz;
 387:Drivers/BSP/Components/lis2dw12/lis2dw12_reg.c ****         break;
 388:Drivers/BSP/Components/lis2dw12/lis2dw12_reg.c **** 
 389:Drivers/BSP/Components/lis2dw12/lis2dw12_reg.c ****       case LIS2DW12_XL_ODR_1k6Hz:
 390:Drivers/BSP/Components/lis2dw12/lis2dw12_reg.c ****         *val = LIS2DW12_XL_ODR_1k6Hz;
 391:Drivers/BSP/Components/lis2dw12/lis2dw12_reg.c ****         break;
 392:Drivers/BSP/Components/lis2dw12/lis2dw12_reg.c **** 
 393:Drivers/BSP/Components/lis2dw12/lis2dw12_reg.c ****       case LIS2DW12_XL_SET_SW_TRIG:
 394:Drivers/BSP/Components/lis2dw12/lis2dw12_reg.c ****         *val = LIS2DW12_XL_SET_SW_TRIG;
 395:Drivers/BSP/Components/lis2dw12/lis2dw12_reg.c ****         break;
 396:Drivers/BSP/Components/lis2dw12/lis2dw12_reg.c **** 
 397:Drivers/BSP/Components/lis2dw12/lis2dw12_reg.c ****       case LIS2DW12_XL_SET_PIN_TRIG:
 398:Drivers/BSP/Components/lis2dw12/lis2dw12_reg.c ****         *val = LIS2DW12_XL_SET_PIN_TRIG;
 399:Drivers/BSP/Components/lis2dw12/lis2dw12_reg.c ****         break;
 400:Drivers/BSP/Components/lis2dw12/lis2dw12_reg.c **** 
 401:Drivers/BSP/Components/lis2dw12/lis2dw12_reg.c ****       default:
 402:Drivers/BSP/Components/lis2dw12/lis2dw12_reg.c ****         *val = LIS2DW12_XL_ODR_OFF;
 403:Drivers/BSP/Components/lis2dw12/lis2dw12_reg.c ****         break;
 404:Drivers/BSP/Components/lis2dw12/lis2dw12_reg.c ****     }
 405:Drivers/BSP/Components/lis2dw12/lis2dw12_reg.c ****   }
 406:Drivers/BSP/Components/lis2dw12/lis2dw12_reg.c **** 
 407:Drivers/BSP/Components/lis2dw12/lis2dw12_reg.c ****   return ret;
 408:Drivers/BSP/Components/lis2dw12/lis2dw12_reg.c **** }
 920              		.loc 1 408 1 view .LVU224
 921 0014 03B0     		add	sp, sp, #12
 922              	.LCFI16:
 923              		.cfi_remember_state
 924              		.cfi_def_cfa_offset 12
 925              		@ sp needed
 926 0016 30BD     		pop	{r4, r5, pc}
 927              	.LVL48:
 928              	.L89:
 929              	.LCFI17:
 930              		.cfi_restore_state
 349:Drivers/BSP/Components/lis2dw12/lis2dw12_reg.c **** 
 931              		.loc 1 349 5 is_stmt 1 view .LVU225
 349:Drivers/BSP/Components/lis2dw12/lis2dw12_reg.c **** 
 932              		.loc 1 349 11 is_stmt 0 view .LVU226
 933 0018 0123     		movs	r3, #1
 934              	.LVL49:
 349:Drivers/BSP/Components/lis2dw12/lis2dw12_reg.c **** 
ARM GAS  /tmp/ccEdQILT.s 			page 26


 935              		.loc 1 349 11 view .LVU227
 936 001a 6A46     		mov	r2, sp
 937 001c 2221     		movs	r1, #34
 938 001e 2046     		mov	r0, r4
 939 0020 FFF7FEFF 		bl	lis2dw12_read_reg
 940              	.LVL50:
 351:Drivers/BSP/Components/lis2dw12/lis2dw12_reg.c ****     {
 941              		.loc 1 351 5 is_stmt 1 view .LVU228
 351:Drivers/BSP/Components/lis2dw12/lis2dw12_reg.c ****     {
 942              		.loc 1 351 19 is_stmt 0 view .LVU229
 943 0024 9DF80030 		ldrb	r3, [sp]	@ zero_extendqisi2
 944 0028 03F00302 		and	r2, r3, #3
 351:Drivers/BSP/Components/lis2dw12/lis2dw12_reg.c ****     {
 945              		.loc 1 351 42 view .LVU230
 946 002c 9DF80430 		ldrb	r3, [sp, #4]	@ zero_extendqisi2
 947 0030 1B09     		lsrs	r3, r3, #4
 351:Drivers/BSP/Components/lis2dw12/lis2dw12_reg.c ****     {
 948              		.loc 1 351 35 view .LVU231
 949 0032 03EB0213 		add	r3, r3, r2, lsl #4
 351:Drivers/BSP/Components/lis2dw12/lis2dw12_reg.c ****     {
 950              		.loc 1 351 5 view .LVU232
 951 0036 322B     		cmp	r3, #50
 952 0038 3FD8     		bhi	.L74
 953 003a DFE803F0 		tbb	[pc, r3]
 954              	.L76:
 955 003e 1A       		.byte	(.L87-.L76)/2
 956 003f 1D       		.byte	(.L86-.L76)/2
 957 0040 20       		.byte	(.L85-.L76)/2
 958 0041 23       		.byte	(.L84-.L76)/2
 959 0042 26       		.byte	(.L83-.L76)/2
 960 0043 29       		.byte	(.L82-.L76)/2
 961 0044 2C       		.byte	(.L81-.L76)/2
 962 0045 2F       		.byte	(.L80-.L76)/2
 963 0046 32       		.byte	(.L79-.L76)/2
 964 0047 35       		.byte	(.L78-.L76)/2
 965 0048 3E       		.byte	(.L74-.L76)/2
 966 0049 3E       		.byte	(.L74-.L76)/2
 967 004a 3E       		.byte	(.L74-.L76)/2
 968 004b 3E       		.byte	(.L74-.L76)/2
 969 004c 3E       		.byte	(.L74-.L76)/2
 970 004d 3E       		.byte	(.L74-.L76)/2
 971 004e 3E       		.byte	(.L74-.L76)/2
 972 004f 3E       		.byte	(.L74-.L76)/2
 973 0050 3B       		.byte	(.L77-.L76)/2
 974 0051 3E       		.byte	(.L74-.L76)/2
 975 0052 3E       		.byte	(.L74-.L76)/2
 976 0053 3E       		.byte	(.L74-.L76)/2
 977 0054 3E       		.byte	(.L74-.L76)/2
 978 0055 3E       		.byte	(.L74-.L76)/2
 979 0056 3E       		.byte	(.L74-.L76)/2
 980 0057 3E       		.byte	(.L74-.L76)/2
 981 0058 3E       		.byte	(.L74-.L76)/2
 982 0059 3E       		.byte	(.L74-.L76)/2
 983 005a 3E       		.byte	(.L74-.L76)/2
 984 005b 3E       		.byte	(.L74-.L76)/2
 985 005c 3E       		.byte	(.L74-.L76)/2
 986 005d 3E       		.byte	(.L74-.L76)/2
ARM GAS  /tmp/ccEdQILT.s 			page 27


 987 005e 3E       		.byte	(.L74-.L76)/2
 988 005f 3E       		.byte	(.L74-.L76)/2
 989 0060 3E       		.byte	(.L74-.L76)/2
 990 0061 3E       		.byte	(.L74-.L76)/2
 991 0062 3E       		.byte	(.L74-.L76)/2
 992 0063 3E       		.byte	(.L74-.L76)/2
 993 0064 3E       		.byte	(.L74-.L76)/2
 994 0065 3E       		.byte	(.L74-.L76)/2
 995 0066 3E       		.byte	(.L74-.L76)/2
 996 0067 3E       		.byte	(.L74-.L76)/2
 997 0068 3E       		.byte	(.L74-.L76)/2
 998 0069 3E       		.byte	(.L74-.L76)/2
 999 006a 3E       		.byte	(.L74-.L76)/2
 1000 006b 3E       		.byte	(.L74-.L76)/2
 1001 006c 3E       		.byte	(.L74-.L76)/2
 1002 006d 3E       		.byte	(.L74-.L76)/2
 1003 006e 3E       		.byte	(.L74-.L76)/2
 1004 006f 3E       		.byte	(.L74-.L76)/2
 1005 0070 38       		.byte	(.L75-.L76)/2
 1006 0071 00       		.p2align 1
 1007              	.L87:
 354:Drivers/BSP/Components/lis2dw12/lis2dw12_reg.c ****         break;
 1008              		.loc 1 354 9 is_stmt 1 view .LVU233
 354:Drivers/BSP/Components/lis2dw12/lis2dw12_reg.c ****         break;
 1009              		.loc 1 354 14 is_stmt 0 view .LVU234
 1010 0072 0023     		movs	r3, #0
 1011 0074 2B70     		strb	r3, [r5]
 355:Drivers/BSP/Components/lis2dw12/lis2dw12_reg.c **** 
 1012              		.loc 1 355 9 is_stmt 1 view .LVU235
 1013 0076 CDE7     		b	.L72
 1014              	.L86:
 358:Drivers/BSP/Components/lis2dw12/lis2dw12_reg.c ****         break;
 1015              		.loc 1 358 9 view .LVU236
 358:Drivers/BSP/Components/lis2dw12/lis2dw12_reg.c ****         break;
 1016              		.loc 1 358 14 is_stmt 0 view .LVU237
 1017 0078 0123     		movs	r3, #1
 1018 007a 2B70     		strb	r3, [r5]
 359:Drivers/BSP/Components/lis2dw12/lis2dw12_reg.c **** 
 1019              		.loc 1 359 9 is_stmt 1 view .LVU238
 1020 007c CAE7     		b	.L72
 1021              	.L85:
 362:Drivers/BSP/Components/lis2dw12/lis2dw12_reg.c ****         break;
 1022              		.loc 1 362 9 view .LVU239
 362:Drivers/BSP/Components/lis2dw12/lis2dw12_reg.c ****         break;
 1023              		.loc 1 362 14 is_stmt 0 view .LVU240
 1024 007e 0223     		movs	r3, #2
 1025 0080 2B70     		strb	r3, [r5]
 363:Drivers/BSP/Components/lis2dw12/lis2dw12_reg.c **** 
 1026              		.loc 1 363 9 is_stmt 1 view .LVU241
 1027 0082 C7E7     		b	.L72
 1028              	.L84:
 366:Drivers/BSP/Components/lis2dw12/lis2dw12_reg.c ****         break;
 1029              		.loc 1 366 9 view .LVU242
 366:Drivers/BSP/Components/lis2dw12/lis2dw12_reg.c ****         break;
 1030              		.loc 1 366 14 is_stmt 0 view .LVU243
 1031 0084 0323     		movs	r3, #3
 1032 0086 2B70     		strb	r3, [r5]
ARM GAS  /tmp/ccEdQILT.s 			page 28


 367:Drivers/BSP/Components/lis2dw12/lis2dw12_reg.c **** 
 1033              		.loc 1 367 9 is_stmt 1 view .LVU244
 1034 0088 C4E7     		b	.L72
 1035              	.L83:
 370:Drivers/BSP/Components/lis2dw12/lis2dw12_reg.c ****         break;
 1036              		.loc 1 370 9 view .LVU245
 370:Drivers/BSP/Components/lis2dw12/lis2dw12_reg.c ****         break;
 1037              		.loc 1 370 14 is_stmt 0 view .LVU246
 1038 008a 0423     		movs	r3, #4
 1039 008c 2B70     		strb	r3, [r5]
 371:Drivers/BSP/Components/lis2dw12/lis2dw12_reg.c **** 
 1040              		.loc 1 371 9 is_stmt 1 view .LVU247
 1041 008e C1E7     		b	.L72
 1042              	.L82:
 374:Drivers/BSP/Components/lis2dw12/lis2dw12_reg.c ****         break;
 1043              		.loc 1 374 9 view .LVU248
 374:Drivers/BSP/Components/lis2dw12/lis2dw12_reg.c ****         break;
 1044              		.loc 1 374 14 is_stmt 0 view .LVU249
 1045 0090 0523     		movs	r3, #5
 1046 0092 2B70     		strb	r3, [r5]
 375:Drivers/BSP/Components/lis2dw12/lis2dw12_reg.c **** 
 1047              		.loc 1 375 9 is_stmt 1 view .LVU250
 1048 0094 BEE7     		b	.L72
 1049              	.L81:
 378:Drivers/BSP/Components/lis2dw12/lis2dw12_reg.c ****         break;
 1050              		.loc 1 378 9 view .LVU251
 378:Drivers/BSP/Components/lis2dw12/lis2dw12_reg.c ****         break;
 1051              		.loc 1 378 14 is_stmt 0 view .LVU252
 1052 0096 0623     		movs	r3, #6
 1053 0098 2B70     		strb	r3, [r5]
 379:Drivers/BSP/Components/lis2dw12/lis2dw12_reg.c **** 
 1054              		.loc 1 379 9 is_stmt 1 view .LVU253
 1055 009a BBE7     		b	.L72
 1056              	.L80:
 382:Drivers/BSP/Components/lis2dw12/lis2dw12_reg.c ****         break;
 1057              		.loc 1 382 9 view .LVU254
 382:Drivers/BSP/Components/lis2dw12/lis2dw12_reg.c ****         break;
 1058              		.loc 1 382 14 is_stmt 0 view .LVU255
 1059 009c 0723     		movs	r3, #7
 1060 009e 2B70     		strb	r3, [r5]
 383:Drivers/BSP/Components/lis2dw12/lis2dw12_reg.c **** 
 1061              		.loc 1 383 9 is_stmt 1 view .LVU256
 1062 00a0 B8E7     		b	.L72
 1063              	.L79:
 386:Drivers/BSP/Components/lis2dw12/lis2dw12_reg.c ****         break;
 1064              		.loc 1 386 9 view .LVU257
 386:Drivers/BSP/Components/lis2dw12/lis2dw12_reg.c ****         break;
 1065              		.loc 1 386 14 is_stmt 0 view .LVU258
 1066 00a2 0823     		movs	r3, #8
 1067 00a4 2B70     		strb	r3, [r5]
 387:Drivers/BSP/Components/lis2dw12/lis2dw12_reg.c **** 
 1068              		.loc 1 387 9 is_stmt 1 view .LVU259
 1069 00a6 B5E7     		b	.L72
 1070              	.L78:
 390:Drivers/BSP/Components/lis2dw12/lis2dw12_reg.c ****         break;
 1071              		.loc 1 390 9 view .LVU260
 390:Drivers/BSP/Components/lis2dw12/lis2dw12_reg.c ****         break;
ARM GAS  /tmp/ccEdQILT.s 			page 29


 1072              		.loc 1 390 14 is_stmt 0 view .LVU261
 1073 00a8 0923     		movs	r3, #9
 1074 00aa 2B70     		strb	r3, [r5]
 391:Drivers/BSP/Components/lis2dw12/lis2dw12_reg.c **** 
 1075              		.loc 1 391 9 is_stmt 1 view .LVU262
 1076 00ac B2E7     		b	.L72
 1077              	.L75:
 394:Drivers/BSP/Components/lis2dw12/lis2dw12_reg.c ****         break;
 1078              		.loc 1 394 9 view .LVU263
 394:Drivers/BSP/Components/lis2dw12/lis2dw12_reg.c ****         break;
 1079              		.loc 1 394 14 is_stmt 0 view .LVU264
 1080 00ae 3223     		movs	r3, #50
 1081 00b0 2B70     		strb	r3, [r5]
 395:Drivers/BSP/Components/lis2dw12/lis2dw12_reg.c **** 
 1082              		.loc 1 395 9 is_stmt 1 view .LVU265
 1083 00b2 AFE7     		b	.L72
 1084              	.L77:
 398:Drivers/BSP/Components/lis2dw12/lis2dw12_reg.c ****         break;
 1085              		.loc 1 398 9 view .LVU266
 398:Drivers/BSP/Components/lis2dw12/lis2dw12_reg.c ****         break;
 1086              		.loc 1 398 14 is_stmt 0 view .LVU267
 1087 00b4 1223     		movs	r3, #18
 1088 00b6 2B70     		strb	r3, [r5]
 399:Drivers/BSP/Components/lis2dw12/lis2dw12_reg.c **** 
 1089              		.loc 1 399 9 is_stmt 1 view .LVU268
 1090 00b8 ACE7     		b	.L72
 1091              	.L74:
 402:Drivers/BSP/Components/lis2dw12/lis2dw12_reg.c ****         break;
 1092              		.loc 1 402 9 view .LVU269
 402:Drivers/BSP/Components/lis2dw12/lis2dw12_reg.c ****         break;
 1093              		.loc 1 402 14 is_stmt 0 view .LVU270
 1094 00ba 0023     		movs	r3, #0
 1095 00bc 2B70     		strb	r3, [r5]
 403:Drivers/BSP/Components/lis2dw12/lis2dw12_reg.c ****     }
 1096              		.loc 1 403 9 is_stmt 1 view .LVU271
 407:Drivers/BSP/Components/lis2dw12/lis2dw12_reg.c **** }
 1097              		.loc 1 407 3 view .LVU272
 407:Drivers/BSP/Components/lis2dw12/lis2dw12_reg.c **** }
 1098              		.loc 1 407 10 is_stmt 0 view .LVU273
 1099 00be A9E7     		b	.L72
 1100              		.cfi_endproc
 1101              	.LFE14:
 1103              		.section	.text.lis2dw12_block_data_update_set,"ax",%progbits
 1104              		.align	1
 1105              		.global	lis2dw12_block_data_update_set
 1106              		.syntax unified
 1107              		.thumb
 1108              		.thumb_func
 1109              		.fpu fpv4-sp-d16
 1111              	lis2dw12_block_data_update_set:
 1112              	.LVL51:
 1113              	.LFB15:
 409:Drivers/BSP/Components/lis2dw12/lis2dw12_reg.c **** 
 410:Drivers/BSP/Components/lis2dw12/lis2dw12_reg.c **** /**
 411:Drivers/BSP/Components/lis2dw12/lis2dw12_reg.c ****   * @brief  Block data update.[set]
 412:Drivers/BSP/Components/lis2dw12/lis2dw12_reg.c ****   *
 413:Drivers/BSP/Components/lis2dw12/lis2dw12_reg.c ****   * @param  ctx      read / write interface definitions
ARM GAS  /tmp/ccEdQILT.s 			page 30


 414:Drivers/BSP/Components/lis2dw12/lis2dw12_reg.c ****   * @param  val      change the values of bdu in reg CTRL2
 415:Drivers/BSP/Components/lis2dw12/lis2dw12_reg.c ****   * @retval          interface status (MANDATORY: return 0 -> no Error)
 416:Drivers/BSP/Components/lis2dw12/lis2dw12_reg.c ****   *
 417:Drivers/BSP/Components/lis2dw12/lis2dw12_reg.c ****   */
 418:Drivers/BSP/Components/lis2dw12/lis2dw12_reg.c **** int32_t lis2dw12_block_data_update_set(stmdev_ctx_t *ctx, uint8_t val)
 419:Drivers/BSP/Components/lis2dw12/lis2dw12_reg.c **** {
 1114              		.loc 1 419 1 is_stmt 1 view -0
 1115              		.cfi_startproc
 1116              		@ args = 0, pretend = 0, frame = 8
 1117              		@ frame_needed = 0, uses_anonymous_args = 0
 1118              		.loc 1 419 1 is_stmt 0 view .LVU275
 1119 0000 30B5     		push	{r4, r5, lr}
 1120              	.LCFI18:
 1121              		.cfi_def_cfa_offset 12
 1122              		.cfi_offset 4, -12
 1123              		.cfi_offset 5, -8
 1124              		.cfi_offset 14, -4
 1125 0002 83B0     		sub	sp, sp, #12
 1126              	.LCFI19:
 1127              		.cfi_def_cfa_offset 24
 1128 0004 0446     		mov	r4, r0
 1129 0006 0D46     		mov	r5, r1
 420:Drivers/BSP/Components/lis2dw12/lis2dw12_reg.c ****   lis2dw12_ctrl2_t reg;
 1130              		.loc 1 420 3 is_stmt 1 view .LVU276
 421:Drivers/BSP/Components/lis2dw12/lis2dw12_reg.c ****   int32_t ret;
 1131              		.loc 1 421 3 view .LVU277
 422:Drivers/BSP/Components/lis2dw12/lis2dw12_reg.c **** 
 423:Drivers/BSP/Components/lis2dw12/lis2dw12_reg.c ****   ret = lis2dw12_read_reg(ctx, LIS2DW12_CTRL2, (uint8_t *) &reg, 1);
 1132              		.loc 1 423 3 view .LVU278
 1133              		.loc 1 423 9 is_stmt 0 view .LVU279
 1134 0008 0123     		movs	r3, #1
 1135 000a 01AA     		add	r2, sp, #4
 1136 000c 2121     		movs	r1, #33
 1137              	.LVL52:
 1138              		.loc 1 423 9 view .LVU280
 1139 000e FFF7FEFF 		bl	lis2dw12_read_reg
 1140              	.LVL53:
 424:Drivers/BSP/Components/lis2dw12/lis2dw12_reg.c **** 
 425:Drivers/BSP/Components/lis2dw12/lis2dw12_reg.c ****   if (ret == 0)
 1141              		.loc 1 425 3 is_stmt 1 view .LVU281
 1142              		.loc 1 425 6 is_stmt 0 view .LVU282
 1143 0012 08B1     		cbz	r0, .L93
 1144              	.LVL54:
 1145              	.L90:
 426:Drivers/BSP/Components/lis2dw12/lis2dw12_reg.c ****   {
 427:Drivers/BSP/Components/lis2dw12/lis2dw12_reg.c ****     reg.bdu = val;
 428:Drivers/BSP/Components/lis2dw12/lis2dw12_reg.c ****     ret = lis2dw12_write_reg(ctx, LIS2DW12_CTRL2, (uint8_t *) &reg, 1);
 429:Drivers/BSP/Components/lis2dw12/lis2dw12_reg.c ****   }
 430:Drivers/BSP/Components/lis2dw12/lis2dw12_reg.c **** 
 431:Drivers/BSP/Components/lis2dw12/lis2dw12_reg.c ****   return ret;
 432:Drivers/BSP/Components/lis2dw12/lis2dw12_reg.c **** }
 1146              		.loc 1 432 1 view .LVU283
 1147 0014 03B0     		add	sp, sp, #12
 1148              	.LCFI20:
 1149              		.cfi_remember_state
 1150              		.cfi_def_cfa_offset 12
 1151              		@ sp needed
ARM GAS  /tmp/ccEdQILT.s 			page 31


 1152 0016 30BD     		pop	{r4, r5, pc}
 1153              	.LVL55:
 1154              	.L93:
 1155              	.LCFI21:
 1156              		.cfi_restore_state
 427:Drivers/BSP/Components/lis2dw12/lis2dw12_reg.c ****     ret = lis2dw12_write_reg(ctx, LIS2DW12_CTRL2, (uint8_t *) &reg, 1);
 1157              		.loc 1 427 5 is_stmt 1 view .LVU284
 427:Drivers/BSP/Components/lis2dw12/lis2dw12_reg.c ****     ret = lis2dw12_write_reg(ctx, LIS2DW12_CTRL2, (uint8_t *) &reg, 1);
 1158              		.loc 1 427 13 is_stmt 0 view .LVU285
 1159 0018 9DF80430 		ldrb	r3, [sp, #4]	@ zero_extendqisi2
 1160 001c 65F3C303 		bfi	r3, r5, #3, #1
 1161 0020 8DF80430 		strb	r3, [sp, #4]
 428:Drivers/BSP/Components/lis2dw12/lis2dw12_reg.c ****   }
 1162              		.loc 1 428 5 is_stmt 1 view .LVU286
 428:Drivers/BSP/Components/lis2dw12/lis2dw12_reg.c ****   }
 1163              		.loc 1 428 11 is_stmt 0 view .LVU287
 1164 0024 0123     		movs	r3, #1
 1165              	.LVL56:
 428:Drivers/BSP/Components/lis2dw12/lis2dw12_reg.c ****   }
 1166              		.loc 1 428 11 view .LVU288
 1167 0026 01AA     		add	r2, sp, #4
 1168 0028 2121     		movs	r1, #33
 1169 002a 2046     		mov	r0, r4
 1170 002c FFF7FEFF 		bl	lis2dw12_write_reg
 1171              	.LVL57:
 431:Drivers/BSP/Components/lis2dw12/lis2dw12_reg.c **** }
 1172              		.loc 1 431 3 is_stmt 1 view .LVU289
 431:Drivers/BSP/Components/lis2dw12/lis2dw12_reg.c **** }
 1173              		.loc 1 431 10 is_stmt 0 view .LVU290
 1174 0030 F0E7     		b	.L90
 1175              		.cfi_endproc
 1176              	.LFE15:
 1178              		.section	.text.lis2dw12_block_data_update_get,"ax",%progbits
 1179              		.align	1
 1180              		.global	lis2dw12_block_data_update_get
 1181              		.syntax unified
 1182              		.thumb
 1183              		.thumb_func
 1184              		.fpu fpv4-sp-d16
 1186              	lis2dw12_block_data_update_get:
 1187              	.LVL58:
 1188              	.LFB16:
 433:Drivers/BSP/Components/lis2dw12/lis2dw12_reg.c **** 
 434:Drivers/BSP/Components/lis2dw12/lis2dw12_reg.c **** /**
 435:Drivers/BSP/Components/lis2dw12/lis2dw12_reg.c ****   * @brief  Block data update.[get]
 436:Drivers/BSP/Components/lis2dw12/lis2dw12_reg.c ****   *
 437:Drivers/BSP/Components/lis2dw12/lis2dw12_reg.c ****   * @param  ctx      read / write interface definitions
 438:Drivers/BSP/Components/lis2dw12/lis2dw12_reg.c ****   * @param  val      change the values of bdu in reg CTRL2
 439:Drivers/BSP/Components/lis2dw12/lis2dw12_reg.c ****   * @retval          interface status (MANDATORY: return 0 -> no Error)
 440:Drivers/BSP/Components/lis2dw12/lis2dw12_reg.c ****   *
 441:Drivers/BSP/Components/lis2dw12/lis2dw12_reg.c ****   */
 442:Drivers/BSP/Components/lis2dw12/lis2dw12_reg.c **** int32_t lis2dw12_block_data_update_get(stmdev_ctx_t *ctx,
 443:Drivers/BSP/Components/lis2dw12/lis2dw12_reg.c ****                                        uint8_t *val)
 444:Drivers/BSP/Components/lis2dw12/lis2dw12_reg.c **** {
 1189              		.loc 1 444 1 is_stmt 1 view -0
 1190              		.cfi_startproc
 1191              		@ args = 0, pretend = 0, frame = 8
ARM GAS  /tmp/ccEdQILT.s 			page 32


 1192              		@ frame_needed = 0, uses_anonymous_args = 0
 1193              		.loc 1 444 1 is_stmt 0 view .LVU292
 1194 0000 10B5     		push	{r4, lr}
 1195              	.LCFI22:
 1196              		.cfi_def_cfa_offset 8
 1197              		.cfi_offset 4, -8
 1198              		.cfi_offset 14, -4
 1199 0002 82B0     		sub	sp, sp, #8
 1200              	.LCFI23:
 1201              		.cfi_def_cfa_offset 16
 1202 0004 0C46     		mov	r4, r1
 445:Drivers/BSP/Components/lis2dw12/lis2dw12_reg.c ****   lis2dw12_ctrl2_t reg;
 1203              		.loc 1 445 3 is_stmt 1 view .LVU293
 446:Drivers/BSP/Components/lis2dw12/lis2dw12_reg.c ****   int32_t ret;
 1204              		.loc 1 446 3 view .LVU294
 447:Drivers/BSP/Components/lis2dw12/lis2dw12_reg.c **** 
 448:Drivers/BSP/Components/lis2dw12/lis2dw12_reg.c ****   ret = lis2dw12_read_reg(ctx, LIS2DW12_CTRL2, (uint8_t *) &reg, 1);
 1205              		.loc 1 448 3 view .LVU295
 1206              		.loc 1 448 9 is_stmt 0 view .LVU296
 1207 0006 0123     		movs	r3, #1
 1208 0008 01AA     		add	r2, sp, #4
 1209 000a 2121     		movs	r1, #33
 1210              	.LVL59:
 1211              		.loc 1 448 9 view .LVU297
 1212 000c FFF7FEFF 		bl	lis2dw12_read_reg
 1213              	.LVL60:
 449:Drivers/BSP/Components/lis2dw12/lis2dw12_reg.c ****   *val = reg.bdu;
 1214              		.loc 1 449 3 is_stmt 1 view .LVU298
 1215              		.loc 1 449 13 is_stmt 0 view .LVU299
 1216 0010 9DF80430 		ldrb	r3, [sp, #4]	@ zero_extendqisi2
 1217 0014 C3F3C003 		ubfx	r3, r3, #3, #1
 1218              		.loc 1 449 8 view .LVU300
 1219 0018 2370     		strb	r3, [r4]
 450:Drivers/BSP/Components/lis2dw12/lis2dw12_reg.c **** 
 451:Drivers/BSP/Components/lis2dw12/lis2dw12_reg.c ****   return ret;
 1220              		.loc 1 451 3 is_stmt 1 view .LVU301
 452:Drivers/BSP/Components/lis2dw12/lis2dw12_reg.c **** }
 1221              		.loc 1 452 1 is_stmt 0 view .LVU302
 1222 001a 02B0     		add	sp, sp, #8
 1223              	.LCFI24:
 1224              		.cfi_def_cfa_offset 8
 1225              		@ sp needed
 1226 001c 10BD     		pop	{r4, pc}
 1227              		.loc 1 452 1 view .LVU303
 1228              		.cfi_endproc
 1229              	.LFE16:
 1231              		.section	.text.lis2dw12_full_scale_set,"ax",%progbits
 1232              		.align	1
 1233              		.global	lis2dw12_full_scale_set
 1234              		.syntax unified
 1235              		.thumb
 1236              		.thumb_func
 1237              		.fpu fpv4-sp-d16
 1239              	lis2dw12_full_scale_set:
 1240              	.LVL61:
 1241              	.LFB17:
 453:Drivers/BSP/Components/lis2dw12/lis2dw12_reg.c **** 
ARM GAS  /tmp/ccEdQILT.s 			page 33


 454:Drivers/BSP/Components/lis2dw12/lis2dw12_reg.c **** /**
 455:Drivers/BSP/Components/lis2dw12/lis2dw12_reg.c ****   * @brief  Accelerometer full-scale selection.[set]
 456:Drivers/BSP/Components/lis2dw12/lis2dw12_reg.c ****   *
 457:Drivers/BSP/Components/lis2dw12/lis2dw12_reg.c ****   * @param  ctx      read / write interface definitions
 458:Drivers/BSP/Components/lis2dw12/lis2dw12_reg.c ****   * @param  val      change the values of fs in reg CTRL6
 459:Drivers/BSP/Components/lis2dw12/lis2dw12_reg.c ****   * @retval          interface status (MANDATORY: return 0 -> no Error)
 460:Drivers/BSP/Components/lis2dw12/lis2dw12_reg.c ****   *
 461:Drivers/BSP/Components/lis2dw12/lis2dw12_reg.c ****   */
 462:Drivers/BSP/Components/lis2dw12/lis2dw12_reg.c **** int32_t lis2dw12_full_scale_set(stmdev_ctx_t *ctx, lis2dw12_fs_t val)
 463:Drivers/BSP/Components/lis2dw12/lis2dw12_reg.c **** {
 1242              		.loc 1 463 1 is_stmt 1 view -0
 1243              		.cfi_startproc
 1244              		@ args = 0, pretend = 0, frame = 8
 1245              		@ frame_needed = 0, uses_anonymous_args = 0
 1246              		.loc 1 463 1 is_stmt 0 view .LVU305
 1247 0000 30B5     		push	{r4, r5, lr}
 1248              	.LCFI25:
 1249              		.cfi_def_cfa_offset 12
 1250              		.cfi_offset 4, -12
 1251              		.cfi_offset 5, -8
 1252              		.cfi_offset 14, -4
 1253 0002 83B0     		sub	sp, sp, #12
 1254              	.LCFI26:
 1255              		.cfi_def_cfa_offset 24
 1256 0004 0446     		mov	r4, r0
 1257 0006 0D46     		mov	r5, r1
 464:Drivers/BSP/Components/lis2dw12/lis2dw12_reg.c ****   lis2dw12_ctrl6_t reg;
 1258              		.loc 1 464 3 is_stmt 1 view .LVU306
 465:Drivers/BSP/Components/lis2dw12/lis2dw12_reg.c ****   int32_t ret;
 1259              		.loc 1 465 3 view .LVU307
 466:Drivers/BSP/Components/lis2dw12/lis2dw12_reg.c **** 
 467:Drivers/BSP/Components/lis2dw12/lis2dw12_reg.c ****   ret = lis2dw12_read_reg(ctx, LIS2DW12_CTRL6, (uint8_t *) &reg, 1);
 1260              		.loc 1 467 3 view .LVU308
 1261              		.loc 1 467 9 is_stmt 0 view .LVU309
 1262 0008 0123     		movs	r3, #1
 1263 000a 01AA     		add	r2, sp, #4
 1264 000c 2521     		movs	r1, #37
 1265              	.LVL62:
 1266              		.loc 1 467 9 view .LVU310
 1267 000e FFF7FEFF 		bl	lis2dw12_read_reg
 1268              	.LVL63:
 468:Drivers/BSP/Components/lis2dw12/lis2dw12_reg.c **** 
 469:Drivers/BSP/Components/lis2dw12/lis2dw12_reg.c ****   if (ret == 0)
 1269              		.loc 1 469 3 is_stmt 1 view .LVU311
 1270              		.loc 1 469 6 is_stmt 0 view .LVU312
 1271 0012 08B1     		cbz	r0, .L99
 1272              	.LVL64:
 1273              	.L96:
 470:Drivers/BSP/Components/lis2dw12/lis2dw12_reg.c ****   {
 471:Drivers/BSP/Components/lis2dw12/lis2dw12_reg.c ****     reg.fs = (uint8_t) val;
 472:Drivers/BSP/Components/lis2dw12/lis2dw12_reg.c ****     ret = lis2dw12_write_reg(ctx, LIS2DW12_CTRL6, (uint8_t *) &reg, 1);
 473:Drivers/BSP/Components/lis2dw12/lis2dw12_reg.c ****   }
 474:Drivers/BSP/Components/lis2dw12/lis2dw12_reg.c **** 
 475:Drivers/BSP/Components/lis2dw12/lis2dw12_reg.c ****   return ret;
 476:Drivers/BSP/Components/lis2dw12/lis2dw12_reg.c **** }
 1274              		.loc 1 476 1 view .LVU313
 1275 0014 03B0     		add	sp, sp, #12
ARM GAS  /tmp/ccEdQILT.s 			page 34


 1276              	.LCFI27:
 1277              		.cfi_remember_state
 1278              		.cfi_def_cfa_offset 12
 1279              		@ sp needed
 1280 0016 30BD     		pop	{r4, r5, pc}
 1281              	.LVL65:
 1282              	.L99:
 1283              	.LCFI28:
 1284              		.cfi_restore_state
 471:Drivers/BSP/Components/lis2dw12/lis2dw12_reg.c ****     ret = lis2dw12_write_reg(ctx, LIS2DW12_CTRL6, (uint8_t *) &reg, 1);
 1285              		.loc 1 471 5 is_stmt 1 view .LVU314
 471:Drivers/BSP/Components/lis2dw12/lis2dw12_reg.c ****     ret = lis2dw12_write_reg(ctx, LIS2DW12_CTRL6, (uint8_t *) &reg, 1);
 1286              		.loc 1 471 12 is_stmt 0 view .LVU315
 1287 0018 9DF80430 		ldrb	r3, [sp, #4]	@ zero_extendqisi2
 1288 001c 65F30513 		bfi	r3, r5, #4, #2
 1289 0020 8DF80430 		strb	r3, [sp, #4]
 472:Drivers/BSP/Components/lis2dw12/lis2dw12_reg.c ****   }
 1290              		.loc 1 472 5 is_stmt 1 view .LVU316
 472:Drivers/BSP/Components/lis2dw12/lis2dw12_reg.c ****   }
 1291              		.loc 1 472 11 is_stmt 0 view .LVU317
 1292 0024 0123     		movs	r3, #1
 1293              	.LVL66:
 472:Drivers/BSP/Components/lis2dw12/lis2dw12_reg.c ****   }
 1294              		.loc 1 472 11 view .LVU318
 1295 0026 01AA     		add	r2, sp, #4
 1296 0028 2521     		movs	r1, #37
 1297 002a 2046     		mov	r0, r4
 1298 002c FFF7FEFF 		bl	lis2dw12_write_reg
 1299              	.LVL67:
 475:Drivers/BSP/Components/lis2dw12/lis2dw12_reg.c **** }
 1300              		.loc 1 475 3 is_stmt 1 view .LVU319
 475:Drivers/BSP/Components/lis2dw12/lis2dw12_reg.c **** }
 1301              		.loc 1 475 10 is_stmt 0 view .LVU320
 1302 0030 F0E7     		b	.L96
 1303              		.cfi_endproc
 1304              	.LFE17:
 1306              		.section	.text.lis2dw12_full_scale_get,"ax",%progbits
 1307              		.align	1
 1308              		.global	lis2dw12_full_scale_get
 1309              		.syntax unified
 1310              		.thumb
 1311              		.thumb_func
 1312              		.fpu fpv4-sp-d16
 1314              	lis2dw12_full_scale_get:
 1315              	.LVL68:
 1316              	.LFB18:
 477:Drivers/BSP/Components/lis2dw12/lis2dw12_reg.c **** 
 478:Drivers/BSP/Components/lis2dw12/lis2dw12_reg.c **** /**
 479:Drivers/BSP/Components/lis2dw12/lis2dw12_reg.c ****   * @brief  Accelerometer full-scale selection.[get]
 480:Drivers/BSP/Components/lis2dw12/lis2dw12_reg.c ****   *
 481:Drivers/BSP/Components/lis2dw12/lis2dw12_reg.c ****   * @param  ctx      read / write interface definitions
 482:Drivers/BSP/Components/lis2dw12/lis2dw12_reg.c ****   * @param  val      Get the values of fs in reg CTRL6
 483:Drivers/BSP/Components/lis2dw12/lis2dw12_reg.c ****   * @retval          interface status (MANDATORY: return 0 -> no Error)
 484:Drivers/BSP/Components/lis2dw12/lis2dw12_reg.c ****   *
 485:Drivers/BSP/Components/lis2dw12/lis2dw12_reg.c ****   */
 486:Drivers/BSP/Components/lis2dw12/lis2dw12_reg.c **** int32_t lis2dw12_full_scale_get(stmdev_ctx_t *ctx, lis2dw12_fs_t *val)
 487:Drivers/BSP/Components/lis2dw12/lis2dw12_reg.c **** {
ARM GAS  /tmp/ccEdQILT.s 			page 35


 1317              		.loc 1 487 1 is_stmt 1 view -0
 1318              		.cfi_startproc
 1319              		@ args = 0, pretend = 0, frame = 8
 1320              		@ frame_needed = 0, uses_anonymous_args = 0
 1321              		.loc 1 487 1 is_stmt 0 view .LVU322
 1322 0000 10B5     		push	{r4, lr}
 1323              	.LCFI29:
 1324              		.cfi_def_cfa_offset 8
 1325              		.cfi_offset 4, -8
 1326              		.cfi_offset 14, -4
 1327 0002 82B0     		sub	sp, sp, #8
 1328              	.LCFI30:
 1329              		.cfi_def_cfa_offset 16
 1330 0004 0C46     		mov	r4, r1
 488:Drivers/BSP/Components/lis2dw12/lis2dw12_reg.c ****   lis2dw12_ctrl6_t reg;
 1331              		.loc 1 488 3 is_stmt 1 view .LVU323
 489:Drivers/BSP/Components/lis2dw12/lis2dw12_reg.c ****   int32_t ret;
 1332              		.loc 1 489 3 view .LVU324
 490:Drivers/BSP/Components/lis2dw12/lis2dw12_reg.c **** 
 491:Drivers/BSP/Components/lis2dw12/lis2dw12_reg.c ****   ret = lis2dw12_read_reg(ctx, LIS2DW12_CTRL6, (uint8_t *) &reg, 1);
 1333              		.loc 1 491 3 view .LVU325
 1334              		.loc 1 491 9 is_stmt 0 view .LVU326
 1335 0006 0123     		movs	r3, #1
 1336 0008 01AA     		add	r2, sp, #4
 1337 000a 2521     		movs	r1, #37
 1338              	.LVL69:
 1339              		.loc 1 491 9 view .LVU327
 1340 000c FFF7FEFF 		bl	lis2dw12_read_reg
 1341              	.LVL70:
 492:Drivers/BSP/Components/lis2dw12/lis2dw12_reg.c **** 
 493:Drivers/BSP/Components/lis2dw12/lis2dw12_reg.c ****   switch (reg.fs)
 1342              		.loc 1 493 3 is_stmt 1 view .LVU328
 1343              		.loc 1 493 14 is_stmt 0 view .LVU329
 1344 0010 9DF80430 		ldrb	r3, [sp, #4]	@ zero_extendqisi2
 1345 0014 C3F30113 		ubfx	r3, r3, #4, #2
 1346              		.loc 1 493 3 view .LVU330
 1347 0018 032B     		cmp	r3, #3
 1348 001a 10D8     		bhi	.L101
 1349 001c DFE803F0 		tbb	[pc, r3]
 1350              	.L103:
 1351 0020 02       		.byte	(.L106-.L103)/2
 1352 0021 06       		.byte	(.L105-.L103)/2
 1353 0022 09       		.byte	(.L104-.L103)/2
 1354 0023 0C       		.byte	(.L102-.L103)/2
 1355              		.p2align 1
 1356              	.L106:
 494:Drivers/BSP/Components/lis2dw12/lis2dw12_reg.c ****   {
 495:Drivers/BSP/Components/lis2dw12/lis2dw12_reg.c ****     case LIS2DW12_2g:
 496:Drivers/BSP/Components/lis2dw12/lis2dw12_reg.c ****       *val = LIS2DW12_2g;
 1357              		.loc 1 496 7 is_stmt 1 view .LVU331
 1358              		.loc 1 496 12 is_stmt 0 view .LVU332
 1359 0024 0023     		movs	r3, #0
 1360 0026 2370     		strb	r3, [r4]
 497:Drivers/BSP/Components/lis2dw12/lis2dw12_reg.c ****       break;
 1361              		.loc 1 497 7 is_stmt 1 view .LVU333
 1362              	.L100:
 498:Drivers/BSP/Components/lis2dw12/lis2dw12_reg.c **** 
ARM GAS  /tmp/ccEdQILT.s 			page 36


 499:Drivers/BSP/Components/lis2dw12/lis2dw12_reg.c ****     case LIS2DW12_4g:
 500:Drivers/BSP/Components/lis2dw12/lis2dw12_reg.c ****       *val = LIS2DW12_4g;
 501:Drivers/BSP/Components/lis2dw12/lis2dw12_reg.c ****       break;
 502:Drivers/BSP/Components/lis2dw12/lis2dw12_reg.c **** 
 503:Drivers/BSP/Components/lis2dw12/lis2dw12_reg.c ****     case LIS2DW12_8g:
 504:Drivers/BSP/Components/lis2dw12/lis2dw12_reg.c ****       *val = LIS2DW12_8g;
 505:Drivers/BSP/Components/lis2dw12/lis2dw12_reg.c ****       break;
 506:Drivers/BSP/Components/lis2dw12/lis2dw12_reg.c **** 
 507:Drivers/BSP/Components/lis2dw12/lis2dw12_reg.c ****     case LIS2DW12_16g:
 508:Drivers/BSP/Components/lis2dw12/lis2dw12_reg.c ****       *val = LIS2DW12_16g;
 509:Drivers/BSP/Components/lis2dw12/lis2dw12_reg.c ****       break;
 510:Drivers/BSP/Components/lis2dw12/lis2dw12_reg.c **** 
 511:Drivers/BSP/Components/lis2dw12/lis2dw12_reg.c ****     default:
 512:Drivers/BSP/Components/lis2dw12/lis2dw12_reg.c ****       *val = LIS2DW12_2g;
 513:Drivers/BSP/Components/lis2dw12/lis2dw12_reg.c ****       break;
 514:Drivers/BSP/Components/lis2dw12/lis2dw12_reg.c ****   }
 515:Drivers/BSP/Components/lis2dw12/lis2dw12_reg.c **** 
 516:Drivers/BSP/Components/lis2dw12/lis2dw12_reg.c ****   return ret;
 517:Drivers/BSP/Components/lis2dw12/lis2dw12_reg.c **** }
 1363              		.loc 1 517 1 is_stmt 0 view .LVU334
 1364 0028 02B0     		add	sp, sp, #8
 1365              	.LCFI31:
 1366              		.cfi_remember_state
 1367              		.cfi_def_cfa_offset 8
 1368              		@ sp needed
 1369 002a 10BD     		pop	{r4, pc}
 1370              	.LVL71:
 1371              	.L105:
 1372              	.LCFI32:
 1373              		.cfi_restore_state
 500:Drivers/BSP/Components/lis2dw12/lis2dw12_reg.c ****       break;
 1374              		.loc 1 500 7 is_stmt 1 view .LVU335
 500:Drivers/BSP/Components/lis2dw12/lis2dw12_reg.c ****       break;
 1375              		.loc 1 500 12 is_stmt 0 view .LVU336
 1376 002c 0123     		movs	r3, #1
 1377 002e 2370     		strb	r3, [r4]
 501:Drivers/BSP/Components/lis2dw12/lis2dw12_reg.c **** 
 1378              		.loc 1 501 7 is_stmt 1 view .LVU337
 1379 0030 FAE7     		b	.L100
 1380              	.L104:
 504:Drivers/BSP/Components/lis2dw12/lis2dw12_reg.c ****       break;
 1381              		.loc 1 504 7 view .LVU338
 504:Drivers/BSP/Components/lis2dw12/lis2dw12_reg.c ****       break;
 1382              		.loc 1 504 12 is_stmt 0 view .LVU339
 1383 0032 0223     		movs	r3, #2
 1384 0034 2370     		strb	r3, [r4]
 505:Drivers/BSP/Components/lis2dw12/lis2dw12_reg.c **** 
 1385              		.loc 1 505 7 is_stmt 1 view .LVU340
 1386 0036 F7E7     		b	.L100
 1387              	.L102:
 508:Drivers/BSP/Components/lis2dw12/lis2dw12_reg.c ****       break;
 1388              		.loc 1 508 7 view .LVU341
 508:Drivers/BSP/Components/lis2dw12/lis2dw12_reg.c ****       break;
 1389              		.loc 1 508 12 is_stmt 0 view .LVU342
 1390 0038 0323     		movs	r3, #3
 1391 003a 2370     		strb	r3, [r4]
 509:Drivers/BSP/Components/lis2dw12/lis2dw12_reg.c **** 
ARM GAS  /tmp/ccEdQILT.s 			page 37


 1392              		.loc 1 509 7 is_stmt 1 view .LVU343
 1393 003c F4E7     		b	.L100
 1394              	.L101:
 512:Drivers/BSP/Components/lis2dw12/lis2dw12_reg.c ****       break;
 1395              		.loc 1 512 7 view .LVU344
 512:Drivers/BSP/Components/lis2dw12/lis2dw12_reg.c ****       break;
 1396              		.loc 1 512 12 is_stmt 0 view .LVU345
 1397 003e 0023     		movs	r3, #0
 1398 0040 2370     		strb	r3, [r4]
 513:Drivers/BSP/Components/lis2dw12/lis2dw12_reg.c ****   }
 1399              		.loc 1 513 7 is_stmt 1 view .LVU346
 516:Drivers/BSP/Components/lis2dw12/lis2dw12_reg.c **** }
 1400              		.loc 1 516 3 view .LVU347
 516:Drivers/BSP/Components/lis2dw12/lis2dw12_reg.c **** }
 1401              		.loc 1 516 10 is_stmt 0 view .LVU348
 1402 0042 F1E7     		b	.L100
 1403              		.cfi_endproc
 1404              	.LFE18:
 1406              		.section	.text.lis2dw12_status_reg_get,"ax",%progbits
 1407              		.align	1
 1408              		.global	lis2dw12_status_reg_get
 1409              		.syntax unified
 1410              		.thumb
 1411              		.thumb_func
 1412              		.fpu fpv4-sp-d16
 1414              	lis2dw12_status_reg_get:
 1415              	.LVL72:
 1416              	.LFB19:
 518:Drivers/BSP/Components/lis2dw12/lis2dw12_reg.c **** 
 519:Drivers/BSP/Components/lis2dw12/lis2dw12_reg.c **** /**
 520:Drivers/BSP/Components/lis2dw12/lis2dw12_reg.c ****   * @brief  The STATUS_REG register of the device.[get]
 521:Drivers/BSP/Components/lis2dw12/lis2dw12_reg.c ****   *
 522:Drivers/BSP/Components/lis2dw12/lis2dw12_reg.c ****   * @param  ctx      read / write interface definitions
 523:Drivers/BSP/Components/lis2dw12/lis2dw12_reg.c ****   * @param  val      union of registers from STATUS to
 524:Drivers/BSP/Components/lis2dw12/lis2dw12_reg.c ****   * @retval          interface status (MANDATORY: return 0 -> no Error)
 525:Drivers/BSP/Components/lis2dw12/lis2dw12_reg.c ****   *
 526:Drivers/BSP/Components/lis2dw12/lis2dw12_reg.c ****   */
 527:Drivers/BSP/Components/lis2dw12/lis2dw12_reg.c **** int32_t lis2dw12_status_reg_get(stmdev_ctx_t *ctx,
 528:Drivers/BSP/Components/lis2dw12/lis2dw12_reg.c ****                                 lis2dw12_status_t *val)
 529:Drivers/BSP/Components/lis2dw12/lis2dw12_reg.c **** {
 1417              		.loc 1 529 1 is_stmt 1 view -0
 1418              		.cfi_startproc
 1419              		@ args = 0, pretend = 0, frame = 0
 1420              		@ frame_needed = 0, uses_anonymous_args = 0
 1421              		.loc 1 529 1 is_stmt 0 view .LVU350
 1422 0000 08B5     		push	{r3, lr}
 1423              	.LCFI33:
 1424              		.cfi_def_cfa_offset 8
 1425              		.cfi_offset 3, -8
 1426              		.cfi_offset 14, -4
 1427 0002 0A46     		mov	r2, r1
 530:Drivers/BSP/Components/lis2dw12/lis2dw12_reg.c ****   int32_t ret;
 1428              		.loc 1 530 3 is_stmt 1 view .LVU351
 531:Drivers/BSP/Components/lis2dw12/lis2dw12_reg.c **** 
 532:Drivers/BSP/Components/lis2dw12/lis2dw12_reg.c ****   ret = lis2dw12_read_reg(ctx, LIS2DW12_STATUS, (uint8_t *) val, 1);
 1429              		.loc 1 532 3 view .LVU352
 1430              		.loc 1 532 9 is_stmt 0 view .LVU353
ARM GAS  /tmp/ccEdQILT.s 			page 38


 1431 0004 0123     		movs	r3, #1
 1432 0006 2721     		movs	r1, #39
 1433              	.LVL73:
 1434              		.loc 1 532 9 view .LVU354
 1435 0008 FFF7FEFF 		bl	lis2dw12_read_reg
 1436              	.LVL74:
 533:Drivers/BSP/Components/lis2dw12/lis2dw12_reg.c **** 
 534:Drivers/BSP/Components/lis2dw12/lis2dw12_reg.c ****   return ret;
 1437              		.loc 1 534 3 is_stmt 1 view .LVU355
 535:Drivers/BSP/Components/lis2dw12/lis2dw12_reg.c **** }
 1438              		.loc 1 535 1 is_stmt 0 view .LVU356
 1439 000c 08BD     		pop	{r3, pc}
 1440              		.cfi_endproc
 1441              	.LFE19:
 1443              		.section	.text.lis2dw12_flag_data_ready_get,"ax",%progbits
 1444              		.align	1
 1445              		.global	lis2dw12_flag_data_ready_get
 1446              		.syntax unified
 1447              		.thumb
 1448              		.thumb_func
 1449              		.fpu fpv4-sp-d16
 1451              	lis2dw12_flag_data_ready_get:
 1452              	.LVL75:
 1453              	.LFB20:
 536:Drivers/BSP/Components/lis2dw12/lis2dw12_reg.c **** 
 537:Drivers/BSP/Components/lis2dw12/lis2dw12_reg.c **** /**
 538:Drivers/BSP/Components/lis2dw12/lis2dw12_reg.c ****   * @brief  Accelerometer new data available.[get]
 539:Drivers/BSP/Components/lis2dw12/lis2dw12_reg.c ****   *
 540:Drivers/BSP/Components/lis2dw12/lis2dw12_reg.c ****   * @param  ctx      read / write interface definitions
 541:Drivers/BSP/Components/lis2dw12/lis2dw12_reg.c ****   * @param  val      change the values of drdy in reg STATUS
 542:Drivers/BSP/Components/lis2dw12/lis2dw12_reg.c ****   * @retval          interface status (MANDATORY: return 0 -> no Error)
 543:Drivers/BSP/Components/lis2dw12/lis2dw12_reg.c ****   *
 544:Drivers/BSP/Components/lis2dw12/lis2dw12_reg.c ****   */
 545:Drivers/BSP/Components/lis2dw12/lis2dw12_reg.c **** int32_t lis2dw12_flag_data_ready_get(stmdev_ctx_t *ctx, uint8_t *val)
 546:Drivers/BSP/Components/lis2dw12/lis2dw12_reg.c **** {
 1454              		.loc 1 546 1 is_stmt 1 view -0
 1455              		.cfi_startproc
 1456              		@ args = 0, pretend = 0, frame = 8
 1457              		@ frame_needed = 0, uses_anonymous_args = 0
 1458              		.loc 1 546 1 is_stmt 0 view .LVU358
 1459 0000 10B5     		push	{r4, lr}
 1460              	.LCFI34:
 1461              		.cfi_def_cfa_offset 8
 1462              		.cfi_offset 4, -8
 1463              		.cfi_offset 14, -4
 1464 0002 82B0     		sub	sp, sp, #8
 1465              	.LCFI35:
 1466              		.cfi_def_cfa_offset 16
 1467 0004 0C46     		mov	r4, r1
 547:Drivers/BSP/Components/lis2dw12/lis2dw12_reg.c ****   lis2dw12_status_t reg;
 1468              		.loc 1 547 3 is_stmt 1 view .LVU359
 548:Drivers/BSP/Components/lis2dw12/lis2dw12_reg.c ****   int32_t ret;
 1469              		.loc 1 548 3 view .LVU360
 549:Drivers/BSP/Components/lis2dw12/lis2dw12_reg.c **** 
 550:Drivers/BSP/Components/lis2dw12/lis2dw12_reg.c ****   ret = lis2dw12_read_reg(ctx, LIS2DW12_STATUS, (uint8_t *) &reg, 1);
 1470              		.loc 1 550 3 view .LVU361
 1471              		.loc 1 550 9 is_stmt 0 view .LVU362
ARM GAS  /tmp/ccEdQILT.s 			page 39


 1472 0006 0123     		movs	r3, #1
 1473 0008 01AA     		add	r2, sp, #4
 1474 000a 2721     		movs	r1, #39
 1475              	.LVL76:
 1476              		.loc 1 550 9 view .LVU363
 1477 000c FFF7FEFF 		bl	lis2dw12_read_reg
 1478              	.LVL77:
 551:Drivers/BSP/Components/lis2dw12/lis2dw12_reg.c ****   *val = reg.drdy;
 1479              		.loc 1 551 3 is_stmt 1 view .LVU364
 1480              		.loc 1 551 13 is_stmt 0 view .LVU365
 1481 0010 9DF80430 		ldrb	r3, [sp, #4]	@ zero_extendqisi2
 1482 0014 C3F30003 		ubfx	r3, r3, #0, #1
 1483              		.loc 1 551 8 view .LVU366
 1484 0018 2370     		strb	r3, [r4]
 552:Drivers/BSP/Components/lis2dw12/lis2dw12_reg.c **** 
 553:Drivers/BSP/Components/lis2dw12/lis2dw12_reg.c ****   return ret;
 1485              		.loc 1 553 3 is_stmt 1 view .LVU367
 554:Drivers/BSP/Components/lis2dw12/lis2dw12_reg.c **** }
 1486              		.loc 1 554 1 is_stmt 0 view .LVU368
 1487 001a 02B0     		add	sp, sp, #8
 1488              	.LCFI36:
 1489              		.cfi_def_cfa_offset 8
 1490              		@ sp needed
 1491 001c 10BD     		pop	{r4, pc}
 1492              		.loc 1 554 1 view .LVU369
 1493              		.cfi_endproc
 1494              	.LFE20:
 1496              		.section	.text.lis2dw12_all_sources_get,"ax",%progbits
 1497              		.align	1
 1498              		.global	lis2dw12_all_sources_get
 1499              		.syntax unified
 1500              		.thumb
 1501              		.thumb_func
 1502              		.fpu fpv4-sp-d16
 1504              	lis2dw12_all_sources_get:
 1505              	.LVL78:
 1506              	.LFB21:
 555:Drivers/BSP/Components/lis2dw12/lis2dw12_reg.c **** /**
 556:Drivers/BSP/Components/lis2dw12/lis2dw12_reg.c ****   * @brief   Read all the interrupt/status flag of the device.[get]
 557:Drivers/BSP/Components/lis2dw12/lis2dw12_reg.c ****   *
 558:Drivers/BSP/Components/lis2dw12/lis2dw12_reg.c ****   * @param  ctx      read / write interface definitions
 559:Drivers/BSP/Components/lis2dw12/lis2dw12_reg.c ****   * @param  val      registers STATUS_DUP, WAKE_UP_SRC,
 560:Drivers/BSP/Components/lis2dw12/lis2dw12_reg.c ****   *                  TAP_SRC, SIXD_SRC, ALL_INT_SRC
 561:Drivers/BSP/Components/lis2dw12/lis2dw12_reg.c ****   * @retval          interface status (MANDATORY: return 0 -> no Error)
 562:Drivers/BSP/Components/lis2dw12/lis2dw12_reg.c ****   *
 563:Drivers/BSP/Components/lis2dw12/lis2dw12_reg.c ****   */
 564:Drivers/BSP/Components/lis2dw12/lis2dw12_reg.c **** int32_t lis2dw12_all_sources_get(stmdev_ctx_t *ctx,
 565:Drivers/BSP/Components/lis2dw12/lis2dw12_reg.c ****                                  lis2dw12_all_sources_t *val)
 566:Drivers/BSP/Components/lis2dw12/lis2dw12_reg.c **** {
 1507              		.loc 1 566 1 is_stmt 1 view -0
 1508              		.cfi_startproc
 1509              		@ args = 0, pretend = 0, frame = 0
 1510              		@ frame_needed = 0, uses_anonymous_args = 0
 1511              		.loc 1 566 1 is_stmt 0 view .LVU371
 1512 0000 08B5     		push	{r3, lr}
 1513              	.LCFI37:
 1514              		.cfi_def_cfa_offset 8
ARM GAS  /tmp/ccEdQILT.s 			page 40


 1515              		.cfi_offset 3, -8
 1516              		.cfi_offset 14, -4
 1517 0002 0A46     		mov	r2, r1
 567:Drivers/BSP/Components/lis2dw12/lis2dw12_reg.c ****   int32_t ret;
 1518              		.loc 1 567 3 is_stmt 1 view .LVU372
 568:Drivers/BSP/Components/lis2dw12/lis2dw12_reg.c **** 
 569:Drivers/BSP/Components/lis2dw12/lis2dw12_reg.c ****   ret = lis2dw12_read_reg(ctx, LIS2DW12_STATUS_DUP, (uint8_t *) val, 5);
 1519              		.loc 1 569 3 view .LVU373
 1520              		.loc 1 569 9 is_stmt 0 view .LVU374
 1521 0004 0523     		movs	r3, #5
 1522 0006 3721     		movs	r1, #55
 1523              	.LVL79:
 1524              		.loc 1 569 9 view .LVU375
 1525 0008 FFF7FEFF 		bl	lis2dw12_read_reg
 1526              	.LVL80:
 570:Drivers/BSP/Components/lis2dw12/lis2dw12_reg.c **** 
 571:Drivers/BSP/Components/lis2dw12/lis2dw12_reg.c ****   return ret;
 1527              		.loc 1 571 3 is_stmt 1 view .LVU376
 572:Drivers/BSP/Components/lis2dw12/lis2dw12_reg.c **** }
 1528              		.loc 1 572 1 is_stmt 0 view .LVU377
 1529 000c 08BD     		pop	{r3, pc}
 1530              		.cfi_endproc
 1531              	.LFE21:
 1533              		.section	.text.lis2dw12_usr_offset_x_set,"ax",%progbits
 1534              		.align	1
 1535              		.global	lis2dw12_usr_offset_x_set
 1536              		.syntax unified
 1537              		.thumb
 1538              		.thumb_func
 1539              		.fpu fpv4-sp-d16
 1541              	lis2dw12_usr_offset_x_set:
 1542              	.LVL81:
 1543              	.LFB22:
 573:Drivers/BSP/Components/lis2dw12/lis2dw12_reg.c **** 
 574:Drivers/BSP/Components/lis2dw12/lis2dw12_reg.c **** /**
 575:Drivers/BSP/Components/lis2dw12/lis2dw12_reg.c ****   * @brief  Accelerometer X-axis user offset correction expressed in two's
 576:Drivers/BSP/Components/lis2dw12/lis2dw12_reg.c ****   *         complement, weight depends on bit USR_OFF_W. The value must be
 577:Drivers/BSP/Components/lis2dw12/lis2dw12_reg.c ****   *         in the range [-127 127].[set]
 578:Drivers/BSP/Components/lis2dw12/lis2dw12_reg.c ****   *
 579:Drivers/BSP/Components/lis2dw12/lis2dw12_reg.c ****   * @param  ctx      read / write interface definitions
 580:Drivers/BSP/Components/lis2dw12/lis2dw12_reg.c ****   * @param  buff     buffer that contains data to write
 581:Drivers/BSP/Components/lis2dw12/lis2dw12_reg.c ****   * @retval          interface status (MANDATORY: return 0 -> no Error)
 582:Drivers/BSP/Components/lis2dw12/lis2dw12_reg.c ****   *
 583:Drivers/BSP/Components/lis2dw12/lis2dw12_reg.c ****   */
 584:Drivers/BSP/Components/lis2dw12/lis2dw12_reg.c **** int32_t lis2dw12_usr_offset_x_set(stmdev_ctx_t *ctx, uint8_t *buff)
 585:Drivers/BSP/Components/lis2dw12/lis2dw12_reg.c **** {
 1544              		.loc 1 585 1 is_stmt 1 view -0
 1545              		.cfi_startproc
 1546              		@ args = 0, pretend = 0, frame = 0
 1547              		@ frame_needed = 0, uses_anonymous_args = 0
 1548              		.loc 1 585 1 is_stmt 0 view .LVU379
 1549 0000 08B5     		push	{r3, lr}
 1550              	.LCFI38:
 1551              		.cfi_def_cfa_offset 8
 1552              		.cfi_offset 3, -8
 1553              		.cfi_offset 14, -4
 1554 0002 0A46     		mov	r2, r1
ARM GAS  /tmp/ccEdQILT.s 			page 41


 586:Drivers/BSP/Components/lis2dw12/lis2dw12_reg.c ****   int32_t ret;
 1555              		.loc 1 586 3 is_stmt 1 view .LVU380
 587:Drivers/BSP/Components/lis2dw12/lis2dw12_reg.c **** 
 588:Drivers/BSP/Components/lis2dw12/lis2dw12_reg.c ****   ret = lis2dw12_write_reg(ctx, LIS2DW12_X_OFS_USR, buff, 1);
 1556              		.loc 1 588 3 view .LVU381
 1557              		.loc 1 588 9 is_stmt 0 view .LVU382
 1558 0004 0123     		movs	r3, #1
 1559 0006 3C21     		movs	r1, #60
 1560              	.LVL82:
 1561              		.loc 1 588 9 view .LVU383
 1562 0008 FFF7FEFF 		bl	lis2dw12_write_reg
 1563              	.LVL83:
 589:Drivers/BSP/Components/lis2dw12/lis2dw12_reg.c **** 
 590:Drivers/BSP/Components/lis2dw12/lis2dw12_reg.c ****   return ret;
 1564              		.loc 1 590 3 is_stmt 1 view .LVU384
 591:Drivers/BSP/Components/lis2dw12/lis2dw12_reg.c **** }
 1565              		.loc 1 591 1 is_stmt 0 view .LVU385
 1566 000c 08BD     		pop	{r3, pc}
 1567              		.cfi_endproc
 1568              	.LFE22:
 1570              		.section	.text.lis2dw12_usr_offset_x_get,"ax",%progbits
 1571              		.align	1
 1572              		.global	lis2dw12_usr_offset_x_get
 1573              		.syntax unified
 1574              		.thumb
 1575              		.thumb_func
 1576              		.fpu fpv4-sp-d16
 1578              	lis2dw12_usr_offset_x_get:
 1579              	.LVL84:
 1580              	.LFB23:
 592:Drivers/BSP/Components/lis2dw12/lis2dw12_reg.c **** 
 593:Drivers/BSP/Components/lis2dw12/lis2dw12_reg.c **** /**
 594:Drivers/BSP/Components/lis2dw12/lis2dw12_reg.c ****   * @brief  Accelerometer X-axis user offset correction expressed in two's
 595:Drivers/BSP/Components/lis2dw12/lis2dw12_reg.c ****   *         complement, weight depends on bit USR_OFF_W. The value must be
 596:Drivers/BSP/Components/lis2dw12/lis2dw12_reg.c ****   *         in the range [-127 127].[get]
 597:Drivers/BSP/Components/lis2dw12/lis2dw12_reg.c ****   *
 598:Drivers/BSP/Components/lis2dw12/lis2dw12_reg.c ****   * @param  ctx      read / write interface definitions
 599:Drivers/BSP/Components/lis2dw12/lis2dw12_reg.c ****   * @param  buff     buffer that stores data read
 600:Drivers/BSP/Components/lis2dw12/lis2dw12_reg.c ****   * @retval          interface status (MANDATORY: return 0 -> no Error)
 601:Drivers/BSP/Components/lis2dw12/lis2dw12_reg.c ****   *
 602:Drivers/BSP/Components/lis2dw12/lis2dw12_reg.c ****   */
 603:Drivers/BSP/Components/lis2dw12/lis2dw12_reg.c **** int32_t lis2dw12_usr_offset_x_get(stmdev_ctx_t *ctx, uint8_t *buff)
 604:Drivers/BSP/Components/lis2dw12/lis2dw12_reg.c **** {
 1581              		.loc 1 604 1 is_stmt 1 view -0
 1582              		.cfi_startproc
 1583              		@ args = 0, pretend = 0, frame = 0
 1584              		@ frame_needed = 0, uses_anonymous_args = 0
 1585              		.loc 1 604 1 is_stmt 0 view .LVU387
 1586 0000 08B5     		push	{r3, lr}
 1587              	.LCFI39:
 1588              		.cfi_def_cfa_offset 8
 1589              		.cfi_offset 3, -8
 1590              		.cfi_offset 14, -4
 1591 0002 0A46     		mov	r2, r1
 605:Drivers/BSP/Components/lis2dw12/lis2dw12_reg.c ****   int32_t ret;
 1592              		.loc 1 605 3 is_stmt 1 view .LVU388
 606:Drivers/BSP/Components/lis2dw12/lis2dw12_reg.c **** 
ARM GAS  /tmp/ccEdQILT.s 			page 42


 607:Drivers/BSP/Components/lis2dw12/lis2dw12_reg.c ****   ret = lis2dw12_read_reg(ctx, LIS2DW12_X_OFS_USR, buff, 1);
 1593              		.loc 1 607 3 view .LVU389
 1594              		.loc 1 607 9 is_stmt 0 view .LVU390
 1595 0004 0123     		movs	r3, #1
 1596 0006 3C21     		movs	r1, #60
 1597              	.LVL85:
 1598              		.loc 1 607 9 view .LVU391
 1599 0008 FFF7FEFF 		bl	lis2dw12_read_reg
 1600              	.LVL86:
 608:Drivers/BSP/Components/lis2dw12/lis2dw12_reg.c **** 
 609:Drivers/BSP/Components/lis2dw12/lis2dw12_reg.c ****   return ret;
 1601              		.loc 1 609 3 is_stmt 1 view .LVU392
 610:Drivers/BSP/Components/lis2dw12/lis2dw12_reg.c **** }
 1602              		.loc 1 610 1 is_stmt 0 view .LVU393
 1603 000c 08BD     		pop	{r3, pc}
 1604              		.cfi_endproc
 1605              	.LFE23:
 1607              		.section	.text.lis2dw12_usr_offset_y_set,"ax",%progbits
 1608              		.align	1
 1609              		.global	lis2dw12_usr_offset_y_set
 1610              		.syntax unified
 1611              		.thumb
 1612              		.thumb_func
 1613              		.fpu fpv4-sp-d16
 1615              	lis2dw12_usr_offset_y_set:
 1616              	.LVL87:
 1617              	.LFB24:
 611:Drivers/BSP/Components/lis2dw12/lis2dw12_reg.c **** 
 612:Drivers/BSP/Components/lis2dw12/lis2dw12_reg.c **** /**
 613:Drivers/BSP/Components/lis2dw12/lis2dw12_reg.c ****   * @brief  Accelerometer Y-axis user offset correction expressed in two's
 614:Drivers/BSP/Components/lis2dw12/lis2dw12_reg.c ****   *         complement, weight depends on bit USR_OFF_W. The value must be
 615:Drivers/BSP/Components/lis2dw12/lis2dw12_reg.c ****   *         in the range [-127 127].[set]
 616:Drivers/BSP/Components/lis2dw12/lis2dw12_reg.c ****   *
 617:Drivers/BSP/Components/lis2dw12/lis2dw12_reg.c ****   * @param  ctx      read / write interface definitions
 618:Drivers/BSP/Components/lis2dw12/lis2dw12_reg.c ****   * @param  buff     buffer that contains data to write
 619:Drivers/BSP/Components/lis2dw12/lis2dw12_reg.c ****   * @retval          interface status (MANDATORY: return 0 -> no Error)
 620:Drivers/BSP/Components/lis2dw12/lis2dw12_reg.c ****   *
 621:Drivers/BSP/Components/lis2dw12/lis2dw12_reg.c ****   */
 622:Drivers/BSP/Components/lis2dw12/lis2dw12_reg.c **** int32_t lis2dw12_usr_offset_y_set(stmdev_ctx_t *ctx, uint8_t *buff)
 623:Drivers/BSP/Components/lis2dw12/lis2dw12_reg.c **** {
 1618              		.loc 1 623 1 is_stmt 1 view -0
 1619              		.cfi_startproc
 1620              		@ args = 0, pretend = 0, frame = 0
 1621              		@ frame_needed = 0, uses_anonymous_args = 0
 1622              		.loc 1 623 1 is_stmt 0 view .LVU395
 1623 0000 08B5     		push	{r3, lr}
 1624              	.LCFI40:
 1625              		.cfi_def_cfa_offset 8
 1626              		.cfi_offset 3, -8
 1627              		.cfi_offset 14, -4
 1628 0002 0A46     		mov	r2, r1
 624:Drivers/BSP/Components/lis2dw12/lis2dw12_reg.c ****   int32_t ret;
 1629              		.loc 1 624 3 is_stmt 1 view .LVU396
 625:Drivers/BSP/Components/lis2dw12/lis2dw12_reg.c **** 
 626:Drivers/BSP/Components/lis2dw12/lis2dw12_reg.c ****   ret = lis2dw12_write_reg(ctx, LIS2DW12_Y_OFS_USR, buff, 1);
 1630              		.loc 1 626 3 view .LVU397
 1631              		.loc 1 626 9 is_stmt 0 view .LVU398
ARM GAS  /tmp/ccEdQILT.s 			page 43


 1632 0004 0123     		movs	r3, #1
 1633 0006 3D21     		movs	r1, #61
 1634              	.LVL88:
 1635              		.loc 1 626 9 view .LVU399
 1636 0008 FFF7FEFF 		bl	lis2dw12_write_reg
 1637              	.LVL89:
 627:Drivers/BSP/Components/lis2dw12/lis2dw12_reg.c **** 
 628:Drivers/BSP/Components/lis2dw12/lis2dw12_reg.c ****   return ret;
 1638              		.loc 1 628 3 is_stmt 1 view .LVU400
 629:Drivers/BSP/Components/lis2dw12/lis2dw12_reg.c **** }
 1639              		.loc 1 629 1 is_stmt 0 view .LVU401
 1640 000c 08BD     		pop	{r3, pc}
 1641              		.cfi_endproc
 1642              	.LFE24:
 1644              		.section	.text.lis2dw12_usr_offset_y_get,"ax",%progbits
 1645              		.align	1
 1646              		.global	lis2dw12_usr_offset_y_get
 1647              		.syntax unified
 1648              		.thumb
 1649              		.thumb_func
 1650              		.fpu fpv4-sp-d16
 1652              	lis2dw12_usr_offset_y_get:
 1653              	.LVL90:
 1654              	.LFB25:
 630:Drivers/BSP/Components/lis2dw12/lis2dw12_reg.c **** 
 631:Drivers/BSP/Components/lis2dw12/lis2dw12_reg.c **** /**
 632:Drivers/BSP/Components/lis2dw12/lis2dw12_reg.c ****   * @brief  Accelerometer Y-axis user offset correction expressed in two's
 633:Drivers/BSP/Components/lis2dw12/lis2dw12_reg.c ****   *         complement, weight depends on bit USR_OFF_W. The value must be
 634:Drivers/BSP/Components/lis2dw12/lis2dw12_reg.c ****   *         in the range [-127 127].[get]
 635:Drivers/BSP/Components/lis2dw12/lis2dw12_reg.c ****   *
 636:Drivers/BSP/Components/lis2dw12/lis2dw12_reg.c ****   * @param  ctx      read / write interface definitions
 637:Drivers/BSP/Components/lis2dw12/lis2dw12_reg.c ****   * @param  buff     buffer that stores data read
 638:Drivers/BSP/Components/lis2dw12/lis2dw12_reg.c ****   * @retval          interface status (MANDATORY: return 0 -> no Error)
 639:Drivers/BSP/Components/lis2dw12/lis2dw12_reg.c ****   *
 640:Drivers/BSP/Components/lis2dw12/lis2dw12_reg.c ****   */
 641:Drivers/BSP/Components/lis2dw12/lis2dw12_reg.c **** int32_t lis2dw12_usr_offset_y_get(stmdev_ctx_t *ctx, uint8_t *buff)
 642:Drivers/BSP/Components/lis2dw12/lis2dw12_reg.c **** {
 1655              		.loc 1 642 1 is_stmt 1 view -0
 1656              		.cfi_startproc
 1657              		@ args = 0, pretend = 0, frame = 0
 1658              		@ frame_needed = 0, uses_anonymous_args = 0
 1659              		.loc 1 642 1 is_stmt 0 view .LVU403
 1660 0000 08B5     		push	{r3, lr}
 1661              	.LCFI41:
 1662              		.cfi_def_cfa_offset 8
 1663              		.cfi_offset 3, -8
 1664              		.cfi_offset 14, -4
 1665 0002 0A46     		mov	r2, r1
 643:Drivers/BSP/Components/lis2dw12/lis2dw12_reg.c ****   int32_t ret;
 1666              		.loc 1 643 3 is_stmt 1 view .LVU404
 644:Drivers/BSP/Components/lis2dw12/lis2dw12_reg.c **** 
 645:Drivers/BSP/Components/lis2dw12/lis2dw12_reg.c ****   ret = lis2dw12_read_reg(ctx, LIS2DW12_Y_OFS_USR, buff, 1);
 1667              		.loc 1 645 3 view .LVU405
 1668              		.loc 1 645 9 is_stmt 0 view .LVU406
 1669 0004 0123     		movs	r3, #1
 1670 0006 3D21     		movs	r1, #61
 1671              	.LVL91:
ARM GAS  /tmp/ccEdQILT.s 			page 44


 1672              		.loc 1 645 9 view .LVU407
 1673 0008 FFF7FEFF 		bl	lis2dw12_read_reg
 1674              	.LVL92:
 646:Drivers/BSP/Components/lis2dw12/lis2dw12_reg.c **** 
 647:Drivers/BSP/Components/lis2dw12/lis2dw12_reg.c ****   return ret;
 1675              		.loc 1 647 3 is_stmt 1 view .LVU408
 648:Drivers/BSP/Components/lis2dw12/lis2dw12_reg.c **** }
 1676              		.loc 1 648 1 is_stmt 0 view .LVU409
 1677 000c 08BD     		pop	{r3, pc}
 1678              		.cfi_endproc
 1679              	.LFE25:
 1681              		.section	.text.lis2dw12_usr_offset_z_set,"ax",%progbits
 1682              		.align	1
 1683              		.global	lis2dw12_usr_offset_z_set
 1684              		.syntax unified
 1685              		.thumb
 1686              		.thumb_func
 1687              		.fpu fpv4-sp-d16
 1689              	lis2dw12_usr_offset_z_set:
 1690              	.LVL93:
 1691              	.LFB26:
 649:Drivers/BSP/Components/lis2dw12/lis2dw12_reg.c **** 
 650:Drivers/BSP/Components/lis2dw12/lis2dw12_reg.c **** /**
 651:Drivers/BSP/Components/lis2dw12/lis2dw12_reg.c ****   * @brief  Accelerometer Z-axis user offset correction expressed in two's
 652:Drivers/BSP/Components/lis2dw12/lis2dw12_reg.c ****   *         complement, weight depends on bit USR_OFF_W. The value must be
 653:Drivers/BSP/Components/lis2dw12/lis2dw12_reg.c ****   *         in the range [-127 127].[set]
 654:Drivers/BSP/Components/lis2dw12/lis2dw12_reg.c ****   *
 655:Drivers/BSP/Components/lis2dw12/lis2dw12_reg.c ****   * @param  ctx      read / write interface definitions
 656:Drivers/BSP/Components/lis2dw12/lis2dw12_reg.c ****   * @param  buff     buffer that contains data to write
 657:Drivers/BSP/Components/lis2dw12/lis2dw12_reg.c ****   * @retval          interface status (MANDATORY: return 0 -> no Error)
 658:Drivers/BSP/Components/lis2dw12/lis2dw12_reg.c ****   *
 659:Drivers/BSP/Components/lis2dw12/lis2dw12_reg.c ****   */
 660:Drivers/BSP/Components/lis2dw12/lis2dw12_reg.c **** int32_t lis2dw12_usr_offset_z_set(stmdev_ctx_t *ctx, uint8_t *buff)
 661:Drivers/BSP/Components/lis2dw12/lis2dw12_reg.c **** {
 1692              		.loc 1 661 1 is_stmt 1 view -0
 1693              		.cfi_startproc
 1694              		@ args = 0, pretend = 0, frame = 0
 1695              		@ frame_needed = 0, uses_anonymous_args = 0
 1696              		.loc 1 661 1 is_stmt 0 view .LVU411
 1697 0000 08B5     		push	{r3, lr}
 1698              	.LCFI42:
 1699              		.cfi_def_cfa_offset 8
 1700              		.cfi_offset 3, -8
 1701              		.cfi_offset 14, -4
 1702 0002 0A46     		mov	r2, r1
 662:Drivers/BSP/Components/lis2dw12/lis2dw12_reg.c ****   int32_t ret;
 1703              		.loc 1 662 3 is_stmt 1 view .LVU412
 663:Drivers/BSP/Components/lis2dw12/lis2dw12_reg.c **** 
 664:Drivers/BSP/Components/lis2dw12/lis2dw12_reg.c ****   ret = lis2dw12_write_reg(ctx, LIS2DW12_Z_OFS_USR, buff, 1);
 1704              		.loc 1 664 3 view .LVU413
 1705              		.loc 1 664 9 is_stmt 0 view .LVU414
 1706 0004 0123     		movs	r3, #1
 1707 0006 3E21     		movs	r1, #62
 1708              	.LVL94:
 1709              		.loc 1 664 9 view .LVU415
 1710 0008 FFF7FEFF 		bl	lis2dw12_write_reg
 1711              	.LVL95:
ARM GAS  /tmp/ccEdQILT.s 			page 45


 665:Drivers/BSP/Components/lis2dw12/lis2dw12_reg.c **** 
 666:Drivers/BSP/Components/lis2dw12/lis2dw12_reg.c ****   return ret;
 1712              		.loc 1 666 3 is_stmt 1 view .LVU416
 667:Drivers/BSP/Components/lis2dw12/lis2dw12_reg.c **** }
 1713              		.loc 1 667 1 is_stmt 0 view .LVU417
 1714 000c 08BD     		pop	{r3, pc}
 1715              		.cfi_endproc
 1716              	.LFE26:
 1718              		.section	.text.lis2dw12_usr_offset_z_get,"ax",%progbits
 1719              		.align	1
 1720              		.global	lis2dw12_usr_offset_z_get
 1721              		.syntax unified
 1722              		.thumb
 1723              		.thumb_func
 1724              		.fpu fpv4-sp-d16
 1726              	lis2dw12_usr_offset_z_get:
 1727              	.LVL96:
 1728              	.LFB27:
 668:Drivers/BSP/Components/lis2dw12/lis2dw12_reg.c **** 
 669:Drivers/BSP/Components/lis2dw12/lis2dw12_reg.c **** /**
 670:Drivers/BSP/Components/lis2dw12/lis2dw12_reg.c ****   * @brief  Accelerometer Z-axis user offset correction expressed in two's
 671:Drivers/BSP/Components/lis2dw12/lis2dw12_reg.c ****   *         complement, weight depends on bit USR_OFF_W. The value must be
 672:Drivers/BSP/Components/lis2dw12/lis2dw12_reg.c ****   *         in the range [-127 127].[get]
 673:Drivers/BSP/Components/lis2dw12/lis2dw12_reg.c ****   *
 674:Drivers/BSP/Components/lis2dw12/lis2dw12_reg.c ****   * @param  ctx      read / write interface definitions
 675:Drivers/BSP/Components/lis2dw12/lis2dw12_reg.c ****   * @param  buff     buffer that stores data read
 676:Drivers/BSP/Components/lis2dw12/lis2dw12_reg.c ****   * @retval          interface status (MANDATORY: return 0 -> no Error)
 677:Drivers/BSP/Components/lis2dw12/lis2dw12_reg.c ****   *
 678:Drivers/BSP/Components/lis2dw12/lis2dw12_reg.c ****   */
 679:Drivers/BSP/Components/lis2dw12/lis2dw12_reg.c **** int32_t lis2dw12_usr_offset_z_get(stmdev_ctx_t *ctx, uint8_t *buff)
 680:Drivers/BSP/Components/lis2dw12/lis2dw12_reg.c **** {
 1729              		.loc 1 680 1 is_stmt 1 view -0
 1730              		.cfi_startproc
 1731              		@ args = 0, pretend = 0, frame = 0
 1732              		@ frame_needed = 0, uses_anonymous_args = 0
 1733              		.loc 1 680 1 is_stmt 0 view .LVU419
 1734 0000 08B5     		push	{r3, lr}
 1735              	.LCFI43:
 1736              		.cfi_def_cfa_offset 8
 1737              		.cfi_offset 3, -8
 1738              		.cfi_offset 14, -4
 1739 0002 0A46     		mov	r2, r1
 681:Drivers/BSP/Components/lis2dw12/lis2dw12_reg.c ****   int32_t ret;
 1740              		.loc 1 681 3 is_stmt 1 view .LVU420
 682:Drivers/BSP/Components/lis2dw12/lis2dw12_reg.c **** 
 683:Drivers/BSP/Components/lis2dw12/lis2dw12_reg.c ****   ret = lis2dw12_read_reg(ctx, LIS2DW12_Z_OFS_USR, buff, 1);
 1741              		.loc 1 683 3 view .LVU421
 1742              		.loc 1 683 9 is_stmt 0 view .LVU422
 1743 0004 0123     		movs	r3, #1
 1744 0006 3E21     		movs	r1, #62
 1745              	.LVL97:
 1746              		.loc 1 683 9 view .LVU423
 1747 0008 FFF7FEFF 		bl	lis2dw12_read_reg
 1748              	.LVL98:
 684:Drivers/BSP/Components/lis2dw12/lis2dw12_reg.c **** 
 685:Drivers/BSP/Components/lis2dw12/lis2dw12_reg.c ****   return ret;
 1749              		.loc 1 685 3 is_stmt 1 view .LVU424
ARM GAS  /tmp/ccEdQILT.s 			page 46


 686:Drivers/BSP/Components/lis2dw12/lis2dw12_reg.c **** }
 1750              		.loc 1 686 1 is_stmt 0 view .LVU425
 1751 000c 08BD     		pop	{r3, pc}
 1752              		.cfi_endproc
 1753              	.LFE27:
 1755              		.section	.text.lis2dw12_offset_weight_set,"ax",%progbits
 1756              		.align	1
 1757              		.global	lis2dw12_offset_weight_set
 1758              		.syntax unified
 1759              		.thumb
 1760              		.thumb_func
 1761              		.fpu fpv4-sp-d16
 1763              	lis2dw12_offset_weight_set:
 1764              	.LVL99:
 1765              	.LFB28:
 687:Drivers/BSP/Components/lis2dw12/lis2dw12_reg.c **** 
 688:Drivers/BSP/Components/lis2dw12/lis2dw12_reg.c **** /**
 689:Drivers/BSP/Components/lis2dw12/lis2dw12_reg.c ****   * @brief  Weight of XL user offset bits of registers X_OFS_USR,
 690:Drivers/BSP/Components/lis2dw12/lis2dw12_reg.c ****   *         Y_OFS_USR, Z_OFS_USR.[set]
 691:Drivers/BSP/Components/lis2dw12/lis2dw12_reg.c ****   *
 692:Drivers/BSP/Components/lis2dw12/lis2dw12_reg.c ****   * @param  ctx      read / write interface definitions
 693:Drivers/BSP/Components/lis2dw12/lis2dw12_reg.c ****   * @param  val      change the values of usr_off_w in
 694:Drivers/BSP/Components/lis2dw12/lis2dw12_reg.c ****   *                               reg CTRL_REG7
 695:Drivers/BSP/Components/lis2dw12/lis2dw12_reg.c ****   * @retval          interface status (MANDATORY: return 0 -> no Error)
 696:Drivers/BSP/Components/lis2dw12/lis2dw12_reg.c ****   *
 697:Drivers/BSP/Components/lis2dw12/lis2dw12_reg.c ****   */
 698:Drivers/BSP/Components/lis2dw12/lis2dw12_reg.c **** int32_t lis2dw12_offset_weight_set(stmdev_ctx_t *ctx,
 699:Drivers/BSP/Components/lis2dw12/lis2dw12_reg.c ****                                    lis2dw12_usr_off_w_t val)
 700:Drivers/BSP/Components/lis2dw12/lis2dw12_reg.c **** {
 1766              		.loc 1 700 1 is_stmt 1 view -0
 1767              		.cfi_startproc
 1768              		@ args = 0, pretend = 0, frame = 8
 1769              		@ frame_needed = 0, uses_anonymous_args = 0
 1770              		.loc 1 700 1 is_stmt 0 view .LVU427
 1771 0000 30B5     		push	{r4, r5, lr}
 1772              	.LCFI44:
 1773              		.cfi_def_cfa_offset 12
 1774              		.cfi_offset 4, -12
 1775              		.cfi_offset 5, -8
 1776              		.cfi_offset 14, -4
 1777 0002 83B0     		sub	sp, sp, #12
 1778              	.LCFI45:
 1779              		.cfi_def_cfa_offset 24
 1780 0004 0446     		mov	r4, r0
 1781 0006 0D46     		mov	r5, r1
 701:Drivers/BSP/Components/lis2dw12/lis2dw12_reg.c ****   lis2dw12_ctrl_reg7_t reg;
 1782              		.loc 1 701 3 is_stmt 1 view .LVU428
 702:Drivers/BSP/Components/lis2dw12/lis2dw12_reg.c ****   int32_t ret;
 1783              		.loc 1 702 3 view .LVU429
 703:Drivers/BSP/Components/lis2dw12/lis2dw12_reg.c **** 
 704:Drivers/BSP/Components/lis2dw12/lis2dw12_reg.c ****   ret = lis2dw12_read_reg(ctx, LIS2DW12_CTRL_REG7, (uint8_t *) &reg, 1);
 1784              		.loc 1 704 3 view .LVU430
 1785              		.loc 1 704 9 is_stmt 0 view .LVU431
 1786 0008 0123     		movs	r3, #1
 1787 000a 01AA     		add	r2, sp, #4
 1788 000c 3F21     		movs	r1, #63
 1789              	.LVL100:
ARM GAS  /tmp/ccEdQILT.s 			page 47


 1790              		.loc 1 704 9 view .LVU432
 1791 000e FFF7FEFF 		bl	lis2dw12_read_reg
 1792              	.LVL101:
 705:Drivers/BSP/Components/lis2dw12/lis2dw12_reg.c **** 
 706:Drivers/BSP/Components/lis2dw12/lis2dw12_reg.c ****   if (ret == 0)
 1793              		.loc 1 706 3 is_stmt 1 view .LVU433
 1794              		.loc 1 706 6 is_stmt 0 view .LVU434
 1795 0012 08B1     		cbz	r0, .L130
 1796              	.LVL102:
 1797              	.L127:
 707:Drivers/BSP/Components/lis2dw12/lis2dw12_reg.c ****   {
 708:Drivers/BSP/Components/lis2dw12/lis2dw12_reg.c ****     reg.usr_off_w = (uint8_t) val;
 709:Drivers/BSP/Components/lis2dw12/lis2dw12_reg.c ****     ret = lis2dw12_write_reg(ctx, LIS2DW12_CTRL_REG7, (uint8_t *) &reg, 1);
 710:Drivers/BSP/Components/lis2dw12/lis2dw12_reg.c ****   }
 711:Drivers/BSP/Components/lis2dw12/lis2dw12_reg.c **** 
 712:Drivers/BSP/Components/lis2dw12/lis2dw12_reg.c ****   return ret;
 713:Drivers/BSP/Components/lis2dw12/lis2dw12_reg.c **** }
 1798              		.loc 1 713 1 view .LVU435
 1799 0014 03B0     		add	sp, sp, #12
 1800              	.LCFI46:
 1801              		.cfi_remember_state
 1802              		.cfi_def_cfa_offset 12
 1803              		@ sp needed
 1804 0016 30BD     		pop	{r4, r5, pc}
 1805              	.LVL103:
 1806              	.L130:
 1807              	.LCFI47:
 1808              		.cfi_restore_state
 708:Drivers/BSP/Components/lis2dw12/lis2dw12_reg.c ****     ret = lis2dw12_write_reg(ctx, LIS2DW12_CTRL_REG7, (uint8_t *) &reg, 1);
 1809              		.loc 1 708 5 is_stmt 1 view .LVU436
 708:Drivers/BSP/Components/lis2dw12/lis2dw12_reg.c ****     ret = lis2dw12_write_reg(ctx, LIS2DW12_CTRL_REG7, (uint8_t *) &reg, 1);
 1810              		.loc 1 708 19 is_stmt 0 view .LVU437
 1811 0018 9DF80430 		ldrb	r3, [sp, #4]	@ zero_extendqisi2
 1812 001c 65F38203 		bfi	r3, r5, #2, #1
 1813 0020 8DF80430 		strb	r3, [sp, #4]
 709:Drivers/BSP/Components/lis2dw12/lis2dw12_reg.c ****   }
 1814              		.loc 1 709 5 is_stmt 1 view .LVU438
 709:Drivers/BSP/Components/lis2dw12/lis2dw12_reg.c ****   }
 1815              		.loc 1 709 11 is_stmt 0 view .LVU439
 1816 0024 0123     		movs	r3, #1
 1817              	.LVL104:
 709:Drivers/BSP/Components/lis2dw12/lis2dw12_reg.c ****   }
 1818              		.loc 1 709 11 view .LVU440
 1819 0026 01AA     		add	r2, sp, #4
 1820 0028 3F21     		movs	r1, #63
 1821 002a 2046     		mov	r0, r4
 1822 002c FFF7FEFF 		bl	lis2dw12_write_reg
 1823              	.LVL105:
 712:Drivers/BSP/Components/lis2dw12/lis2dw12_reg.c **** }
 1824              		.loc 1 712 3 is_stmt 1 view .LVU441
 712:Drivers/BSP/Components/lis2dw12/lis2dw12_reg.c **** }
 1825              		.loc 1 712 10 is_stmt 0 view .LVU442
 1826 0030 F0E7     		b	.L127
 1827              		.cfi_endproc
 1828              	.LFE28:
 1830              		.section	.text.lis2dw12_offset_weight_get,"ax",%progbits
 1831              		.align	1
ARM GAS  /tmp/ccEdQILT.s 			page 48


 1832              		.global	lis2dw12_offset_weight_get
 1833              		.syntax unified
 1834              		.thumb
 1835              		.thumb_func
 1836              		.fpu fpv4-sp-d16
 1838              	lis2dw12_offset_weight_get:
 1839              	.LVL106:
 1840              	.LFB29:
 714:Drivers/BSP/Components/lis2dw12/lis2dw12_reg.c **** 
 715:Drivers/BSP/Components/lis2dw12/lis2dw12_reg.c **** /**
 716:Drivers/BSP/Components/lis2dw12/lis2dw12_reg.c ****   * @brief  Weight of XL user offset bits of registers X_OFS_USR,
 717:Drivers/BSP/Components/lis2dw12/lis2dw12_reg.c ****   *         Y_OFS_USR, Z_OFS_USR.[get]
 718:Drivers/BSP/Components/lis2dw12/lis2dw12_reg.c ****   *
 719:Drivers/BSP/Components/lis2dw12/lis2dw12_reg.c ****   * @param  ctx      read / write interface definitions
 720:Drivers/BSP/Components/lis2dw12/lis2dw12_reg.c ****   * @param  val      Get the values of usr_off_w in reg CTRL_REG7
 721:Drivers/BSP/Components/lis2dw12/lis2dw12_reg.c ****   * @retval          interface status (MANDATORY: return 0 -> no Error)
 722:Drivers/BSP/Components/lis2dw12/lis2dw12_reg.c ****   *
 723:Drivers/BSP/Components/lis2dw12/lis2dw12_reg.c ****   */
 724:Drivers/BSP/Components/lis2dw12/lis2dw12_reg.c **** int32_t lis2dw12_offset_weight_get(stmdev_ctx_t *ctx,
 725:Drivers/BSP/Components/lis2dw12/lis2dw12_reg.c ****                                    lis2dw12_usr_off_w_t *val)
 726:Drivers/BSP/Components/lis2dw12/lis2dw12_reg.c **** {
 1841              		.loc 1 726 1 is_stmt 1 view -0
 1842              		.cfi_startproc
 1843              		@ args = 0, pretend = 0, frame = 8
 1844              		@ frame_needed = 0, uses_anonymous_args = 0
 1845              		.loc 1 726 1 is_stmt 0 view .LVU444
 1846 0000 10B5     		push	{r4, lr}
 1847              	.LCFI48:
 1848              		.cfi_def_cfa_offset 8
 1849              		.cfi_offset 4, -8
 1850              		.cfi_offset 14, -4
 1851 0002 82B0     		sub	sp, sp, #8
 1852              	.LCFI49:
 1853              		.cfi_def_cfa_offset 16
 1854 0004 0C46     		mov	r4, r1
 727:Drivers/BSP/Components/lis2dw12/lis2dw12_reg.c ****   lis2dw12_ctrl_reg7_t reg;
 1855              		.loc 1 727 3 is_stmt 1 view .LVU445
 728:Drivers/BSP/Components/lis2dw12/lis2dw12_reg.c ****   int32_t ret;
 1856              		.loc 1 728 3 view .LVU446
 729:Drivers/BSP/Components/lis2dw12/lis2dw12_reg.c **** 
 730:Drivers/BSP/Components/lis2dw12/lis2dw12_reg.c ****   ret = lis2dw12_read_reg(ctx, LIS2DW12_CTRL_REG7, (uint8_t *) &reg, 1);
 1857              		.loc 1 730 3 view .LVU447
 1858              		.loc 1 730 9 is_stmt 0 view .LVU448
 1859 0006 0123     		movs	r3, #1
 1860 0008 01AA     		add	r2, sp, #4
 1861 000a 3F21     		movs	r1, #63
 1862              	.LVL107:
 1863              		.loc 1 730 9 view .LVU449
 1864 000c FFF7FEFF 		bl	lis2dw12_read_reg
 1865              	.LVL108:
 731:Drivers/BSP/Components/lis2dw12/lis2dw12_reg.c **** 
 732:Drivers/BSP/Components/lis2dw12/lis2dw12_reg.c ****   switch (reg.usr_off_w)
 1866              		.loc 1 732 3 is_stmt 1 view .LVU450
 1867              		.loc 1 732 14 is_stmt 0 view .LVU451
 1868 0010 9DF80430 		ldrb	r3, [sp, #4]	@ zero_extendqisi2
 1869 0014 C3F38002 		ubfx	r2, r3, #2, #1
 1870              		.loc 1 732 3 view .LVU452
ARM GAS  /tmp/ccEdQILT.s 			page 49


 1871 0018 13F0040F 		tst	r3, #4
 1872 001c 03D0     		beq	.L132
 1873 001e 32B9     		cbnz	r2, .L133
 733:Drivers/BSP/Components/lis2dw12/lis2dw12_reg.c ****   {
 734:Drivers/BSP/Components/lis2dw12/lis2dw12_reg.c ****     case LIS2DW12_LSb_977ug:
 735:Drivers/BSP/Components/lis2dw12/lis2dw12_reg.c ****       *val = LIS2DW12_LSb_977ug;
 736:Drivers/BSP/Components/lis2dw12/lis2dw12_reg.c ****       break;
 737:Drivers/BSP/Components/lis2dw12/lis2dw12_reg.c **** 
 738:Drivers/BSP/Components/lis2dw12/lis2dw12_reg.c ****     case LIS2DW12_LSb_15mg6:
 739:Drivers/BSP/Components/lis2dw12/lis2dw12_reg.c ****       *val = LIS2DW12_LSb_15mg6;
 740:Drivers/BSP/Components/lis2dw12/lis2dw12_reg.c ****       break;
 741:Drivers/BSP/Components/lis2dw12/lis2dw12_reg.c **** 
 742:Drivers/BSP/Components/lis2dw12/lis2dw12_reg.c ****     default:
 743:Drivers/BSP/Components/lis2dw12/lis2dw12_reg.c ****       *val = LIS2DW12_LSb_977ug;
 1874              		.loc 1 743 7 is_stmt 1 view .LVU453
 1875              		.loc 1 743 12 is_stmt 0 view .LVU454
 1876 0020 0023     		movs	r3, #0
 1877 0022 2370     		strb	r3, [r4]
 744:Drivers/BSP/Components/lis2dw12/lis2dw12_reg.c ****       break;
 1878              		.loc 1 744 7 is_stmt 1 view .LVU455
 745:Drivers/BSP/Components/lis2dw12/lis2dw12_reg.c ****   }
 746:Drivers/BSP/Components/lis2dw12/lis2dw12_reg.c **** 
 747:Drivers/BSP/Components/lis2dw12/lis2dw12_reg.c ****   return ret;
 1879              		.loc 1 747 3 view .LVU456
 1880              		.loc 1 747 10 is_stmt 0 view .LVU457
 1881 0024 01E0     		b	.L131
 1882              	.L132:
 735:Drivers/BSP/Components/lis2dw12/lis2dw12_reg.c ****       break;
 1883              		.loc 1 735 7 is_stmt 1 view .LVU458
 735:Drivers/BSP/Components/lis2dw12/lis2dw12_reg.c ****       break;
 1884              		.loc 1 735 12 is_stmt 0 view .LVU459
 1885 0026 0023     		movs	r3, #0
 1886 0028 2370     		strb	r3, [r4]
 736:Drivers/BSP/Components/lis2dw12/lis2dw12_reg.c **** 
 1887              		.loc 1 736 7 is_stmt 1 view .LVU460
 1888              	.L131:
 748:Drivers/BSP/Components/lis2dw12/lis2dw12_reg.c **** }
 1889              		.loc 1 748 1 is_stmt 0 view .LVU461
 1890 002a 02B0     		add	sp, sp, #8
 1891              	.LCFI50:
 1892              		.cfi_remember_state
 1893              		.cfi_def_cfa_offset 8
 1894              		@ sp needed
 1895 002c 10BD     		pop	{r4, pc}
 1896              	.LVL109:
 1897              	.L133:
 1898              	.LCFI51:
 1899              		.cfi_restore_state
 739:Drivers/BSP/Components/lis2dw12/lis2dw12_reg.c ****       break;
 1900              		.loc 1 739 7 is_stmt 1 view .LVU462
 739:Drivers/BSP/Components/lis2dw12/lis2dw12_reg.c ****       break;
 1901              		.loc 1 739 12 is_stmt 0 view .LVU463
 1902 002e 0123     		movs	r3, #1
 1903 0030 2370     		strb	r3, [r4]
 740:Drivers/BSP/Components/lis2dw12/lis2dw12_reg.c **** 
 1904              		.loc 1 740 7 is_stmt 1 view .LVU464
 1905 0032 FAE7     		b	.L131
ARM GAS  /tmp/ccEdQILT.s 			page 50


 1906              		.cfi_endproc
 1907              	.LFE29:
 1909              		.section	.text.lis2dw12_temperature_raw_get,"ax",%progbits
 1910              		.align	1
 1911              		.global	lis2dw12_temperature_raw_get
 1912              		.syntax unified
 1913              		.thumb
 1914              		.thumb_func
 1915              		.fpu fpv4-sp-d16
 1917              	lis2dw12_temperature_raw_get:
 1918              	.LVL110:
 1919              	.LFB30:
 749:Drivers/BSP/Components/lis2dw12/lis2dw12_reg.c **** 
 750:Drivers/BSP/Components/lis2dw12/lis2dw12_reg.c **** /**
 751:Drivers/BSP/Components/lis2dw12/lis2dw12_reg.c ****   * @}
 752:Drivers/BSP/Components/lis2dw12/lis2dw12_reg.c ****   *
 753:Drivers/BSP/Components/lis2dw12/lis2dw12_reg.c ****   */
 754:Drivers/BSP/Components/lis2dw12/lis2dw12_reg.c **** 
 755:Drivers/BSP/Components/lis2dw12/lis2dw12_reg.c **** /**
 756:Drivers/BSP/Components/lis2dw12/lis2dw12_reg.c ****   * @defgroup  LIS2DW12_Data_Output
 757:Drivers/BSP/Components/lis2dw12/lis2dw12_reg.c ****   * @brief     This section groups all the data output functions.
 758:Drivers/BSP/Components/lis2dw12/lis2dw12_reg.c ****   * @{
 759:Drivers/BSP/Components/lis2dw12/lis2dw12_reg.c ****   *
 760:Drivers/BSP/Components/lis2dw12/lis2dw12_reg.c ****   */
 761:Drivers/BSP/Components/lis2dw12/lis2dw12_reg.c **** 
 762:Drivers/BSP/Components/lis2dw12/lis2dw12_reg.c **** /**
 763:Drivers/BSP/Components/lis2dw12/lis2dw12_reg.c ****   * @brief  Temperature data output register (r). L and H registers
 764:Drivers/BSP/Components/lis2dw12/lis2dw12_reg.c ****   *         together express a 16-bit word in two's complement.[get]
 765:Drivers/BSP/Components/lis2dw12/lis2dw12_reg.c ****   *
 766:Drivers/BSP/Components/lis2dw12/lis2dw12_reg.c ****   * @param  ctx      read / write interface definitions
 767:Drivers/BSP/Components/lis2dw12/lis2dw12_reg.c ****   * @param  val      buffer that stores data read
 768:Drivers/BSP/Components/lis2dw12/lis2dw12_reg.c ****   * @retval          interface status (MANDATORY: return 0 -> no Error)
 769:Drivers/BSP/Components/lis2dw12/lis2dw12_reg.c ****   *
 770:Drivers/BSP/Components/lis2dw12/lis2dw12_reg.c ****   */
 771:Drivers/BSP/Components/lis2dw12/lis2dw12_reg.c **** int32_t lis2dw12_temperature_raw_get(stmdev_ctx_t *ctx, int16_t *val)
 772:Drivers/BSP/Components/lis2dw12/lis2dw12_reg.c **** {
 1920              		.loc 1 772 1 view -0
 1921              		.cfi_startproc
 1922              		@ args = 0, pretend = 0, frame = 8
 1923              		@ frame_needed = 0, uses_anonymous_args = 0
 1924              		.loc 1 772 1 is_stmt 0 view .LVU466
 1925 0000 10B5     		push	{r4, lr}
 1926              	.LCFI52:
 1927              		.cfi_def_cfa_offset 8
 1928              		.cfi_offset 4, -8
 1929              		.cfi_offset 14, -4
 1930 0002 82B0     		sub	sp, sp, #8
 1931              	.LCFI53:
 1932              		.cfi_def_cfa_offset 16
 1933 0004 0C46     		mov	r4, r1
 773:Drivers/BSP/Components/lis2dw12/lis2dw12_reg.c ****   uint8_t buff[2];
 1934              		.loc 1 773 3 is_stmt 1 view .LVU467
 774:Drivers/BSP/Components/lis2dw12/lis2dw12_reg.c ****   int32_t ret;
 1935              		.loc 1 774 3 view .LVU468
 775:Drivers/BSP/Components/lis2dw12/lis2dw12_reg.c **** 
 776:Drivers/BSP/Components/lis2dw12/lis2dw12_reg.c ****   ret = lis2dw12_read_reg(ctx, LIS2DW12_OUT_T_L, buff, 2);
 1936              		.loc 1 776 3 view .LVU469
ARM GAS  /tmp/ccEdQILT.s 			page 51


 1937              		.loc 1 776 9 is_stmt 0 view .LVU470
 1938 0006 0223     		movs	r3, #2
 1939 0008 01AA     		add	r2, sp, #4
 1940 000a 0D21     		movs	r1, #13
 1941              	.LVL111:
 1942              		.loc 1 776 9 view .LVU471
 1943 000c FFF7FEFF 		bl	lis2dw12_read_reg
 1944              	.LVL112:
 777:Drivers/BSP/Components/lis2dw12/lis2dw12_reg.c ****   *val = (int16_t)buff[1];
 1945              		.loc 1 777 3 is_stmt 1 view .LVU472
 1946              		.loc 1 777 10 is_stmt 0 view .LVU473
 1947 0010 9DF80520 		ldrb	r2, [sp, #5]	@ zero_extendqisi2
 1948              		.loc 1 777 8 view .LVU474
 1949 0014 2280     		strh	r2, [r4]	@ movhi
 778:Drivers/BSP/Components/lis2dw12/lis2dw12_reg.c ****   *val = (*val * 256) + (int16_t)buff[0];
 1950              		.loc 1 778 3 is_stmt 1 view .LVU475
 1951              		.loc 1 778 38 is_stmt 0 view .LVU476
 1952 0016 9DF80430 		ldrb	r3, [sp, #4]	@ zero_extendqisi2
 1953              		.loc 1 778 23 view .LVU477
 1954 001a 03EB0223 		add	r3, r3, r2, lsl #8
 1955              		.loc 1 778 8 view .LVU478
 1956 001e 2380     		strh	r3, [r4]	@ movhi
 779:Drivers/BSP/Components/lis2dw12/lis2dw12_reg.c **** 
 780:Drivers/BSP/Components/lis2dw12/lis2dw12_reg.c ****   return ret;
 1957              		.loc 1 780 3 is_stmt 1 view .LVU479
 781:Drivers/BSP/Components/lis2dw12/lis2dw12_reg.c **** }
 1958              		.loc 1 781 1 is_stmt 0 view .LVU480
 1959 0020 02B0     		add	sp, sp, #8
 1960              	.LCFI54:
 1961              		.cfi_def_cfa_offset 8
 1962              		@ sp needed
 1963 0022 10BD     		pop	{r4, pc}
 1964              		.loc 1 781 1 view .LVU481
 1965              		.cfi_endproc
 1966              	.LFE30:
 1968              		.section	.text.lis2dw12_acceleration_raw_get,"ax",%progbits
 1969              		.align	1
 1970              		.global	lis2dw12_acceleration_raw_get
 1971              		.syntax unified
 1972              		.thumb
 1973              		.thumb_func
 1974              		.fpu fpv4-sp-d16
 1976              	lis2dw12_acceleration_raw_get:
 1977              	.LVL113:
 1978              	.LFB31:
 782:Drivers/BSP/Components/lis2dw12/lis2dw12_reg.c **** 
 783:Drivers/BSP/Components/lis2dw12/lis2dw12_reg.c **** /**
 784:Drivers/BSP/Components/lis2dw12/lis2dw12_reg.c ****   * @brief  Linear acceleration output register. The value is expressed as
 785:Drivers/BSP/Components/lis2dw12/lis2dw12_reg.c ****   *         a 16-bit word in two's complement.[get]
 786:Drivers/BSP/Components/lis2dw12/lis2dw12_reg.c ****   *
 787:Drivers/BSP/Components/lis2dw12/lis2dw12_reg.c ****   * @param  ctx      read / write interface definitions
 788:Drivers/BSP/Components/lis2dw12/lis2dw12_reg.c ****   * @param  val      buffer that stores data read
 789:Drivers/BSP/Components/lis2dw12/lis2dw12_reg.c ****   * @retval          interface status (MANDATORY: return 0 -> no Error)
 790:Drivers/BSP/Components/lis2dw12/lis2dw12_reg.c ****   *
 791:Drivers/BSP/Components/lis2dw12/lis2dw12_reg.c ****   */
 792:Drivers/BSP/Components/lis2dw12/lis2dw12_reg.c **** int32_t lis2dw12_acceleration_raw_get(stmdev_ctx_t *ctx, int16_t *val)
 793:Drivers/BSP/Components/lis2dw12/lis2dw12_reg.c **** {
ARM GAS  /tmp/ccEdQILT.s 			page 52


 1979              		.loc 1 793 1 is_stmt 1 view -0
 1980              		.cfi_startproc
 1981              		@ args = 0, pretend = 0, frame = 8
 1982              		@ frame_needed = 0, uses_anonymous_args = 0
 1983              		.loc 1 793 1 is_stmt 0 view .LVU483
 1984 0000 10B5     		push	{r4, lr}
 1985              	.LCFI55:
 1986              		.cfi_def_cfa_offset 8
 1987              		.cfi_offset 4, -8
 1988              		.cfi_offset 14, -4
 1989 0002 82B0     		sub	sp, sp, #8
 1990              	.LCFI56:
 1991              		.cfi_def_cfa_offset 16
 1992 0004 0C46     		mov	r4, r1
 794:Drivers/BSP/Components/lis2dw12/lis2dw12_reg.c ****   uint8_t buff[6];
 1993              		.loc 1 794 3 is_stmt 1 view .LVU484
 795:Drivers/BSP/Components/lis2dw12/lis2dw12_reg.c ****   int32_t ret;
 1994              		.loc 1 795 3 view .LVU485
 796:Drivers/BSP/Components/lis2dw12/lis2dw12_reg.c **** 
 797:Drivers/BSP/Components/lis2dw12/lis2dw12_reg.c ****   ret = lis2dw12_read_reg(ctx, LIS2DW12_OUT_X_L, buff, 6);
 1995              		.loc 1 797 3 view .LVU486
 1996              		.loc 1 797 9 is_stmt 0 view .LVU487
 1997 0006 0623     		movs	r3, #6
 1998 0008 6A46     		mov	r2, sp
 1999 000a 2821     		movs	r1, #40
 2000              	.LVL114:
 2001              		.loc 1 797 9 view .LVU488
 2002 000c FFF7FEFF 		bl	lis2dw12_read_reg
 2003              	.LVL115:
 798:Drivers/BSP/Components/lis2dw12/lis2dw12_reg.c ****   val[0] = (int16_t)buff[1];
 2004              		.loc 1 798 3 is_stmt 1 view .LVU489
 2005              		.loc 1 798 12 is_stmt 0 view .LVU490
 2006 0010 9DF80120 		ldrb	r2, [sp, #1]	@ zero_extendqisi2
 2007              		.loc 1 798 10 view .LVU491
 2008 0014 2280     		strh	r2, [r4]	@ movhi
 799:Drivers/BSP/Components/lis2dw12/lis2dw12_reg.c ****   val[0] = (val[0] * 256) + (int16_t)buff[0];
 2009              		.loc 1 799 3 is_stmt 1 view .LVU492
 2010              		.loc 1 799 42 is_stmt 0 view .LVU493
 2011 0016 9DF80030 		ldrb	r3, [sp]	@ zero_extendqisi2
 2012              		.loc 1 799 27 view .LVU494
 2013 001a 03EB0223 		add	r3, r3, r2, lsl #8
 2014              		.loc 1 799 10 view .LVU495
 2015 001e 2380     		strh	r3, [r4]	@ movhi
 800:Drivers/BSP/Components/lis2dw12/lis2dw12_reg.c ****   val[1] = (int16_t)buff[3];
 2016              		.loc 1 800 3 is_stmt 1 view .LVU496
 2017              		.loc 1 800 12 is_stmt 0 view .LVU497
 2018 0020 9DF80320 		ldrb	r2, [sp, #3]	@ zero_extendqisi2
 2019              		.loc 1 800 10 view .LVU498
 2020 0024 6280     		strh	r2, [r4, #2]	@ movhi
 801:Drivers/BSP/Components/lis2dw12/lis2dw12_reg.c ****   val[1] = (val[1] * 256) + (int16_t)buff[2];
 2021              		.loc 1 801 3 is_stmt 1 view .LVU499
 2022              		.loc 1 801 42 is_stmt 0 view .LVU500
 2023 0026 9DF80230 		ldrb	r3, [sp, #2]	@ zero_extendqisi2
 2024              		.loc 1 801 27 view .LVU501
 2025 002a 03EB0223 		add	r3, r3, r2, lsl #8
 2026              		.loc 1 801 10 view .LVU502
 2027 002e 6380     		strh	r3, [r4, #2]	@ movhi
ARM GAS  /tmp/ccEdQILT.s 			page 53


 802:Drivers/BSP/Components/lis2dw12/lis2dw12_reg.c ****   val[2] = (int16_t)buff[5];
 2028              		.loc 1 802 3 is_stmt 1 view .LVU503
 2029              		.loc 1 802 12 is_stmt 0 view .LVU504
 2030 0030 9DF80520 		ldrb	r2, [sp, #5]	@ zero_extendqisi2
 2031              		.loc 1 802 10 view .LVU505
 2032 0034 A280     		strh	r2, [r4, #4]	@ movhi
 803:Drivers/BSP/Components/lis2dw12/lis2dw12_reg.c ****   val[2] = (val[2] * 256) + (int16_t)buff[4];
 2033              		.loc 1 803 3 is_stmt 1 view .LVU506
 2034              		.loc 1 803 42 is_stmt 0 view .LVU507
 2035 0036 9DF80430 		ldrb	r3, [sp, #4]	@ zero_extendqisi2
 2036              		.loc 1 803 27 view .LVU508
 2037 003a 03EB0223 		add	r3, r3, r2, lsl #8
 2038              		.loc 1 803 10 view .LVU509
 2039 003e A380     		strh	r3, [r4, #4]	@ movhi
 804:Drivers/BSP/Components/lis2dw12/lis2dw12_reg.c **** 
 805:Drivers/BSP/Components/lis2dw12/lis2dw12_reg.c ****   return ret;
 2040              		.loc 1 805 3 is_stmt 1 view .LVU510
 806:Drivers/BSP/Components/lis2dw12/lis2dw12_reg.c **** }
 2041              		.loc 1 806 1 is_stmt 0 view .LVU511
 2042 0040 02B0     		add	sp, sp, #8
 2043              	.LCFI57:
 2044              		.cfi_def_cfa_offset 8
 2045              		@ sp needed
 2046 0042 10BD     		pop	{r4, pc}
 2047              		.loc 1 806 1 view .LVU512
 2048              		.cfi_endproc
 2049              	.LFE31:
 2051              		.section	.text.lis2dw12_device_id_get,"ax",%progbits
 2052              		.align	1
 2053              		.global	lis2dw12_device_id_get
 2054              		.syntax unified
 2055              		.thumb
 2056              		.thumb_func
 2057              		.fpu fpv4-sp-d16
 2059              	lis2dw12_device_id_get:
 2060              	.LVL116:
 2061              	.LFB32:
 807:Drivers/BSP/Components/lis2dw12/lis2dw12_reg.c **** 
 808:Drivers/BSP/Components/lis2dw12/lis2dw12_reg.c **** /**
 809:Drivers/BSP/Components/lis2dw12/lis2dw12_reg.c ****   * @}
 810:Drivers/BSP/Components/lis2dw12/lis2dw12_reg.c ****   *
 811:Drivers/BSP/Components/lis2dw12/lis2dw12_reg.c ****   */
 812:Drivers/BSP/Components/lis2dw12/lis2dw12_reg.c **** 
 813:Drivers/BSP/Components/lis2dw12/lis2dw12_reg.c **** /**
 814:Drivers/BSP/Components/lis2dw12/lis2dw12_reg.c ****   * @defgroup  LIS2DW12_Common
 815:Drivers/BSP/Components/lis2dw12/lis2dw12_reg.c ****   * @brief     This section groups common useful functions.
 816:Drivers/BSP/Components/lis2dw12/lis2dw12_reg.c ****   * @{
 817:Drivers/BSP/Components/lis2dw12/lis2dw12_reg.c ****   *
 818:Drivers/BSP/Components/lis2dw12/lis2dw12_reg.c ****   */
 819:Drivers/BSP/Components/lis2dw12/lis2dw12_reg.c **** 
 820:Drivers/BSP/Components/lis2dw12/lis2dw12_reg.c **** /**
 821:Drivers/BSP/Components/lis2dw12/lis2dw12_reg.c ****   * @brief  Device Who am I.[get]
 822:Drivers/BSP/Components/lis2dw12/lis2dw12_reg.c ****   *
 823:Drivers/BSP/Components/lis2dw12/lis2dw12_reg.c ****   * @param  ctx      read / write interface definitions
 824:Drivers/BSP/Components/lis2dw12/lis2dw12_reg.c ****   * @param  buff     buffer that stores data read
 825:Drivers/BSP/Components/lis2dw12/lis2dw12_reg.c ****   * @retval          interface status (MANDATORY: return 0 -> no Error)
 826:Drivers/BSP/Components/lis2dw12/lis2dw12_reg.c ****   *
ARM GAS  /tmp/ccEdQILT.s 			page 54


 827:Drivers/BSP/Components/lis2dw12/lis2dw12_reg.c ****   */
 828:Drivers/BSP/Components/lis2dw12/lis2dw12_reg.c **** int32_t lis2dw12_device_id_get(stmdev_ctx_t *ctx, uint8_t *buff)
 829:Drivers/BSP/Components/lis2dw12/lis2dw12_reg.c **** {
 2062              		.loc 1 829 1 is_stmt 1 view -0
 2063              		.cfi_startproc
 2064              		@ args = 0, pretend = 0, frame = 0
 2065              		@ frame_needed = 0, uses_anonymous_args = 0
 2066              		.loc 1 829 1 is_stmt 0 view .LVU514
 2067 0000 08B5     		push	{r3, lr}
 2068              	.LCFI58:
 2069              		.cfi_def_cfa_offset 8
 2070              		.cfi_offset 3, -8
 2071              		.cfi_offset 14, -4
 2072 0002 0A46     		mov	r2, r1
 830:Drivers/BSP/Components/lis2dw12/lis2dw12_reg.c ****   int32_t ret;
 2073              		.loc 1 830 3 is_stmt 1 view .LVU515
 831:Drivers/BSP/Components/lis2dw12/lis2dw12_reg.c **** 
 832:Drivers/BSP/Components/lis2dw12/lis2dw12_reg.c ****   ret = lis2dw12_read_reg(ctx, LIS2DW12_WHO_AM_I, buff, 1);
 2074              		.loc 1 832 3 view .LVU516
 2075              		.loc 1 832 9 is_stmt 0 view .LVU517
 2076 0004 0123     		movs	r3, #1
 2077 0006 0F21     		movs	r1, #15
 2078              	.LVL117:
 2079              		.loc 1 832 9 view .LVU518
 2080 0008 FFF7FEFF 		bl	lis2dw12_read_reg
 2081              	.LVL118:
 833:Drivers/BSP/Components/lis2dw12/lis2dw12_reg.c **** 
 834:Drivers/BSP/Components/lis2dw12/lis2dw12_reg.c ****   return ret;
 2082              		.loc 1 834 3 is_stmt 1 view .LVU519
 835:Drivers/BSP/Components/lis2dw12/lis2dw12_reg.c **** }
 2083              		.loc 1 835 1 is_stmt 0 view .LVU520
 2084 000c 08BD     		pop	{r3, pc}
 2085              		.cfi_endproc
 2086              	.LFE32:
 2088              		.section	.text.lis2dw12_auto_increment_set,"ax",%progbits
 2089              		.align	1
 2090              		.global	lis2dw12_auto_increment_set
 2091              		.syntax unified
 2092              		.thumb
 2093              		.thumb_func
 2094              		.fpu fpv4-sp-d16
 2096              	lis2dw12_auto_increment_set:
 2097              	.LVL119:
 2098              	.LFB33:
 836:Drivers/BSP/Components/lis2dw12/lis2dw12_reg.c **** 
 837:Drivers/BSP/Components/lis2dw12/lis2dw12_reg.c **** /**
 838:Drivers/BSP/Components/lis2dw12/lis2dw12_reg.c ****   * @brief  Register address automatically incremented during multiple byte
 839:Drivers/BSP/Components/lis2dw12/lis2dw12_reg.c ****   *         access with a serial interface.[set]
 840:Drivers/BSP/Components/lis2dw12/lis2dw12_reg.c ****   *
 841:Drivers/BSP/Components/lis2dw12/lis2dw12_reg.c ****   * @param  ctx      read / write interface definitions
 842:Drivers/BSP/Components/lis2dw12/lis2dw12_reg.c ****   * @param  val      change the values of if_add_inc in reg CTRL2
 843:Drivers/BSP/Components/lis2dw12/lis2dw12_reg.c ****   * @retval          interface status (MANDATORY: return 0 -> no Error)
 844:Drivers/BSP/Components/lis2dw12/lis2dw12_reg.c ****   *
 845:Drivers/BSP/Components/lis2dw12/lis2dw12_reg.c ****   */
 846:Drivers/BSP/Components/lis2dw12/lis2dw12_reg.c **** int32_t lis2dw12_auto_increment_set(stmdev_ctx_t *ctx, uint8_t val)
 847:Drivers/BSP/Components/lis2dw12/lis2dw12_reg.c **** {
 2099              		.loc 1 847 1 is_stmt 1 view -0
ARM GAS  /tmp/ccEdQILT.s 			page 55


 2100              		.cfi_startproc
 2101              		@ args = 0, pretend = 0, frame = 8
 2102              		@ frame_needed = 0, uses_anonymous_args = 0
 2103              		.loc 1 847 1 is_stmt 0 view .LVU522
 2104 0000 30B5     		push	{r4, r5, lr}
 2105              	.LCFI59:
 2106              		.cfi_def_cfa_offset 12
 2107              		.cfi_offset 4, -12
 2108              		.cfi_offset 5, -8
 2109              		.cfi_offset 14, -4
 2110 0002 83B0     		sub	sp, sp, #12
 2111              	.LCFI60:
 2112              		.cfi_def_cfa_offset 24
 2113 0004 0446     		mov	r4, r0
 2114 0006 0D46     		mov	r5, r1
 848:Drivers/BSP/Components/lis2dw12/lis2dw12_reg.c ****   lis2dw12_ctrl2_t reg;
 2115              		.loc 1 848 3 is_stmt 1 view .LVU523
 849:Drivers/BSP/Components/lis2dw12/lis2dw12_reg.c ****   int32_t ret;
 2116              		.loc 1 849 3 view .LVU524
 850:Drivers/BSP/Components/lis2dw12/lis2dw12_reg.c **** 
 851:Drivers/BSP/Components/lis2dw12/lis2dw12_reg.c ****   ret = lis2dw12_read_reg(ctx, LIS2DW12_CTRL2, (uint8_t *) &reg, 1);
 2117              		.loc 1 851 3 view .LVU525
 2118              		.loc 1 851 9 is_stmt 0 view .LVU526
 2119 0008 0123     		movs	r3, #1
 2120 000a 01AA     		add	r2, sp, #4
 2121 000c 2121     		movs	r1, #33
 2122              	.LVL120:
 2123              		.loc 1 851 9 view .LVU527
 2124 000e FFF7FEFF 		bl	lis2dw12_read_reg
 2125              	.LVL121:
 852:Drivers/BSP/Components/lis2dw12/lis2dw12_reg.c **** 
 853:Drivers/BSP/Components/lis2dw12/lis2dw12_reg.c ****   if (ret == 0)
 2126              		.loc 1 853 3 is_stmt 1 view .LVU528
 2127              		.loc 1 853 6 is_stmt 0 view .LVU529
 2128 0012 08B1     		cbz	r0, .L147
 2129              	.LVL122:
 2130              	.L144:
 854:Drivers/BSP/Components/lis2dw12/lis2dw12_reg.c ****   {
 855:Drivers/BSP/Components/lis2dw12/lis2dw12_reg.c ****     reg.if_add_inc = val;
 856:Drivers/BSP/Components/lis2dw12/lis2dw12_reg.c ****     ret = lis2dw12_write_reg(ctx, LIS2DW12_CTRL2, (uint8_t *) &reg, 1);
 857:Drivers/BSP/Components/lis2dw12/lis2dw12_reg.c ****   }
 858:Drivers/BSP/Components/lis2dw12/lis2dw12_reg.c **** 
 859:Drivers/BSP/Components/lis2dw12/lis2dw12_reg.c ****   return ret;
 860:Drivers/BSP/Components/lis2dw12/lis2dw12_reg.c **** }
 2131              		.loc 1 860 1 view .LVU530
 2132 0014 03B0     		add	sp, sp, #12
 2133              	.LCFI61:
 2134              		.cfi_remember_state
 2135              		.cfi_def_cfa_offset 12
 2136              		@ sp needed
 2137 0016 30BD     		pop	{r4, r5, pc}
 2138              	.LVL123:
 2139              	.L147:
 2140              	.LCFI62:
 2141              		.cfi_restore_state
 855:Drivers/BSP/Components/lis2dw12/lis2dw12_reg.c ****     ret = lis2dw12_write_reg(ctx, LIS2DW12_CTRL2, (uint8_t *) &reg, 1);
 2142              		.loc 1 855 5 is_stmt 1 view .LVU531
ARM GAS  /tmp/ccEdQILT.s 			page 56


 855:Drivers/BSP/Components/lis2dw12/lis2dw12_reg.c ****     ret = lis2dw12_write_reg(ctx, LIS2DW12_CTRL2, (uint8_t *) &reg, 1);
 2143              		.loc 1 855 20 is_stmt 0 view .LVU532
 2144 0018 9DF80430 		ldrb	r3, [sp, #4]	@ zero_extendqisi2
 2145 001c 65F38203 		bfi	r3, r5, #2, #1
 2146 0020 8DF80430 		strb	r3, [sp, #4]
 856:Drivers/BSP/Components/lis2dw12/lis2dw12_reg.c ****   }
 2147              		.loc 1 856 5 is_stmt 1 view .LVU533
 856:Drivers/BSP/Components/lis2dw12/lis2dw12_reg.c ****   }
 2148              		.loc 1 856 11 is_stmt 0 view .LVU534
 2149 0024 0123     		movs	r3, #1
 2150              	.LVL124:
 856:Drivers/BSP/Components/lis2dw12/lis2dw12_reg.c ****   }
 2151              		.loc 1 856 11 view .LVU535
 2152 0026 01AA     		add	r2, sp, #4
 2153 0028 2121     		movs	r1, #33
 2154 002a 2046     		mov	r0, r4
 2155 002c FFF7FEFF 		bl	lis2dw12_write_reg
 2156              	.LVL125:
 859:Drivers/BSP/Components/lis2dw12/lis2dw12_reg.c **** }
 2157              		.loc 1 859 3 is_stmt 1 view .LVU536
 859:Drivers/BSP/Components/lis2dw12/lis2dw12_reg.c **** }
 2158              		.loc 1 859 10 is_stmt 0 view .LVU537
 2159 0030 F0E7     		b	.L144
 2160              		.cfi_endproc
 2161              	.LFE33:
 2163              		.section	.text.lis2dw12_auto_increment_get,"ax",%progbits
 2164              		.align	1
 2165              		.global	lis2dw12_auto_increment_get
 2166              		.syntax unified
 2167              		.thumb
 2168              		.thumb_func
 2169              		.fpu fpv4-sp-d16
 2171              	lis2dw12_auto_increment_get:
 2172              	.LVL126:
 2173              	.LFB34:
 861:Drivers/BSP/Components/lis2dw12/lis2dw12_reg.c **** 
 862:Drivers/BSP/Components/lis2dw12/lis2dw12_reg.c **** /**
 863:Drivers/BSP/Components/lis2dw12/lis2dw12_reg.c ****   * @brief  Register address automatically incremented during multiple
 864:Drivers/BSP/Components/lis2dw12/lis2dw12_reg.c ****   *         byte access with a serial interface.[get]
 865:Drivers/BSP/Components/lis2dw12/lis2dw12_reg.c ****   *
 866:Drivers/BSP/Components/lis2dw12/lis2dw12_reg.c ****   * @param  ctx      read / write interface definitions
 867:Drivers/BSP/Components/lis2dw12/lis2dw12_reg.c ****   * @param  val      change the values of if_add_inc in reg CTRL2
 868:Drivers/BSP/Components/lis2dw12/lis2dw12_reg.c ****   * @retval          interface status (MANDATORY: return 0 -> no Error)
 869:Drivers/BSP/Components/lis2dw12/lis2dw12_reg.c ****   *
 870:Drivers/BSP/Components/lis2dw12/lis2dw12_reg.c ****   */
 871:Drivers/BSP/Components/lis2dw12/lis2dw12_reg.c **** int32_t lis2dw12_auto_increment_get(stmdev_ctx_t *ctx, uint8_t *val)
 872:Drivers/BSP/Components/lis2dw12/lis2dw12_reg.c **** {
 2174              		.loc 1 872 1 is_stmt 1 view -0
 2175              		.cfi_startproc
 2176              		@ args = 0, pretend = 0, frame = 8
 2177              		@ frame_needed = 0, uses_anonymous_args = 0
 2178              		.loc 1 872 1 is_stmt 0 view .LVU539
 2179 0000 10B5     		push	{r4, lr}
 2180              	.LCFI63:
 2181              		.cfi_def_cfa_offset 8
 2182              		.cfi_offset 4, -8
 2183              		.cfi_offset 14, -4
ARM GAS  /tmp/ccEdQILT.s 			page 57


 2184 0002 82B0     		sub	sp, sp, #8
 2185              	.LCFI64:
 2186              		.cfi_def_cfa_offset 16
 2187 0004 0C46     		mov	r4, r1
 873:Drivers/BSP/Components/lis2dw12/lis2dw12_reg.c ****   lis2dw12_ctrl2_t reg;
 2188              		.loc 1 873 3 is_stmt 1 view .LVU540
 874:Drivers/BSP/Components/lis2dw12/lis2dw12_reg.c ****   int32_t ret;
 2189              		.loc 1 874 3 view .LVU541
 875:Drivers/BSP/Components/lis2dw12/lis2dw12_reg.c **** 
 876:Drivers/BSP/Components/lis2dw12/lis2dw12_reg.c ****   ret = lis2dw12_read_reg(ctx, LIS2DW12_CTRL2, (uint8_t *) &reg, 1);
 2190              		.loc 1 876 3 view .LVU542
 2191              		.loc 1 876 9 is_stmt 0 view .LVU543
 2192 0006 0123     		movs	r3, #1
 2193 0008 01AA     		add	r2, sp, #4
 2194 000a 2121     		movs	r1, #33
 2195              	.LVL127:
 2196              		.loc 1 876 9 view .LVU544
 2197 000c FFF7FEFF 		bl	lis2dw12_read_reg
 2198              	.LVL128:
 877:Drivers/BSP/Components/lis2dw12/lis2dw12_reg.c ****   *val = reg.if_add_inc;
 2199              		.loc 1 877 3 is_stmt 1 view .LVU545
 2200              		.loc 1 877 13 is_stmt 0 view .LVU546
 2201 0010 9DF80430 		ldrb	r3, [sp, #4]	@ zero_extendqisi2
 2202 0014 C3F38003 		ubfx	r3, r3, #2, #1
 2203              		.loc 1 877 8 view .LVU547
 2204 0018 2370     		strb	r3, [r4]
 878:Drivers/BSP/Components/lis2dw12/lis2dw12_reg.c **** 
 879:Drivers/BSP/Components/lis2dw12/lis2dw12_reg.c ****   return ret;
 2205              		.loc 1 879 3 is_stmt 1 view .LVU548
 880:Drivers/BSP/Components/lis2dw12/lis2dw12_reg.c **** }
 2206              		.loc 1 880 1 is_stmt 0 view .LVU549
 2207 001a 02B0     		add	sp, sp, #8
 2208              	.LCFI65:
 2209              		.cfi_def_cfa_offset 8
 2210              		@ sp needed
 2211 001c 10BD     		pop	{r4, pc}
 2212              		.loc 1 880 1 view .LVU550
 2213              		.cfi_endproc
 2214              	.LFE34:
 2216              		.section	.text.lis2dw12_reset_set,"ax",%progbits
 2217              		.align	1
 2218              		.global	lis2dw12_reset_set
 2219              		.syntax unified
 2220              		.thumb
 2221              		.thumb_func
 2222              		.fpu fpv4-sp-d16
 2224              	lis2dw12_reset_set:
 2225              	.LVL129:
 2226              	.LFB35:
 881:Drivers/BSP/Components/lis2dw12/lis2dw12_reg.c **** 
 882:Drivers/BSP/Components/lis2dw12/lis2dw12_reg.c **** /**
 883:Drivers/BSP/Components/lis2dw12/lis2dw12_reg.c ****   * @brief  Software reset. Restore the default values in user registers.[set]
 884:Drivers/BSP/Components/lis2dw12/lis2dw12_reg.c ****   *
 885:Drivers/BSP/Components/lis2dw12/lis2dw12_reg.c ****   * @param  ctx      read / write interface definitions
 886:Drivers/BSP/Components/lis2dw12/lis2dw12_reg.c ****   * @param  val      change the values of soft_reset in reg CTRL2
 887:Drivers/BSP/Components/lis2dw12/lis2dw12_reg.c ****   * @retval          interface status (MANDATORY: return 0 -> no Error)
 888:Drivers/BSP/Components/lis2dw12/lis2dw12_reg.c ****   *
ARM GAS  /tmp/ccEdQILT.s 			page 58


 889:Drivers/BSP/Components/lis2dw12/lis2dw12_reg.c ****   */
 890:Drivers/BSP/Components/lis2dw12/lis2dw12_reg.c **** int32_t lis2dw12_reset_set(stmdev_ctx_t *ctx, uint8_t val)
 891:Drivers/BSP/Components/lis2dw12/lis2dw12_reg.c **** {
 2227              		.loc 1 891 1 is_stmt 1 view -0
 2228              		.cfi_startproc
 2229              		@ args = 0, pretend = 0, frame = 8
 2230              		@ frame_needed = 0, uses_anonymous_args = 0
 2231              		.loc 1 891 1 is_stmt 0 view .LVU552
 2232 0000 30B5     		push	{r4, r5, lr}
 2233              	.LCFI66:
 2234              		.cfi_def_cfa_offset 12
 2235              		.cfi_offset 4, -12
 2236              		.cfi_offset 5, -8
 2237              		.cfi_offset 14, -4
 2238 0002 83B0     		sub	sp, sp, #12
 2239              	.LCFI67:
 2240              		.cfi_def_cfa_offset 24
 2241 0004 0446     		mov	r4, r0
 2242 0006 0D46     		mov	r5, r1
 892:Drivers/BSP/Components/lis2dw12/lis2dw12_reg.c ****   lis2dw12_ctrl2_t reg;
 2243              		.loc 1 892 3 is_stmt 1 view .LVU553
 893:Drivers/BSP/Components/lis2dw12/lis2dw12_reg.c ****   int32_t ret;
 2244              		.loc 1 893 3 view .LVU554
 894:Drivers/BSP/Components/lis2dw12/lis2dw12_reg.c **** 
 895:Drivers/BSP/Components/lis2dw12/lis2dw12_reg.c ****   ret = lis2dw12_read_reg(ctx, LIS2DW12_CTRL2, (uint8_t *) &reg, 1);
 2245              		.loc 1 895 3 view .LVU555
 2246              		.loc 1 895 9 is_stmt 0 view .LVU556
 2247 0008 0123     		movs	r3, #1
 2248 000a 01AA     		add	r2, sp, #4
 2249 000c 2121     		movs	r1, #33
 2250              	.LVL130:
 2251              		.loc 1 895 9 view .LVU557
 2252 000e FFF7FEFF 		bl	lis2dw12_read_reg
 2253              	.LVL131:
 896:Drivers/BSP/Components/lis2dw12/lis2dw12_reg.c **** 
 897:Drivers/BSP/Components/lis2dw12/lis2dw12_reg.c ****   if (ret == 0)
 2254              		.loc 1 897 3 is_stmt 1 view .LVU558
 2255              		.loc 1 897 6 is_stmt 0 view .LVU559
 2256 0012 08B1     		cbz	r0, .L153
 2257              	.LVL132:
 2258              	.L150:
 898:Drivers/BSP/Components/lis2dw12/lis2dw12_reg.c ****   {
 899:Drivers/BSP/Components/lis2dw12/lis2dw12_reg.c ****     reg.soft_reset = val;
 900:Drivers/BSP/Components/lis2dw12/lis2dw12_reg.c ****     ret = lis2dw12_write_reg(ctx, LIS2DW12_CTRL2, (uint8_t *) &reg, 1);
 901:Drivers/BSP/Components/lis2dw12/lis2dw12_reg.c ****   }
 902:Drivers/BSP/Components/lis2dw12/lis2dw12_reg.c **** 
 903:Drivers/BSP/Components/lis2dw12/lis2dw12_reg.c ****   return ret;
 904:Drivers/BSP/Components/lis2dw12/lis2dw12_reg.c **** }
 2259              		.loc 1 904 1 view .LVU560
 2260 0014 03B0     		add	sp, sp, #12
 2261              	.LCFI68:
 2262              		.cfi_remember_state
 2263              		.cfi_def_cfa_offset 12
 2264              		@ sp needed
 2265 0016 30BD     		pop	{r4, r5, pc}
 2266              	.LVL133:
 2267              	.L153:
ARM GAS  /tmp/ccEdQILT.s 			page 59


 2268              	.LCFI69:
 2269              		.cfi_restore_state
 899:Drivers/BSP/Components/lis2dw12/lis2dw12_reg.c ****     ret = lis2dw12_write_reg(ctx, LIS2DW12_CTRL2, (uint8_t *) &reg, 1);
 2270              		.loc 1 899 5 is_stmt 1 view .LVU561
 899:Drivers/BSP/Components/lis2dw12/lis2dw12_reg.c ****     ret = lis2dw12_write_reg(ctx, LIS2DW12_CTRL2, (uint8_t *) &reg, 1);
 2271              		.loc 1 899 20 is_stmt 0 view .LVU562
 2272 0018 9DF80430 		ldrb	r3, [sp, #4]	@ zero_extendqisi2
 2273 001c 65F38613 		bfi	r3, r5, #6, #1
 2274 0020 8DF80430 		strb	r3, [sp, #4]
 900:Drivers/BSP/Components/lis2dw12/lis2dw12_reg.c ****   }
 2275              		.loc 1 900 5 is_stmt 1 view .LVU563
 900:Drivers/BSP/Components/lis2dw12/lis2dw12_reg.c ****   }
 2276              		.loc 1 900 11 is_stmt 0 view .LVU564
 2277 0024 0123     		movs	r3, #1
 2278              	.LVL134:
 900:Drivers/BSP/Components/lis2dw12/lis2dw12_reg.c ****   }
 2279              		.loc 1 900 11 view .LVU565
 2280 0026 01AA     		add	r2, sp, #4
 2281 0028 2121     		movs	r1, #33
 2282 002a 2046     		mov	r0, r4
 2283 002c FFF7FEFF 		bl	lis2dw12_write_reg
 2284              	.LVL135:
 903:Drivers/BSP/Components/lis2dw12/lis2dw12_reg.c **** }
 2285              		.loc 1 903 3 is_stmt 1 view .LVU566
 903:Drivers/BSP/Components/lis2dw12/lis2dw12_reg.c **** }
 2286              		.loc 1 903 10 is_stmt 0 view .LVU567
 2287 0030 F0E7     		b	.L150
 2288              		.cfi_endproc
 2289              	.LFE35:
 2291              		.section	.text.lis2dw12_reset_get,"ax",%progbits
 2292              		.align	1
 2293              		.global	lis2dw12_reset_get
 2294              		.syntax unified
 2295              		.thumb
 2296              		.thumb_func
 2297              		.fpu fpv4-sp-d16
 2299              	lis2dw12_reset_get:
 2300              	.LVL136:
 2301              	.LFB36:
 905:Drivers/BSP/Components/lis2dw12/lis2dw12_reg.c **** 
 906:Drivers/BSP/Components/lis2dw12/lis2dw12_reg.c **** /**
 907:Drivers/BSP/Components/lis2dw12/lis2dw12_reg.c ****   * @brief  Software reset. Restore the default values in user registers.[get]
 908:Drivers/BSP/Components/lis2dw12/lis2dw12_reg.c ****   *
 909:Drivers/BSP/Components/lis2dw12/lis2dw12_reg.c ****   * @param  ctx      read / write interface definitions
 910:Drivers/BSP/Components/lis2dw12/lis2dw12_reg.c ****   * @param  val      change the values of soft_reset in reg CTRL2
 911:Drivers/BSP/Components/lis2dw12/lis2dw12_reg.c ****   * @retval          interface status (MANDATORY: return 0 -> no Error)
 912:Drivers/BSP/Components/lis2dw12/lis2dw12_reg.c ****   *
 913:Drivers/BSP/Components/lis2dw12/lis2dw12_reg.c ****   */
 914:Drivers/BSP/Components/lis2dw12/lis2dw12_reg.c **** int32_t lis2dw12_reset_get(stmdev_ctx_t *ctx, uint8_t *val)
 915:Drivers/BSP/Components/lis2dw12/lis2dw12_reg.c **** {
 2302              		.loc 1 915 1 is_stmt 1 view -0
 2303              		.cfi_startproc
 2304              		@ args = 0, pretend = 0, frame = 8
 2305              		@ frame_needed = 0, uses_anonymous_args = 0
 2306              		.loc 1 915 1 is_stmt 0 view .LVU569
 2307 0000 10B5     		push	{r4, lr}
 2308              	.LCFI70:
ARM GAS  /tmp/ccEdQILT.s 			page 60


 2309              		.cfi_def_cfa_offset 8
 2310              		.cfi_offset 4, -8
 2311              		.cfi_offset 14, -4
 2312 0002 82B0     		sub	sp, sp, #8
 2313              	.LCFI71:
 2314              		.cfi_def_cfa_offset 16
 2315 0004 0C46     		mov	r4, r1
 916:Drivers/BSP/Components/lis2dw12/lis2dw12_reg.c ****   lis2dw12_ctrl2_t reg;
 2316              		.loc 1 916 3 is_stmt 1 view .LVU570
 917:Drivers/BSP/Components/lis2dw12/lis2dw12_reg.c ****   int32_t ret;
 2317              		.loc 1 917 3 view .LVU571
 918:Drivers/BSP/Components/lis2dw12/lis2dw12_reg.c **** 
 919:Drivers/BSP/Components/lis2dw12/lis2dw12_reg.c ****   ret = lis2dw12_read_reg(ctx, LIS2DW12_CTRL2, (uint8_t *) &reg, 1);
 2318              		.loc 1 919 3 view .LVU572
 2319              		.loc 1 919 9 is_stmt 0 view .LVU573
 2320 0006 0123     		movs	r3, #1
 2321 0008 01AA     		add	r2, sp, #4
 2322 000a 2121     		movs	r1, #33
 2323              	.LVL137:
 2324              		.loc 1 919 9 view .LVU574
 2325 000c FFF7FEFF 		bl	lis2dw12_read_reg
 2326              	.LVL138:
 920:Drivers/BSP/Components/lis2dw12/lis2dw12_reg.c ****   *val = reg.soft_reset;
 2327              		.loc 1 920 3 is_stmt 1 view .LVU575
 2328              		.loc 1 920 13 is_stmt 0 view .LVU576
 2329 0010 9DF80430 		ldrb	r3, [sp, #4]	@ zero_extendqisi2
 2330 0014 C3F38013 		ubfx	r3, r3, #6, #1
 2331              		.loc 1 920 8 view .LVU577
 2332 0018 2370     		strb	r3, [r4]
 921:Drivers/BSP/Components/lis2dw12/lis2dw12_reg.c **** 
 922:Drivers/BSP/Components/lis2dw12/lis2dw12_reg.c ****   return ret;
 2333              		.loc 1 922 3 is_stmt 1 view .LVU578
 923:Drivers/BSP/Components/lis2dw12/lis2dw12_reg.c **** }
 2334              		.loc 1 923 1 is_stmt 0 view .LVU579
 2335 001a 02B0     		add	sp, sp, #8
 2336              	.LCFI72:
 2337              		.cfi_def_cfa_offset 8
 2338              		@ sp needed
 2339 001c 10BD     		pop	{r4, pc}
 2340              		.loc 1 923 1 view .LVU580
 2341              		.cfi_endproc
 2342              	.LFE36:
 2344              		.section	.text.lis2dw12_boot_set,"ax",%progbits
 2345              		.align	1
 2346              		.global	lis2dw12_boot_set
 2347              		.syntax unified
 2348              		.thumb
 2349              		.thumb_func
 2350              		.fpu fpv4-sp-d16
 2352              	lis2dw12_boot_set:
 2353              	.LVL139:
 2354              	.LFB37:
 924:Drivers/BSP/Components/lis2dw12/lis2dw12_reg.c **** 
 925:Drivers/BSP/Components/lis2dw12/lis2dw12_reg.c **** /**
 926:Drivers/BSP/Components/lis2dw12/lis2dw12_reg.c ****   * @brief  Reboot memory content. Reload the calibration parameters.[set]
 927:Drivers/BSP/Components/lis2dw12/lis2dw12_reg.c ****   *
 928:Drivers/BSP/Components/lis2dw12/lis2dw12_reg.c ****   * @param  ctx      read / write interface definitions
ARM GAS  /tmp/ccEdQILT.s 			page 61


 929:Drivers/BSP/Components/lis2dw12/lis2dw12_reg.c ****   * @param  val      change the values of boot in reg CTRL2
 930:Drivers/BSP/Components/lis2dw12/lis2dw12_reg.c ****   * @retval          interface status (MANDATORY: return 0 -> no Error)
 931:Drivers/BSP/Components/lis2dw12/lis2dw12_reg.c ****   *
 932:Drivers/BSP/Components/lis2dw12/lis2dw12_reg.c ****   */
 933:Drivers/BSP/Components/lis2dw12/lis2dw12_reg.c **** int32_t lis2dw12_boot_set(stmdev_ctx_t *ctx, uint8_t val)
 934:Drivers/BSP/Components/lis2dw12/lis2dw12_reg.c **** {
 2355              		.loc 1 934 1 is_stmt 1 view -0
 2356              		.cfi_startproc
 2357              		@ args = 0, pretend = 0, frame = 8
 2358              		@ frame_needed = 0, uses_anonymous_args = 0
 2359              		.loc 1 934 1 is_stmt 0 view .LVU582
 2360 0000 30B5     		push	{r4, r5, lr}
 2361              	.LCFI73:
 2362              		.cfi_def_cfa_offset 12
 2363              		.cfi_offset 4, -12
 2364              		.cfi_offset 5, -8
 2365              		.cfi_offset 14, -4
 2366 0002 83B0     		sub	sp, sp, #12
 2367              	.LCFI74:
 2368              		.cfi_def_cfa_offset 24
 2369 0004 0446     		mov	r4, r0
 2370 0006 0D46     		mov	r5, r1
 935:Drivers/BSP/Components/lis2dw12/lis2dw12_reg.c ****   lis2dw12_ctrl2_t reg;
 2371              		.loc 1 935 3 is_stmt 1 view .LVU583
 936:Drivers/BSP/Components/lis2dw12/lis2dw12_reg.c ****   int32_t ret;
 2372              		.loc 1 936 3 view .LVU584
 937:Drivers/BSP/Components/lis2dw12/lis2dw12_reg.c **** 
 938:Drivers/BSP/Components/lis2dw12/lis2dw12_reg.c ****   ret = lis2dw12_read_reg(ctx, LIS2DW12_CTRL2, (uint8_t *) &reg, 1);
 2373              		.loc 1 938 3 view .LVU585
 2374              		.loc 1 938 9 is_stmt 0 view .LVU586
 2375 0008 0123     		movs	r3, #1
 2376 000a 01AA     		add	r2, sp, #4
 2377 000c 2121     		movs	r1, #33
 2378              	.LVL140:
 2379              		.loc 1 938 9 view .LVU587
 2380 000e FFF7FEFF 		bl	lis2dw12_read_reg
 2381              	.LVL141:
 939:Drivers/BSP/Components/lis2dw12/lis2dw12_reg.c **** 
 940:Drivers/BSP/Components/lis2dw12/lis2dw12_reg.c ****   if (ret == 0)
 2382              		.loc 1 940 3 is_stmt 1 view .LVU588
 2383              		.loc 1 940 6 is_stmt 0 view .LVU589
 2384 0012 08B1     		cbz	r0, .L159
 2385              	.LVL142:
 2386              	.L156:
 941:Drivers/BSP/Components/lis2dw12/lis2dw12_reg.c ****   {
 942:Drivers/BSP/Components/lis2dw12/lis2dw12_reg.c ****     reg.boot = val;
 943:Drivers/BSP/Components/lis2dw12/lis2dw12_reg.c ****     ret = lis2dw12_write_reg(ctx, LIS2DW12_CTRL2, (uint8_t *) &reg, 1);
 944:Drivers/BSP/Components/lis2dw12/lis2dw12_reg.c ****   }
 945:Drivers/BSP/Components/lis2dw12/lis2dw12_reg.c **** 
 946:Drivers/BSP/Components/lis2dw12/lis2dw12_reg.c ****   return ret;
 947:Drivers/BSP/Components/lis2dw12/lis2dw12_reg.c **** }
 2387              		.loc 1 947 1 view .LVU590
 2388 0014 03B0     		add	sp, sp, #12
 2389              	.LCFI75:
 2390              		.cfi_remember_state
 2391              		.cfi_def_cfa_offset 12
 2392              		@ sp needed
ARM GAS  /tmp/ccEdQILT.s 			page 62


 2393 0016 30BD     		pop	{r4, r5, pc}
 2394              	.LVL143:
 2395              	.L159:
 2396              	.LCFI76:
 2397              		.cfi_restore_state
 942:Drivers/BSP/Components/lis2dw12/lis2dw12_reg.c ****     ret = lis2dw12_write_reg(ctx, LIS2DW12_CTRL2, (uint8_t *) &reg, 1);
 2398              		.loc 1 942 5 is_stmt 1 view .LVU591
 942:Drivers/BSP/Components/lis2dw12/lis2dw12_reg.c ****     ret = lis2dw12_write_reg(ctx, LIS2DW12_CTRL2, (uint8_t *) &reg, 1);
 2399              		.loc 1 942 14 is_stmt 0 view .LVU592
 2400 0018 9DF80430 		ldrb	r3, [sp, #4]	@ zero_extendqisi2
 2401 001c 65F3C713 		bfi	r3, r5, #7, #1
 2402 0020 8DF80430 		strb	r3, [sp, #4]
 943:Drivers/BSP/Components/lis2dw12/lis2dw12_reg.c ****   }
 2403              		.loc 1 943 5 is_stmt 1 view .LVU593
 943:Drivers/BSP/Components/lis2dw12/lis2dw12_reg.c ****   }
 2404              		.loc 1 943 11 is_stmt 0 view .LVU594
 2405 0024 0123     		movs	r3, #1
 2406              	.LVL144:
 943:Drivers/BSP/Components/lis2dw12/lis2dw12_reg.c ****   }
 2407              		.loc 1 943 11 view .LVU595
 2408 0026 01AA     		add	r2, sp, #4
 2409 0028 2121     		movs	r1, #33
 2410 002a 2046     		mov	r0, r4
 2411 002c FFF7FEFF 		bl	lis2dw12_write_reg
 2412              	.LVL145:
 946:Drivers/BSP/Components/lis2dw12/lis2dw12_reg.c **** }
 2413              		.loc 1 946 3 is_stmt 1 view .LVU596
 946:Drivers/BSP/Components/lis2dw12/lis2dw12_reg.c **** }
 2414              		.loc 1 946 10 is_stmt 0 view .LVU597
 2415 0030 F0E7     		b	.L156
 2416              		.cfi_endproc
 2417              	.LFE37:
 2419              		.section	.text.lis2dw12_boot_get,"ax",%progbits
 2420              		.align	1
 2421              		.global	lis2dw12_boot_get
 2422              		.syntax unified
 2423              		.thumb
 2424              		.thumb_func
 2425              		.fpu fpv4-sp-d16
 2427              	lis2dw12_boot_get:
 2428              	.LVL146:
 2429              	.LFB38:
 948:Drivers/BSP/Components/lis2dw12/lis2dw12_reg.c **** 
 949:Drivers/BSP/Components/lis2dw12/lis2dw12_reg.c **** /**
 950:Drivers/BSP/Components/lis2dw12/lis2dw12_reg.c ****   * @brief  Reboot memory content. Reload the calibration parameters.[get]
 951:Drivers/BSP/Components/lis2dw12/lis2dw12_reg.c ****   *
 952:Drivers/BSP/Components/lis2dw12/lis2dw12_reg.c ****   * @param  ctx      read / write interface definitions
 953:Drivers/BSP/Components/lis2dw12/lis2dw12_reg.c ****   * @param  val      change the values of boot in reg CTRL2
 954:Drivers/BSP/Components/lis2dw12/lis2dw12_reg.c ****   * @retval          interface status (MANDATORY: return 0 -> no Error)
 955:Drivers/BSP/Components/lis2dw12/lis2dw12_reg.c ****   *
 956:Drivers/BSP/Components/lis2dw12/lis2dw12_reg.c ****   */
 957:Drivers/BSP/Components/lis2dw12/lis2dw12_reg.c **** int32_t lis2dw12_boot_get(stmdev_ctx_t *ctx, uint8_t *val)
 958:Drivers/BSP/Components/lis2dw12/lis2dw12_reg.c **** {
 2430              		.loc 1 958 1 is_stmt 1 view -0
 2431              		.cfi_startproc
 2432              		@ args = 0, pretend = 0, frame = 8
 2433              		@ frame_needed = 0, uses_anonymous_args = 0
ARM GAS  /tmp/ccEdQILT.s 			page 63


 2434              		.loc 1 958 1 is_stmt 0 view .LVU599
 2435 0000 10B5     		push	{r4, lr}
 2436              	.LCFI77:
 2437              		.cfi_def_cfa_offset 8
 2438              		.cfi_offset 4, -8
 2439              		.cfi_offset 14, -4
 2440 0002 82B0     		sub	sp, sp, #8
 2441              	.LCFI78:
 2442              		.cfi_def_cfa_offset 16
 2443 0004 0C46     		mov	r4, r1
 959:Drivers/BSP/Components/lis2dw12/lis2dw12_reg.c ****   lis2dw12_ctrl2_t reg;
 2444              		.loc 1 959 3 is_stmt 1 view .LVU600
 960:Drivers/BSP/Components/lis2dw12/lis2dw12_reg.c ****   int32_t ret;
 2445              		.loc 1 960 3 view .LVU601
 961:Drivers/BSP/Components/lis2dw12/lis2dw12_reg.c **** 
 962:Drivers/BSP/Components/lis2dw12/lis2dw12_reg.c ****   ret = lis2dw12_read_reg(ctx, LIS2DW12_CTRL2, (uint8_t *) &reg, 1);
 2446              		.loc 1 962 3 view .LVU602
 2447              		.loc 1 962 9 is_stmt 0 view .LVU603
 2448 0006 0123     		movs	r3, #1
 2449 0008 01AA     		add	r2, sp, #4
 2450 000a 2121     		movs	r1, #33
 2451              	.LVL147:
 2452              		.loc 1 962 9 view .LVU604
 2453 000c FFF7FEFF 		bl	lis2dw12_read_reg
 2454              	.LVL148:
 963:Drivers/BSP/Components/lis2dw12/lis2dw12_reg.c ****   *val = reg.boot;
 2455              		.loc 1 963 3 is_stmt 1 view .LVU605
 2456              		.loc 1 963 13 is_stmt 0 view .LVU606
 2457 0010 9DF80430 		ldrb	r3, [sp, #4]	@ zero_extendqisi2
 2458 0014 C3F3C013 		ubfx	r3, r3, #7, #1
 2459              		.loc 1 963 8 view .LVU607
 2460 0018 2370     		strb	r3, [r4]
 964:Drivers/BSP/Components/lis2dw12/lis2dw12_reg.c **** 
 965:Drivers/BSP/Components/lis2dw12/lis2dw12_reg.c ****   return ret;
 2461              		.loc 1 965 3 is_stmt 1 view .LVU608
 966:Drivers/BSP/Components/lis2dw12/lis2dw12_reg.c **** }
 2462              		.loc 1 966 1 is_stmt 0 view .LVU609
 2463 001a 02B0     		add	sp, sp, #8
 2464              	.LCFI79:
 2465              		.cfi_def_cfa_offset 8
 2466              		@ sp needed
 2467 001c 10BD     		pop	{r4, pc}
 2468              		.loc 1 966 1 view .LVU610
 2469              		.cfi_endproc
 2470              	.LFE38:
 2472              		.section	.text.lis2dw12_self_test_set,"ax",%progbits
 2473              		.align	1
 2474              		.global	lis2dw12_self_test_set
 2475              		.syntax unified
 2476              		.thumb
 2477              		.thumb_func
 2478              		.fpu fpv4-sp-d16
 2480              	lis2dw12_self_test_set:
 2481              	.LVL149:
 2482              	.LFB39:
 967:Drivers/BSP/Components/lis2dw12/lis2dw12_reg.c **** 
 968:Drivers/BSP/Components/lis2dw12/lis2dw12_reg.c **** /**
ARM GAS  /tmp/ccEdQILT.s 			page 64


 969:Drivers/BSP/Components/lis2dw12/lis2dw12_reg.c ****   * @brief  Sensor self-test enable.[set]
 970:Drivers/BSP/Components/lis2dw12/lis2dw12_reg.c ****   *
 971:Drivers/BSP/Components/lis2dw12/lis2dw12_reg.c ****   * @param  ctx      read / write interface definitions
 972:Drivers/BSP/Components/lis2dw12/lis2dw12_reg.c ****   * @param  val      change the values of st in reg CTRL3
 973:Drivers/BSP/Components/lis2dw12/lis2dw12_reg.c ****   * @retval          interface status (MANDATORY: return 0 -> no Error)
 974:Drivers/BSP/Components/lis2dw12/lis2dw12_reg.c ****   *
 975:Drivers/BSP/Components/lis2dw12/lis2dw12_reg.c ****   */
 976:Drivers/BSP/Components/lis2dw12/lis2dw12_reg.c **** int32_t lis2dw12_self_test_set(stmdev_ctx_t *ctx, lis2dw12_st_t val)
 977:Drivers/BSP/Components/lis2dw12/lis2dw12_reg.c **** {
 2483              		.loc 1 977 1 is_stmt 1 view -0
 2484              		.cfi_startproc
 2485              		@ args = 0, pretend = 0, frame = 8
 2486              		@ frame_needed = 0, uses_anonymous_args = 0
 2487              		.loc 1 977 1 is_stmt 0 view .LVU612
 2488 0000 30B5     		push	{r4, r5, lr}
 2489              	.LCFI80:
 2490              		.cfi_def_cfa_offset 12
 2491              		.cfi_offset 4, -12
 2492              		.cfi_offset 5, -8
 2493              		.cfi_offset 14, -4
 2494 0002 83B0     		sub	sp, sp, #12
 2495              	.LCFI81:
 2496              		.cfi_def_cfa_offset 24
 2497 0004 0446     		mov	r4, r0
 2498 0006 0D46     		mov	r5, r1
 978:Drivers/BSP/Components/lis2dw12/lis2dw12_reg.c ****   lis2dw12_ctrl3_t reg;
 2499              		.loc 1 978 3 is_stmt 1 view .LVU613
 979:Drivers/BSP/Components/lis2dw12/lis2dw12_reg.c ****   int32_t ret;
 2500              		.loc 1 979 3 view .LVU614
 980:Drivers/BSP/Components/lis2dw12/lis2dw12_reg.c **** 
 981:Drivers/BSP/Components/lis2dw12/lis2dw12_reg.c ****   ret = lis2dw12_read_reg(ctx, LIS2DW12_CTRL3, (uint8_t *) &reg, 1);
 2501              		.loc 1 981 3 view .LVU615
 2502              		.loc 1 981 9 is_stmt 0 view .LVU616
 2503 0008 0123     		movs	r3, #1
 2504 000a 01AA     		add	r2, sp, #4
 2505 000c 2221     		movs	r1, #34
 2506              	.LVL150:
 2507              		.loc 1 981 9 view .LVU617
 2508 000e FFF7FEFF 		bl	lis2dw12_read_reg
 2509              	.LVL151:
 982:Drivers/BSP/Components/lis2dw12/lis2dw12_reg.c **** 
 983:Drivers/BSP/Components/lis2dw12/lis2dw12_reg.c ****   if (ret == 0)
 2510              		.loc 1 983 3 is_stmt 1 view .LVU618
 2511              		.loc 1 983 6 is_stmt 0 view .LVU619
 2512 0012 08B1     		cbz	r0, .L165
 2513              	.LVL152:
 2514              	.L162:
 984:Drivers/BSP/Components/lis2dw12/lis2dw12_reg.c ****   {
 985:Drivers/BSP/Components/lis2dw12/lis2dw12_reg.c ****     reg.st = (uint8_t) val;
 986:Drivers/BSP/Components/lis2dw12/lis2dw12_reg.c ****     ret = lis2dw12_write_reg(ctx, LIS2DW12_CTRL3, (uint8_t *) &reg, 1);
 987:Drivers/BSP/Components/lis2dw12/lis2dw12_reg.c ****   }
 988:Drivers/BSP/Components/lis2dw12/lis2dw12_reg.c **** 
 989:Drivers/BSP/Components/lis2dw12/lis2dw12_reg.c ****   return ret;
 990:Drivers/BSP/Components/lis2dw12/lis2dw12_reg.c **** }
 2515              		.loc 1 990 1 view .LVU620
 2516 0014 03B0     		add	sp, sp, #12
 2517              	.LCFI82:
ARM GAS  /tmp/ccEdQILT.s 			page 65


 2518              		.cfi_remember_state
 2519              		.cfi_def_cfa_offset 12
 2520              		@ sp needed
 2521 0016 30BD     		pop	{r4, r5, pc}
 2522              	.LVL153:
 2523              	.L165:
 2524              	.LCFI83:
 2525              		.cfi_restore_state
 985:Drivers/BSP/Components/lis2dw12/lis2dw12_reg.c ****     ret = lis2dw12_write_reg(ctx, LIS2DW12_CTRL3, (uint8_t *) &reg, 1);
 2526              		.loc 1 985 5 is_stmt 1 view .LVU621
 985:Drivers/BSP/Components/lis2dw12/lis2dw12_reg.c ****     ret = lis2dw12_write_reg(ctx, LIS2DW12_CTRL3, (uint8_t *) &reg, 1);
 2527              		.loc 1 985 12 is_stmt 0 view .LVU622
 2528 0018 9DF80430 		ldrb	r3, [sp, #4]	@ zero_extendqisi2
 2529 001c 65F38713 		bfi	r3, r5, #6, #2
 2530 0020 8DF80430 		strb	r3, [sp, #4]
 986:Drivers/BSP/Components/lis2dw12/lis2dw12_reg.c ****   }
 2531              		.loc 1 986 5 is_stmt 1 view .LVU623
 986:Drivers/BSP/Components/lis2dw12/lis2dw12_reg.c ****   }
 2532              		.loc 1 986 11 is_stmt 0 view .LVU624
 2533 0024 0123     		movs	r3, #1
 2534              	.LVL154:
 986:Drivers/BSP/Components/lis2dw12/lis2dw12_reg.c ****   }
 2535              		.loc 1 986 11 view .LVU625
 2536 0026 01AA     		add	r2, sp, #4
 2537 0028 2221     		movs	r1, #34
 2538 002a 2046     		mov	r0, r4
 2539 002c FFF7FEFF 		bl	lis2dw12_write_reg
 2540              	.LVL155:
 989:Drivers/BSP/Components/lis2dw12/lis2dw12_reg.c **** }
 2541              		.loc 1 989 3 is_stmt 1 view .LVU626
 989:Drivers/BSP/Components/lis2dw12/lis2dw12_reg.c **** }
 2542              		.loc 1 989 10 is_stmt 0 view .LVU627
 2543 0030 F0E7     		b	.L162
 2544              		.cfi_endproc
 2545              	.LFE39:
 2547              		.section	.text.lis2dw12_self_test_get,"ax",%progbits
 2548              		.align	1
 2549              		.global	lis2dw12_self_test_get
 2550              		.syntax unified
 2551              		.thumb
 2552              		.thumb_func
 2553              		.fpu fpv4-sp-d16
 2555              	lis2dw12_self_test_get:
 2556              	.LVL156:
 2557              	.LFB40:
 991:Drivers/BSP/Components/lis2dw12/lis2dw12_reg.c **** 
 992:Drivers/BSP/Components/lis2dw12/lis2dw12_reg.c **** /**
 993:Drivers/BSP/Components/lis2dw12/lis2dw12_reg.c ****   * @brief  Sensor self-test enable.[get]
 994:Drivers/BSP/Components/lis2dw12/lis2dw12_reg.c ****   *
 995:Drivers/BSP/Components/lis2dw12/lis2dw12_reg.c ****   * @param  ctx      read / write interface definitions
 996:Drivers/BSP/Components/lis2dw12/lis2dw12_reg.c ****   * @param  val      Get the values of st in reg CTRL3
 997:Drivers/BSP/Components/lis2dw12/lis2dw12_reg.c ****   * @retval          interface status (MANDATORY: return 0 -> no Error)
 998:Drivers/BSP/Components/lis2dw12/lis2dw12_reg.c ****   *
 999:Drivers/BSP/Components/lis2dw12/lis2dw12_reg.c ****   */
1000:Drivers/BSP/Components/lis2dw12/lis2dw12_reg.c **** int32_t lis2dw12_self_test_get(stmdev_ctx_t *ctx, lis2dw12_st_t *val)
1001:Drivers/BSP/Components/lis2dw12/lis2dw12_reg.c **** {
 2558              		.loc 1 1001 1 is_stmt 1 view -0
ARM GAS  /tmp/ccEdQILT.s 			page 66


 2559              		.cfi_startproc
 2560              		@ args = 0, pretend = 0, frame = 8
 2561              		@ frame_needed = 0, uses_anonymous_args = 0
 2562              		.loc 1 1001 1 is_stmt 0 view .LVU629
 2563 0000 10B5     		push	{r4, lr}
 2564              	.LCFI84:
 2565              		.cfi_def_cfa_offset 8
 2566              		.cfi_offset 4, -8
 2567              		.cfi_offset 14, -4
 2568 0002 82B0     		sub	sp, sp, #8
 2569              	.LCFI85:
 2570              		.cfi_def_cfa_offset 16
 2571 0004 0C46     		mov	r4, r1
1002:Drivers/BSP/Components/lis2dw12/lis2dw12_reg.c ****   lis2dw12_ctrl3_t reg;
 2572              		.loc 1 1002 3 is_stmt 1 view .LVU630
1003:Drivers/BSP/Components/lis2dw12/lis2dw12_reg.c ****   int32_t ret;
 2573              		.loc 1 1003 3 view .LVU631
1004:Drivers/BSP/Components/lis2dw12/lis2dw12_reg.c **** 
1005:Drivers/BSP/Components/lis2dw12/lis2dw12_reg.c ****   ret = lis2dw12_read_reg(ctx, LIS2DW12_CTRL3, (uint8_t *) &reg, 1);
 2574              		.loc 1 1005 3 view .LVU632
 2575              		.loc 1 1005 9 is_stmt 0 view .LVU633
 2576 0006 0123     		movs	r3, #1
 2577 0008 01AA     		add	r2, sp, #4
 2578 000a 2221     		movs	r1, #34
 2579              	.LVL157:
 2580              		.loc 1 1005 9 view .LVU634
 2581 000c FFF7FEFF 		bl	lis2dw12_read_reg
 2582              	.LVL158:
1006:Drivers/BSP/Components/lis2dw12/lis2dw12_reg.c **** 
1007:Drivers/BSP/Components/lis2dw12/lis2dw12_reg.c ****   switch (reg.st)
 2583              		.loc 1 1007 3 is_stmt 1 view .LVU635
 2584              		.loc 1 1007 14 is_stmt 0 view .LVU636
 2585 0010 9DF80430 		ldrb	r3, [sp, #4]	@ zero_extendqisi2
 2586 0014 9B09     		lsrs	r3, r3, #6
 2587              		.loc 1 1007 3 view .LVU637
 2588 0016 012B     		cmp	r3, #1
 2589 0018 08D0     		beq	.L167
 2590 001a 022B     		cmp	r3, #2
 2591 001c 09D0     		beq	.L168
 2592 001e 13B1     		cbz	r3, .L172
1008:Drivers/BSP/Components/lis2dw12/lis2dw12_reg.c ****   {
1009:Drivers/BSP/Components/lis2dw12/lis2dw12_reg.c ****     case LIS2DW12_XL_ST_DISABLE:
1010:Drivers/BSP/Components/lis2dw12/lis2dw12_reg.c ****       *val = LIS2DW12_XL_ST_DISABLE;
1011:Drivers/BSP/Components/lis2dw12/lis2dw12_reg.c ****       break;
1012:Drivers/BSP/Components/lis2dw12/lis2dw12_reg.c **** 
1013:Drivers/BSP/Components/lis2dw12/lis2dw12_reg.c ****     case LIS2DW12_XL_ST_POSITIVE:
1014:Drivers/BSP/Components/lis2dw12/lis2dw12_reg.c ****       *val = LIS2DW12_XL_ST_POSITIVE;
1015:Drivers/BSP/Components/lis2dw12/lis2dw12_reg.c ****       break;
1016:Drivers/BSP/Components/lis2dw12/lis2dw12_reg.c **** 
1017:Drivers/BSP/Components/lis2dw12/lis2dw12_reg.c ****     case LIS2DW12_XL_ST_NEGATIVE:
1018:Drivers/BSP/Components/lis2dw12/lis2dw12_reg.c ****       *val = LIS2DW12_XL_ST_NEGATIVE;
1019:Drivers/BSP/Components/lis2dw12/lis2dw12_reg.c ****       break;
1020:Drivers/BSP/Components/lis2dw12/lis2dw12_reg.c **** 
1021:Drivers/BSP/Components/lis2dw12/lis2dw12_reg.c ****     default:
1022:Drivers/BSP/Components/lis2dw12/lis2dw12_reg.c ****       *val = LIS2DW12_XL_ST_DISABLE;
 2593              		.loc 1 1022 7 is_stmt 1 view .LVU638
 2594              		.loc 1 1022 12 is_stmt 0 view .LVU639
ARM GAS  /tmp/ccEdQILT.s 			page 67


 2595 0020 0023     		movs	r3, #0
 2596 0022 2370     		strb	r3, [r4]
1023:Drivers/BSP/Components/lis2dw12/lis2dw12_reg.c ****       break;
 2597              		.loc 1 1023 7 is_stmt 1 view .LVU640
1024:Drivers/BSP/Components/lis2dw12/lis2dw12_reg.c ****   }
1025:Drivers/BSP/Components/lis2dw12/lis2dw12_reg.c **** 
1026:Drivers/BSP/Components/lis2dw12/lis2dw12_reg.c ****   return ret;
 2598              		.loc 1 1026 3 view .LVU641
 2599              		.loc 1 1026 10 is_stmt 0 view .LVU642
 2600 0024 00E0     		b	.L166
 2601              	.L172:
1010:Drivers/BSP/Components/lis2dw12/lis2dw12_reg.c ****       break;
 2602              		.loc 1 1010 7 is_stmt 1 view .LVU643
1010:Drivers/BSP/Components/lis2dw12/lis2dw12_reg.c ****       break;
 2603              		.loc 1 1010 12 is_stmt 0 view .LVU644
 2604 0026 2370     		strb	r3, [r4]
1011:Drivers/BSP/Components/lis2dw12/lis2dw12_reg.c **** 
 2605              		.loc 1 1011 7 is_stmt 1 view .LVU645
 2606              	.L166:
1027:Drivers/BSP/Components/lis2dw12/lis2dw12_reg.c **** }
 2607              		.loc 1 1027 1 is_stmt 0 view .LVU646
 2608 0028 02B0     		add	sp, sp, #8
 2609              	.LCFI86:
 2610              		.cfi_remember_state
 2611              		.cfi_def_cfa_offset 8
 2612              		@ sp needed
 2613 002a 10BD     		pop	{r4, pc}
 2614              	.LVL159:
 2615              	.L167:
 2616              	.LCFI87:
 2617              		.cfi_restore_state
1014:Drivers/BSP/Components/lis2dw12/lis2dw12_reg.c ****       break;
 2618              		.loc 1 1014 7 is_stmt 1 view .LVU647
1014:Drivers/BSP/Components/lis2dw12/lis2dw12_reg.c ****       break;
 2619              		.loc 1 1014 12 is_stmt 0 view .LVU648
 2620 002c 0123     		movs	r3, #1
 2621 002e 2370     		strb	r3, [r4]
1015:Drivers/BSP/Components/lis2dw12/lis2dw12_reg.c **** 
 2622              		.loc 1 1015 7 is_stmt 1 view .LVU649
 2623 0030 FAE7     		b	.L166
 2624              	.L168:
1018:Drivers/BSP/Components/lis2dw12/lis2dw12_reg.c ****       break;
 2625              		.loc 1 1018 7 view .LVU650
1018:Drivers/BSP/Components/lis2dw12/lis2dw12_reg.c ****       break;
 2626              		.loc 1 1018 12 is_stmt 0 view .LVU651
 2627 0032 0223     		movs	r3, #2
 2628 0034 2370     		strb	r3, [r4]
1019:Drivers/BSP/Components/lis2dw12/lis2dw12_reg.c **** 
 2629              		.loc 1 1019 7 is_stmt 1 view .LVU652
 2630 0036 F7E7     		b	.L166
 2631              		.cfi_endproc
 2632              	.LFE40:
 2634              		.section	.text.lis2dw12_data_ready_mode_set,"ax",%progbits
 2635              		.align	1
 2636              		.global	lis2dw12_data_ready_mode_set
 2637              		.syntax unified
 2638              		.thumb
ARM GAS  /tmp/ccEdQILT.s 			page 68


 2639              		.thumb_func
 2640              		.fpu fpv4-sp-d16
 2642              	lis2dw12_data_ready_mode_set:
 2643              	.LVL160:
 2644              	.LFB41:
1028:Drivers/BSP/Components/lis2dw12/lis2dw12_reg.c **** 
1029:Drivers/BSP/Components/lis2dw12/lis2dw12_reg.c **** /**
1030:Drivers/BSP/Components/lis2dw12/lis2dw12_reg.c ****   * @brief  Data-ready pulsed / letched mode.[set]
1031:Drivers/BSP/Components/lis2dw12/lis2dw12_reg.c ****   *
1032:Drivers/BSP/Components/lis2dw12/lis2dw12_reg.c ****   * @param  ctx      read / write interface definitions
1033:Drivers/BSP/Components/lis2dw12/lis2dw12_reg.c ****   * @param  val      change the values of drdy_pulsed in reg CTRL_REG7
1034:Drivers/BSP/Components/lis2dw12/lis2dw12_reg.c ****   * @retval          interface status (MANDATORY: return 0 -> no Error)
1035:Drivers/BSP/Components/lis2dw12/lis2dw12_reg.c ****   *
1036:Drivers/BSP/Components/lis2dw12/lis2dw12_reg.c ****   */
1037:Drivers/BSP/Components/lis2dw12/lis2dw12_reg.c **** int32_t lis2dw12_data_ready_mode_set(stmdev_ctx_t *ctx,
1038:Drivers/BSP/Components/lis2dw12/lis2dw12_reg.c ****                                      lis2dw12_drdy_pulsed_t val)
1039:Drivers/BSP/Components/lis2dw12/lis2dw12_reg.c **** {
 2645              		.loc 1 1039 1 view -0
 2646              		.cfi_startproc
 2647              		@ args = 0, pretend = 0, frame = 8
 2648              		@ frame_needed = 0, uses_anonymous_args = 0
 2649              		.loc 1 1039 1 is_stmt 0 view .LVU654
 2650 0000 30B5     		push	{r4, r5, lr}
 2651              	.LCFI88:
 2652              		.cfi_def_cfa_offset 12
 2653              		.cfi_offset 4, -12
 2654              		.cfi_offset 5, -8
 2655              		.cfi_offset 14, -4
 2656 0002 83B0     		sub	sp, sp, #12
 2657              	.LCFI89:
 2658              		.cfi_def_cfa_offset 24
 2659 0004 0446     		mov	r4, r0
 2660 0006 0D46     		mov	r5, r1
1040:Drivers/BSP/Components/lis2dw12/lis2dw12_reg.c ****   lis2dw12_ctrl_reg7_t reg;
 2661              		.loc 1 1040 3 is_stmt 1 view .LVU655
1041:Drivers/BSP/Components/lis2dw12/lis2dw12_reg.c ****   int32_t ret;
 2662              		.loc 1 1041 3 view .LVU656
1042:Drivers/BSP/Components/lis2dw12/lis2dw12_reg.c **** 
1043:Drivers/BSP/Components/lis2dw12/lis2dw12_reg.c ****   ret = lis2dw12_read_reg(ctx, LIS2DW12_CTRL_REG7, (uint8_t *) &reg, 1);
 2663              		.loc 1 1043 3 view .LVU657
 2664              		.loc 1 1043 9 is_stmt 0 view .LVU658
 2665 0008 0123     		movs	r3, #1
 2666 000a 01AA     		add	r2, sp, #4
 2667 000c 3F21     		movs	r1, #63
 2668              	.LVL161:
 2669              		.loc 1 1043 9 view .LVU659
 2670 000e FFF7FEFF 		bl	lis2dw12_read_reg
 2671              	.LVL162:
1044:Drivers/BSP/Components/lis2dw12/lis2dw12_reg.c **** 
1045:Drivers/BSP/Components/lis2dw12/lis2dw12_reg.c ****   if (ret == 0)
 2672              		.loc 1 1045 3 is_stmt 1 view .LVU660
 2673              		.loc 1 1045 6 is_stmt 0 view .LVU661
 2674 0012 08B1     		cbz	r0, .L176
 2675              	.LVL163:
 2676              	.L173:
1046:Drivers/BSP/Components/lis2dw12/lis2dw12_reg.c ****   {
1047:Drivers/BSP/Components/lis2dw12/lis2dw12_reg.c ****     reg.drdy_pulsed = (uint8_t) val;
ARM GAS  /tmp/ccEdQILT.s 			page 69


1048:Drivers/BSP/Components/lis2dw12/lis2dw12_reg.c ****     ret = lis2dw12_write_reg(ctx, LIS2DW12_CTRL_REG7, (uint8_t *) &reg, 1);
1049:Drivers/BSP/Components/lis2dw12/lis2dw12_reg.c ****   }
1050:Drivers/BSP/Components/lis2dw12/lis2dw12_reg.c **** 
1051:Drivers/BSP/Components/lis2dw12/lis2dw12_reg.c ****   return ret;
1052:Drivers/BSP/Components/lis2dw12/lis2dw12_reg.c **** }
 2677              		.loc 1 1052 1 view .LVU662
 2678 0014 03B0     		add	sp, sp, #12
 2679              	.LCFI90:
 2680              		.cfi_remember_state
 2681              		.cfi_def_cfa_offset 12
 2682              		@ sp needed
 2683 0016 30BD     		pop	{r4, r5, pc}
 2684              	.LVL164:
 2685              	.L176:
 2686              	.LCFI91:
 2687              		.cfi_restore_state
1047:Drivers/BSP/Components/lis2dw12/lis2dw12_reg.c ****     ret = lis2dw12_write_reg(ctx, LIS2DW12_CTRL_REG7, (uint8_t *) &reg, 1);
 2688              		.loc 1 1047 5 is_stmt 1 view .LVU663
1047:Drivers/BSP/Components/lis2dw12/lis2dw12_reg.c ****     ret = lis2dw12_write_reg(ctx, LIS2DW12_CTRL_REG7, (uint8_t *) &reg, 1);
 2689              		.loc 1 1047 21 is_stmt 0 view .LVU664
 2690 0018 9DF80430 		ldrb	r3, [sp, #4]	@ zero_extendqisi2
 2691 001c 65F3C713 		bfi	r3, r5, #7, #1
 2692 0020 8DF80430 		strb	r3, [sp, #4]
1048:Drivers/BSP/Components/lis2dw12/lis2dw12_reg.c ****   }
 2693              		.loc 1 1048 5 is_stmt 1 view .LVU665
1048:Drivers/BSP/Components/lis2dw12/lis2dw12_reg.c ****   }
 2694              		.loc 1 1048 11 is_stmt 0 view .LVU666
 2695 0024 0123     		movs	r3, #1
 2696              	.LVL165:
1048:Drivers/BSP/Components/lis2dw12/lis2dw12_reg.c ****   }
 2697              		.loc 1 1048 11 view .LVU667
 2698 0026 01AA     		add	r2, sp, #4
 2699 0028 3F21     		movs	r1, #63
 2700 002a 2046     		mov	r0, r4
 2701 002c FFF7FEFF 		bl	lis2dw12_write_reg
 2702              	.LVL166:
1051:Drivers/BSP/Components/lis2dw12/lis2dw12_reg.c **** }
 2703              		.loc 1 1051 3 is_stmt 1 view .LVU668
1051:Drivers/BSP/Components/lis2dw12/lis2dw12_reg.c **** }
 2704              		.loc 1 1051 10 is_stmt 0 view .LVU669
 2705 0030 F0E7     		b	.L173
 2706              		.cfi_endproc
 2707              	.LFE41:
 2709              		.section	.text.lis2dw12_data_ready_mode_get,"ax",%progbits
 2710              		.align	1
 2711              		.global	lis2dw12_data_ready_mode_get
 2712              		.syntax unified
 2713              		.thumb
 2714              		.thumb_func
 2715              		.fpu fpv4-sp-d16
 2717              	lis2dw12_data_ready_mode_get:
 2718              	.LVL167:
 2719              	.LFB42:
1053:Drivers/BSP/Components/lis2dw12/lis2dw12_reg.c **** 
1054:Drivers/BSP/Components/lis2dw12/lis2dw12_reg.c **** /**
1055:Drivers/BSP/Components/lis2dw12/lis2dw12_reg.c ****   * @brief  Data-ready pulsed / letched mode.[get]
1056:Drivers/BSP/Components/lis2dw12/lis2dw12_reg.c ****   *
ARM GAS  /tmp/ccEdQILT.s 			page 70


1057:Drivers/BSP/Components/lis2dw12/lis2dw12_reg.c ****   * @param  ctx      read / write interface definitions
1058:Drivers/BSP/Components/lis2dw12/lis2dw12_reg.c ****   * @param  val      Get the values of drdy_pulsed in reg CTRL_REG7
1059:Drivers/BSP/Components/lis2dw12/lis2dw12_reg.c ****   * @retval          interface status (MANDATORY: return 0 -> no Error)
1060:Drivers/BSP/Components/lis2dw12/lis2dw12_reg.c ****   *
1061:Drivers/BSP/Components/lis2dw12/lis2dw12_reg.c ****   */
1062:Drivers/BSP/Components/lis2dw12/lis2dw12_reg.c **** int32_t lis2dw12_data_ready_mode_get(stmdev_ctx_t *ctx,
1063:Drivers/BSP/Components/lis2dw12/lis2dw12_reg.c ****                                      lis2dw12_drdy_pulsed_t *val)
1064:Drivers/BSP/Components/lis2dw12/lis2dw12_reg.c **** {
 2720              		.loc 1 1064 1 is_stmt 1 view -0
 2721              		.cfi_startproc
 2722              		@ args = 0, pretend = 0, frame = 8
 2723              		@ frame_needed = 0, uses_anonymous_args = 0
 2724              		.loc 1 1064 1 is_stmt 0 view .LVU671
 2725 0000 10B5     		push	{r4, lr}
 2726              	.LCFI92:
 2727              		.cfi_def_cfa_offset 8
 2728              		.cfi_offset 4, -8
 2729              		.cfi_offset 14, -4
 2730 0002 82B0     		sub	sp, sp, #8
 2731              	.LCFI93:
 2732              		.cfi_def_cfa_offset 16
 2733 0004 0C46     		mov	r4, r1
1065:Drivers/BSP/Components/lis2dw12/lis2dw12_reg.c ****   lis2dw12_ctrl_reg7_t reg;
 2734              		.loc 1 1065 3 is_stmt 1 view .LVU672
1066:Drivers/BSP/Components/lis2dw12/lis2dw12_reg.c ****   int32_t ret;
 2735              		.loc 1 1066 3 view .LVU673
1067:Drivers/BSP/Components/lis2dw12/lis2dw12_reg.c **** 
1068:Drivers/BSP/Components/lis2dw12/lis2dw12_reg.c ****   ret = lis2dw12_read_reg(ctx, LIS2DW12_CTRL_REG7, (uint8_t *) &reg, 1);
 2736              		.loc 1 1068 3 view .LVU674
 2737              		.loc 1 1068 9 is_stmt 0 view .LVU675
 2738 0006 0123     		movs	r3, #1
 2739 0008 01AA     		add	r2, sp, #4
 2740 000a 3F21     		movs	r1, #63
 2741              	.LVL168:
 2742              		.loc 1 1068 9 view .LVU676
 2743 000c FFF7FEFF 		bl	lis2dw12_read_reg
 2744              	.LVL169:
1069:Drivers/BSP/Components/lis2dw12/lis2dw12_reg.c **** 
1070:Drivers/BSP/Components/lis2dw12/lis2dw12_reg.c ****   switch (reg.drdy_pulsed)
 2745              		.loc 1 1070 3 is_stmt 1 view .LVU677
 2746              		.loc 1 1070 14 is_stmt 0 view .LVU678
 2747 0010 9DF80430 		ldrb	r3, [sp, #4]	@ zero_extendqisi2
 2748              		.loc 1 1070 3 view .LVU679
 2749 0014 DB09     		lsrs	r3, r3, #7
 2750 0016 03D0     		beq	.L178
 2751 0018 33B9     		cbnz	r3, .L179
1071:Drivers/BSP/Components/lis2dw12/lis2dw12_reg.c ****   {
1072:Drivers/BSP/Components/lis2dw12/lis2dw12_reg.c ****     case LIS2DW12_DRDY_LATCHED:
1073:Drivers/BSP/Components/lis2dw12/lis2dw12_reg.c ****       *val = LIS2DW12_DRDY_LATCHED;
1074:Drivers/BSP/Components/lis2dw12/lis2dw12_reg.c ****       break;
1075:Drivers/BSP/Components/lis2dw12/lis2dw12_reg.c **** 
1076:Drivers/BSP/Components/lis2dw12/lis2dw12_reg.c ****     case LIS2DW12_DRDY_PULSED:
1077:Drivers/BSP/Components/lis2dw12/lis2dw12_reg.c ****       *val = LIS2DW12_DRDY_PULSED;
1078:Drivers/BSP/Components/lis2dw12/lis2dw12_reg.c ****       break;
1079:Drivers/BSP/Components/lis2dw12/lis2dw12_reg.c **** 
1080:Drivers/BSP/Components/lis2dw12/lis2dw12_reg.c ****     default:
1081:Drivers/BSP/Components/lis2dw12/lis2dw12_reg.c ****       *val = LIS2DW12_DRDY_LATCHED;
ARM GAS  /tmp/ccEdQILT.s 			page 71


 2752              		.loc 1 1081 7 is_stmt 1 view .LVU680
 2753              		.loc 1 1081 12 is_stmt 0 view .LVU681
 2754 001a 0023     		movs	r3, #0
 2755 001c 2370     		strb	r3, [r4]
1082:Drivers/BSP/Components/lis2dw12/lis2dw12_reg.c ****       break;
 2756              		.loc 1 1082 7 is_stmt 1 view .LVU682
1083:Drivers/BSP/Components/lis2dw12/lis2dw12_reg.c ****   }
1084:Drivers/BSP/Components/lis2dw12/lis2dw12_reg.c **** 
1085:Drivers/BSP/Components/lis2dw12/lis2dw12_reg.c ****   return ret;
 2757              		.loc 1 1085 3 view .LVU683
 2758              		.loc 1 1085 10 is_stmt 0 view .LVU684
 2759 001e 01E0     		b	.L177
 2760              	.L178:
1073:Drivers/BSP/Components/lis2dw12/lis2dw12_reg.c ****       break;
 2761              		.loc 1 1073 7 is_stmt 1 view .LVU685
1073:Drivers/BSP/Components/lis2dw12/lis2dw12_reg.c ****       break;
 2762              		.loc 1 1073 12 is_stmt 0 view .LVU686
 2763 0020 0023     		movs	r3, #0
 2764 0022 2370     		strb	r3, [r4]
1074:Drivers/BSP/Components/lis2dw12/lis2dw12_reg.c **** 
 2765              		.loc 1 1074 7 is_stmt 1 view .LVU687
 2766              	.L177:
1086:Drivers/BSP/Components/lis2dw12/lis2dw12_reg.c **** }
 2767              		.loc 1 1086 1 is_stmt 0 view .LVU688
 2768 0024 02B0     		add	sp, sp, #8
 2769              	.LCFI94:
 2770              		.cfi_remember_state
 2771              		.cfi_def_cfa_offset 8
 2772              		@ sp needed
 2773 0026 10BD     		pop	{r4, pc}
 2774              	.LVL170:
 2775              	.L179:
 2776              	.LCFI95:
 2777              		.cfi_restore_state
1077:Drivers/BSP/Components/lis2dw12/lis2dw12_reg.c ****       break;
 2778              		.loc 1 1077 7 is_stmt 1 view .LVU689
1077:Drivers/BSP/Components/lis2dw12/lis2dw12_reg.c ****       break;
 2779              		.loc 1 1077 12 is_stmt 0 view .LVU690
 2780 0028 0123     		movs	r3, #1
 2781 002a 2370     		strb	r3, [r4]
1078:Drivers/BSP/Components/lis2dw12/lis2dw12_reg.c **** 
 2782              		.loc 1 1078 7 is_stmt 1 view .LVU691
 2783 002c FAE7     		b	.L177
 2784              		.cfi_endproc
 2785              	.LFE42:
 2787              		.section	.text.lis2dw12_filter_path_set,"ax",%progbits
 2788              		.align	1
 2789              		.global	lis2dw12_filter_path_set
 2790              		.syntax unified
 2791              		.thumb
 2792              		.thumb_func
 2793              		.fpu fpv4-sp-d16
 2795              	lis2dw12_filter_path_set:
 2796              	.LVL171:
 2797              	.LFB43:
1087:Drivers/BSP/Components/lis2dw12/lis2dw12_reg.c **** 
1088:Drivers/BSP/Components/lis2dw12/lis2dw12_reg.c **** /**
ARM GAS  /tmp/ccEdQILT.s 			page 72


1089:Drivers/BSP/Components/lis2dw12/lis2dw12_reg.c ****   * @}
1090:Drivers/BSP/Components/lis2dw12/lis2dw12_reg.c ****   *
1091:Drivers/BSP/Components/lis2dw12/lis2dw12_reg.c ****   */
1092:Drivers/BSP/Components/lis2dw12/lis2dw12_reg.c **** 
1093:Drivers/BSP/Components/lis2dw12/lis2dw12_reg.c **** /**
1094:Drivers/BSP/Components/lis2dw12/lis2dw12_reg.c ****   * @defgroup  LIS2DW12_Filters
1095:Drivers/BSP/Components/lis2dw12/lis2dw12_reg.c ****   * @brief     This section group all the functions concerning the filters
1096:Drivers/BSP/Components/lis2dw12/lis2dw12_reg.c ****   *            configuration.
1097:Drivers/BSP/Components/lis2dw12/lis2dw12_reg.c ****   * @{
1098:Drivers/BSP/Components/lis2dw12/lis2dw12_reg.c ****   *
1099:Drivers/BSP/Components/lis2dw12/lis2dw12_reg.c ****   */
1100:Drivers/BSP/Components/lis2dw12/lis2dw12_reg.c **** 
1101:Drivers/BSP/Components/lis2dw12/lis2dw12_reg.c **** /**
1102:Drivers/BSP/Components/lis2dw12/lis2dw12_reg.c ****   * @brief  Accelerometer filtering path for outputs.[set]
1103:Drivers/BSP/Components/lis2dw12/lis2dw12_reg.c ****   *
1104:Drivers/BSP/Components/lis2dw12/lis2dw12_reg.c ****   * @param  ctx      read / write interface definitions
1105:Drivers/BSP/Components/lis2dw12/lis2dw12_reg.c ****   * @param  val      change the values of fds in reg CTRL6
1106:Drivers/BSP/Components/lis2dw12/lis2dw12_reg.c ****   * @retval          interface status (MANDATORY: return 0 -> no Error)
1107:Drivers/BSP/Components/lis2dw12/lis2dw12_reg.c ****   *
1108:Drivers/BSP/Components/lis2dw12/lis2dw12_reg.c ****   */
1109:Drivers/BSP/Components/lis2dw12/lis2dw12_reg.c **** int32_t lis2dw12_filter_path_set(stmdev_ctx_t *ctx,
1110:Drivers/BSP/Components/lis2dw12/lis2dw12_reg.c ****                                  lis2dw12_fds_t val)
1111:Drivers/BSP/Components/lis2dw12/lis2dw12_reg.c **** {
 2798              		.loc 1 1111 1 view -0
 2799              		.cfi_startproc
 2800              		@ args = 0, pretend = 0, frame = 8
 2801              		@ frame_needed = 0, uses_anonymous_args = 0
 2802              		.loc 1 1111 1 is_stmt 0 view .LVU693
 2803 0000 30B5     		push	{r4, r5, lr}
 2804              	.LCFI96:
 2805              		.cfi_def_cfa_offset 12
 2806              		.cfi_offset 4, -12
 2807              		.cfi_offset 5, -8
 2808              		.cfi_offset 14, -4
 2809 0002 83B0     		sub	sp, sp, #12
 2810              	.LCFI97:
 2811              		.cfi_def_cfa_offset 24
 2812 0004 0546     		mov	r5, r0
 2813 0006 0C46     		mov	r4, r1
1112:Drivers/BSP/Components/lis2dw12/lis2dw12_reg.c ****   lis2dw12_ctrl6_t ctrl6;
 2814              		.loc 1 1112 3 is_stmt 1 view .LVU694
1113:Drivers/BSP/Components/lis2dw12/lis2dw12_reg.c ****   lis2dw12_ctrl_reg7_t ctrl_reg7;
 2815              		.loc 1 1113 3 view .LVU695
1114:Drivers/BSP/Components/lis2dw12/lis2dw12_reg.c ****   int32_t ret;
 2816              		.loc 1 1114 3 view .LVU696
1115:Drivers/BSP/Components/lis2dw12/lis2dw12_reg.c **** 
1116:Drivers/BSP/Components/lis2dw12/lis2dw12_reg.c ****   ret = lis2dw12_read_reg(ctx, LIS2DW12_CTRL6, (uint8_t *) &ctrl6, 1);
 2817              		.loc 1 1116 3 view .LVU697
 2818              		.loc 1 1116 9 is_stmt 0 view .LVU698
 2819 0008 0123     		movs	r3, #1
 2820 000a 01AA     		add	r2, sp, #4
 2821 000c 2521     		movs	r1, #37
 2822              	.LVL172:
 2823              		.loc 1 1116 9 view .LVU699
 2824 000e FFF7FEFF 		bl	lis2dw12_read_reg
 2825              	.LVL173:
1117:Drivers/BSP/Components/lis2dw12/lis2dw12_reg.c **** 
ARM GAS  /tmp/ccEdQILT.s 			page 73


1118:Drivers/BSP/Components/lis2dw12/lis2dw12_reg.c ****   if (ret == 0)
 2826              		.loc 1 1118 3 is_stmt 1 view .LVU700
 2827              		.loc 1 1118 6 is_stmt 0 view .LVU701
 2828 0012 18B1     		cbz	r0, .L189
 2829              	.LVL174:
 2830              	.L185:
1119:Drivers/BSP/Components/lis2dw12/lis2dw12_reg.c ****   {
1120:Drivers/BSP/Components/lis2dw12/lis2dw12_reg.c ****     ctrl6.fds = ((uint8_t) val & 0x10U) >> 4;
1121:Drivers/BSP/Components/lis2dw12/lis2dw12_reg.c ****     ret = lis2dw12_write_reg(ctx, LIS2DW12_CTRL6, (uint8_t *) &ctrl6, 1);
1122:Drivers/BSP/Components/lis2dw12/lis2dw12_reg.c ****   }
1123:Drivers/BSP/Components/lis2dw12/lis2dw12_reg.c **** 
1124:Drivers/BSP/Components/lis2dw12/lis2dw12_reg.c ****   if (ret == 0)
 2831              		.loc 1 1124 3 is_stmt 1 view .LVU702
 2832              		.loc 1 1124 6 is_stmt 0 view .LVU703
 2833 0014 88B1     		cbz	r0, .L190
 2834              	.L186:
1125:Drivers/BSP/Components/lis2dw12/lis2dw12_reg.c ****   {
1126:Drivers/BSP/Components/lis2dw12/lis2dw12_reg.c ****     ret = lis2dw12_read_reg(ctx, LIS2DW12_CTRL_REG7,
1127:Drivers/BSP/Components/lis2dw12/lis2dw12_reg.c ****                             (uint8_t *) &ctrl_reg7, 1);
1128:Drivers/BSP/Components/lis2dw12/lis2dw12_reg.c ****   }
1129:Drivers/BSP/Components/lis2dw12/lis2dw12_reg.c **** 
1130:Drivers/BSP/Components/lis2dw12/lis2dw12_reg.c ****   if (ret == 0)
 2835              		.loc 1 1130 3 is_stmt 1 view .LVU704
 2836              		.loc 1 1130 6 is_stmt 0 view .LVU705
 2837 0016 B8B1     		cbz	r0, .L191
 2838              	.L184:
1131:Drivers/BSP/Components/lis2dw12/lis2dw12_reg.c ****   {
1132:Drivers/BSP/Components/lis2dw12/lis2dw12_reg.c ****     ctrl_reg7.usr_off_on_out = (uint8_t) val & 0x01U;
1133:Drivers/BSP/Components/lis2dw12/lis2dw12_reg.c ****     ret = lis2dw12_write_reg(ctx, LIS2DW12_CTRL_REG7,
1134:Drivers/BSP/Components/lis2dw12/lis2dw12_reg.c ****                              (uint8_t *) &ctrl_reg7, 1);
1135:Drivers/BSP/Components/lis2dw12/lis2dw12_reg.c ****   }
1136:Drivers/BSP/Components/lis2dw12/lis2dw12_reg.c **** 
1137:Drivers/BSP/Components/lis2dw12/lis2dw12_reg.c ****   return ret;
1138:Drivers/BSP/Components/lis2dw12/lis2dw12_reg.c **** }
 2839              		.loc 1 1138 1 view .LVU706
 2840 0018 03B0     		add	sp, sp, #12
 2841              	.LCFI98:
 2842              		.cfi_remember_state
 2843              		.cfi_def_cfa_offset 12
 2844              		@ sp needed
 2845 001a 30BD     		pop	{r4, r5, pc}
 2846              	.LVL175:
 2847              	.L189:
 2848              	.LCFI99:
 2849              		.cfi_restore_state
1120:Drivers/BSP/Components/lis2dw12/lis2dw12_reg.c ****     ret = lis2dw12_write_reg(ctx, LIS2DW12_CTRL6, (uint8_t *) &ctrl6, 1);
 2850              		.loc 1 1120 5 is_stmt 1 view .LVU707
1120:Drivers/BSP/Components/lis2dw12/lis2dw12_reg.c ****     ret = lis2dw12_write_reg(ctx, LIS2DW12_CTRL6, (uint8_t *) &ctrl6, 1);
 2851              		.loc 1 1120 41 is_stmt 0 view .LVU708
 2852 001c C4F30013 		ubfx	r3, r4, #4, #1
1120:Drivers/BSP/Components/lis2dw12/lis2dw12_reg.c ****     ret = lis2dw12_write_reg(ctx, LIS2DW12_CTRL6, (uint8_t *) &ctrl6, 1);
 2853              		.loc 1 1120 15 view .LVU709
 2854 0020 9DF80420 		ldrb	r2, [sp, #4]	@ zero_extendqisi2
 2855 0024 63F3C302 		bfi	r2, r3, #3, #1
 2856 0028 8DF80420 		strb	r2, [sp, #4]
1121:Drivers/BSP/Components/lis2dw12/lis2dw12_reg.c ****   }
 2857              		.loc 1 1121 5 is_stmt 1 view .LVU710
ARM GAS  /tmp/ccEdQILT.s 			page 74


1121:Drivers/BSP/Components/lis2dw12/lis2dw12_reg.c ****   }
 2858              		.loc 1 1121 11 is_stmt 0 view .LVU711
 2859 002c 0123     		movs	r3, #1
 2860              	.LVL176:
1121:Drivers/BSP/Components/lis2dw12/lis2dw12_reg.c ****   }
 2861              		.loc 1 1121 11 view .LVU712
 2862 002e 01AA     		add	r2, sp, #4
 2863 0030 2521     		movs	r1, #37
 2864 0032 2846     		mov	r0, r5
 2865 0034 FFF7FEFF 		bl	lis2dw12_write_reg
 2866              	.LVL177:
1121:Drivers/BSP/Components/lis2dw12/lis2dw12_reg.c ****   }
 2867              		.loc 1 1121 11 view .LVU713
 2868 0038 ECE7     		b	.L185
 2869              	.L190:
1126:Drivers/BSP/Components/lis2dw12/lis2dw12_reg.c ****                             (uint8_t *) &ctrl_reg7, 1);
 2870              		.loc 1 1126 5 is_stmt 1 view .LVU714
1126:Drivers/BSP/Components/lis2dw12/lis2dw12_reg.c ****                             (uint8_t *) &ctrl_reg7, 1);
 2871              		.loc 1 1126 11 is_stmt 0 view .LVU715
 2872 003a 0123     		movs	r3, #1
 2873 003c 6A46     		mov	r2, sp
 2874 003e 3F21     		movs	r1, #63
 2875 0040 2846     		mov	r0, r5
 2876              	.LVL178:
1126:Drivers/BSP/Components/lis2dw12/lis2dw12_reg.c ****                             (uint8_t *) &ctrl_reg7, 1);
 2877              		.loc 1 1126 11 view .LVU716
 2878 0042 FFF7FEFF 		bl	lis2dw12_read_reg
 2879              	.LVL179:
1126:Drivers/BSP/Components/lis2dw12/lis2dw12_reg.c ****                             (uint8_t *) &ctrl_reg7, 1);
 2880              		.loc 1 1126 11 view .LVU717
 2881 0046 E6E7     		b	.L186
 2882              	.L191:
1132:Drivers/BSP/Components/lis2dw12/lis2dw12_reg.c ****     ret = lis2dw12_write_reg(ctx, LIS2DW12_CTRL_REG7,
 2883              		.loc 1 1132 5 is_stmt 1 view .LVU718
1132:Drivers/BSP/Components/lis2dw12/lis2dw12_reg.c ****     ret = lis2dw12_write_reg(ctx, LIS2DW12_CTRL_REG7,
 2884              		.loc 1 1132 30 is_stmt 0 view .LVU719
 2885 0048 9DF80030 		ldrb	r3, [sp]	@ zero_extendqisi2
 2886 004c 64F30413 		bfi	r3, r4, #4, #1
 2887 0050 8DF80030 		strb	r3, [sp]
1133:Drivers/BSP/Components/lis2dw12/lis2dw12_reg.c ****                              (uint8_t *) &ctrl_reg7, 1);
 2888              		.loc 1 1133 5 is_stmt 1 view .LVU720
1133:Drivers/BSP/Components/lis2dw12/lis2dw12_reg.c ****                              (uint8_t *) &ctrl_reg7, 1);
 2889              		.loc 1 1133 11 is_stmt 0 view .LVU721
 2890 0054 0123     		movs	r3, #1
 2891 0056 6A46     		mov	r2, sp
 2892 0058 3F21     		movs	r1, #63
 2893 005a 2846     		mov	r0, r5
 2894              	.LVL180:
1133:Drivers/BSP/Components/lis2dw12/lis2dw12_reg.c ****                              (uint8_t *) &ctrl_reg7, 1);
 2895              		.loc 1 1133 11 view .LVU722
 2896 005c FFF7FEFF 		bl	lis2dw12_write_reg
 2897              	.LVL181:
1137:Drivers/BSP/Components/lis2dw12/lis2dw12_reg.c **** }
 2898              		.loc 1 1137 3 is_stmt 1 view .LVU723
1137:Drivers/BSP/Components/lis2dw12/lis2dw12_reg.c **** }
 2899              		.loc 1 1137 10 is_stmt 0 view .LVU724
 2900 0060 DAE7     		b	.L184
ARM GAS  /tmp/ccEdQILT.s 			page 75


 2901              		.cfi_endproc
 2902              	.LFE43:
 2904              		.section	.text.lis2dw12_filter_path_get,"ax",%progbits
 2905              		.align	1
 2906              		.global	lis2dw12_filter_path_get
 2907              		.syntax unified
 2908              		.thumb
 2909              		.thumb_func
 2910              		.fpu fpv4-sp-d16
 2912              	lis2dw12_filter_path_get:
 2913              	.LVL182:
 2914              	.LFB44:
1139:Drivers/BSP/Components/lis2dw12/lis2dw12_reg.c **** 
1140:Drivers/BSP/Components/lis2dw12/lis2dw12_reg.c **** /**
1141:Drivers/BSP/Components/lis2dw12/lis2dw12_reg.c ****   * @brief  Accelerometer filtering path for outputs.[get]
1142:Drivers/BSP/Components/lis2dw12/lis2dw12_reg.c ****   *
1143:Drivers/BSP/Components/lis2dw12/lis2dw12_reg.c ****   * @param  ctx      read / write interface definitions
1144:Drivers/BSP/Components/lis2dw12/lis2dw12_reg.c ****   * @param  val      Get the values of fds in reg CTRL6
1145:Drivers/BSP/Components/lis2dw12/lis2dw12_reg.c ****   * @retval          interface status (MANDATORY: return 0 -> no Error)
1146:Drivers/BSP/Components/lis2dw12/lis2dw12_reg.c ****   *
1147:Drivers/BSP/Components/lis2dw12/lis2dw12_reg.c ****   */
1148:Drivers/BSP/Components/lis2dw12/lis2dw12_reg.c **** int32_t lis2dw12_filter_path_get(stmdev_ctx_t *ctx,
1149:Drivers/BSP/Components/lis2dw12/lis2dw12_reg.c ****                                  lis2dw12_fds_t *val)
1150:Drivers/BSP/Components/lis2dw12/lis2dw12_reg.c **** {
 2915              		.loc 1 1150 1 is_stmt 1 view -0
 2916              		.cfi_startproc
 2917              		@ args = 0, pretend = 0, frame = 8
 2918              		@ frame_needed = 0, uses_anonymous_args = 0
 2919              		.loc 1 1150 1 is_stmt 0 view .LVU726
 2920 0000 30B5     		push	{r4, r5, lr}
 2921              	.LCFI100:
 2922              		.cfi_def_cfa_offset 12
 2923              		.cfi_offset 4, -12
 2924              		.cfi_offset 5, -8
 2925              		.cfi_offset 14, -4
 2926 0002 83B0     		sub	sp, sp, #12
 2927              	.LCFI101:
 2928              		.cfi_def_cfa_offset 24
 2929 0004 0446     		mov	r4, r0
 2930 0006 0D46     		mov	r5, r1
1151:Drivers/BSP/Components/lis2dw12/lis2dw12_reg.c ****   lis2dw12_ctrl6_t ctrl6;
 2931              		.loc 1 1151 3 is_stmt 1 view .LVU727
1152:Drivers/BSP/Components/lis2dw12/lis2dw12_reg.c ****   lis2dw12_ctrl_reg7_t ctrl_reg7;
 2932              		.loc 1 1152 3 view .LVU728
1153:Drivers/BSP/Components/lis2dw12/lis2dw12_reg.c ****   int32_t ret;
 2933              		.loc 1 1153 3 view .LVU729
1154:Drivers/BSP/Components/lis2dw12/lis2dw12_reg.c **** 
1155:Drivers/BSP/Components/lis2dw12/lis2dw12_reg.c ****   ret = lis2dw12_read_reg(ctx, LIS2DW12_CTRL6, (uint8_t *) &ctrl6, 1);
 2934              		.loc 1 1155 3 view .LVU730
 2935              		.loc 1 1155 9 is_stmt 0 view .LVU731
 2936 0008 0123     		movs	r3, #1
 2937 000a 01AA     		add	r2, sp, #4
 2938 000c 2521     		movs	r1, #37
 2939              	.LVL183:
 2940              		.loc 1 1155 9 view .LVU732
 2941 000e FFF7FEFF 		bl	lis2dw12_read_reg
 2942              	.LVL184:
ARM GAS  /tmp/ccEdQILT.s 			page 76


1156:Drivers/BSP/Components/lis2dw12/lis2dw12_reg.c **** 
1157:Drivers/BSP/Components/lis2dw12/lis2dw12_reg.c ****   if (ret == 0)
 2943              		.loc 1 1157 3 is_stmt 1 view .LVU733
 2944              		.loc 1 1157 6 is_stmt 0 view .LVU734
 2945 0012 08B1     		cbz	r0, .L198
 2946              	.LVL185:
 2947              	.L192:
1158:Drivers/BSP/Components/lis2dw12/lis2dw12_reg.c ****   {
1159:Drivers/BSP/Components/lis2dw12/lis2dw12_reg.c ****     ret = lis2dw12_read_reg(ctx, LIS2DW12_CTRL_REG7,
1160:Drivers/BSP/Components/lis2dw12/lis2dw12_reg.c ****                             (uint8_t *) &ctrl_reg7, 1);
1161:Drivers/BSP/Components/lis2dw12/lis2dw12_reg.c **** 
1162:Drivers/BSP/Components/lis2dw12/lis2dw12_reg.c ****     switch ((ctrl6.fds << 4) + ctrl_reg7.usr_off_on_out)
1163:Drivers/BSP/Components/lis2dw12/lis2dw12_reg.c ****     {
1164:Drivers/BSP/Components/lis2dw12/lis2dw12_reg.c ****       case LIS2DW12_LPF_ON_OUT:
1165:Drivers/BSP/Components/lis2dw12/lis2dw12_reg.c ****         *val = LIS2DW12_LPF_ON_OUT;
1166:Drivers/BSP/Components/lis2dw12/lis2dw12_reg.c ****         break;
1167:Drivers/BSP/Components/lis2dw12/lis2dw12_reg.c **** 
1168:Drivers/BSP/Components/lis2dw12/lis2dw12_reg.c ****       case LIS2DW12_USER_OFFSET_ON_OUT:
1169:Drivers/BSP/Components/lis2dw12/lis2dw12_reg.c ****         *val = LIS2DW12_USER_OFFSET_ON_OUT;
1170:Drivers/BSP/Components/lis2dw12/lis2dw12_reg.c ****         break;
1171:Drivers/BSP/Components/lis2dw12/lis2dw12_reg.c **** 
1172:Drivers/BSP/Components/lis2dw12/lis2dw12_reg.c ****       case LIS2DW12_HIGH_PASS_ON_OUT:
1173:Drivers/BSP/Components/lis2dw12/lis2dw12_reg.c ****         *val = LIS2DW12_HIGH_PASS_ON_OUT;
1174:Drivers/BSP/Components/lis2dw12/lis2dw12_reg.c ****         break;
1175:Drivers/BSP/Components/lis2dw12/lis2dw12_reg.c **** 
1176:Drivers/BSP/Components/lis2dw12/lis2dw12_reg.c ****       default:
1177:Drivers/BSP/Components/lis2dw12/lis2dw12_reg.c ****         *val = LIS2DW12_LPF_ON_OUT;
1178:Drivers/BSP/Components/lis2dw12/lis2dw12_reg.c ****         break;
1179:Drivers/BSP/Components/lis2dw12/lis2dw12_reg.c ****     }
1180:Drivers/BSP/Components/lis2dw12/lis2dw12_reg.c ****   }
1181:Drivers/BSP/Components/lis2dw12/lis2dw12_reg.c **** 
1182:Drivers/BSP/Components/lis2dw12/lis2dw12_reg.c ****   return ret;
1183:Drivers/BSP/Components/lis2dw12/lis2dw12_reg.c **** }
 2948              		.loc 1 1183 1 view .LVU735
 2949 0014 03B0     		add	sp, sp, #12
 2950              	.LCFI102:
 2951              		.cfi_remember_state
 2952              		.cfi_def_cfa_offset 12
 2953              		@ sp needed
 2954 0016 30BD     		pop	{r4, r5, pc}
 2955              	.LVL186:
 2956              	.L198:
 2957              	.LCFI103:
 2958              		.cfi_restore_state
1159:Drivers/BSP/Components/lis2dw12/lis2dw12_reg.c ****                             (uint8_t *) &ctrl_reg7, 1);
 2959              		.loc 1 1159 5 is_stmt 1 view .LVU736
1159:Drivers/BSP/Components/lis2dw12/lis2dw12_reg.c ****                             (uint8_t *) &ctrl_reg7, 1);
 2960              		.loc 1 1159 11 is_stmt 0 view .LVU737
 2961 0018 0123     		movs	r3, #1
 2962              	.LVL187:
1159:Drivers/BSP/Components/lis2dw12/lis2dw12_reg.c ****                             (uint8_t *) &ctrl_reg7, 1);
 2963              		.loc 1 1159 11 view .LVU738
 2964 001a 6A46     		mov	r2, sp
 2965 001c 3F21     		movs	r1, #63
 2966 001e 2046     		mov	r0, r4
 2967 0020 FFF7FEFF 		bl	lis2dw12_read_reg
 2968              	.LVL188:
ARM GAS  /tmp/ccEdQILT.s 			page 77


1162:Drivers/BSP/Components/lis2dw12/lis2dw12_reg.c ****     {
 2969              		.loc 1 1162 5 is_stmt 1 view .LVU739
1162:Drivers/BSP/Components/lis2dw12/lis2dw12_reg.c ****     {
 2970              		.loc 1 1162 19 is_stmt 0 view .LVU740
 2971 0024 9DF80430 		ldrb	r3, [sp, #4]	@ zero_extendqisi2
 2972 0028 C3F3C002 		ubfx	r2, r3, #3, #1
1162:Drivers/BSP/Components/lis2dw12/lis2dw12_reg.c ****     {
 2973              		.loc 1 1162 41 view .LVU741
 2974 002c 9DF80030 		ldrb	r3, [sp]	@ zero_extendqisi2
 2975 0030 C3F30013 		ubfx	r3, r3, #4, #1
1162:Drivers/BSP/Components/lis2dw12/lis2dw12_reg.c ****     {
 2976              		.loc 1 1162 30 view .LVU742
 2977 0034 03EB0213 		add	r3, r3, r2, lsl #4
1162:Drivers/BSP/Components/lis2dw12/lis2dw12_reg.c ****     {
 2978              		.loc 1 1162 5 view .LVU743
 2979 0038 012B     		cmp	r3, #1
 2980 003a 07D0     		beq	.L194
 2981 003c 102B     		cmp	r3, #16
 2982 003e 08D0     		beq	.L195
 2983 0040 13B1     		cbz	r3, .L199
1177:Drivers/BSP/Components/lis2dw12/lis2dw12_reg.c ****         break;
 2984              		.loc 1 1177 9 is_stmt 1 view .LVU744
1177:Drivers/BSP/Components/lis2dw12/lis2dw12_reg.c ****         break;
 2985              		.loc 1 1177 14 is_stmt 0 view .LVU745
 2986 0042 0023     		movs	r3, #0
 2987 0044 2B70     		strb	r3, [r5]
1178:Drivers/BSP/Components/lis2dw12/lis2dw12_reg.c ****     }
 2988              		.loc 1 1178 9 is_stmt 1 view .LVU746
1182:Drivers/BSP/Components/lis2dw12/lis2dw12_reg.c **** }
 2989              		.loc 1 1182 3 view .LVU747
1182:Drivers/BSP/Components/lis2dw12/lis2dw12_reg.c **** }
 2990              		.loc 1 1182 10 is_stmt 0 view .LVU748
 2991 0046 E5E7     		b	.L192
 2992              	.L199:
1165:Drivers/BSP/Components/lis2dw12/lis2dw12_reg.c ****         break;
 2993              		.loc 1 1165 9 is_stmt 1 view .LVU749
1165:Drivers/BSP/Components/lis2dw12/lis2dw12_reg.c ****         break;
 2994              		.loc 1 1165 14 is_stmt 0 view .LVU750
 2995 0048 2B70     		strb	r3, [r5]
1166:Drivers/BSP/Components/lis2dw12/lis2dw12_reg.c **** 
 2996              		.loc 1 1166 9 is_stmt 1 view .LVU751
 2997 004a E3E7     		b	.L192
 2998              	.L194:
1169:Drivers/BSP/Components/lis2dw12/lis2dw12_reg.c ****         break;
 2999              		.loc 1 1169 9 view .LVU752
1169:Drivers/BSP/Components/lis2dw12/lis2dw12_reg.c ****         break;
 3000              		.loc 1 1169 14 is_stmt 0 view .LVU753
 3001 004c 0123     		movs	r3, #1
 3002 004e 2B70     		strb	r3, [r5]
1170:Drivers/BSP/Components/lis2dw12/lis2dw12_reg.c **** 
 3003              		.loc 1 1170 9 is_stmt 1 view .LVU754
 3004 0050 E0E7     		b	.L192
 3005              	.L195:
1173:Drivers/BSP/Components/lis2dw12/lis2dw12_reg.c ****         break;
 3006              		.loc 1 1173 9 view .LVU755
1173:Drivers/BSP/Components/lis2dw12/lis2dw12_reg.c ****         break;
 3007              		.loc 1 1173 14 is_stmt 0 view .LVU756
ARM GAS  /tmp/ccEdQILT.s 			page 78


 3008 0052 1023     		movs	r3, #16
 3009 0054 2B70     		strb	r3, [r5]
1174:Drivers/BSP/Components/lis2dw12/lis2dw12_reg.c **** 
 3010              		.loc 1 1174 9 is_stmt 1 view .LVU757
 3011 0056 DDE7     		b	.L192
 3012              		.cfi_endproc
 3013              	.LFE44:
 3015              		.section	.text.lis2dw12_filter_bandwidth_set,"ax",%progbits
 3016              		.align	1
 3017              		.global	lis2dw12_filter_bandwidth_set
 3018              		.syntax unified
 3019              		.thumb
 3020              		.thumb_func
 3021              		.fpu fpv4-sp-d16
 3023              	lis2dw12_filter_bandwidth_set:
 3024              	.LVL189:
 3025              	.LFB45:
1184:Drivers/BSP/Components/lis2dw12/lis2dw12_reg.c **** 
1185:Drivers/BSP/Components/lis2dw12/lis2dw12_reg.c **** /**
1186:Drivers/BSP/Components/lis2dw12/lis2dw12_reg.c ****   * @brief   Accelerometer cutoff filter frequency. Valid for low and high
1187:Drivers/BSP/Components/lis2dw12/lis2dw12_reg.c ****   *          pass filter.[set]
1188:Drivers/BSP/Components/lis2dw12/lis2dw12_reg.c ****   *
1189:Drivers/BSP/Components/lis2dw12/lis2dw12_reg.c ****   * @param  ctx      read / write interface definitions
1190:Drivers/BSP/Components/lis2dw12/lis2dw12_reg.c ****   * @param  val      change the values of bw_filt in reg CTRL6
1191:Drivers/BSP/Components/lis2dw12/lis2dw12_reg.c ****   * @retval          interface status (MANDATORY: return 0 -> no Error)
1192:Drivers/BSP/Components/lis2dw12/lis2dw12_reg.c ****   *
1193:Drivers/BSP/Components/lis2dw12/lis2dw12_reg.c ****   */
1194:Drivers/BSP/Components/lis2dw12/lis2dw12_reg.c **** int32_t lis2dw12_filter_bandwidth_set(stmdev_ctx_t *ctx,
1195:Drivers/BSP/Components/lis2dw12/lis2dw12_reg.c ****                                       lis2dw12_bw_filt_t val)
1196:Drivers/BSP/Components/lis2dw12/lis2dw12_reg.c **** {
 3026              		.loc 1 1196 1 view -0
 3027              		.cfi_startproc
 3028              		@ args = 0, pretend = 0, frame = 8
 3029              		@ frame_needed = 0, uses_anonymous_args = 0
 3030              		.loc 1 1196 1 is_stmt 0 view .LVU759
 3031 0000 30B5     		push	{r4, r5, lr}
 3032              	.LCFI104:
 3033              		.cfi_def_cfa_offset 12
 3034              		.cfi_offset 4, -12
 3035              		.cfi_offset 5, -8
 3036              		.cfi_offset 14, -4
 3037 0002 83B0     		sub	sp, sp, #12
 3038              	.LCFI105:
 3039              		.cfi_def_cfa_offset 24
 3040 0004 0446     		mov	r4, r0
 3041 0006 0D46     		mov	r5, r1
1197:Drivers/BSP/Components/lis2dw12/lis2dw12_reg.c ****   lis2dw12_ctrl6_t reg;
 3042              		.loc 1 1197 3 is_stmt 1 view .LVU760
1198:Drivers/BSP/Components/lis2dw12/lis2dw12_reg.c ****   int32_t ret;
 3043              		.loc 1 1198 3 view .LVU761
1199:Drivers/BSP/Components/lis2dw12/lis2dw12_reg.c **** 
1200:Drivers/BSP/Components/lis2dw12/lis2dw12_reg.c ****   ret = lis2dw12_read_reg(ctx, LIS2DW12_CTRL6, (uint8_t *) &reg, 1);
 3044              		.loc 1 1200 3 view .LVU762
 3045              		.loc 1 1200 9 is_stmt 0 view .LVU763
 3046 0008 0123     		movs	r3, #1
 3047 000a 01AA     		add	r2, sp, #4
 3048 000c 2521     		movs	r1, #37
ARM GAS  /tmp/ccEdQILT.s 			page 79


 3049              	.LVL190:
 3050              		.loc 1 1200 9 view .LVU764
 3051 000e FFF7FEFF 		bl	lis2dw12_read_reg
 3052              	.LVL191:
1201:Drivers/BSP/Components/lis2dw12/lis2dw12_reg.c **** 
1202:Drivers/BSP/Components/lis2dw12/lis2dw12_reg.c ****   if (ret == 0)
 3053              		.loc 1 1202 3 is_stmt 1 view .LVU765
 3054              		.loc 1 1202 6 is_stmt 0 view .LVU766
 3055 0012 08B1     		cbz	r0, .L203
 3056              	.LVL192:
 3057              	.L200:
1203:Drivers/BSP/Components/lis2dw12/lis2dw12_reg.c ****   {
1204:Drivers/BSP/Components/lis2dw12/lis2dw12_reg.c ****     reg.bw_filt = (uint8_t) val;
1205:Drivers/BSP/Components/lis2dw12/lis2dw12_reg.c ****     ret = lis2dw12_write_reg(ctx, LIS2DW12_CTRL6, (uint8_t *) &reg, 1);
1206:Drivers/BSP/Components/lis2dw12/lis2dw12_reg.c ****   }
1207:Drivers/BSP/Components/lis2dw12/lis2dw12_reg.c **** 
1208:Drivers/BSP/Components/lis2dw12/lis2dw12_reg.c ****   return ret;
1209:Drivers/BSP/Components/lis2dw12/lis2dw12_reg.c **** }
 3058              		.loc 1 1209 1 view .LVU767
 3059 0014 03B0     		add	sp, sp, #12
 3060              	.LCFI106:
 3061              		.cfi_remember_state
 3062              		.cfi_def_cfa_offset 12
 3063              		@ sp needed
 3064 0016 30BD     		pop	{r4, r5, pc}
 3065              	.LVL193:
 3066              	.L203:
 3067              	.LCFI107:
 3068              		.cfi_restore_state
1204:Drivers/BSP/Components/lis2dw12/lis2dw12_reg.c ****     ret = lis2dw12_write_reg(ctx, LIS2DW12_CTRL6, (uint8_t *) &reg, 1);
 3069              		.loc 1 1204 5 is_stmt 1 view .LVU768
1204:Drivers/BSP/Components/lis2dw12/lis2dw12_reg.c ****     ret = lis2dw12_write_reg(ctx, LIS2DW12_CTRL6, (uint8_t *) &reg, 1);
 3070              		.loc 1 1204 17 is_stmt 0 view .LVU769
 3071 0018 9DF80430 		ldrb	r3, [sp, #4]	@ zero_extendqisi2
 3072 001c 65F38713 		bfi	r3, r5, #6, #2
 3073 0020 8DF80430 		strb	r3, [sp, #4]
1205:Drivers/BSP/Components/lis2dw12/lis2dw12_reg.c ****   }
 3074              		.loc 1 1205 5 is_stmt 1 view .LVU770
1205:Drivers/BSP/Components/lis2dw12/lis2dw12_reg.c ****   }
 3075              		.loc 1 1205 11 is_stmt 0 view .LVU771
 3076 0024 0123     		movs	r3, #1
 3077              	.LVL194:
1205:Drivers/BSP/Components/lis2dw12/lis2dw12_reg.c ****   }
 3078              		.loc 1 1205 11 view .LVU772
 3079 0026 01AA     		add	r2, sp, #4
 3080 0028 2521     		movs	r1, #37
 3081 002a 2046     		mov	r0, r4
 3082 002c FFF7FEFF 		bl	lis2dw12_write_reg
 3083              	.LVL195:
1208:Drivers/BSP/Components/lis2dw12/lis2dw12_reg.c **** }
 3084              		.loc 1 1208 3 is_stmt 1 view .LVU773
1208:Drivers/BSP/Components/lis2dw12/lis2dw12_reg.c **** }
 3085              		.loc 1 1208 10 is_stmt 0 view .LVU774
 3086 0030 F0E7     		b	.L200
 3087              		.cfi_endproc
 3088              	.LFE45:
 3090              		.section	.text.lis2dw12_filter_bandwidth_get,"ax",%progbits
ARM GAS  /tmp/ccEdQILT.s 			page 80


 3091              		.align	1
 3092              		.global	lis2dw12_filter_bandwidth_get
 3093              		.syntax unified
 3094              		.thumb
 3095              		.thumb_func
 3096              		.fpu fpv4-sp-d16
 3098              	lis2dw12_filter_bandwidth_get:
 3099              	.LVL196:
 3100              	.LFB46:
1210:Drivers/BSP/Components/lis2dw12/lis2dw12_reg.c **** 
1211:Drivers/BSP/Components/lis2dw12/lis2dw12_reg.c **** /**
1212:Drivers/BSP/Components/lis2dw12/lis2dw12_reg.c ****   * @brief   Accelerometer cutoff filter frequency. Valid for low and
1213:Drivers/BSP/Components/lis2dw12/lis2dw12_reg.c ****   *          high pass filter.[get]
1214:Drivers/BSP/Components/lis2dw12/lis2dw12_reg.c ****   *
1215:Drivers/BSP/Components/lis2dw12/lis2dw12_reg.c ****   * @param  ctx      read / write interface definitions
1216:Drivers/BSP/Components/lis2dw12/lis2dw12_reg.c ****   * @param  val      Get the values of bw_filt in reg CTRL6
1217:Drivers/BSP/Components/lis2dw12/lis2dw12_reg.c ****   * @retval          interface status (MANDATORY: return 0 -> no Error)
1218:Drivers/BSP/Components/lis2dw12/lis2dw12_reg.c ****   *
1219:Drivers/BSP/Components/lis2dw12/lis2dw12_reg.c ****   */
1220:Drivers/BSP/Components/lis2dw12/lis2dw12_reg.c **** int32_t lis2dw12_filter_bandwidth_get(stmdev_ctx_t *ctx,
1221:Drivers/BSP/Components/lis2dw12/lis2dw12_reg.c ****                                       lis2dw12_bw_filt_t *val)
1222:Drivers/BSP/Components/lis2dw12/lis2dw12_reg.c **** {
 3101              		.loc 1 1222 1 is_stmt 1 view -0
 3102              		.cfi_startproc
 3103              		@ args = 0, pretend = 0, frame = 8
 3104              		@ frame_needed = 0, uses_anonymous_args = 0
 3105              		.loc 1 1222 1 is_stmt 0 view .LVU776
 3106 0000 10B5     		push	{r4, lr}
 3107              	.LCFI108:
 3108              		.cfi_def_cfa_offset 8
 3109              		.cfi_offset 4, -8
 3110              		.cfi_offset 14, -4
 3111 0002 82B0     		sub	sp, sp, #8
 3112              	.LCFI109:
 3113              		.cfi_def_cfa_offset 16
 3114 0004 0C46     		mov	r4, r1
1223:Drivers/BSP/Components/lis2dw12/lis2dw12_reg.c ****   lis2dw12_ctrl6_t reg;
 3115              		.loc 1 1223 3 is_stmt 1 view .LVU777
1224:Drivers/BSP/Components/lis2dw12/lis2dw12_reg.c ****   int32_t ret;
 3116              		.loc 1 1224 3 view .LVU778
1225:Drivers/BSP/Components/lis2dw12/lis2dw12_reg.c **** 
1226:Drivers/BSP/Components/lis2dw12/lis2dw12_reg.c ****   ret = lis2dw12_read_reg(ctx, LIS2DW12_CTRL6, (uint8_t *) &reg, 1);
 3117              		.loc 1 1226 3 view .LVU779
 3118              		.loc 1 1226 9 is_stmt 0 view .LVU780
 3119 0006 0123     		movs	r3, #1
 3120 0008 01AA     		add	r2, sp, #4
 3121 000a 2521     		movs	r1, #37
 3122              	.LVL197:
 3123              		.loc 1 1226 9 view .LVU781
 3124 000c FFF7FEFF 		bl	lis2dw12_read_reg
 3125              	.LVL198:
1227:Drivers/BSP/Components/lis2dw12/lis2dw12_reg.c **** 
1228:Drivers/BSP/Components/lis2dw12/lis2dw12_reg.c ****   switch (reg.bw_filt)
 3126              		.loc 1 1228 3 is_stmt 1 view .LVU782
 3127              		.loc 1 1228 14 is_stmt 0 view .LVU783
 3128 0010 9DF80430 		ldrb	r3, [sp, #4]	@ zero_extendqisi2
 3129 0014 9B09     		lsrs	r3, r3, #6
ARM GAS  /tmp/ccEdQILT.s 			page 81


 3130              		.loc 1 1228 3 view .LVU784
 3131 0016 032B     		cmp	r3, #3
 3132 0018 10D8     		bhi	.L205
 3133 001a DFE803F0 		tbb	[pc, r3]
 3134              	.L207:
 3135 001e 02       		.byte	(.L210-.L207)/2
 3136 001f 06       		.byte	(.L209-.L207)/2
 3137 0020 09       		.byte	(.L208-.L207)/2
 3138 0021 0C       		.byte	(.L206-.L207)/2
 3139              		.p2align 1
 3140              	.L210:
1229:Drivers/BSP/Components/lis2dw12/lis2dw12_reg.c ****   {
1230:Drivers/BSP/Components/lis2dw12/lis2dw12_reg.c ****     case LIS2DW12_ODR_DIV_2:
1231:Drivers/BSP/Components/lis2dw12/lis2dw12_reg.c ****       *val = LIS2DW12_ODR_DIV_2;
 3141              		.loc 1 1231 7 is_stmt 1 view .LVU785
 3142              		.loc 1 1231 12 is_stmt 0 view .LVU786
 3143 0022 0023     		movs	r3, #0
 3144 0024 2370     		strb	r3, [r4]
1232:Drivers/BSP/Components/lis2dw12/lis2dw12_reg.c ****       break;
 3145              		.loc 1 1232 7 is_stmt 1 view .LVU787
 3146              	.L204:
1233:Drivers/BSP/Components/lis2dw12/lis2dw12_reg.c **** 
1234:Drivers/BSP/Components/lis2dw12/lis2dw12_reg.c ****     case LIS2DW12_ODR_DIV_4:
1235:Drivers/BSP/Components/lis2dw12/lis2dw12_reg.c ****       *val = LIS2DW12_ODR_DIV_4;
1236:Drivers/BSP/Components/lis2dw12/lis2dw12_reg.c ****       break;
1237:Drivers/BSP/Components/lis2dw12/lis2dw12_reg.c **** 
1238:Drivers/BSP/Components/lis2dw12/lis2dw12_reg.c ****     case LIS2DW12_ODR_DIV_10:
1239:Drivers/BSP/Components/lis2dw12/lis2dw12_reg.c ****       *val = LIS2DW12_ODR_DIV_10;
1240:Drivers/BSP/Components/lis2dw12/lis2dw12_reg.c ****       break;
1241:Drivers/BSP/Components/lis2dw12/lis2dw12_reg.c **** 
1242:Drivers/BSP/Components/lis2dw12/lis2dw12_reg.c ****     case LIS2DW12_ODR_DIV_20:
1243:Drivers/BSP/Components/lis2dw12/lis2dw12_reg.c ****       *val = LIS2DW12_ODR_DIV_20;
1244:Drivers/BSP/Components/lis2dw12/lis2dw12_reg.c ****       break;
1245:Drivers/BSP/Components/lis2dw12/lis2dw12_reg.c **** 
1246:Drivers/BSP/Components/lis2dw12/lis2dw12_reg.c ****     default:
1247:Drivers/BSP/Components/lis2dw12/lis2dw12_reg.c ****       *val = LIS2DW12_ODR_DIV_2;
1248:Drivers/BSP/Components/lis2dw12/lis2dw12_reg.c ****       break;
1249:Drivers/BSP/Components/lis2dw12/lis2dw12_reg.c ****   }
1250:Drivers/BSP/Components/lis2dw12/lis2dw12_reg.c **** 
1251:Drivers/BSP/Components/lis2dw12/lis2dw12_reg.c ****   return ret;
1252:Drivers/BSP/Components/lis2dw12/lis2dw12_reg.c **** }
 3147              		.loc 1 1252 1 is_stmt 0 view .LVU788
 3148 0026 02B0     		add	sp, sp, #8
 3149              	.LCFI110:
 3150              		.cfi_remember_state
 3151              		.cfi_def_cfa_offset 8
 3152              		@ sp needed
 3153 0028 10BD     		pop	{r4, pc}
 3154              	.LVL199:
 3155              	.L209:
 3156              	.LCFI111:
 3157              		.cfi_restore_state
1235:Drivers/BSP/Components/lis2dw12/lis2dw12_reg.c ****       break;
 3158              		.loc 1 1235 7 is_stmt 1 view .LVU789
1235:Drivers/BSP/Components/lis2dw12/lis2dw12_reg.c ****       break;
 3159              		.loc 1 1235 12 is_stmt 0 view .LVU790
 3160 002a 0123     		movs	r3, #1
ARM GAS  /tmp/ccEdQILT.s 			page 82


 3161 002c 2370     		strb	r3, [r4]
1236:Drivers/BSP/Components/lis2dw12/lis2dw12_reg.c **** 
 3162              		.loc 1 1236 7 is_stmt 1 view .LVU791
 3163 002e FAE7     		b	.L204
 3164              	.L208:
1239:Drivers/BSP/Components/lis2dw12/lis2dw12_reg.c ****       break;
 3165              		.loc 1 1239 7 view .LVU792
1239:Drivers/BSP/Components/lis2dw12/lis2dw12_reg.c ****       break;
 3166              		.loc 1 1239 12 is_stmt 0 view .LVU793
 3167 0030 0223     		movs	r3, #2
 3168 0032 2370     		strb	r3, [r4]
1240:Drivers/BSP/Components/lis2dw12/lis2dw12_reg.c **** 
 3169              		.loc 1 1240 7 is_stmt 1 view .LVU794
 3170 0034 F7E7     		b	.L204
 3171              	.L206:
1243:Drivers/BSP/Components/lis2dw12/lis2dw12_reg.c ****       break;
 3172              		.loc 1 1243 7 view .LVU795
1243:Drivers/BSP/Components/lis2dw12/lis2dw12_reg.c ****       break;
 3173              		.loc 1 1243 12 is_stmt 0 view .LVU796
 3174 0036 0323     		movs	r3, #3
 3175 0038 2370     		strb	r3, [r4]
1244:Drivers/BSP/Components/lis2dw12/lis2dw12_reg.c **** 
 3176              		.loc 1 1244 7 is_stmt 1 view .LVU797
 3177 003a F4E7     		b	.L204
 3178              	.L205:
1247:Drivers/BSP/Components/lis2dw12/lis2dw12_reg.c ****       break;
 3179              		.loc 1 1247 7 view .LVU798
1247:Drivers/BSP/Components/lis2dw12/lis2dw12_reg.c ****       break;
 3180              		.loc 1 1247 12 is_stmt 0 view .LVU799
 3181 003c 0023     		movs	r3, #0
 3182 003e 2370     		strb	r3, [r4]
1248:Drivers/BSP/Components/lis2dw12/lis2dw12_reg.c ****   }
 3183              		.loc 1 1248 7 is_stmt 1 view .LVU800
1251:Drivers/BSP/Components/lis2dw12/lis2dw12_reg.c **** }
 3184              		.loc 1 1251 3 view .LVU801
1251:Drivers/BSP/Components/lis2dw12/lis2dw12_reg.c **** }
 3185              		.loc 1 1251 10 is_stmt 0 view .LVU802
 3186 0040 F1E7     		b	.L204
 3187              		.cfi_endproc
 3188              	.LFE46:
 3190              		.section	.text.lis2dw12_reference_mode_set,"ax",%progbits
 3191              		.align	1
 3192              		.global	lis2dw12_reference_mode_set
 3193              		.syntax unified
 3194              		.thumb
 3195              		.thumb_func
 3196              		.fpu fpv4-sp-d16
 3198              	lis2dw12_reference_mode_set:
 3199              	.LVL200:
 3200              	.LFB47:
1253:Drivers/BSP/Components/lis2dw12/lis2dw12_reg.c **** 
1254:Drivers/BSP/Components/lis2dw12/lis2dw12_reg.c **** /**
1255:Drivers/BSP/Components/lis2dw12/lis2dw12_reg.c ****   * @brief  Enable HP filter reference mode.[set]
1256:Drivers/BSP/Components/lis2dw12/lis2dw12_reg.c ****   *
1257:Drivers/BSP/Components/lis2dw12/lis2dw12_reg.c ****   * @param  ctx      read / write interface definitions
1258:Drivers/BSP/Components/lis2dw12/lis2dw12_reg.c ****   * @param  val      change the values of hp_ref_mode in reg CTRL_REG7
1259:Drivers/BSP/Components/lis2dw12/lis2dw12_reg.c ****   * @retval          interface status (MANDATORY: return 0 -> no Error)
ARM GAS  /tmp/ccEdQILT.s 			page 83


1260:Drivers/BSP/Components/lis2dw12/lis2dw12_reg.c ****   *
1261:Drivers/BSP/Components/lis2dw12/lis2dw12_reg.c ****   */
1262:Drivers/BSP/Components/lis2dw12/lis2dw12_reg.c **** int32_t lis2dw12_reference_mode_set(stmdev_ctx_t *ctx, uint8_t val)
1263:Drivers/BSP/Components/lis2dw12/lis2dw12_reg.c **** {
 3201              		.loc 1 1263 1 is_stmt 1 view -0
 3202              		.cfi_startproc
 3203              		@ args = 0, pretend = 0, frame = 8
 3204              		@ frame_needed = 0, uses_anonymous_args = 0
 3205              		.loc 1 1263 1 is_stmt 0 view .LVU804
 3206 0000 30B5     		push	{r4, r5, lr}
 3207              	.LCFI112:
 3208              		.cfi_def_cfa_offset 12
 3209              		.cfi_offset 4, -12
 3210              		.cfi_offset 5, -8
 3211              		.cfi_offset 14, -4
 3212 0002 83B0     		sub	sp, sp, #12
 3213              	.LCFI113:
 3214              		.cfi_def_cfa_offset 24
 3215 0004 0446     		mov	r4, r0
 3216 0006 0D46     		mov	r5, r1
1264:Drivers/BSP/Components/lis2dw12/lis2dw12_reg.c ****   lis2dw12_ctrl_reg7_t reg;
 3217              		.loc 1 1264 3 is_stmt 1 view .LVU805
1265:Drivers/BSP/Components/lis2dw12/lis2dw12_reg.c ****   int32_t ret;
 3218              		.loc 1 1265 3 view .LVU806
1266:Drivers/BSP/Components/lis2dw12/lis2dw12_reg.c **** 
1267:Drivers/BSP/Components/lis2dw12/lis2dw12_reg.c ****   ret = lis2dw12_read_reg(ctx, LIS2DW12_CTRL_REG7, (uint8_t *) &reg, 1);
 3219              		.loc 1 1267 3 view .LVU807
 3220              		.loc 1 1267 9 is_stmt 0 view .LVU808
 3221 0008 0123     		movs	r3, #1
 3222 000a 01AA     		add	r2, sp, #4
 3223 000c 3F21     		movs	r1, #63
 3224              	.LVL201:
 3225              		.loc 1 1267 9 view .LVU809
 3226 000e FFF7FEFF 		bl	lis2dw12_read_reg
 3227              	.LVL202:
1268:Drivers/BSP/Components/lis2dw12/lis2dw12_reg.c **** 
1269:Drivers/BSP/Components/lis2dw12/lis2dw12_reg.c ****   if (ret == 0)
 3228              		.loc 1 1269 3 is_stmt 1 view .LVU810
 3229              		.loc 1 1269 6 is_stmt 0 view .LVU811
 3230 0012 08B1     		cbz	r0, .L216
 3231              	.LVL203:
 3232              	.L213:
1270:Drivers/BSP/Components/lis2dw12/lis2dw12_reg.c ****   {
1271:Drivers/BSP/Components/lis2dw12/lis2dw12_reg.c ****     reg.hp_ref_mode = val;
1272:Drivers/BSP/Components/lis2dw12/lis2dw12_reg.c ****     ret = lis2dw12_write_reg(ctx, LIS2DW12_CTRL_REG7, (uint8_t *) &reg, 1);
1273:Drivers/BSP/Components/lis2dw12/lis2dw12_reg.c ****   }
1274:Drivers/BSP/Components/lis2dw12/lis2dw12_reg.c **** 
1275:Drivers/BSP/Components/lis2dw12/lis2dw12_reg.c ****   return ret;
1276:Drivers/BSP/Components/lis2dw12/lis2dw12_reg.c **** }
 3233              		.loc 1 1276 1 view .LVU812
 3234 0014 03B0     		add	sp, sp, #12
 3235              	.LCFI114:
 3236              		.cfi_remember_state
 3237              		.cfi_def_cfa_offset 12
 3238              		@ sp needed
 3239 0016 30BD     		pop	{r4, r5, pc}
 3240              	.LVL204:
ARM GAS  /tmp/ccEdQILT.s 			page 84


 3241              	.L216:
 3242              	.LCFI115:
 3243              		.cfi_restore_state
1271:Drivers/BSP/Components/lis2dw12/lis2dw12_reg.c ****     ret = lis2dw12_write_reg(ctx, LIS2DW12_CTRL_REG7, (uint8_t *) &reg, 1);
 3244              		.loc 1 1271 5 is_stmt 1 view .LVU813
1271:Drivers/BSP/Components/lis2dw12/lis2dw12_reg.c ****     ret = lis2dw12_write_reg(ctx, LIS2DW12_CTRL_REG7, (uint8_t *) &reg, 1);
 3245              		.loc 1 1271 21 is_stmt 0 view .LVU814
 3246 0018 9DF80430 		ldrb	r3, [sp, #4]	@ zero_extendqisi2
 3247 001c 65F34103 		bfi	r3, r5, #1, #1
 3248 0020 8DF80430 		strb	r3, [sp, #4]
1272:Drivers/BSP/Components/lis2dw12/lis2dw12_reg.c ****   }
 3249              		.loc 1 1272 5 is_stmt 1 view .LVU815
1272:Drivers/BSP/Components/lis2dw12/lis2dw12_reg.c ****   }
 3250              		.loc 1 1272 11 is_stmt 0 view .LVU816
 3251 0024 0123     		movs	r3, #1
 3252              	.LVL205:
1272:Drivers/BSP/Components/lis2dw12/lis2dw12_reg.c ****   }
 3253              		.loc 1 1272 11 view .LVU817
 3254 0026 01AA     		add	r2, sp, #4
 3255 0028 3F21     		movs	r1, #63
 3256 002a 2046     		mov	r0, r4
 3257 002c FFF7FEFF 		bl	lis2dw12_write_reg
 3258              	.LVL206:
1275:Drivers/BSP/Components/lis2dw12/lis2dw12_reg.c **** }
 3259              		.loc 1 1275 3 is_stmt 1 view .LVU818
1275:Drivers/BSP/Components/lis2dw12/lis2dw12_reg.c **** }
 3260              		.loc 1 1275 10 is_stmt 0 view .LVU819
 3261 0030 F0E7     		b	.L213
 3262              		.cfi_endproc
 3263              	.LFE47:
 3265              		.section	.text.lis2dw12_reference_mode_get,"ax",%progbits
 3266              		.align	1
 3267              		.global	lis2dw12_reference_mode_get
 3268              		.syntax unified
 3269              		.thumb
 3270              		.thumb_func
 3271              		.fpu fpv4-sp-d16
 3273              	lis2dw12_reference_mode_get:
 3274              	.LVL207:
 3275              	.LFB48:
1277:Drivers/BSP/Components/lis2dw12/lis2dw12_reg.c **** 
1278:Drivers/BSP/Components/lis2dw12/lis2dw12_reg.c **** /**
1279:Drivers/BSP/Components/lis2dw12/lis2dw12_reg.c ****   * @brief  Enable HP filter reference mode.[get]
1280:Drivers/BSP/Components/lis2dw12/lis2dw12_reg.c ****   *
1281:Drivers/BSP/Components/lis2dw12/lis2dw12_reg.c ****   * @param  ctx      read / write interface definitions
1282:Drivers/BSP/Components/lis2dw12/lis2dw12_reg.c ****   * @param  val      change the values of hp_ref_mode in reg CTRL_REG7
1283:Drivers/BSP/Components/lis2dw12/lis2dw12_reg.c ****   * @retval          interface status (MANDATORY: return 0 -> no Error)
1284:Drivers/BSP/Components/lis2dw12/lis2dw12_reg.c ****   *
1285:Drivers/BSP/Components/lis2dw12/lis2dw12_reg.c ****   */
1286:Drivers/BSP/Components/lis2dw12/lis2dw12_reg.c **** int32_t lis2dw12_reference_mode_get(stmdev_ctx_t *ctx, uint8_t *val)
1287:Drivers/BSP/Components/lis2dw12/lis2dw12_reg.c **** {
 3276              		.loc 1 1287 1 is_stmt 1 view -0
 3277              		.cfi_startproc
 3278              		@ args = 0, pretend = 0, frame = 8
 3279              		@ frame_needed = 0, uses_anonymous_args = 0
 3280              		.loc 1 1287 1 is_stmt 0 view .LVU821
 3281 0000 10B5     		push	{r4, lr}
ARM GAS  /tmp/ccEdQILT.s 			page 85


 3282              	.LCFI116:
 3283              		.cfi_def_cfa_offset 8
 3284              		.cfi_offset 4, -8
 3285              		.cfi_offset 14, -4
 3286 0002 82B0     		sub	sp, sp, #8
 3287              	.LCFI117:
 3288              		.cfi_def_cfa_offset 16
 3289 0004 0C46     		mov	r4, r1
1288:Drivers/BSP/Components/lis2dw12/lis2dw12_reg.c ****   lis2dw12_ctrl_reg7_t reg;
 3290              		.loc 1 1288 3 is_stmt 1 view .LVU822
1289:Drivers/BSP/Components/lis2dw12/lis2dw12_reg.c ****   int32_t ret;
 3291              		.loc 1 1289 3 view .LVU823
1290:Drivers/BSP/Components/lis2dw12/lis2dw12_reg.c **** 
1291:Drivers/BSP/Components/lis2dw12/lis2dw12_reg.c ****   ret = lis2dw12_read_reg(ctx, LIS2DW12_CTRL_REG7, (uint8_t *) &reg, 1);
 3292              		.loc 1 1291 3 view .LVU824
 3293              		.loc 1 1291 9 is_stmt 0 view .LVU825
 3294 0006 0123     		movs	r3, #1
 3295 0008 01AA     		add	r2, sp, #4
 3296 000a 3F21     		movs	r1, #63
 3297              	.LVL208:
 3298              		.loc 1 1291 9 view .LVU826
 3299 000c FFF7FEFF 		bl	lis2dw12_read_reg
 3300              	.LVL209:
1292:Drivers/BSP/Components/lis2dw12/lis2dw12_reg.c ****   *val = reg.hp_ref_mode;
 3301              		.loc 1 1292 3 is_stmt 1 view .LVU827
 3302              		.loc 1 1292 13 is_stmt 0 view .LVU828
 3303 0010 9DF80430 		ldrb	r3, [sp, #4]	@ zero_extendqisi2
 3304 0014 C3F34003 		ubfx	r3, r3, #1, #1
 3305              		.loc 1 1292 8 view .LVU829
 3306 0018 2370     		strb	r3, [r4]
1293:Drivers/BSP/Components/lis2dw12/lis2dw12_reg.c **** 
1294:Drivers/BSP/Components/lis2dw12/lis2dw12_reg.c ****   return ret;
 3307              		.loc 1 1294 3 is_stmt 1 view .LVU830
1295:Drivers/BSP/Components/lis2dw12/lis2dw12_reg.c **** }
 3308              		.loc 1 1295 1 is_stmt 0 view .LVU831
 3309 001a 02B0     		add	sp, sp, #8
 3310              	.LCFI118:
 3311              		.cfi_def_cfa_offset 8
 3312              		@ sp needed
 3313 001c 10BD     		pop	{r4, pc}
 3314              		.loc 1 1295 1 view .LVU832
 3315              		.cfi_endproc
 3316              	.LFE48:
 3318              		.section	.text.lis2dw12_spi_mode_set,"ax",%progbits
 3319              		.align	1
 3320              		.global	lis2dw12_spi_mode_set
 3321              		.syntax unified
 3322              		.thumb
 3323              		.thumb_func
 3324              		.fpu fpv4-sp-d16
 3326              	lis2dw12_spi_mode_set:
 3327              	.LVL210:
 3328              	.LFB49:
1296:Drivers/BSP/Components/lis2dw12/lis2dw12_reg.c **** 
1297:Drivers/BSP/Components/lis2dw12/lis2dw12_reg.c **** /**
1298:Drivers/BSP/Components/lis2dw12/lis2dw12_reg.c ****   * @}
1299:Drivers/BSP/Components/lis2dw12/lis2dw12_reg.c ****   *
ARM GAS  /tmp/ccEdQILT.s 			page 86


1300:Drivers/BSP/Components/lis2dw12/lis2dw12_reg.c ****   */
1301:Drivers/BSP/Components/lis2dw12/lis2dw12_reg.c **** 
1302:Drivers/BSP/Components/lis2dw12/lis2dw12_reg.c **** /**
1303:Drivers/BSP/Components/lis2dw12/lis2dw12_reg.c ****   * @defgroup   LIS2DW12_Serial_Interface
1304:Drivers/BSP/Components/lis2dw12/lis2dw12_reg.c ****   * @brief      This section groups all the functions concerning main serial
1305:Drivers/BSP/Components/lis2dw12/lis2dw12_reg.c ****   *             interface management (not auxiliary)
1306:Drivers/BSP/Components/lis2dw12/lis2dw12_reg.c ****   * @{
1307:Drivers/BSP/Components/lis2dw12/lis2dw12_reg.c ****   *
1308:Drivers/BSP/Components/lis2dw12/lis2dw12_reg.c ****   */
1309:Drivers/BSP/Components/lis2dw12/lis2dw12_reg.c **** 
1310:Drivers/BSP/Components/lis2dw12/lis2dw12_reg.c **** /**
1311:Drivers/BSP/Components/lis2dw12/lis2dw12_reg.c ****   * @brief  SPI Serial Interface Mode selection.[set]
1312:Drivers/BSP/Components/lis2dw12/lis2dw12_reg.c ****   *
1313:Drivers/BSP/Components/lis2dw12/lis2dw12_reg.c ****   * @param  ctx      read / write interface definitions
1314:Drivers/BSP/Components/lis2dw12/lis2dw12_reg.c ****   * @param  val      change the values of sim in reg CTRL2
1315:Drivers/BSP/Components/lis2dw12/lis2dw12_reg.c ****   * @retval          interface status (MANDATORY: return 0 -> no Error)
1316:Drivers/BSP/Components/lis2dw12/lis2dw12_reg.c ****   *
1317:Drivers/BSP/Components/lis2dw12/lis2dw12_reg.c ****   */
1318:Drivers/BSP/Components/lis2dw12/lis2dw12_reg.c **** int32_t lis2dw12_spi_mode_set(stmdev_ctx_t *ctx, lis2dw12_sim_t val)
1319:Drivers/BSP/Components/lis2dw12/lis2dw12_reg.c **** {
 3329              		.loc 1 1319 1 is_stmt 1 view -0
 3330              		.cfi_startproc
 3331              		@ args = 0, pretend = 0, frame = 8
 3332              		@ frame_needed = 0, uses_anonymous_args = 0
 3333              		.loc 1 1319 1 is_stmt 0 view .LVU834
 3334 0000 30B5     		push	{r4, r5, lr}
 3335              	.LCFI119:
 3336              		.cfi_def_cfa_offset 12
 3337              		.cfi_offset 4, -12
 3338              		.cfi_offset 5, -8
 3339              		.cfi_offset 14, -4
 3340 0002 83B0     		sub	sp, sp, #12
 3341              	.LCFI120:
 3342              		.cfi_def_cfa_offset 24
 3343 0004 0446     		mov	r4, r0
 3344 0006 0D46     		mov	r5, r1
1320:Drivers/BSP/Components/lis2dw12/lis2dw12_reg.c ****   lis2dw12_ctrl2_t reg;
 3345              		.loc 1 1320 3 is_stmt 1 view .LVU835
1321:Drivers/BSP/Components/lis2dw12/lis2dw12_reg.c ****   int32_t ret;
 3346              		.loc 1 1321 3 view .LVU836
1322:Drivers/BSP/Components/lis2dw12/lis2dw12_reg.c **** 
1323:Drivers/BSP/Components/lis2dw12/lis2dw12_reg.c ****   ret = lis2dw12_read_reg(ctx, LIS2DW12_CTRL2, (uint8_t *) &reg, 1);
 3347              		.loc 1 1323 3 view .LVU837
 3348              		.loc 1 1323 9 is_stmt 0 view .LVU838
 3349 0008 0123     		movs	r3, #1
 3350 000a 01AA     		add	r2, sp, #4
 3351 000c 2121     		movs	r1, #33
 3352              	.LVL211:
 3353              		.loc 1 1323 9 view .LVU839
 3354 000e FFF7FEFF 		bl	lis2dw12_read_reg
 3355              	.LVL212:
1324:Drivers/BSP/Components/lis2dw12/lis2dw12_reg.c **** 
1325:Drivers/BSP/Components/lis2dw12/lis2dw12_reg.c ****   if (ret == 0)
 3356              		.loc 1 1325 3 is_stmt 1 view .LVU840
 3357              		.loc 1 1325 6 is_stmt 0 view .LVU841
 3358 0012 08B1     		cbz	r0, .L222
 3359              	.LVL213:
ARM GAS  /tmp/ccEdQILT.s 			page 87


 3360              	.L219:
1326:Drivers/BSP/Components/lis2dw12/lis2dw12_reg.c ****   {
1327:Drivers/BSP/Components/lis2dw12/lis2dw12_reg.c ****     reg.sim = (uint8_t) val;
1328:Drivers/BSP/Components/lis2dw12/lis2dw12_reg.c ****     ret = lis2dw12_write_reg(ctx, LIS2DW12_CTRL2, (uint8_t *) &reg, 1);
1329:Drivers/BSP/Components/lis2dw12/lis2dw12_reg.c ****   }
1330:Drivers/BSP/Components/lis2dw12/lis2dw12_reg.c **** 
1331:Drivers/BSP/Components/lis2dw12/lis2dw12_reg.c ****   return ret;
1332:Drivers/BSP/Components/lis2dw12/lis2dw12_reg.c **** }
 3361              		.loc 1 1332 1 view .LVU842
 3362 0014 03B0     		add	sp, sp, #12
 3363              	.LCFI121:
 3364              		.cfi_remember_state
 3365              		.cfi_def_cfa_offset 12
 3366              		@ sp needed
 3367 0016 30BD     		pop	{r4, r5, pc}
 3368              	.LVL214:
 3369              	.L222:
 3370              	.LCFI122:
 3371              		.cfi_restore_state
1327:Drivers/BSP/Components/lis2dw12/lis2dw12_reg.c ****     ret = lis2dw12_write_reg(ctx, LIS2DW12_CTRL2, (uint8_t *) &reg, 1);
 3372              		.loc 1 1327 5 is_stmt 1 view .LVU843
1327:Drivers/BSP/Components/lis2dw12/lis2dw12_reg.c ****     ret = lis2dw12_write_reg(ctx, LIS2DW12_CTRL2, (uint8_t *) &reg, 1);
 3373              		.loc 1 1327 13 is_stmt 0 view .LVU844
 3374 0018 9DF80430 		ldrb	r3, [sp, #4]	@ zero_extendqisi2
 3375 001c 65F30003 		bfi	r3, r5, #0, #1
 3376 0020 8DF80430 		strb	r3, [sp, #4]
1328:Drivers/BSP/Components/lis2dw12/lis2dw12_reg.c ****   }
 3377              		.loc 1 1328 5 is_stmt 1 view .LVU845
1328:Drivers/BSP/Components/lis2dw12/lis2dw12_reg.c ****   }
 3378              		.loc 1 1328 11 is_stmt 0 view .LVU846
 3379 0024 0123     		movs	r3, #1
 3380              	.LVL215:
1328:Drivers/BSP/Components/lis2dw12/lis2dw12_reg.c ****   }
 3381              		.loc 1 1328 11 view .LVU847
 3382 0026 01AA     		add	r2, sp, #4
 3383 0028 2121     		movs	r1, #33
 3384 002a 2046     		mov	r0, r4
 3385 002c FFF7FEFF 		bl	lis2dw12_write_reg
 3386              	.LVL216:
1331:Drivers/BSP/Components/lis2dw12/lis2dw12_reg.c **** }
 3387              		.loc 1 1331 3 is_stmt 1 view .LVU848
1331:Drivers/BSP/Components/lis2dw12/lis2dw12_reg.c **** }
 3388              		.loc 1 1331 10 is_stmt 0 view .LVU849
 3389 0030 F0E7     		b	.L219
 3390              		.cfi_endproc
 3391              	.LFE49:
 3393              		.section	.text.lis2dw12_spi_mode_get,"ax",%progbits
 3394              		.align	1
 3395              		.global	lis2dw12_spi_mode_get
 3396              		.syntax unified
 3397              		.thumb
 3398              		.thumb_func
 3399              		.fpu fpv4-sp-d16
 3401              	lis2dw12_spi_mode_get:
 3402              	.LVL217:
 3403              	.LFB50:
1333:Drivers/BSP/Components/lis2dw12/lis2dw12_reg.c **** 
ARM GAS  /tmp/ccEdQILT.s 			page 88


1334:Drivers/BSP/Components/lis2dw12/lis2dw12_reg.c **** /**
1335:Drivers/BSP/Components/lis2dw12/lis2dw12_reg.c ****   * @brief  SPI Serial Interface Mode selection.[get]
1336:Drivers/BSP/Components/lis2dw12/lis2dw12_reg.c ****   *
1337:Drivers/BSP/Components/lis2dw12/lis2dw12_reg.c ****   * @param  ctx      read / write interface definitions
1338:Drivers/BSP/Components/lis2dw12/lis2dw12_reg.c ****   * @param  val      Get the values of sim in reg CTRL2
1339:Drivers/BSP/Components/lis2dw12/lis2dw12_reg.c ****   * @retval          interface status (MANDATORY: return 0 -> no Error)
1340:Drivers/BSP/Components/lis2dw12/lis2dw12_reg.c ****   *
1341:Drivers/BSP/Components/lis2dw12/lis2dw12_reg.c ****   */
1342:Drivers/BSP/Components/lis2dw12/lis2dw12_reg.c **** int32_t lis2dw12_spi_mode_get(stmdev_ctx_t *ctx, lis2dw12_sim_t *val)
1343:Drivers/BSP/Components/lis2dw12/lis2dw12_reg.c **** {
 3404              		.loc 1 1343 1 is_stmt 1 view -0
 3405              		.cfi_startproc
 3406              		@ args = 0, pretend = 0, frame = 8
 3407              		@ frame_needed = 0, uses_anonymous_args = 0
 3408              		.loc 1 1343 1 is_stmt 0 view .LVU851
 3409 0000 10B5     		push	{r4, lr}
 3410              	.LCFI123:
 3411              		.cfi_def_cfa_offset 8
 3412              		.cfi_offset 4, -8
 3413              		.cfi_offset 14, -4
 3414 0002 82B0     		sub	sp, sp, #8
 3415              	.LCFI124:
 3416              		.cfi_def_cfa_offset 16
 3417 0004 0C46     		mov	r4, r1
1344:Drivers/BSP/Components/lis2dw12/lis2dw12_reg.c ****   lis2dw12_ctrl2_t reg;
 3418              		.loc 1 1344 3 is_stmt 1 view .LVU852
1345:Drivers/BSP/Components/lis2dw12/lis2dw12_reg.c ****   int32_t ret;
 3419              		.loc 1 1345 3 view .LVU853
1346:Drivers/BSP/Components/lis2dw12/lis2dw12_reg.c **** 
1347:Drivers/BSP/Components/lis2dw12/lis2dw12_reg.c ****   ret = lis2dw12_read_reg(ctx, LIS2DW12_CTRL2, (uint8_t *) &reg, 1);
 3420              		.loc 1 1347 3 view .LVU854
 3421              		.loc 1 1347 9 is_stmt 0 view .LVU855
 3422 0006 0123     		movs	r3, #1
 3423 0008 01AA     		add	r2, sp, #4
 3424 000a 2121     		movs	r1, #33
 3425              	.LVL218:
 3426              		.loc 1 1347 9 view .LVU856
 3427 000c FFF7FEFF 		bl	lis2dw12_read_reg
 3428              	.LVL219:
1348:Drivers/BSP/Components/lis2dw12/lis2dw12_reg.c **** 
1349:Drivers/BSP/Components/lis2dw12/lis2dw12_reg.c ****   switch (reg.sim)
 3429              		.loc 1 1349 3 is_stmt 1 view .LVU857
 3430              		.loc 1 1349 14 is_stmt 0 view .LVU858
 3431 0010 9DF80430 		ldrb	r3, [sp, #4]	@ zero_extendqisi2
 3432              		.loc 1 1349 3 view .LVU859
 3433 0014 13F00103 		ands	r3, r3, #1
 3434 0018 03D0     		beq	.L224
 3435 001a 33B9     		cbnz	r3, .L225
1350:Drivers/BSP/Components/lis2dw12/lis2dw12_reg.c ****   {
1351:Drivers/BSP/Components/lis2dw12/lis2dw12_reg.c ****     case LIS2DW12_SPI_4_WIRE:
1352:Drivers/BSP/Components/lis2dw12/lis2dw12_reg.c ****       *val = LIS2DW12_SPI_4_WIRE;
1353:Drivers/BSP/Components/lis2dw12/lis2dw12_reg.c ****       break;
1354:Drivers/BSP/Components/lis2dw12/lis2dw12_reg.c **** 
1355:Drivers/BSP/Components/lis2dw12/lis2dw12_reg.c ****     case LIS2DW12_SPI_3_WIRE:
1356:Drivers/BSP/Components/lis2dw12/lis2dw12_reg.c ****       *val = LIS2DW12_SPI_3_WIRE;
1357:Drivers/BSP/Components/lis2dw12/lis2dw12_reg.c ****       break;
1358:Drivers/BSP/Components/lis2dw12/lis2dw12_reg.c **** 
ARM GAS  /tmp/ccEdQILT.s 			page 89


1359:Drivers/BSP/Components/lis2dw12/lis2dw12_reg.c ****     default:
1360:Drivers/BSP/Components/lis2dw12/lis2dw12_reg.c ****       *val = LIS2DW12_SPI_4_WIRE;
 3436              		.loc 1 1360 7 is_stmt 1 view .LVU860
 3437              		.loc 1 1360 12 is_stmt 0 view .LVU861
 3438 001c 0023     		movs	r3, #0
 3439 001e 2370     		strb	r3, [r4]
1361:Drivers/BSP/Components/lis2dw12/lis2dw12_reg.c ****       break;
 3440              		.loc 1 1361 7 is_stmt 1 view .LVU862
1362:Drivers/BSP/Components/lis2dw12/lis2dw12_reg.c ****   }
1363:Drivers/BSP/Components/lis2dw12/lis2dw12_reg.c **** 
1364:Drivers/BSP/Components/lis2dw12/lis2dw12_reg.c ****   return ret;
 3441              		.loc 1 1364 3 view .LVU863
 3442              		.loc 1 1364 10 is_stmt 0 view .LVU864
 3443 0020 01E0     		b	.L223
 3444              	.L224:
1352:Drivers/BSP/Components/lis2dw12/lis2dw12_reg.c ****       break;
 3445              		.loc 1 1352 7 is_stmt 1 view .LVU865
1352:Drivers/BSP/Components/lis2dw12/lis2dw12_reg.c ****       break;
 3446              		.loc 1 1352 12 is_stmt 0 view .LVU866
 3447 0022 0023     		movs	r3, #0
 3448 0024 2370     		strb	r3, [r4]
1353:Drivers/BSP/Components/lis2dw12/lis2dw12_reg.c **** 
 3449              		.loc 1 1353 7 is_stmt 1 view .LVU867
 3450              	.L223:
1365:Drivers/BSP/Components/lis2dw12/lis2dw12_reg.c **** }
 3451              		.loc 1 1365 1 is_stmt 0 view .LVU868
 3452 0026 02B0     		add	sp, sp, #8
 3453              	.LCFI125:
 3454              		.cfi_remember_state
 3455              		.cfi_def_cfa_offset 8
 3456              		@ sp needed
 3457 0028 10BD     		pop	{r4, pc}
 3458              	.LVL220:
 3459              	.L225:
 3460              	.LCFI126:
 3461              		.cfi_restore_state
1356:Drivers/BSP/Components/lis2dw12/lis2dw12_reg.c ****       break;
 3462              		.loc 1 1356 7 is_stmt 1 view .LVU869
1356:Drivers/BSP/Components/lis2dw12/lis2dw12_reg.c ****       break;
 3463              		.loc 1 1356 12 is_stmt 0 view .LVU870
 3464 002a 0123     		movs	r3, #1
 3465 002c 2370     		strb	r3, [r4]
1357:Drivers/BSP/Components/lis2dw12/lis2dw12_reg.c **** 
 3466              		.loc 1 1357 7 is_stmt 1 view .LVU871
 3467 002e FAE7     		b	.L223
 3468              		.cfi_endproc
 3469              	.LFE50:
 3471              		.section	.text.lis2dw12_i2c_interface_set,"ax",%progbits
 3472              		.align	1
 3473              		.global	lis2dw12_i2c_interface_set
 3474              		.syntax unified
 3475              		.thumb
 3476              		.thumb_func
 3477              		.fpu fpv4-sp-d16
 3479              	lis2dw12_i2c_interface_set:
 3480              	.LVL221:
 3481              	.LFB51:
ARM GAS  /tmp/ccEdQILT.s 			page 90


1366:Drivers/BSP/Components/lis2dw12/lis2dw12_reg.c **** 
1367:Drivers/BSP/Components/lis2dw12/lis2dw12_reg.c **** /**
1368:Drivers/BSP/Components/lis2dw12/lis2dw12_reg.c ****   * @brief  Disable / Enable I2C interface.[set]
1369:Drivers/BSP/Components/lis2dw12/lis2dw12_reg.c ****   *
1370:Drivers/BSP/Components/lis2dw12/lis2dw12_reg.c ****   * @param  ctx      read / write interface definitions
1371:Drivers/BSP/Components/lis2dw12/lis2dw12_reg.c ****   * @param  val      change the values of i2c_disable in
1372:Drivers/BSP/Components/lis2dw12/lis2dw12_reg.c ****   *                                 reg CTRL2
1373:Drivers/BSP/Components/lis2dw12/lis2dw12_reg.c ****   * @retval          interface status (MANDATORY: return 0 -> no Error)
1374:Drivers/BSP/Components/lis2dw12/lis2dw12_reg.c ****   *
1375:Drivers/BSP/Components/lis2dw12/lis2dw12_reg.c ****   */
1376:Drivers/BSP/Components/lis2dw12/lis2dw12_reg.c **** int32_t lis2dw12_i2c_interface_set(stmdev_ctx_t *ctx,
1377:Drivers/BSP/Components/lis2dw12/lis2dw12_reg.c ****                                    lis2dw12_i2c_disable_t val)
1378:Drivers/BSP/Components/lis2dw12/lis2dw12_reg.c **** {
 3482              		.loc 1 1378 1 view -0
 3483              		.cfi_startproc
 3484              		@ args = 0, pretend = 0, frame = 8
 3485              		@ frame_needed = 0, uses_anonymous_args = 0
 3486              		.loc 1 1378 1 is_stmt 0 view .LVU873
 3487 0000 30B5     		push	{r4, r5, lr}
 3488              	.LCFI127:
 3489              		.cfi_def_cfa_offset 12
 3490              		.cfi_offset 4, -12
 3491              		.cfi_offset 5, -8
 3492              		.cfi_offset 14, -4
 3493 0002 83B0     		sub	sp, sp, #12
 3494              	.LCFI128:
 3495              		.cfi_def_cfa_offset 24
 3496 0004 0446     		mov	r4, r0
 3497 0006 0D46     		mov	r5, r1
1379:Drivers/BSP/Components/lis2dw12/lis2dw12_reg.c ****   lis2dw12_ctrl2_t reg;
 3498              		.loc 1 1379 3 is_stmt 1 view .LVU874
1380:Drivers/BSP/Components/lis2dw12/lis2dw12_reg.c ****   int32_t ret;
 3499              		.loc 1 1380 3 view .LVU875
1381:Drivers/BSP/Components/lis2dw12/lis2dw12_reg.c **** 
1382:Drivers/BSP/Components/lis2dw12/lis2dw12_reg.c ****   ret = lis2dw12_read_reg(ctx, LIS2DW12_CTRL2, (uint8_t *) &reg, 1);
 3500              		.loc 1 1382 3 view .LVU876
 3501              		.loc 1 1382 9 is_stmt 0 view .LVU877
 3502 0008 0123     		movs	r3, #1
 3503 000a 01AA     		add	r2, sp, #4
 3504 000c 2121     		movs	r1, #33
 3505              	.LVL222:
 3506              		.loc 1 1382 9 view .LVU878
 3507 000e FFF7FEFF 		bl	lis2dw12_read_reg
 3508              	.LVL223:
1383:Drivers/BSP/Components/lis2dw12/lis2dw12_reg.c **** 
1384:Drivers/BSP/Components/lis2dw12/lis2dw12_reg.c ****   if (ret == 0)
 3509              		.loc 1 1384 3 is_stmt 1 view .LVU879
 3510              		.loc 1 1384 6 is_stmt 0 view .LVU880
 3511 0012 08B1     		cbz	r0, .L233
 3512              	.LVL224:
 3513              	.L230:
1385:Drivers/BSP/Components/lis2dw12/lis2dw12_reg.c ****   {
1386:Drivers/BSP/Components/lis2dw12/lis2dw12_reg.c ****     reg.i2c_disable = (uint8_t) val;
1387:Drivers/BSP/Components/lis2dw12/lis2dw12_reg.c ****     ret = lis2dw12_write_reg(ctx, LIS2DW12_CTRL2, (uint8_t *) &reg, 1);
1388:Drivers/BSP/Components/lis2dw12/lis2dw12_reg.c ****   }
1389:Drivers/BSP/Components/lis2dw12/lis2dw12_reg.c **** 
1390:Drivers/BSP/Components/lis2dw12/lis2dw12_reg.c ****   return ret;
ARM GAS  /tmp/ccEdQILT.s 			page 91


1391:Drivers/BSP/Components/lis2dw12/lis2dw12_reg.c **** }
 3514              		.loc 1 1391 1 view .LVU881
 3515 0014 03B0     		add	sp, sp, #12
 3516              	.LCFI129:
 3517              		.cfi_remember_state
 3518              		.cfi_def_cfa_offset 12
 3519              		@ sp needed
 3520 0016 30BD     		pop	{r4, r5, pc}
 3521              	.LVL225:
 3522              	.L233:
 3523              	.LCFI130:
 3524              		.cfi_restore_state
1386:Drivers/BSP/Components/lis2dw12/lis2dw12_reg.c ****     ret = lis2dw12_write_reg(ctx, LIS2DW12_CTRL2, (uint8_t *) &reg, 1);
 3525              		.loc 1 1386 5 is_stmt 1 view .LVU882
1386:Drivers/BSP/Components/lis2dw12/lis2dw12_reg.c ****     ret = lis2dw12_write_reg(ctx, LIS2DW12_CTRL2, (uint8_t *) &reg, 1);
 3526              		.loc 1 1386 21 is_stmt 0 view .LVU883
 3527 0018 9DF80430 		ldrb	r3, [sp, #4]	@ zero_extendqisi2
 3528 001c 65F34103 		bfi	r3, r5, #1, #1
 3529 0020 8DF80430 		strb	r3, [sp, #4]
1387:Drivers/BSP/Components/lis2dw12/lis2dw12_reg.c ****   }
 3530              		.loc 1 1387 5 is_stmt 1 view .LVU884
1387:Drivers/BSP/Components/lis2dw12/lis2dw12_reg.c ****   }
 3531              		.loc 1 1387 11 is_stmt 0 view .LVU885
 3532 0024 0123     		movs	r3, #1
 3533              	.LVL226:
1387:Drivers/BSP/Components/lis2dw12/lis2dw12_reg.c ****   }
 3534              		.loc 1 1387 11 view .LVU886
 3535 0026 01AA     		add	r2, sp, #4
 3536 0028 2121     		movs	r1, #33
 3537 002a 2046     		mov	r0, r4
 3538 002c FFF7FEFF 		bl	lis2dw12_write_reg
 3539              	.LVL227:
1390:Drivers/BSP/Components/lis2dw12/lis2dw12_reg.c **** }
 3540              		.loc 1 1390 3 is_stmt 1 view .LVU887
1390:Drivers/BSP/Components/lis2dw12/lis2dw12_reg.c **** }
 3541              		.loc 1 1390 10 is_stmt 0 view .LVU888
 3542 0030 F0E7     		b	.L230
 3543              		.cfi_endproc
 3544              	.LFE51:
 3546              		.section	.text.lis2dw12_i2c_interface_get,"ax",%progbits
 3547              		.align	1
 3548              		.global	lis2dw12_i2c_interface_get
 3549              		.syntax unified
 3550              		.thumb
 3551              		.thumb_func
 3552              		.fpu fpv4-sp-d16
 3554              	lis2dw12_i2c_interface_get:
 3555              	.LVL228:
 3556              	.LFB52:
1392:Drivers/BSP/Components/lis2dw12/lis2dw12_reg.c **** 
1393:Drivers/BSP/Components/lis2dw12/lis2dw12_reg.c **** /**
1394:Drivers/BSP/Components/lis2dw12/lis2dw12_reg.c ****   * @brief  Disable / Enable I2C interface.[get]
1395:Drivers/BSP/Components/lis2dw12/lis2dw12_reg.c ****   *
1396:Drivers/BSP/Components/lis2dw12/lis2dw12_reg.c ****   * @param  ctx      read / write interface definitions
1397:Drivers/BSP/Components/lis2dw12/lis2dw12_reg.c ****   * @param  val      Get the values of i2c_disable in reg CTRL2
1398:Drivers/BSP/Components/lis2dw12/lis2dw12_reg.c ****   * @retval          interface status (MANDATORY: return 0 -> no Error)
1399:Drivers/BSP/Components/lis2dw12/lis2dw12_reg.c ****   *
ARM GAS  /tmp/ccEdQILT.s 			page 92


1400:Drivers/BSP/Components/lis2dw12/lis2dw12_reg.c ****   */
1401:Drivers/BSP/Components/lis2dw12/lis2dw12_reg.c **** int32_t lis2dw12_i2c_interface_get(stmdev_ctx_t *ctx,
1402:Drivers/BSP/Components/lis2dw12/lis2dw12_reg.c ****                                    lis2dw12_i2c_disable_t *val)
1403:Drivers/BSP/Components/lis2dw12/lis2dw12_reg.c **** {
 3557              		.loc 1 1403 1 is_stmt 1 view -0
 3558              		.cfi_startproc
 3559              		@ args = 0, pretend = 0, frame = 8
 3560              		@ frame_needed = 0, uses_anonymous_args = 0
 3561              		.loc 1 1403 1 is_stmt 0 view .LVU890
 3562 0000 10B5     		push	{r4, lr}
 3563              	.LCFI131:
 3564              		.cfi_def_cfa_offset 8
 3565              		.cfi_offset 4, -8
 3566              		.cfi_offset 14, -4
 3567 0002 82B0     		sub	sp, sp, #8
 3568              	.LCFI132:
 3569              		.cfi_def_cfa_offset 16
 3570 0004 0C46     		mov	r4, r1
1404:Drivers/BSP/Components/lis2dw12/lis2dw12_reg.c ****   lis2dw12_ctrl2_t reg;
 3571              		.loc 1 1404 3 is_stmt 1 view .LVU891
1405:Drivers/BSP/Components/lis2dw12/lis2dw12_reg.c ****   int32_t ret;
 3572              		.loc 1 1405 3 view .LVU892
1406:Drivers/BSP/Components/lis2dw12/lis2dw12_reg.c **** 
1407:Drivers/BSP/Components/lis2dw12/lis2dw12_reg.c ****   ret = lis2dw12_read_reg(ctx, LIS2DW12_CTRL2, (uint8_t *) &reg, 1);
 3573              		.loc 1 1407 3 view .LVU893
 3574              		.loc 1 1407 9 is_stmt 0 view .LVU894
 3575 0006 0123     		movs	r3, #1
 3576 0008 01AA     		add	r2, sp, #4
 3577 000a 2121     		movs	r1, #33
 3578              	.LVL229:
 3579              		.loc 1 1407 9 view .LVU895
 3580 000c FFF7FEFF 		bl	lis2dw12_read_reg
 3581              	.LVL230:
1408:Drivers/BSP/Components/lis2dw12/lis2dw12_reg.c **** 
1409:Drivers/BSP/Components/lis2dw12/lis2dw12_reg.c ****   switch (reg.i2c_disable)
 3582              		.loc 1 1409 3 is_stmt 1 view .LVU896
 3583              		.loc 1 1409 14 is_stmt 0 view .LVU897
 3584 0010 9DF80430 		ldrb	r3, [sp, #4]	@ zero_extendqisi2
 3585 0014 C3F34002 		ubfx	r2, r3, #1, #1
 3586              		.loc 1 1409 3 view .LVU898
 3587 0018 13F0020F 		tst	r3, #2
 3588 001c 03D0     		beq	.L235
 3589 001e 32B9     		cbnz	r2, .L236
1410:Drivers/BSP/Components/lis2dw12/lis2dw12_reg.c ****   {
1411:Drivers/BSP/Components/lis2dw12/lis2dw12_reg.c ****     case LIS2DW12_I2C_ENABLE:
1412:Drivers/BSP/Components/lis2dw12/lis2dw12_reg.c ****       *val = LIS2DW12_I2C_ENABLE;
1413:Drivers/BSP/Components/lis2dw12/lis2dw12_reg.c ****       break;
1414:Drivers/BSP/Components/lis2dw12/lis2dw12_reg.c **** 
1415:Drivers/BSP/Components/lis2dw12/lis2dw12_reg.c ****     case LIS2DW12_I2C_DISABLE:
1416:Drivers/BSP/Components/lis2dw12/lis2dw12_reg.c ****       *val = LIS2DW12_I2C_DISABLE;
1417:Drivers/BSP/Components/lis2dw12/lis2dw12_reg.c ****       break;
1418:Drivers/BSP/Components/lis2dw12/lis2dw12_reg.c **** 
1419:Drivers/BSP/Components/lis2dw12/lis2dw12_reg.c ****     default:
1420:Drivers/BSP/Components/lis2dw12/lis2dw12_reg.c ****       *val = LIS2DW12_I2C_ENABLE;
 3590              		.loc 1 1420 7 is_stmt 1 view .LVU899
 3591              		.loc 1 1420 12 is_stmt 0 view .LVU900
 3592 0020 0023     		movs	r3, #0
ARM GAS  /tmp/ccEdQILT.s 			page 93


 3593 0022 2370     		strb	r3, [r4]
1421:Drivers/BSP/Components/lis2dw12/lis2dw12_reg.c ****       break;
 3594              		.loc 1 1421 7 is_stmt 1 view .LVU901
1422:Drivers/BSP/Components/lis2dw12/lis2dw12_reg.c ****   }
1423:Drivers/BSP/Components/lis2dw12/lis2dw12_reg.c **** 
1424:Drivers/BSP/Components/lis2dw12/lis2dw12_reg.c ****   return ret;
 3595              		.loc 1 1424 3 view .LVU902
 3596              		.loc 1 1424 10 is_stmt 0 view .LVU903
 3597 0024 01E0     		b	.L234
 3598              	.L235:
1412:Drivers/BSP/Components/lis2dw12/lis2dw12_reg.c ****       break;
 3599              		.loc 1 1412 7 is_stmt 1 view .LVU904
1412:Drivers/BSP/Components/lis2dw12/lis2dw12_reg.c ****       break;
 3600              		.loc 1 1412 12 is_stmt 0 view .LVU905
 3601 0026 0023     		movs	r3, #0
 3602 0028 2370     		strb	r3, [r4]
1413:Drivers/BSP/Components/lis2dw12/lis2dw12_reg.c **** 
 3603              		.loc 1 1413 7 is_stmt 1 view .LVU906
 3604              	.L234:
1425:Drivers/BSP/Components/lis2dw12/lis2dw12_reg.c **** }
 3605              		.loc 1 1425 1 is_stmt 0 view .LVU907
 3606 002a 02B0     		add	sp, sp, #8
 3607              	.LCFI133:
 3608              		.cfi_remember_state
 3609              		.cfi_def_cfa_offset 8
 3610              		@ sp needed
 3611 002c 10BD     		pop	{r4, pc}
 3612              	.LVL231:
 3613              	.L236:
 3614              	.LCFI134:
 3615              		.cfi_restore_state
1416:Drivers/BSP/Components/lis2dw12/lis2dw12_reg.c ****       break;
 3616              		.loc 1 1416 7 is_stmt 1 view .LVU908
1416:Drivers/BSP/Components/lis2dw12/lis2dw12_reg.c ****       break;
 3617              		.loc 1 1416 12 is_stmt 0 view .LVU909
 3618 002e 0123     		movs	r3, #1
 3619 0030 2370     		strb	r3, [r4]
1417:Drivers/BSP/Components/lis2dw12/lis2dw12_reg.c **** 
 3620              		.loc 1 1417 7 is_stmt 1 view .LVU910
 3621 0032 FAE7     		b	.L234
 3622              		.cfi_endproc
 3623              	.LFE52:
 3625              		.section	.text.lis2dw12_cs_mode_set,"ax",%progbits
 3626              		.align	1
 3627              		.global	lis2dw12_cs_mode_set
 3628              		.syntax unified
 3629              		.thumb
 3630              		.thumb_func
 3631              		.fpu fpv4-sp-d16
 3633              	lis2dw12_cs_mode_set:
 3634              	.LVL232:
 3635              	.LFB53:
1426:Drivers/BSP/Components/lis2dw12/lis2dw12_reg.c **** 
1427:Drivers/BSP/Components/lis2dw12/lis2dw12_reg.c **** /**
1428:Drivers/BSP/Components/lis2dw12/lis2dw12_reg.c ****   * @brief  Disconnect CS pull-up.[set]
1429:Drivers/BSP/Components/lis2dw12/lis2dw12_reg.c ****   *
1430:Drivers/BSP/Components/lis2dw12/lis2dw12_reg.c ****   * @param  ctx      read / write interface definitions
ARM GAS  /tmp/ccEdQILT.s 			page 94


1431:Drivers/BSP/Components/lis2dw12/lis2dw12_reg.c ****   * @param  val      change the values of cs_pu_disc in reg CTRL2
1432:Drivers/BSP/Components/lis2dw12/lis2dw12_reg.c ****   * @retval          interface status (MANDATORY: return 0 -> no Error)
1433:Drivers/BSP/Components/lis2dw12/lis2dw12_reg.c ****   *
1434:Drivers/BSP/Components/lis2dw12/lis2dw12_reg.c ****   */
1435:Drivers/BSP/Components/lis2dw12/lis2dw12_reg.c **** int32_t lis2dw12_cs_mode_set(stmdev_ctx_t *ctx,
1436:Drivers/BSP/Components/lis2dw12/lis2dw12_reg.c ****                              lis2dw12_cs_pu_disc_t val)
1437:Drivers/BSP/Components/lis2dw12/lis2dw12_reg.c **** {
 3636              		.loc 1 1437 1 view -0
 3637              		.cfi_startproc
 3638              		@ args = 0, pretend = 0, frame = 8
 3639              		@ frame_needed = 0, uses_anonymous_args = 0
 3640              		.loc 1 1437 1 is_stmt 0 view .LVU912
 3641 0000 30B5     		push	{r4, r5, lr}
 3642              	.LCFI135:
 3643              		.cfi_def_cfa_offset 12
 3644              		.cfi_offset 4, -12
 3645              		.cfi_offset 5, -8
 3646              		.cfi_offset 14, -4
 3647 0002 83B0     		sub	sp, sp, #12
 3648              	.LCFI136:
 3649              		.cfi_def_cfa_offset 24
 3650 0004 0446     		mov	r4, r0
 3651 0006 0D46     		mov	r5, r1
1438:Drivers/BSP/Components/lis2dw12/lis2dw12_reg.c ****   lis2dw12_ctrl2_t reg;
 3652              		.loc 1 1438 3 is_stmt 1 view .LVU913
1439:Drivers/BSP/Components/lis2dw12/lis2dw12_reg.c ****   int32_t ret;
 3653              		.loc 1 1439 3 view .LVU914
1440:Drivers/BSP/Components/lis2dw12/lis2dw12_reg.c **** 
1441:Drivers/BSP/Components/lis2dw12/lis2dw12_reg.c ****   ret = lis2dw12_read_reg(ctx, LIS2DW12_CTRL2, (uint8_t *) &reg, 1);
 3654              		.loc 1 1441 3 view .LVU915
 3655              		.loc 1 1441 9 is_stmt 0 view .LVU916
 3656 0008 0123     		movs	r3, #1
 3657 000a 01AA     		add	r2, sp, #4
 3658 000c 2121     		movs	r1, #33
 3659              	.LVL233:
 3660              		.loc 1 1441 9 view .LVU917
 3661 000e FFF7FEFF 		bl	lis2dw12_read_reg
 3662              	.LVL234:
1442:Drivers/BSP/Components/lis2dw12/lis2dw12_reg.c **** 
1443:Drivers/BSP/Components/lis2dw12/lis2dw12_reg.c ****   if (ret == 0)
 3663              		.loc 1 1443 3 is_stmt 1 view .LVU918
 3664              		.loc 1 1443 6 is_stmt 0 view .LVU919
 3665 0012 08B1     		cbz	r0, .L244
 3666              	.LVL235:
 3667              	.L241:
1444:Drivers/BSP/Components/lis2dw12/lis2dw12_reg.c ****   {
1445:Drivers/BSP/Components/lis2dw12/lis2dw12_reg.c ****     reg.cs_pu_disc = (uint8_t) val;
1446:Drivers/BSP/Components/lis2dw12/lis2dw12_reg.c ****     ret = lis2dw12_write_reg(ctx, LIS2DW12_CTRL2, (uint8_t *) &reg, 1);
1447:Drivers/BSP/Components/lis2dw12/lis2dw12_reg.c ****   }
1448:Drivers/BSP/Components/lis2dw12/lis2dw12_reg.c **** 
1449:Drivers/BSP/Components/lis2dw12/lis2dw12_reg.c ****   return ret;
1450:Drivers/BSP/Components/lis2dw12/lis2dw12_reg.c **** }
 3668              		.loc 1 1450 1 view .LVU920
 3669 0014 03B0     		add	sp, sp, #12
 3670              	.LCFI137:
 3671              		.cfi_remember_state
 3672              		.cfi_def_cfa_offset 12
ARM GAS  /tmp/ccEdQILT.s 			page 95


 3673              		@ sp needed
 3674 0016 30BD     		pop	{r4, r5, pc}
 3675              	.LVL236:
 3676              	.L244:
 3677              	.LCFI138:
 3678              		.cfi_restore_state
1445:Drivers/BSP/Components/lis2dw12/lis2dw12_reg.c ****     ret = lis2dw12_write_reg(ctx, LIS2DW12_CTRL2, (uint8_t *) &reg, 1);
 3679              		.loc 1 1445 5 is_stmt 1 view .LVU921
1445:Drivers/BSP/Components/lis2dw12/lis2dw12_reg.c ****     ret = lis2dw12_write_reg(ctx, LIS2DW12_CTRL2, (uint8_t *) &reg, 1);
 3680              		.loc 1 1445 20 is_stmt 0 view .LVU922
 3681 0018 9DF80430 		ldrb	r3, [sp, #4]	@ zero_extendqisi2
 3682 001c 65F30413 		bfi	r3, r5, #4, #1
 3683 0020 8DF80430 		strb	r3, [sp, #4]
1446:Drivers/BSP/Components/lis2dw12/lis2dw12_reg.c ****   }
 3684              		.loc 1 1446 5 is_stmt 1 view .LVU923
1446:Drivers/BSP/Components/lis2dw12/lis2dw12_reg.c ****   }
 3685              		.loc 1 1446 11 is_stmt 0 view .LVU924
 3686 0024 0123     		movs	r3, #1
 3687              	.LVL237:
1446:Drivers/BSP/Components/lis2dw12/lis2dw12_reg.c ****   }
 3688              		.loc 1 1446 11 view .LVU925
 3689 0026 01AA     		add	r2, sp, #4
 3690 0028 2121     		movs	r1, #33
 3691 002a 2046     		mov	r0, r4
 3692 002c FFF7FEFF 		bl	lis2dw12_write_reg
 3693              	.LVL238:
1449:Drivers/BSP/Components/lis2dw12/lis2dw12_reg.c **** }
 3694              		.loc 1 1449 3 is_stmt 1 view .LVU926
1449:Drivers/BSP/Components/lis2dw12/lis2dw12_reg.c **** }
 3695              		.loc 1 1449 10 is_stmt 0 view .LVU927
 3696 0030 F0E7     		b	.L241
 3697              		.cfi_endproc
 3698              	.LFE53:
 3700              		.section	.text.lis2dw12_cs_mode_get,"ax",%progbits
 3701              		.align	1
 3702              		.global	lis2dw12_cs_mode_get
 3703              		.syntax unified
 3704              		.thumb
 3705              		.thumb_func
 3706              		.fpu fpv4-sp-d16
 3708              	lis2dw12_cs_mode_get:
 3709              	.LVL239:
 3710              	.LFB54:
1451:Drivers/BSP/Components/lis2dw12/lis2dw12_reg.c **** 
1452:Drivers/BSP/Components/lis2dw12/lis2dw12_reg.c **** /**
1453:Drivers/BSP/Components/lis2dw12/lis2dw12_reg.c ****   * @brief  Disconnect CS pull-up.[get]
1454:Drivers/BSP/Components/lis2dw12/lis2dw12_reg.c ****   *
1455:Drivers/BSP/Components/lis2dw12/lis2dw12_reg.c ****   * @param  ctx      read / write interface definitions
1456:Drivers/BSP/Components/lis2dw12/lis2dw12_reg.c ****   * @param  val      Get the values of cs_pu_disc in reg CTRL2
1457:Drivers/BSP/Components/lis2dw12/lis2dw12_reg.c ****   * @retval          interface status (MANDATORY: return 0 -> no Error)
1458:Drivers/BSP/Components/lis2dw12/lis2dw12_reg.c ****   *
1459:Drivers/BSP/Components/lis2dw12/lis2dw12_reg.c ****   */
1460:Drivers/BSP/Components/lis2dw12/lis2dw12_reg.c **** int32_t lis2dw12_cs_mode_get(stmdev_ctx_t *ctx,
1461:Drivers/BSP/Components/lis2dw12/lis2dw12_reg.c ****                              lis2dw12_cs_pu_disc_t *val)
1462:Drivers/BSP/Components/lis2dw12/lis2dw12_reg.c **** {
 3711              		.loc 1 1462 1 is_stmt 1 view -0
 3712              		.cfi_startproc
ARM GAS  /tmp/ccEdQILT.s 			page 96


 3713              		@ args = 0, pretend = 0, frame = 8
 3714              		@ frame_needed = 0, uses_anonymous_args = 0
 3715              		.loc 1 1462 1 is_stmt 0 view .LVU929
 3716 0000 10B5     		push	{r4, lr}
 3717              	.LCFI139:
 3718              		.cfi_def_cfa_offset 8
 3719              		.cfi_offset 4, -8
 3720              		.cfi_offset 14, -4
 3721 0002 82B0     		sub	sp, sp, #8
 3722              	.LCFI140:
 3723              		.cfi_def_cfa_offset 16
 3724 0004 0C46     		mov	r4, r1
1463:Drivers/BSP/Components/lis2dw12/lis2dw12_reg.c ****   lis2dw12_ctrl2_t reg;
 3725              		.loc 1 1463 3 is_stmt 1 view .LVU930
1464:Drivers/BSP/Components/lis2dw12/lis2dw12_reg.c ****   int32_t ret;
 3726              		.loc 1 1464 3 view .LVU931
1465:Drivers/BSP/Components/lis2dw12/lis2dw12_reg.c **** 
1466:Drivers/BSP/Components/lis2dw12/lis2dw12_reg.c ****   ret = lis2dw12_read_reg(ctx, LIS2DW12_CTRL2, (uint8_t *) &reg, 1);
 3727              		.loc 1 1466 3 view .LVU932
 3728              		.loc 1 1466 9 is_stmt 0 view .LVU933
 3729 0006 0123     		movs	r3, #1
 3730 0008 01AA     		add	r2, sp, #4
 3731 000a 2121     		movs	r1, #33
 3732              	.LVL240:
 3733              		.loc 1 1466 9 view .LVU934
 3734 000c FFF7FEFF 		bl	lis2dw12_read_reg
 3735              	.LVL241:
1467:Drivers/BSP/Components/lis2dw12/lis2dw12_reg.c **** 
1468:Drivers/BSP/Components/lis2dw12/lis2dw12_reg.c ****   switch (reg.cs_pu_disc)
 3736              		.loc 1 1468 3 is_stmt 1 view .LVU935
 3737              		.loc 1 1468 14 is_stmt 0 view .LVU936
 3738 0010 9DF80430 		ldrb	r3, [sp, #4]	@ zero_extendqisi2
 3739 0014 C3F30012 		ubfx	r2, r3, #4, #1
 3740              		.loc 1 1468 3 view .LVU937
 3741 0018 13F0100F 		tst	r3, #16
 3742 001c 03D0     		beq	.L246
 3743 001e 32B9     		cbnz	r2, .L247
1469:Drivers/BSP/Components/lis2dw12/lis2dw12_reg.c ****   {
1470:Drivers/BSP/Components/lis2dw12/lis2dw12_reg.c ****     case LIS2DW12_PULL_UP_CONNECT:
1471:Drivers/BSP/Components/lis2dw12/lis2dw12_reg.c ****       *val = LIS2DW12_PULL_UP_CONNECT;
1472:Drivers/BSP/Components/lis2dw12/lis2dw12_reg.c ****       break;
1473:Drivers/BSP/Components/lis2dw12/lis2dw12_reg.c **** 
1474:Drivers/BSP/Components/lis2dw12/lis2dw12_reg.c ****     case LIS2DW12_PULL_UP_DISCONNECT:
1475:Drivers/BSP/Components/lis2dw12/lis2dw12_reg.c ****       *val = LIS2DW12_PULL_UP_DISCONNECT;
1476:Drivers/BSP/Components/lis2dw12/lis2dw12_reg.c ****       break;
1477:Drivers/BSP/Components/lis2dw12/lis2dw12_reg.c **** 
1478:Drivers/BSP/Components/lis2dw12/lis2dw12_reg.c ****     default:
1479:Drivers/BSP/Components/lis2dw12/lis2dw12_reg.c ****       *val = LIS2DW12_PULL_UP_CONNECT;
 3744              		.loc 1 1479 7 is_stmt 1 view .LVU938
 3745              		.loc 1 1479 12 is_stmt 0 view .LVU939
 3746 0020 0023     		movs	r3, #0
 3747 0022 2370     		strb	r3, [r4]
1480:Drivers/BSP/Components/lis2dw12/lis2dw12_reg.c ****       break;
 3748              		.loc 1 1480 7 is_stmt 1 view .LVU940
1481:Drivers/BSP/Components/lis2dw12/lis2dw12_reg.c ****   }
1482:Drivers/BSP/Components/lis2dw12/lis2dw12_reg.c **** 
1483:Drivers/BSP/Components/lis2dw12/lis2dw12_reg.c ****   return ret;
ARM GAS  /tmp/ccEdQILT.s 			page 97


 3749              		.loc 1 1483 3 view .LVU941
 3750              		.loc 1 1483 10 is_stmt 0 view .LVU942
 3751 0024 01E0     		b	.L245
 3752              	.L246:
1471:Drivers/BSP/Components/lis2dw12/lis2dw12_reg.c ****       break;
 3753              		.loc 1 1471 7 is_stmt 1 view .LVU943
1471:Drivers/BSP/Components/lis2dw12/lis2dw12_reg.c ****       break;
 3754              		.loc 1 1471 12 is_stmt 0 view .LVU944
 3755 0026 0023     		movs	r3, #0
 3756 0028 2370     		strb	r3, [r4]
1472:Drivers/BSP/Components/lis2dw12/lis2dw12_reg.c **** 
 3757              		.loc 1 1472 7 is_stmt 1 view .LVU945
 3758              	.L245:
1484:Drivers/BSP/Components/lis2dw12/lis2dw12_reg.c **** }
 3759              		.loc 1 1484 1 is_stmt 0 view .LVU946
 3760 002a 02B0     		add	sp, sp, #8
 3761              	.LCFI141:
 3762              		.cfi_remember_state
 3763              		.cfi_def_cfa_offset 8
 3764              		@ sp needed
 3765 002c 10BD     		pop	{r4, pc}
 3766              	.LVL242:
 3767              	.L247:
 3768              	.LCFI142:
 3769              		.cfi_restore_state
1475:Drivers/BSP/Components/lis2dw12/lis2dw12_reg.c ****       break;
 3770              		.loc 1 1475 7 is_stmt 1 view .LVU947
1475:Drivers/BSP/Components/lis2dw12/lis2dw12_reg.c ****       break;
 3771              		.loc 1 1475 12 is_stmt 0 view .LVU948
 3772 002e 0123     		movs	r3, #1
 3773 0030 2370     		strb	r3, [r4]
1476:Drivers/BSP/Components/lis2dw12/lis2dw12_reg.c **** 
 3774              		.loc 1 1476 7 is_stmt 1 view .LVU949
 3775 0032 FAE7     		b	.L245
 3776              		.cfi_endproc
 3777              	.LFE54:
 3779              		.section	.text.lis2dw12_pin_polarity_set,"ax",%progbits
 3780              		.align	1
 3781              		.global	lis2dw12_pin_polarity_set
 3782              		.syntax unified
 3783              		.thumb
 3784              		.thumb_func
 3785              		.fpu fpv4-sp-d16
 3787              	lis2dw12_pin_polarity_set:
 3788              	.LVL243:
 3789              	.LFB55:
1485:Drivers/BSP/Components/lis2dw12/lis2dw12_reg.c **** 
1486:Drivers/BSP/Components/lis2dw12/lis2dw12_reg.c **** /**
1487:Drivers/BSP/Components/lis2dw12/lis2dw12_reg.c ****   * @}
1488:Drivers/BSP/Components/lis2dw12/lis2dw12_reg.c ****   *
1489:Drivers/BSP/Components/lis2dw12/lis2dw12_reg.c ****   */
1490:Drivers/BSP/Components/lis2dw12/lis2dw12_reg.c **** 
1491:Drivers/BSP/Components/lis2dw12/lis2dw12_reg.c **** /**
1492:Drivers/BSP/Components/lis2dw12/lis2dw12_reg.c ****   * @defgroup  LIS2DW12_Interrupt_Pins
1493:Drivers/BSP/Components/lis2dw12/lis2dw12_reg.c ****   * @brief     This section groups all the functions that manage interrupt pins
1494:Drivers/BSP/Components/lis2dw12/lis2dw12_reg.c ****   * @{
1495:Drivers/BSP/Components/lis2dw12/lis2dw12_reg.c ****   *
ARM GAS  /tmp/ccEdQILT.s 			page 98


1496:Drivers/BSP/Components/lis2dw12/lis2dw12_reg.c ****   */
1497:Drivers/BSP/Components/lis2dw12/lis2dw12_reg.c **** 
1498:Drivers/BSP/Components/lis2dw12/lis2dw12_reg.c **** /**
1499:Drivers/BSP/Components/lis2dw12/lis2dw12_reg.c ****   * @brief  Interrupt active-high/low.[set]
1500:Drivers/BSP/Components/lis2dw12/lis2dw12_reg.c ****   *
1501:Drivers/BSP/Components/lis2dw12/lis2dw12_reg.c ****   * @param  ctx      read / write interface definitions
1502:Drivers/BSP/Components/lis2dw12/lis2dw12_reg.c ****   * @param  val      change the values of h_lactive in reg CTRL3
1503:Drivers/BSP/Components/lis2dw12/lis2dw12_reg.c ****   * @retval          interface status (MANDATORY: return 0 -> no Error)
1504:Drivers/BSP/Components/lis2dw12/lis2dw12_reg.c ****   *
1505:Drivers/BSP/Components/lis2dw12/lis2dw12_reg.c ****   */
1506:Drivers/BSP/Components/lis2dw12/lis2dw12_reg.c **** int32_t lis2dw12_pin_polarity_set(stmdev_ctx_t *ctx,
1507:Drivers/BSP/Components/lis2dw12/lis2dw12_reg.c ****                                   lis2dw12_h_lactive_t val)
1508:Drivers/BSP/Components/lis2dw12/lis2dw12_reg.c **** {
 3790              		.loc 1 1508 1 view -0
 3791              		.cfi_startproc
 3792              		@ args = 0, pretend = 0, frame = 8
 3793              		@ frame_needed = 0, uses_anonymous_args = 0
 3794              		.loc 1 1508 1 is_stmt 0 view .LVU951
 3795 0000 30B5     		push	{r4, r5, lr}
 3796              	.LCFI143:
 3797              		.cfi_def_cfa_offset 12
 3798              		.cfi_offset 4, -12
 3799              		.cfi_offset 5, -8
 3800              		.cfi_offset 14, -4
 3801 0002 83B0     		sub	sp, sp, #12
 3802              	.LCFI144:
 3803              		.cfi_def_cfa_offset 24
 3804 0004 0446     		mov	r4, r0
 3805 0006 0D46     		mov	r5, r1
1509:Drivers/BSP/Components/lis2dw12/lis2dw12_reg.c ****   lis2dw12_ctrl3_t reg;
 3806              		.loc 1 1509 3 is_stmt 1 view .LVU952
1510:Drivers/BSP/Components/lis2dw12/lis2dw12_reg.c ****   int32_t ret;
 3807              		.loc 1 1510 3 view .LVU953
1511:Drivers/BSP/Components/lis2dw12/lis2dw12_reg.c **** 
1512:Drivers/BSP/Components/lis2dw12/lis2dw12_reg.c ****   ret = lis2dw12_read_reg(ctx, LIS2DW12_CTRL3, (uint8_t *) &reg, 1);
 3808              		.loc 1 1512 3 view .LVU954
 3809              		.loc 1 1512 9 is_stmt 0 view .LVU955
 3810 0008 0123     		movs	r3, #1
 3811 000a 01AA     		add	r2, sp, #4
 3812 000c 2221     		movs	r1, #34
 3813              	.LVL244:
 3814              		.loc 1 1512 9 view .LVU956
 3815 000e FFF7FEFF 		bl	lis2dw12_read_reg
 3816              	.LVL245:
1513:Drivers/BSP/Components/lis2dw12/lis2dw12_reg.c **** 
1514:Drivers/BSP/Components/lis2dw12/lis2dw12_reg.c ****   if (ret == 0)
 3817              		.loc 1 1514 3 is_stmt 1 view .LVU957
 3818              		.loc 1 1514 6 is_stmt 0 view .LVU958
 3819 0012 08B1     		cbz	r0, .L255
 3820              	.LVL246:
 3821              	.L252:
1515:Drivers/BSP/Components/lis2dw12/lis2dw12_reg.c ****   {
1516:Drivers/BSP/Components/lis2dw12/lis2dw12_reg.c ****     reg.h_lactive = (uint8_t) val;
1517:Drivers/BSP/Components/lis2dw12/lis2dw12_reg.c ****     ret = lis2dw12_write_reg(ctx, LIS2DW12_CTRL3, (uint8_t *) &reg, 1);
1518:Drivers/BSP/Components/lis2dw12/lis2dw12_reg.c ****   }
1519:Drivers/BSP/Components/lis2dw12/lis2dw12_reg.c **** 
1520:Drivers/BSP/Components/lis2dw12/lis2dw12_reg.c ****   return ret;
ARM GAS  /tmp/ccEdQILT.s 			page 99


1521:Drivers/BSP/Components/lis2dw12/lis2dw12_reg.c **** }
 3822              		.loc 1 1521 1 view .LVU959
 3823 0014 03B0     		add	sp, sp, #12
 3824              	.LCFI145:
 3825              		.cfi_remember_state
 3826              		.cfi_def_cfa_offset 12
 3827              		@ sp needed
 3828 0016 30BD     		pop	{r4, r5, pc}
 3829              	.LVL247:
 3830              	.L255:
 3831              	.LCFI146:
 3832              		.cfi_restore_state
1516:Drivers/BSP/Components/lis2dw12/lis2dw12_reg.c ****     ret = lis2dw12_write_reg(ctx, LIS2DW12_CTRL3, (uint8_t *) &reg, 1);
 3833              		.loc 1 1516 5 is_stmt 1 view .LVU960
1516:Drivers/BSP/Components/lis2dw12/lis2dw12_reg.c ****     ret = lis2dw12_write_reg(ctx, LIS2DW12_CTRL3, (uint8_t *) &reg, 1);
 3834              		.loc 1 1516 19 is_stmt 0 view .LVU961
 3835 0018 9DF80430 		ldrb	r3, [sp, #4]	@ zero_extendqisi2
 3836 001c 65F3C303 		bfi	r3, r5, #3, #1
 3837 0020 8DF80430 		strb	r3, [sp, #4]
1517:Drivers/BSP/Components/lis2dw12/lis2dw12_reg.c ****   }
 3838              		.loc 1 1517 5 is_stmt 1 view .LVU962
1517:Drivers/BSP/Components/lis2dw12/lis2dw12_reg.c ****   }
 3839              		.loc 1 1517 11 is_stmt 0 view .LVU963
 3840 0024 0123     		movs	r3, #1
 3841              	.LVL248:
1517:Drivers/BSP/Components/lis2dw12/lis2dw12_reg.c ****   }
 3842              		.loc 1 1517 11 view .LVU964
 3843 0026 01AA     		add	r2, sp, #4
 3844 0028 2221     		movs	r1, #34
 3845 002a 2046     		mov	r0, r4
 3846 002c FFF7FEFF 		bl	lis2dw12_write_reg
 3847              	.LVL249:
1520:Drivers/BSP/Components/lis2dw12/lis2dw12_reg.c **** }
 3848              		.loc 1 1520 3 is_stmt 1 view .LVU965
1520:Drivers/BSP/Components/lis2dw12/lis2dw12_reg.c **** }
 3849              		.loc 1 1520 10 is_stmt 0 view .LVU966
 3850 0030 F0E7     		b	.L252
 3851              		.cfi_endproc
 3852              	.LFE55:
 3854              		.section	.text.lis2dw12_pin_polarity_get,"ax",%progbits
 3855              		.align	1
 3856              		.global	lis2dw12_pin_polarity_get
 3857              		.syntax unified
 3858              		.thumb
 3859              		.thumb_func
 3860              		.fpu fpv4-sp-d16
 3862              	lis2dw12_pin_polarity_get:
 3863              	.LVL250:
 3864              	.LFB56:
1522:Drivers/BSP/Components/lis2dw12/lis2dw12_reg.c **** 
1523:Drivers/BSP/Components/lis2dw12/lis2dw12_reg.c **** /**
1524:Drivers/BSP/Components/lis2dw12/lis2dw12_reg.c ****   * @brief  Interrupt active-high/low.[get]
1525:Drivers/BSP/Components/lis2dw12/lis2dw12_reg.c ****   *
1526:Drivers/BSP/Components/lis2dw12/lis2dw12_reg.c ****   * @param  ctx      read / write interface definitions
1527:Drivers/BSP/Components/lis2dw12/lis2dw12_reg.c ****   * @param  val      Get the values of h_lactive in reg CTRL3
1528:Drivers/BSP/Components/lis2dw12/lis2dw12_reg.c ****   * @retval          interface status (MANDATORY: return 0 -> no Error)
1529:Drivers/BSP/Components/lis2dw12/lis2dw12_reg.c ****   *
ARM GAS  /tmp/ccEdQILT.s 			page 100


1530:Drivers/BSP/Components/lis2dw12/lis2dw12_reg.c ****   */
1531:Drivers/BSP/Components/lis2dw12/lis2dw12_reg.c **** int32_t lis2dw12_pin_polarity_get(stmdev_ctx_t *ctx,
1532:Drivers/BSP/Components/lis2dw12/lis2dw12_reg.c ****                                   lis2dw12_h_lactive_t *val)
1533:Drivers/BSP/Components/lis2dw12/lis2dw12_reg.c **** {
 3865              		.loc 1 1533 1 is_stmt 1 view -0
 3866              		.cfi_startproc
 3867              		@ args = 0, pretend = 0, frame = 8
 3868              		@ frame_needed = 0, uses_anonymous_args = 0
 3869              		.loc 1 1533 1 is_stmt 0 view .LVU968
 3870 0000 10B5     		push	{r4, lr}
 3871              	.LCFI147:
 3872              		.cfi_def_cfa_offset 8
 3873              		.cfi_offset 4, -8
 3874              		.cfi_offset 14, -4
 3875 0002 82B0     		sub	sp, sp, #8
 3876              	.LCFI148:
 3877              		.cfi_def_cfa_offset 16
 3878 0004 0C46     		mov	r4, r1
1534:Drivers/BSP/Components/lis2dw12/lis2dw12_reg.c ****   lis2dw12_ctrl3_t reg;
 3879              		.loc 1 1534 3 is_stmt 1 view .LVU969
1535:Drivers/BSP/Components/lis2dw12/lis2dw12_reg.c ****   int32_t ret;
 3880              		.loc 1 1535 3 view .LVU970
1536:Drivers/BSP/Components/lis2dw12/lis2dw12_reg.c **** 
1537:Drivers/BSP/Components/lis2dw12/lis2dw12_reg.c ****   ret = lis2dw12_read_reg(ctx, LIS2DW12_CTRL3, (uint8_t *) &reg, 1);
 3881              		.loc 1 1537 3 view .LVU971
 3882              		.loc 1 1537 9 is_stmt 0 view .LVU972
 3883 0006 0123     		movs	r3, #1
 3884 0008 01AA     		add	r2, sp, #4
 3885 000a 2221     		movs	r1, #34
 3886              	.LVL251:
 3887              		.loc 1 1537 9 view .LVU973
 3888 000c FFF7FEFF 		bl	lis2dw12_read_reg
 3889              	.LVL252:
1538:Drivers/BSP/Components/lis2dw12/lis2dw12_reg.c **** 
1539:Drivers/BSP/Components/lis2dw12/lis2dw12_reg.c ****   switch (reg.h_lactive)
 3890              		.loc 1 1539 3 is_stmt 1 view .LVU974
 3891              		.loc 1 1539 14 is_stmt 0 view .LVU975
 3892 0010 9DF80430 		ldrb	r3, [sp, #4]	@ zero_extendqisi2
 3893 0014 C3F3C002 		ubfx	r2, r3, #3, #1
 3894              		.loc 1 1539 3 view .LVU976
 3895 0018 13F0080F 		tst	r3, #8
 3896 001c 03D0     		beq	.L257
 3897 001e 32B9     		cbnz	r2, .L258
1540:Drivers/BSP/Components/lis2dw12/lis2dw12_reg.c ****   {
1541:Drivers/BSP/Components/lis2dw12/lis2dw12_reg.c ****     case LIS2DW12_ACTIVE_HIGH:
1542:Drivers/BSP/Components/lis2dw12/lis2dw12_reg.c ****       *val = LIS2DW12_ACTIVE_HIGH;
1543:Drivers/BSP/Components/lis2dw12/lis2dw12_reg.c ****       break;
1544:Drivers/BSP/Components/lis2dw12/lis2dw12_reg.c **** 
1545:Drivers/BSP/Components/lis2dw12/lis2dw12_reg.c ****     case LIS2DW12_ACTIVE_LOW:
1546:Drivers/BSP/Components/lis2dw12/lis2dw12_reg.c ****       *val = LIS2DW12_ACTIVE_LOW;
1547:Drivers/BSP/Components/lis2dw12/lis2dw12_reg.c ****       break;
1548:Drivers/BSP/Components/lis2dw12/lis2dw12_reg.c **** 
1549:Drivers/BSP/Components/lis2dw12/lis2dw12_reg.c ****     default:
1550:Drivers/BSP/Components/lis2dw12/lis2dw12_reg.c ****       *val = LIS2DW12_ACTIVE_HIGH;
 3898              		.loc 1 1550 7 is_stmt 1 view .LVU977
 3899              		.loc 1 1550 12 is_stmt 0 view .LVU978
 3900 0020 0023     		movs	r3, #0
ARM GAS  /tmp/ccEdQILT.s 			page 101


 3901 0022 2370     		strb	r3, [r4]
1551:Drivers/BSP/Components/lis2dw12/lis2dw12_reg.c ****       break;
 3902              		.loc 1 1551 7 is_stmt 1 view .LVU979
1552:Drivers/BSP/Components/lis2dw12/lis2dw12_reg.c ****   }
1553:Drivers/BSP/Components/lis2dw12/lis2dw12_reg.c **** 
1554:Drivers/BSP/Components/lis2dw12/lis2dw12_reg.c ****   return ret;
 3903              		.loc 1 1554 3 view .LVU980
 3904              		.loc 1 1554 10 is_stmt 0 view .LVU981
 3905 0024 01E0     		b	.L256
 3906              	.L257:
1542:Drivers/BSP/Components/lis2dw12/lis2dw12_reg.c ****       break;
 3907              		.loc 1 1542 7 is_stmt 1 view .LVU982
1542:Drivers/BSP/Components/lis2dw12/lis2dw12_reg.c ****       break;
 3908              		.loc 1 1542 12 is_stmt 0 view .LVU983
 3909 0026 0023     		movs	r3, #0
 3910 0028 2370     		strb	r3, [r4]
1543:Drivers/BSP/Components/lis2dw12/lis2dw12_reg.c **** 
 3911              		.loc 1 1543 7 is_stmt 1 view .LVU984
 3912              	.L256:
1555:Drivers/BSP/Components/lis2dw12/lis2dw12_reg.c **** }
 3913              		.loc 1 1555 1 is_stmt 0 view .LVU985
 3914 002a 02B0     		add	sp, sp, #8
 3915              	.LCFI149:
 3916              		.cfi_remember_state
 3917              		.cfi_def_cfa_offset 8
 3918              		@ sp needed
 3919 002c 10BD     		pop	{r4, pc}
 3920              	.LVL253:
 3921              	.L258:
 3922              	.LCFI150:
 3923              		.cfi_restore_state
1546:Drivers/BSP/Components/lis2dw12/lis2dw12_reg.c ****       break;
 3924              		.loc 1 1546 7 is_stmt 1 view .LVU986
1546:Drivers/BSP/Components/lis2dw12/lis2dw12_reg.c ****       break;
 3925              		.loc 1 1546 12 is_stmt 0 view .LVU987
 3926 002e 0123     		movs	r3, #1
 3927 0030 2370     		strb	r3, [r4]
1547:Drivers/BSP/Components/lis2dw12/lis2dw12_reg.c **** 
 3928              		.loc 1 1547 7 is_stmt 1 view .LVU988
 3929 0032 FAE7     		b	.L256
 3930              		.cfi_endproc
 3931              	.LFE56:
 3933              		.section	.text.lis2dw12_int_notification_set,"ax",%progbits
 3934              		.align	1
 3935              		.global	lis2dw12_int_notification_set
 3936              		.syntax unified
 3937              		.thumb
 3938              		.thumb_func
 3939              		.fpu fpv4-sp-d16
 3941              	lis2dw12_int_notification_set:
 3942              	.LVL254:
 3943              	.LFB57:
1556:Drivers/BSP/Components/lis2dw12/lis2dw12_reg.c **** 
1557:Drivers/BSP/Components/lis2dw12/lis2dw12_reg.c **** /**
1558:Drivers/BSP/Components/lis2dw12/lis2dw12_reg.c ****   * @brief  Latched/pulsed interrupt.[set]
1559:Drivers/BSP/Components/lis2dw12/lis2dw12_reg.c ****   *
1560:Drivers/BSP/Components/lis2dw12/lis2dw12_reg.c ****   * @param  ctx      read / write interface definitions
ARM GAS  /tmp/ccEdQILT.s 			page 102


1561:Drivers/BSP/Components/lis2dw12/lis2dw12_reg.c ****   * @param  val      change the values of lir in reg CTRL3
1562:Drivers/BSP/Components/lis2dw12/lis2dw12_reg.c ****   * @retval          interface status (MANDATORY: return 0 -> no Error)
1563:Drivers/BSP/Components/lis2dw12/lis2dw12_reg.c ****   *
1564:Drivers/BSP/Components/lis2dw12/lis2dw12_reg.c ****   */
1565:Drivers/BSP/Components/lis2dw12/lis2dw12_reg.c **** int32_t lis2dw12_int_notification_set(stmdev_ctx_t *ctx,
1566:Drivers/BSP/Components/lis2dw12/lis2dw12_reg.c ****                                       lis2dw12_lir_t val)
1567:Drivers/BSP/Components/lis2dw12/lis2dw12_reg.c **** {
 3944              		.loc 1 1567 1 view -0
 3945              		.cfi_startproc
 3946              		@ args = 0, pretend = 0, frame = 8
 3947              		@ frame_needed = 0, uses_anonymous_args = 0
 3948              		.loc 1 1567 1 is_stmt 0 view .LVU990
 3949 0000 30B5     		push	{r4, r5, lr}
 3950              	.LCFI151:
 3951              		.cfi_def_cfa_offset 12
 3952              		.cfi_offset 4, -12
 3953              		.cfi_offset 5, -8
 3954              		.cfi_offset 14, -4
 3955 0002 83B0     		sub	sp, sp, #12
 3956              	.LCFI152:
 3957              		.cfi_def_cfa_offset 24
 3958 0004 0446     		mov	r4, r0
 3959 0006 0D46     		mov	r5, r1
1568:Drivers/BSP/Components/lis2dw12/lis2dw12_reg.c ****   lis2dw12_ctrl3_t reg;
 3960              		.loc 1 1568 3 is_stmt 1 view .LVU991
1569:Drivers/BSP/Components/lis2dw12/lis2dw12_reg.c ****   int32_t ret;
 3961              		.loc 1 1569 3 view .LVU992
1570:Drivers/BSP/Components/lis2dw12/lis2dw12_reg.c **** 
1571:Drivers/BSP/Components/lis2dw12/lis2dw12_reg.c ****   ret = lis2dw12_read_reg(ctx, LIS2DW12_CTRL3, (uint8_t *) &reg, 1);
 3962              		.loc 1 1571 3 view .LVU993
 3963              		.loc 1 1571 9 is_stmt 0 view .LVU994
 3964 0008 0123     		movs	r3, #1
 3965 000a 01AA     		add	r2, sp, #4
 3966 000c 2221     		movs	r1, #34
 3967              	.LVL255:
 3968              		.loc 1 1571 9 view .LVU995
 3969 000e FFF7FEFF 		bl	lis2dw12_read_reg
 3970              	.LVL256:
1572:Drivers/BSP/Components/lis2dw12/lis2dw12_reg.c **** 
1573:Drivers/BSP/Components/lis2dw12/lis2dw12_reg.c ****   if (ret == 0)
 3971              		.loc 1 1573 3 is_stmt 1 view .LVU996
 3972              		.loc 1 1573 6 is_stmt 0 view .LVU997
 3973 0012 08B1     		cbz	r0, .L266
 3974              	.LVL257:
 3975              	.L263:
1574:Drivers/BSP/Components/lis2dw12/lis2dw12_reg.c ****   {
1575:Drivers/BSP/Components/lis2dw12/lis2dw12_reg.c ****     reg.lir = (uint8_t) val;
1576:Drivers/BSP/Components/lis2dw12/lis2dw12_reg.c ****     ret = lis2dw12_write_reg(ctx, LIS2DW12_CTRL3, (uint8_t *) &reg, 1);
1577:Drivers/BSP/Components/lis2dw12/lis2dw12_reg.c ****   }
1578:Drivers/BSP/Components/lis2dw12/lis2dw12_reg.c **** 
1579:Drivers/BSP/Components/lis2dw12/lis2dw12_reg.c ****   return ret;
1580:Drivers/BSP/Components/lis2dw12/lis2dw12_reg.c **** }
 3976              		.loc 1 1580 1 view .LVU998
 3977 0014 03B0     		add	sp, sp, #12
 3978              	.LCFI153:
 3979              		.cfi_remember_state
 3980              		.cfi_def_cfa_offset 12
ARM GAS  /tmp/ccEdQILT.s 			page 103


 3981              		@ sp needed
 3982 0016 30BD     		pop	{r4, r5, pc}
 3983              	.LVL258:
 3984              	.L266:
 3985              	.LCFI154:
 3986              		.cfi_restore_state
1575:Drivers/BSP/Components/lis2dw12/lis2dw12_reg.c ****     ret = lis2dw12_write_reg(ctx, LIS2DW12_CTRL3, (uint8_t *) &reg, 1);
 3987              		.loc 1 1575 5 is_stmt 1 view .LVU999
1575:Drivers/BSP/Components/lis2dw12/lis2dw12_reg.c ****     ret = lis2dw12_write_reg(ctx, LIS2DW12_CTRL3, (uint8_t *) &reg, 1);
 3988              		.loc 1 1575 13 is_stmt 0 view .LVU1000
 3989 0018 9DF80430 		ldrb	r3, [sp, #4]	@ zero_extendqisi2
 3990 001c 65F30413 		bfi	r3, r5, #4, #1
 3991 0020 8DF80430 		strb	r3, [sp, #4]
1576:Drivers/BSP/Components/lis2dw12/lis2dw12_reg.c ****   }
 3992              		.loc 1 1576 5 is_stmt 1 view .LVU1001
1576:Drivers/BSP/Components/lis2dw12/lis2dw12_reg.c ****   }
 3993              		.loc 1 1576 11 is_stmt 0 view .LVU1002
 3994 0024 0123     		movs	r3, #1
 3995              	.LVL259:
1576:Drivers/BSP/Components/lis2dw12/lis2dw12_reg.c ****   }
 3996              		.loc 1 1576 11 view .LVU1003
 3997 0026 01AA     		add	r2, sp, #4
 3998 0028 2221     		movs	r1, #34
 3999 002a 2046     		mov	r0, r4
 4000 002c FFF7FEFF 		bl	lis2dw12_write_reg
 4001              	.LVL260:
1579:Drivers/BSP/Components/lis2dw12/lis2dw12_reg.c **** }
 4002              		.loc 1 1579 3 is_stmt 1 view .LVU1004
1579:Drivers/BSP/Components/lis2dw12/lis2dw12_reg.c **** }
 4003              		.loc 1 1579 10 is_stmt 0 view .LVU1005
 4004 0030 F0E7     		b	.L263
 4005              		.cfi_endproc
 4006              	.LFE57:
 4008              		.section	.text.lis2dw12_int_notification_get,"ax",%progbits
 4009              		.align	1
 4010              		.global	lis2dw12_int_notification_get
 4011              		.syntax unified
 4012              		.thumb
 4013              		.thumb_func
 4014              		.fpu fpv4-sp-d16
 4016              	lis2dw12_int_notification_get:
 4017              	.LVL261:
 4018              	.LFB58:
1581:Drivers/BSP/Components/lis2dw12/lis2dw12_reg.c **** 
1582:Drivers/BSP/Components/lis2dw12/lis2dw12_reg.c **** /**
1583:Drivers/BSP/Components/lis2dw12/lis2dw12_reg.c ****   * @brief  Latched/pulsed interrupt.[get]
1584:Drivers/BSP/Components/lis2dw12/lis2dw12_reg.c ****   *
1585:Drivers/BSP/Components/lis2dw12/lis2dw12_reg.c ****   * @param  ctx      read / write interface definitions
1586:Drivers/BSP/Components/lis2dw12/lis2dw12_reg.c ****   * @param  val      Get the values of lir in reg CTRL3
1587:Drivers/BSP/Components/lis2dw12/lis2dw12_reg.c ****   * @retval          interface status (MANDATORY: return 0 -> no Error)
1588:Drivers/BSP/Components/lis2dw12/lis2dw12_reg.c ****   *
1589:Drivers/BSP/Components/lis2dw12/lis2dw12_reg.c ****   */
1590:Drivers/BSP/Components/lis2dw12/lis2dw12_reg.c **** int32_t lis2dw12_int_notification_get(stmdev_ctx_t *ctx,
1591:Drivers/BSP/Components/lis2dw12/lis2dw12_reg.c ****                                       lis2dw12_lir_t *val)
1592:Drivers/BSP/Components/lis2dw12/lis2dw12_reg.c **** {
 4019              		.loc 1 1592 1 is_stmt 1 view -0
 4020              		.cfi_startproc
ARM GAS  /tmp/ccEdQILT.s 			page 104


 4021              		@ args = 0, pretend = 0, frame = 8
 4022              		@ frame_needed = 0, uses_anonymous_args = 0
 4023              		.loc 1 1592 1 is_stmt 0 view .LVU1007
 4024 0000 10B5     		push	{r4, lr}
 4025              	.LCFI155:
 4026              		.cfi_def_cfa_offset 8
 4027              		.cfi_offset 4, -8
 4028              		.cfi_offset 14, -4
 4029 0002 82B0     		sub	sp, sp, #8
 4030              	.LCFI156:
 4031              		.cfi_def_cfa_offset 16
 4032 0004 0C46     		mov	r4, r1
1593:Drivers/BSP/Components/lis2dw12/lis2dw12_reg.c ****   lis2dw12_ctrl3_t reg;
 4033              		.loc 1 1593 3 is_stmt 1 view .LVU1008
1594:Drivers/BSP/Components/lis2dw12/lis2dw12_reg.c ****   int32_t ret;
 4034              		.loc 1 1594 3 view .LVU1009
1595:Drivers/BSP/Components/lis2dw12/lis2dw12_reg.c **** 
1596:Drivers/BSP/Components/lis2dw12/lis2dw12_reg.c ****   ret = lis2dw12_read_reg(ctx, LIS2DW12_CTRL3, (uint8_t *) &reg, 1);
 4035              		.loc 1 1596 3 view .LVU1010
 4036              		.loc 1 1596 9 is_stmt 0 view .LVU1011
 4037 0006 0123     		movs	r3, #1
 4038 0008 01AA     		add	r2, sp, #4
 4039 000a 2221     		movs	r1, #34
 4040              	.LVL262:
 4041              		.loc 1 1596 9 view .LVU1012
 4042 000c FFF7FEFF 		bl	lis2dw12_read_reg
 4043              	.LVL263:
1597:Drivers/BSP/Components/lis2dw12/lis2dw12_reg.c **** 
1598:Drivers/BSP/Components/lis2dw12/lis2dw12_reg.c ****   switch (reg.lir)
 4044              		.loc 1 1598 3 is_stmt 1 view .LVU1013
 4045              		.loc 1 1598 14 is_stmt 0 view .LVU1014
 4046 0010 9DF80430 		ldrb	r3, [sp, #4]	@ zero_extendqisi2
 4047 0014 C3F30012 		ubfx	r2, r3, #4, #1
 4048              		.loc 1 1598 3 view .LVU1015
 4049 0018 13F0100F 		tst	r3, #16
 4050 001c 03D0     		beq	.L268
 4051 001e 32B9     		cbnz	r2, .L269
1599:Drivers/BSP/Components/lis2dw12/lis2dw12_reg.c ****   {
1600:Drivers/BSP/Components/lis2dw12/lis2dw12_reg.c ****     case LIS2DW12_INT_PULSED:
1601:Drivers/BSP/Components/lis2dw12/lis2dw12_reg.c ****       *val = LIS2DW12_INT_PULSED;
1602:Drivers/BSP/Components/lis2dw12/lis2dw12_reg.c ****       break;
1603:Drivers/BSP/Components/lis2dw12/lis2dw12_reg.c **** 
1604:Drivers/BSP/Components/lis2dw12/lis2dw12_reg.c ****     case LIS2DW12_INT_LATCHED:
1605:Drivers/BSP/Components/lis2dw12/lis2dw12_reg.c ****       *val = LIS2DW12_INT_LATCHED;
1606:Drivers/BSP/Components/lis2dw12/lis2dw12_reg.c ****       break;
1607:Drivers/BSP/Components/lis2dw12/lis2dw12_reg.c **** 
1608:Drivers/BSP/Components/lis2dw12/lis2dw12_reg.c ****     default:
1609:Drivers/BSP/Components/lis2dw12/lis2dw12_reg.c ****       *val = LIS2DW12_INT_PULSED;
 4052              		.loc 1 1609 7 is_stmt 1 view .LVU1016
 4053              		.loc 1 1609 12 is_stmt 0 view .LVU1017
 4054 0020 0023     		movs	r3, #0
 4055 0022 2370     		strb	r3, [r4]
1610:Drivers/BSP/Components/lis2dw12/lis2dw12_reg.c ****       break;
 4056              		.loc 1 1610 7 is_stmt 1 view .LVU1018
1611:Drivers/BSP/Components/lis2dw12/lis2dw12_reg.c ****   }
1612:Drivers/BSP/Components/lis2dw12/lis2dw12_reg.c **** 
1613:Drivers/BSP/Components/lis2dw12/lis2dw12_reg.c ****   return ret;
ARM GAS  /tmp/ccEdQILT.s 			page 105


 4057              		.loc 1 1613 3 view .LVU1019
 4058              		.loc 1 1613 10 is_stmt 0 view .LVU1020
 4059 0024 01E0     		b	.L267
 4060              	.L268:
1601:Drivers/BSP/Components/lis2dw12/lis2dw12_reg.c ****       break;
 4061              		.loc 1 1601 7 is_stmt 1 view .LVU1021
1601:Drivers/BSP/Components/lis2dw12/lis2dw12_reg.c ****       break;
 4062              		.loc 1 1601 12 is_stmt 0 view .LVU1022
 4063 0026 0023     		movs	r3, #0
 4064 0028 2370     		strb	r3, [r4]
1602:Drivers/BSP/Components/lis2dw12/lis2dw12_reg.c **** 
 4065              		.loc 1 1602 7 is_stmt 1 view .LVU1023
 4066              	.L267:
1614:Drivers/BSP/Components/lis2dw12/lis2dw12_reg.c **** }
 4067              		.loc 1 1614 1 is_stmt 0 view .LVU1024
 4068 002a 02B0     		add	sp, sp, #8
 4069              	.LCFI157:
 4070              		.cfi_remember_state
 4071              		.cfi_def_cfa_offset 8
 4072              		@ sp needed
 4073 002c 10BD     		pop	{r4, pc}
 4074              	.LVL264:
 4075              	.L269:
 4076              	.LCFI158:
 4077              		.cfi_restore_state
1605:Drivers/BSP/Components/lis2dw12/lis2dw12_reg.c ****       break;
 4078              		.loc 1 1605 7 is_stmt 1 view .LVU1025
1605:Drivers/BSP/Components/lis2dw12/lis2dw12_reg.c ****       break;
 4079              		.loc 1 1605 12 is_stmt 0 view .LVU1026
 4080 002e 0123     		movs	r3, #1
 4081 0030 2370     		strb	r3, [r4]
1606:Drivers/BSP/Components/lis2dw12/lis2dw12_reg.c **** 
 4082              		.loc 1 1606 7 is_stmt 1 view .LVU1027
 4083 0032 FAE7     		b	.L267
 4084              		.cfi_endproc
 4085              	.LFE58:
 4087              		.section	.text.lis2dw12_pin_mode_set,"ax",%progbits
 4088              		.align	1
 4089              		.global	lis2dw12_pin_mode_set
 4090              		.syntax unified
 4091              		.thumb
 4092              		.thumb_func
 4093              		.fpu fpv4-sp-d16
 4095              	lis2dw12_pin_mode_set:
 4096              	.LVL265:
 4097              	.LFB59:
1615:Drivers/BSP/Components/lis2dw12/lis2dw12_reg.c **** 
1616:Drivers/BSP/Components/lis2dw12/lis2dw12_reg.c **** /**
1617:Drivers/BSP/Components/lis2dw12/lis2dw12_reg.c ****   * @brief  Push-pull/open drain selection on interrupt pads.[set]
1618:Drivers/BSP/Components/lis2dw12/lis2dw12_reg.c ****   *
1619:Drivers/BSP/Components/lis2dw12/lis2dw12_reg.c ****   * @param  ctx      read / write interface definitions
1620:Drivers/BSP/Components/lis2dw12/lis2dw12_reg.c ****   * @param  val      change the values of pp_od in reg CTRL3
1621:Drivers/BSP/Components/lis2dw12/lis2dw12_reg.c ****   * @retval          interface status (MANDATORY: return 0 -> no Error)
1622:Drivers/BSP/Components/lis2dw12/lis2dw12_reg.c ****   *
1623:Drivers/BSP/Components/lis2dw12/lis2dw12_reg.c ****   */
1624:Drivers/BSP/Components/lis2dw12/lis2dw12_reg.c **** int32_t lis2dw12_pin_mode_set(stmdev_ctx_t *ctx, lis2dw12_pp_od_t val)
1625:Drivers/BSP/Components/lis2dw12/lis2dw12_reg.c **** {
ARM GAS  /tmp/ccEdQILT.s 			page 106


 4098              		.loc 1 1625 1 view -0
 4099              		.cfi_startproc
 4100              		@ args = 0, pretend = 0, frame = 8
 4101              		@ frame_needed = 0, uses_anonymous_args = 0
 4102              		.loc 1 1625 1 is_stmt 0 view .LVU1029
 4103 0000 30B5     		push	{r4, r5, lr}
 4104              	.LCFI159:
 4105              		.cfi_def_cfa_offset 12
 4106              		.cfi_offset 4, -12
 4107              		.cfi_offset 5, -8
 4108              		.cfi_offset 14, -4
 4109 0002 83B0     		sub	sp, sp, #12
 4110              	.LCFI160:
 4111              		.cfi_def_cfa_offset 24
 4112 0004 0446     		mov	r4, r0
 4113 0006 0D46     		mov	r5, r1
1626:Drivers/BSP/Components/lis2dw12/lis2dw12_reg.c ****   lis2dw12_ctrl3_t reg;
 4114              		.loc 1 1626 3 is_stmt 1 view .LVU1030
1627:Drivers/BSP/Components/lis2dw12/lis2dw12_reg.c ****   int32_t ret;
 4115              		.loc 1 1627 3 view .LVU1031
1628:Drivers/BSP/Components/lis2dw12/lis2dw12_reg.c **** 
1629:Drivers/BSP/Components/lis2dw12/lis2dw12_reg.c ****   ret = lis2dw12_read_reg(ctx, LIS2DW12_CTRL3, (uint8_t *) &reg, 1);
 4116              		.loc 1 1629 3 view .LVU1032
 4117              		.loc 1 1629 9 is_stmt 0 view .LVU1033
 4118 0008 0123     		movs	r3, #1
 4119 000a 01AA     		add	r2, sp, #4
 4120 000c 2221     		movs	r1, #34
 4121              	.LVL266:
 4122              		.loc 1 1629 9 view .LVU1034
 4123 000e FFF7FEFF 		bl	lis2dw12_read_reg
 4124              	.LVL267:
1630:Drivers/BSP/Components/lis2dw12/lis2dw12_reg.c **** 
1631:Drivers/BSP/Components/lis2dw12/lis2dw12_reg.c ****   if (ret == 0)
 4125              		.loc 1 1631 3 is_stmt 1 view .LVU1035
 4126              		.loc 1 1631 6 is_stmt 0 view .LVU1036
 4127 0012 08B1     		cbz	r0, .L277
 4128              	.LVL268:
 4129              	.L274:
1632:Drivers/BSP/Components/lis2dw12/lis2dw12_reg.c ****   {
1633:Drivers/BSP/Components/lis2dw12/lis2dw12_reg.c ****     reg.pp_od = (uint8_t) val;
1634:Drivers/BSP/Components/lis2dw12/lis2dw12_reg.c ****     ret = lis2dw12_write_reg(ctx, LIS2DW12_CTRL3, (uint8_t *) &reg, 1);
1635:Drivers/BSP/Components/lis2dw12/lis2dw12_reg.c ****   }
1636:Drivers/BSP/Components/lis2dw12/lis2dw12_reg.c **** 
1637:Drivers/BSP/Components/lis2dw12/lis2dw12_reg.c ****   return ret;
1638:Drivers/BSP/Components/lis2dw12/lis2dw12_reg.c **** }
 4130              		.loc 1 1638 1 view .LVU1037
 4131 0014 03B0     		add	sp, sp, #12
 4132              	.LCFI161:
 4133              		.cfi_remember_state
 4134              		.cfi_def_cfa_offset 12
 4135              		@ sp needed
 4136 0016 30BD     		pop	{r4, r5, pc}
 4137              	.LVL269:
 4138              	.L277:
 4139              	.LCFI162:
 4140              		.cfi_restore_state
1633:Drivers/BSP/Components/lis2dw12/lis2dw12_reg.c ****     ret = lis2dw12_write_reg(ctx, LIS2DW12_CTRL3, (uint8_t *) &reg, 1);
ARM GAS  /tmp/ccEdQILT.s 			page 107


 4141              		.loc 1 1633 5 is_stmt 1 view .LVU1038
1633:Drivers/BSP/Components/lis2dw12/lis2dw12_reg.c ****     ret = lis2dw12_write_reg(ctx, LIS2DW12_CTRL3, (uint8_t *) &reg, 1);
 4142              		.loc 1 1633 15 is_stmt 0 view .LVU1039
 4143 0018 9DF80430 		ldrb	r3, [sp, #4]	@ zero_extendqisi2
 4144 001c 65F34513 		bfi	r3, r5, #5, #1
 4145 0020 8DF80430 		strb	r3, [sp, #4]
1634:Drivers/BSP/Components/lis2dw12/lis2dw12_reg.c ****   }
 4146              		.loc 1 1634 5 is_stmt 1 view .LVU1040
1634:Drivers/BSP/Components/lis2dw12/lis2dw12_reg.c ****   }
 4147              		.loc 1 1634 11 is_stmt 0 view .LVU1041
 4148 0024 0123     		movs	r3, #1
 4149              	.LVL270:
1634:Drivers/BSP/Components/lis2dw12/lis2dw12_reg.c ****   }
 4150              		.loc 1 1634 11 view .LVU1042
 4151 0026 01AA     		add	r2, sp, #4
 4152 0028 2221     		movs	r1, #34
 4153 002a 2046     		mov	r0, r4
 4154 002c FFF7FEFF 		bl	lis2dw12_write_reg
 4155              	.LVL271:
1637:Drivers/BSP/Components/lis2dw12/lis2dw12_reg.c **** }
 4156              		.loc 1 1637 3 is_stmt 1 view .LVU1043
1637:Drivers/BSP/Components/lis2dw12/lis2dw12_reg.c **** }
 4157              		.loc 1 1637 10 is_stmt 0 view .LVU1044
 4158 0030 F0E7     		b	.L274
 4159              		.cfi_endproc
 4160              	.LFE59:
 4162              		.section	.text.lis2dw12_pin_mode_get,"ax",%progbits
 4163              		.align	1
 4164              		.global	lis2dw12_pin_mode_get
 4165              		.syntax unified
 4166              		.thumb
 4167              		.thumb_func
 4168              		.fpu fpv4-sp-d16
 4170              	lis2dw12_pin_mode_get:
 4171              	.LVL272:
 4172              	.LFB60:
1639:Drivers/BSP/Components/lis2dw12/lis2dw12_reg.c **** 
1640:Drivers/BSP/Components/lis2dw12/lis2dw12_reg.c **** /**
1641:Drivers/BSP/Components/lis2dw12/lis2dw12_reg.c ****   * @brief  Push-pull/open drain selection on interrupt pads.[get]
1642:Drivers/BSP/Components/lis2dw12/lis2dw12_reg.c ****   *
1643:Drivers/BSP/Components/lis2dw12/lis2dw12_reg.c ****   * @param  ctx      read / write interface definitions
1644:Drivers/BSP/Components/lis2dw12/lis2dw12_reg.c ****   * @param  val      Get the values of pp_od in reg CTRL3
1645:Drivers/BSP/Components/lis2dw12/lis2dw12_reg.c ****   * @retval          interface status (MANDATORY: return 0 -> no Error)
1646:Drivers/BSP/Components/lis2dw12/lis2dw12_reg.c ****   *
1647:Drivers/BSP/Components/lis2dw12/lis2dw12_reg.c ****   */
1648:Drivers/BSP/Components/lis2dw12/lis2dw12_reg.c **** int32_t lis2dw12_pin_mode_get(stmdev_ctx_t *ctx,
1649:Drivers/BSP/Components/lis2dw12/lis2dw12_reg.c ****                               lis2dw12_pp_od_t *val)
1650:Drivers/BSP/Components/lis2dw12/lis2dw12_reg.c **** {
 4173              		.loc 1 1650 1 is_stmt 1 view -0
 4174              		.cfi_startproc
 4175              		@ args = 0, pretend = 0, frame = 8
 4176              		@ frame_needed = 0, uses_anonymous_args = 0
 4177              		.loc 1 1650 1 is_stmt 0 view .LVU1046
 4178 0000 10B5     		push	{r4, lr}
 4179              	.LCFI163:
 4180              		.cfi_def_cfa_offset 8
 4181              		.cfi_offset 4, -8
ARM GAS  /tmp/ccEdQILT.s 			page 108


 4182              		.cfi_offset 14, -4
 4183 0002 82B0     		sub	sp, sp, #8
 4184              	.LCFI164:
 4185              		.cfi_def_cfa_offset 16
 4186 0004 0C46     		mov	r4, r1
1651:Drivers/BSP/Components/lis2dw12/lis2dw12_reg.c ****   lis2dw12_ctrl3_t reg;
 4187              		.loc 1 1651 3 is_stmt 1 view .LVU1047
1652:Drivers/BSP/Components/lis2dw12/lis2dw12_reg.c ****   int32_t ret;
 4188              		.loc 1 1652 3 view .LVU1048
1653:Drivers/BSP/Components/lis2dw12/lis2dw12_reg.c **** 
1654:Drivers/BSP/Components/lis2dw12/lis2dw12_reg.c ****   ret = lis2dw12_read_reg(ctx, LIS2DW12_CTRL3, (uint8_t *) &reg, 1);
 4189              		.loc 1 1654 3 view .LVU1049
 4190              		.loc 1 1654 9 is_stmt 0 view .LVU1050
 4191 0006 0123     		movs	r3, #1
 4192 0008 01AA     		add	r2, sp, #4
 4193 000a 2221     		movs	r1, #34
 4194              	.LVL273:
 4195              		.loc 1 1654 9 view .LVU1051
 4196 000c FFF7FEFF 		bl	lis2dw12_read_reg
 4197              	.LVL274:
1655:Drivers/BSP/Components/lis2dw12/lis2dw12_reg.c **** 
1656:Drivers/BSP/Components/lis2dw12/lis2dw12_reg.c ****   switch (reg.pp_od)
 4198              		.loc 1 1656 3 is_stmt 1 view .LVU1052
 4199              		.loc 1 1656 14 is_stmt 0 view .LVU1053
 4200 0010 9DF80430 		ldrb	r3, [sp, #4]	@ zero_extendqisi2
 4201 0014 C3F34012 		ubfx	r2, r3, #5, #1
 4202              		.loc 1 1656 3 view .LVU1054
 4203 0018 13F0200F 		tst	r3, #32
 4204 001c 03D0     		beq	.L279
 4205 001e 32B9     		cbnz	r2, .L280
1657:Drivers/BSP/Components/lis2dw12/lis2dw12_reg.c ****   {
1658:Drivers/BSP/Components/lis2dw12/lis2dw12_reg.c ****     case LIS2DW12_PUSH_PULL:
1659:Drivers/BSP/Components/lis2dw12/lis2dw12_reg.c ****       *val = LIS2DW12_PUSH_PULL;
1660:Drivers/BSP/Components/lis2dw12/lis2dw12_reg.c ****       break;
1661:Drivers/BSP/Components/lis2dw12/lis2dw12_reg.c **** 
1662:Drivers/BSP/Components/lis2dw12/lis2dw12_reg.c ****     case LIS2DW12_OPEN_DRAIN:
1663:Drivers/BSP/Components/lis2dw12/lis2dw12_reg.c ****       *val = LIS2DW12_OPEN_DRAIN;
1664:Drivers/BSP/Components/lis2dw12/lis2dw12_reg.c ****       break;
1665:Drivers/BSP/Components/lis2dw12/lis2dw12_reg.c **** 
1666:Drivers/BSP/Components/lis2dw12/lis2dw12_reg.c ****     default:
1667:Drivers/BSP/Components/lis2dw12/lis2dw12_reg.c ****       *val = LIS2DW12_PUSH_PULL;
 4206              		.loc 1 1667 7 is_stmt 1 view .LVU1055
 4207              		.loc 1 1667 12 is_stmt 0 view .LVU1056
 4208 0020 0023     		movs	r3, #0
 4209 0022 2370     		strb	r3, [r4]
1668:Drivers/BSP/Components/lis2dw12/lis2dw12_reg.c ****       break;
 4210              		.loc 1 1668 7 is_stmt 1 view .LVU1057
1669:Drivers/BSP/Components/lis2dw12/lis2dw12_reg.c ****   }
1670:Drivers/BSP/Components/lis2dw12/lis2dw12_reg.c **** 
1671:Drivers/BSP/Components/lis2dw12/lis2dw12_reg.c ****   return ret;
 4211              		.loc 1 1671 3 view .LVU1058
 4212              		.loc 1 1671 10 is_stmt 0 view .LVU1059
 4213 0024 01E0     		b	.L278
 4214              	.L279:
1659:Drivers/BSP/Components/lis2dw12/lis2dw12_reg.c ****       break;
 4215              		.loc 1 1659 7 is_stmt 1 view .LVU1060
1659:Drivers/BSP/Components/lis2dw12/lis2dw12_reg.c ****       break;
ARM GAS  /tmp/ccEdQILT.s 			page 109


 4216              		.loc 1 1659 12 is_stmt 0 view .LVU1061
 4217 0026 0023     		movs	r3, #0
 4218 0028 2370     		strb	r3, [r4]
1660:Drivers/BSP/Components/lis2dw12/lis2dw12_reg.c **** 
 4219              		.loc 1 1660 7 is_stmt 1 view .LVU1062
 4220              	.L278:
1672:Drivers/BSP/Components/lis2dw12/lis2dw12_reg.c **** }
 4221              		.loc 1 1672 1 is_stmt 0 view .LVU1063
 4222 002a 02B0     		add	sp, sp, #8
 4223              	.LCFI165:
 4224              		.cfi_remember_state
 4225              		.cfi_def_cfa_offset 8
 4226              		@ sp needed
 4227 002c 10BD     		pop	{r4, pc}
 4228              	.LVL275:
 4229              	.L280:
 4230              	.LCFI166:
 4231              		.cfi_restore_state
1663:Drivers/BSP/Components/lis2dw12/lis2dw12_reg.c ****       break;
 4232              		.loc 1 1663 7 is_stmt 1 view .LVU1064
1663:Drivers/BSP/Components/lis2dw12/lis2dw12_reg.c ****       break;
 4233              		.loc 1 1663 12 is_stmt 0 view .LVU1065
 4234 002e 0123     		movs	r3, #1
 4235 0030 2370     		strb	r3, [r4]
1664:Drivers/BSP/Components/lis2dw12/lis2dw12_reg.c **** 
 4236              		.loc 1 1664 7 is_stmt 1 view .LVU1066
 4237 0032 FAE7     		b	.L278
 4238              		.cfi_endproc
 4239              	.LFE60:
 4241              		.section	.text.lis2dw12_pin_int1_route_set,"ax",%progbits
 4242              		.align	1
 4243              		.global	lis2dw12_pin_int1_route_set
 4244              		.syntax unified
 4245              		.thumb
 4246              		.thumb_func
 4247              		.fpu fpv4-sp-d16
 4249              	lis2dw12_pin_int1_route_set:
 4250              	.LVL276:
 4251              	.LFB61:
1673:Drivers/BSP/Components/lis2dw12/lis2dw12_reg.c **** 
1674:Drivers/BSP/Components/lis2dw12/lis2dw12_reg.c **** /**
1675:Drivers/BSP/Components/lis2dw12/lis2dw12_reg.c ****   * @brief  Select the signal that need to route on int1 pad.[set]
1676:Drivers/BSP/Components/lis2dw12/lis2dw12_reg.c ****   *
1677:Drivers/BSP/Components/lis2dw12/lis2dw12_reg.c ****   * @param  ctx      read / write interface definitions
1678:Drivers/BSP/Components/lis2dw12/lis2dw12_reg.c ****   * @param  val      register CTRL4_INT1_PAD_CTRL.
1679:Drivers/BSP/Components/lis2dw12/lis2dw12_reg.c ****   * @retval          interface status (MANDATORY: return 0 -> no Error)
1680:Drivers/BSP/Components/lis2dw12/lis2dw12_reg.c ****   *
1681:Drivers/BSP/Components/lis2dw12/lis2dw12_reg.c ****   */
1682:Drivers/BSP/Components/lis2dw12/lis2dw12_reg.c **** int32_t lis2dw12_pin_int1_route_set(stmdev_ctx_t *ctx,
1683:Drivers/BSP/Components/lis2dw12/lis2dw12_reg.c ****                                     lis2dw12_ctrl4_int1_pad_ctrl_t *val)
1684:Drivers/BSP/Components/lis2dw12/lis2dw12_reg.c **** {
 4252              		.loc 1 1684 1 view -0
 4253              		.cfi_startproc
 4254              		@ args = 0, pretend = 0, frame = 8
 4255              		@ frame_needed = 0, uses_anonymous_args = 0
 4256              		.loc 1 1684 1 is_stmt 0 view .LVU1068
 4257 0000 30B5     		push	{r4, r5, lr}
ARM GAS  /tmp/ccEdQILT.s 			page 110


 4258              	.LCFI167:
 4259              		.cfi_def_cfa_offset 12
 4260              		.cfi_offset 4, -12
 4261              		.cfi_offset 5, -8
 4262              		.cfi_offset 14, -4
 4263 0002 83B0     		sub	sp, sp, #12
 4264              	.LCFI168:
 4265              		.cfi_def_cfa_offset 24
 4266 0004 0446     		mov	r4, r0
 4267 0006 0D46     		mov	r5, r1
1685:Drivers/BSP/Components/lis2dw12/lis2dw12_reg.c ****   lis2dw12_ctrl5_int2_pad_ctrl_t ctrl5_int2_pad_ctrl;
 4268              		.loc 1 1685 3 is_stmt 1 view .LVU1069
1686:Drivers/BSP/Components/lis2dw12/lis2dw12_reg.c ****   lis2dw12_ctrl_reg7_t reg;
 4269              		.loc 1 1686 3 view .LVU1070
1687:Drivers/BSP/Components/lis2dw12/lis2dw12_reg.c ****   int32_t ret;
 4270              		.loc 1 1687 3 view .LVU1071
1688:Drivers/BSP/Components/lis2dw12/lis2dw12_reg.c **** 
1689:Drivers/BSP/Components/lis2dw12/lis2dw12_reg.c ****   ret = lis2dw12_read_reg(ctx, LIS2DW12_CTRL5_INT2_PAD_CTRL,
 4271              		.loc 1 1689 3 view .LVU1072
 4272              		.loc 1 1689 9 is_stmt 0 view .LVU1073
 4273 0008 0123     		movs	r3, #1
 4274 000a 01AA     		add	r2, sp, #4
 4275 000c 2421     		movs	r1, #36
 4276              	.LVL277:
 4277              		.loc 1 1689 9 view .LVU1074
 4278 000e FFF7FEFF 		bl	lis2dw12_read_reg
 4279              	.LVL278:
1690:Drivers/BSP/Components/lis2dw12/lis2dw12_reg.c ****                           (uint8_t *)&ctrl5_int2_pad_ctrl, 1);
1691:Drivers/BSP/Components/lis2dw12/lis2dw12_reg.c **** 
1692:Drivers/BSP/Components/lis2dw12/lis2dw12_reg.c ****   if (ret == 0)
 4280              		.loc 1 1692 3 is_stmt 1 view .LVU1075
 4281              		.loc 1 1692 6 is_stmt 0 view .LVU1076
 4282 0012 28B3     		cbz	r0, .L292
 4283              	.LVL279:
 4284              	.L286:
1693:Drivers/BSP/Components/lis2dw12/lis2dw12_reg.c ****   {
1694:Drivers/BSP/Components/lis2dw12/lis2dw12_reg.c ****     ret = lis2dw12_read_reg(ctx, LIS2DW12_CTRL_REG7, (uint8_t *) &reg, 1);
1695:Drivers/BSP/Components/lis2dw12/lis2dw12_reg.c ****   }
1696:Drivers/BSP/Components/lis2dw12/lis2dw12_reg.c **** 
1697:Drivers/BSP/Components/lis2dw12/lis2dw12_reg.c ****   if (ret == 0)
 4285              		.loc 1 1697 3 is_stmt 1 view .LVU1077
 4286              		.loc 1 1697 6 is_stmt 0 view .LVU1078
 4287 0014 08BB     		cbnz	r0, .L287
1698:Drivers/BSP/Components/lis2dw12/lis2dw12_reg.c ****   {
1699:Drivers/BSP/Components/lis2dw12/lis2dw12_reg.c ****     if ((val->int1_tap |
 4288              		.loc 1 1699 5 is_stmt 1 view .LVU1079
 4289              		.loc 1 1699 13 is_stmt 0 view .LVU1080
 4290 0016 2A78     		ldrb	r2, [r5]	@ zero_extendqisi2
 4291 0018 C2F3C003 		ubfx	r3, r2, #3, #1
1700:Drivers/BSP/Components/lis2dw12/lis2dw12_reg.c ****          val->int1_ff |
 4292              		.loc 1 1700 13 view .LVU1081
 4293 001c C2F30011 		ubfx	r1, r2, #4, #1
1699:Drivers/BSP/Components/lis2dw12/lis2dw12_reg.c ****          val->int1_ff |
 4294              		.loc 1 1699 24 view .LVU1082
 4295 0020 0B43     		orrs	r3, r3, r1
1701:Drivers/BSP/Components/lis2dw12/lis2dw12_reg.c ****          val->int1_wu |
 4296              		.loc 1 1701 13 view .LVU1083
ARM GAS  /tmp/ccEdQILT.s 			page 111


 4297 0022 C2F34011 		ubfx	r1, r2, #5, #1
1700:Drivers/BSP/Components/lis2dw12/lis2dw12_reg.c ****          val->int1_ff |
 4298              		.loc 1 1700 23 view .LVU1084
 4299 0026 0B43     		orrs	r3, r3, r1
1702:Drivers/BSP/Components/lis2dw12/lis2dw12_reg.c ****          val->int1_single_tap |
 4300              		.loc 1 1702 13 view .LVU1085
 4301 0028 C2F38011 		ubfx	r1, r2, #6, #1
1701:Drivers/BSP/Components/lis2dw12/lis2dw12_reg.c ****          val->int1_wu |
 4302              		.loc 1 1701 23 view .LVU1086
 4303 002c 0B43     		orrs	r3, r3, r1
 4304              		.loc 1 1702 31 view .LVU1087
 4305 002e 43EAD213 		orr	r3, r3, r2, lsr #7
1703:Drivers/BSP/Components/lis2dw12/lis2dw12_reg.c ****          val->int1_6d |
1704:Drivers/BSP/Components/lis2dw12/lis2dw12_reg.c ****          ctrl5_int2_pad_ctrl.int2_sleep_state |
 4306              		.loc 1 1704 29 view .LVU1088
 4307 0032 9DF80420 		ldrb	r2, [sp, #4]	@ zero_extendqisi2
1703:Drivers/BSP/Components/lis2dw12/lis2dw12_reg.c ****          val->int1_6d |
 4308              		.loc 1 1703 23 view .LVU1089
 4309 0036 43EAD213 		orr	r3, r3, r2, lsr #7
1705:Drivers/BSP/Components/lis2dw12/lis2dw12_reg.c ****          ctrl5_int2_pad_ctrl.int2_sleep_chg) != PROPERTY_DISABLE)
 4310              		.loc 1 1705 29 view .LVU1090
 4311 003a C2F38012 		ubfx	r2, r2, #6, #1
1699:Drivers/BSP/Components/lis2dw12/lis2dw12_reg.c ****          val->int1_ff |
 4312              		.loc 1 1699 8 view .LVU1091
 4313 003e 1343     		orrs	r3, r3, r2
 4314 0040 15D0     		beq	.L288
1706:Drivers/BSP/Components/lis2dw12/lis2dw12_reg.c ****     {
1707:Drivers/BSP/Components/lis2dw12/lis2dw12_reg.c ****       reg.interrupts_enable = PROPERTY_ENABLE;
 4315              		.loc 1 1707 7 is_stmt 1 view .LVU1092
 4316              		.loc 1 1707 29 is_stmt 0 view .LVU1093
 4317 0042 9DF80030 		ldrb	r3, [sp]	@ zero_extendqisi2
 4318 0046 43F02003 		orr	r3, r3, #32
 4319 004a 8DF80030 		strb	r3, [sp]
 4320              	.L289:
1708:Drivers/BSP/Components/lis2dw12/lis2dw12_reg.c ****     }
1709:Drivers/BSP/Components/lis2dw12/lis2dw12_reg.c **** 
1710:Drivers/BSP/Components/lis2dw12/lis2dw12_reg.c ****     else
1711:Drivers/BSP/Components/lis2dw12/lis2dw12_reg.c ****     {
1712:Drivers/BSP/Components/lis2dw12/lis2dw12_reg.c ****       reg.interrupts_enable = PROPERTY_DISABLE;
1713:Drivers/BSP/Components/lis2dw12/lis2dw12_reg.c ****     }
1714:Drivers/BSP/Components/lis2dw12/lis2dw12_reg.c **** 
1715:Drivers/BSP/Components/lis2dw12/lis2dw12_reg.c ****     ret = lis2dw12_write_reg(ctx, LIS2DW12_CTRL4_INT1_PAD_CTRL,
 4321              		.loc 1 1715 5 is_stmt 1 view .LVU1094
 4322              		.loc 1 1715 11 is_stmt 0 view .LVU1095
 4323 004e 0123     		movs	r3, #1
 4324 0050 2A46     		mov	r2, r5
 4325 0052 2321     		movs	r1, #35
 4326 0054 2046     		mov	r0, r4
 4327              	.LVL280:
 4328              		.loc 1 1715 11 view .LVU1096
 4329 0056 FFF7FEFF 		bl	lis2dw12_write_reg
 4330              	.LVL281:
 4331              	.L287:
1716:Drivers/BSP/Components/lis2dw12/lis2dw12_reg.c ****                              (uint8_t *) val, 1);
1717:Drivers/BSP/Components/lis2dw12/lis2dw12_reg.c ****   }
1718:Drivers/BSP/Components/lis2dw12/lis2dw12_reg.c **** 
1719:Drivers/BSP/Components/lis2dw12/lis2dw12_reg.c ****   if (ret == 0)
ARM GAS  /tmp/ccEdQILT.s 			page 112


 4332              		.loc 1 1719 3 is_stmt 1 view .LVU1097
 4333              		.loc 1 1719 6 is_stmt 0 view .LVU1098
 4334 005a 78B1     		cbz	r0, .L293
 4335              	.L285:
1720:Drivers/BSP/Components/lis2dw12/lis2dw12_reg.c ****   {
1721:Drivers/BSP/Components/lis2dw12/lis2dw12_reg.c ****     ret = lis2dw12_write_reg(ctx, LIS2DW12_CTRL_REG7, (uint8_t *) &reg, 1);
1722:Drivers/BSP/Components/lis2dw12/lis2dw12_reg.c ****   }
1723:Drivers/BSP/Components/lis2dw12/lis2dw12_reg.c **** 
1724:Drivers/BSP/Components/lis2dw12/lis2dw12_reg.c ****   return ret;
1725:Drivers/BSP/Components/lis2dw12/lis2dw12_reg.c **** }
 4336              		.loc 1 1725 1 view .LVU1099
 4337 005c 03B0     		add	sp, sp, #12
 4338              	.LCFI169:
 4339              		.cfi_remember_state
 4340              		.cfi_def_cfa_offset 12
 4341              		@ sp needed
 4342 005e 30BD     		pop	{r4, r5, pc}
 4343              	.LVL282:
 4344              	.L292:
 4345              	.LCFI170:
 4346              		.cfi_restore_state
1694:Drivers/BSP/Components/lis2dw12/lis2dw12_reg.c ****   }
 4347              		.loc 1 1694 5 is_stmt 1 view .LVU1100
1694:Drivers/BSP/Components/lis2dw12/lis2dw12_reg.c ****   }
 4348              		.loc 1 1694 11 is_stmt 0 view .LVU1101
 4349 0060 0123     		movs	r3, #1
 4350              	.LVL283:
1694:Drivers/BSP/Components/lis2dw12/lis2dw12_reg.c ****   }
 4351              		.loc 1 1694 11 view .LVU1102
 4352 0062 6A46     		mov	r2, sp
 4353 0064 3F21     		movs	r1, #63
 4354 0066 2046     		mov	r0, r4
 4355 0068 FFF7FEFF 		bl	lis2dw12_read_reg
 4356              	.LVL284:
1694:Drivers/BSP/Components/lis2dw12/lis2dw12_reg.c ****   }
 4357              		.loc 1 1694 11 view .LVU1103
 4358 006c D2E7     		b	.L286
 4359              	.L288:
1712:Drivers/BSP/Components/lis2dw12/lis2dw12_reg.c ****     }
 4360              		.loc 1 1712 7 is_stmt 1 view .LVU1104
1712:Drivers/BSP/Components/lis2dw12/lis2dw12_reg.c ****     }
 4361              		.loc 1 1712 29 is_stmt 0 view .LVU1105
 4362 006e 9DF80030 		ldrb	r3, [sp]	@ zero_extendqisi2
 4363 0072 6FF34513 		bfc	r3, #5, #1
 4364 0076 8DF80030 		strb	r3, [sp]
 4365 007a E8E7     		b	.L289
 4366              	.L293:
1721:Drivers/BSP/Components/lis2dw12/lis2dw12_reg.c ****   }
 4367              		.loc 1 1721 5 is_stmt 1 view .LVU1106
1721:Drivers/BSP/Components/lis2dw12/lis2dw12_reg.c ****   }
 4368              		.loc 1 1721 11 is_stmt 0 view .LVU1107
 4369 007c 0123     		movs	r3, #1
 4370 007e 6A46     		mov	r2, sp
 4371 0080 3F21     		movs	r1, #63
 4372 0082 2046     		mov	r0, r4
 4373              	.LVL285:
1721:Drivers/BSP/Components/lis2dw12/lis2dw12_reg.c ****   }
ARM GAS  /tmp/ccEdQILT.s 			page 113


 4374              		.loc 1 1721 11 view .LVU1108
 4375 0084 FFF7FEFF 		bl	lis2dw12_write_reg
 4376              	.LVL286:
1724:Drivers/BSP/Components/lis2dw12/lis2dw12_reg.c **** }
 4377              		.loc 1 1724 3 is_stmt 1 view .LVU1109
1724:Drivers/BSP/Components/lis2dw12/lis2dw12_reg.c **** }
 4378              		.loc 1 1724 10 is_stmt 0 view .LVU1110
 4379 0088 E8E7     		b	.L285
 4380              		.cfi_endproc
 4381              	.LFE61:
 4383              		.section	.text.lis2dw12_pin_int1_route_get,"ax",%progbits
 4384              		.align	1
 4385              		.global	lis2dw12_pin_int1_route_get
 4386              		.syntax unified
 4387              		.thumb
 4388              		.thumb_func
 4389              		.fpu fpv4-sp-d16
 4391              	lis2dw12_pin_int1_route_get:
 4392              	.LVL287:
 4393              	.LFB62:
1726:Drivers/BSP/Components/lis2dw12/lis2dw12_reg.c **** 
1727:Drivers/BSP/Components/lis2dw12/lis2dw12_reg.c **** /**
1728:Drivers/BSP/Components/lis2dw12/lis2dw12_reg.c ****   * @brief  Select the signal that need to route on int1 pad.[get]
1729:Drivers/BSP/Components/lis2dw12/lis2dw12_reg.c ****   *
1730:Drivers/BSP/Components/lis2dw12/lis2dw12_reg.c ****   * @param  ctx      read / write interface definitions
1731:Drivers/BSP/Components/lis2dw12/lis2dw12_reg.c ****   * @param  val      register CTRL4_INT1_PAD_CTRL.
1732:Drivers/BSP/Components/lis2dw12/lis2dw12_reg.c ****   * @retval          interface status (MANDATORY: return 0 -> no Error)
1733:Drivers/BSP/Components/lis2dw12/lis2dw12_reg.c ****   *
1734:Drivers/BSP/Components/lis2dw12/lis2dw12_reg.c ****   */
1735:Drivers/BSP/Components/lis2dw12/lis2dw12_reg.c **** int32_t lis2dw12_pin_int1_route_get(stmdev_ctx_t *ctx,
1736:Drivers/BSP/Components/lis2dw12/lis2dw12_reg.c ****                                     lis2dw12_ctrl4_int1_pad_ctrl_t *val)
1737:Drivers/BSP/Components/lis2dw12/lis2dw12_reg.c **** {
 4394              		.loc 1 1737 1 is_stmt 1 view -0
 4395              		.cfi_startproc
 4396              		@ args = 0, pretend = 0, frame = 0
 4397              		@ frame_needed = 0, uses_anonymous_args = 0
 4398              		.loc 1 1737 1 is_stmt 0 view .LVU1112
 4399 0000 08B5     		push	{r3, lr}
 4400              	.LCFI171:
 4401              		.cfi_def_cfa_offset 8
 4402              		.cfi_offset 3, -8
 4403              		.cfi_offset 14, -4
 4404 0002 0A46     		mov	r2, r1
1738:Drivers/BSP/Components/lis2dw12/lis2dw12_reg.c ****   int32_t ret;
 4405              		.loc 1 1738 3 is_stmt 1 view .LVU1113
1739:Drivers/BSP/Components/lis2dw12/lis2dw12_reg.c **** 
1740:Drivers/BSP/Components/lis2dw12/lis2dw12_reg.c ****   ret = lis2dw12_read_reg(ctx, LIS2DW12_CTRL4_INT1_PAD_CTRL,
 4406              		.loc 1 1740 3 view .LVU1114
 4407              		.loc 1 1740 9 is_stmt 0 view .LVU1115
 4408 0004 0123     		movs	r3, #1
 4409 0006 2321     		movs	r1, #35
 4410              	.LVL288:
 4411              		.loc 1 1740 9 view .LVU1116
 4412 0008 FFF7FEFF 		bl	lis2dw12_read_reg
 4413              	.LVL289:
1741:Drivers/BSP/Components/lis2dw12/lis2dw12_reg.c ****                           (uint8_t *) val, 1);
1742:Drivers/BSP/Components/lis2dw12/lis2dw12_reg.c **** 
ARM GAS  /tmp/ccEdQILT.s 			page 114


1743:Drivers/BSP/Components/lis2dw12/lis2dw12_reg.c ****   return ret;
 4414              		.loc 1 1743 3 is_stmt 1 view .LVU1117
1744:Drivers/BSP/Components/lis2dw12/lis2dw12_reg.c **** }
 4415              		.loc 1 1744 1 is_stmt 0 view .LVU1118
 4416 000c 08BD     		pop	{r3, pc}
 4417              		.cfi_endproc
 4418              	.LFE62:
 4420              		.section	.text.lis2dw12_pin_int2_route_set,"ax",%progbits
 4421              		.align	1
 4422              		.global	lis2dw12_pin_int2_route_set
 4423              		.syntax unified
 4424              		.thumb
 4425              		.thumb_func
 4426              		.fpu fpv4-sp-d16
 4428              	lis2dw12_pin_int2_route_set:
 4429              	.LVL290:
 4430              	.LFB63:
1745:Drivers/BSP/Components/lis2dw12/lis2dw12_reg.c **** 
1746:Drivers/BSP/Components/lis2dw12/lis2dw12_reg.c **** /**
1747:Drivers/BSP/Components/lis2dw12/lis2dw12_reg.c ****   * @brief   Select the signal that need to route on int2 pad.[set]
1748:Drivers/BSP/Components/lis2dw12/lis2dw12_reg.c ****   *
1749:Drivers/BSP/Components/lis2dw12/lis2dw12_reg.c ****   * @param  ctx      read / write interface definitions
1750:Drivers/BSP/Components/lis2dw12/lis2dw12_reg.c ****   * @param  val      register CTRL5_INT2_PAD_CTRL.
1751:Drivers/BSP/Components/lis2dw12/lis2dw12_reg.c ****   * @retval          interface status (MANDATORY: return 0 -> no Error)
1752:Drivers/BSP/Components/lis2dw12/lis2dw12_reg.c ****   *
1753:Drivers/BSP/Components/lis2dw12/lis2dw12_reg.c ****   */
1754:Drivers/BSP/Components/lis2dw12/lis2dw12_reg.c **** int32_t lis2dw12_pin_int2_route_set(stmdev_ctx_t *ctx,
1755:Drivers/BSP/Components/lis2dw12/lis2dw12_reg.c ****                                     lis2dw12_ctrl5_int2_pad_ctrl_t *val)
1756:Drivers/BSP/Components/lis2dw12/lis2dw12_reg.c **** {
 4431              		.loc 1 1756 1 is_stmt 1 view -0
 4432              		.cfi_startproc
 4433              		@ args = 0, pretend = 0, frame = 8
 4434              		@ frame_needed = 0, uses_anonymous_args = 0
 4435              		.loc 1 1756 1 is_stmt 0 view .LVU1120
 4436 0000 30B5     		push	{r4, r5, lr}
 4437              	.LCFI172:
 4438              		.cfi_def_cfa_offset 12
 4439              		.cfi_offset 4, -12
 4440              		.cfi_offset 5, -8
 4441              		.cfi_offset 14, -4
 4442 0002 83B0     		sub	sp, sp, #12
 4443              	.LCFI173:
 4444              		.cfi_def_cfa_offset 24
 4445 0004 0446     		mov	r4, r0
 4446 0006 0D46     		mov	r5, r1
1757:Drivers/BSP/Components/lis2dw12/lis2dw12_reg.c ****   lis2dw12_ctrl4_int1_pad_ctrl_t ctrl4_int1_pad_ctrl;
 4447              		.loc 1 1757 3 is_stmt 1 view .LVU1121
1758:Drivers/BSP/Components/lis2dw12/lis2dw12_reg.c ****   lis2dw12_ctrl_reg7_t reg;
 4448              		.loc 1 1758 3 view .LVU1122
1759:Drivers/BSP/Components/lis2dw12/lis2dw12_reg.c ****   int32_t ret;
 4449              		.loc 1 1759 3 view .LVU1123
1760:Drivers/BSP/Components/lis2dw12/lis2dw12_reg.c **** 
1761:Drivers/BSP/Components/lis2dw12/lis2dw12_reg.c ****   ret = lis2dw12_read_reg(ctx, LIS2DW12_CTRL4_INT1_PAD_CTRL,
 4450              		.loc 1 1761 3 view .LVU1124
 4451              		.loc 1 1761 9 is_stmt 0 view .LVU1125
 4452 0008 0123     		movs	r3, #1
 4453 000a 01AA     		add	r2, sp, #4
ARM GAS  /tmp/ccEdQILT.s 			page 115


 4454 000c 2321     		movs	r1, #35
 4455              	.LVL291:
 4456              		.loc 1 1761 9 view .LVU1126
 4457 000e FFF7FEFF 		bl	lis2dw12_read_reg
 4458              	.LVL292:
1762:Drivers/BSP/Components/lis2dw12/lis2dw12_reg.c ****                           (uint8_t *) &ctrl4_int1_pad_ctrl, 1);
1763:Drivers/BSP/Components/lis2dw12/lis2dw12_reg.c **** 
1764:Drivers/BSP/Components/lis2dw12/lis2dw12_reg.c ****   if (ret == 0)
 4459              		.loc 1 1764 3 is_stmt 1 view .LVU1127
 4460              		.loc 1 1764 6 is_stmt 0 view .LVU1128
 4461 0012 28B3     		cbz	r0, .L303
 4462              	.LVL293:
 4463              	.L297:
1765:Drivers/BSP/Components/lis2dw12/lis2dw12_reg.c ****   {
1766:Drivers/BSP/Components/lis2dw12/lis2dw12_reg.c ****     ret = lis2dw12_read_reg(ctx, LIS2DW12_CTRL_REG7, (uint8_t *) &reg, 1);
1767:Drivers/BSP/Components/lis2dw12/lis2dw12_reg.c ****   }
1768:Drivers/BSP/Components/lis2dw12/lis2dw12_reg.c **** 
1769:Drivers/BSP/Components/lis2dw12/lis2dw12_reg.c ****   if (ret == 0)
 4464              		.loc 1 1769 3 is_stmt 1 view .LVU1129
 4465              		.loc 1 1769 6 is_stmt 0 view .LVU1130
 4466 0014 08BB     		cbnz	r0, .L298
1770:Drivers/BSP/Components/lis2dw12/lis2dw12_reg.c ****   {
1771:Drivers/BSP/Components/lis2dw12/lis2dw12_reg.c ****     if ((ctrl4_int1_pad_ctrl.int1_tap |
 4467              		.loc 1 1771 5 is_stmt 1 view .LVU1131
 4468              		.loc 1 1771 29 is_stmt 0 view .LVU1132
 4469 0016 9DF80420 		ldrb	r2, [sp, #4]	@ zero_extendqisi2
 4470 001a C2F3C003 		ubfx	r3, r2, #3, #1
1772:Drivers/BSP/Components/lis2dw12/lis2dw12_reg.c ****          ctrl4_int1_pad_ctrl.int1_ff |
 4471              		.loc 1 1772 29 view .LVU1133
 4472 001e C2F30011 		ubfx	r1, r2, #4, #1
1771:Drivers/BSP/Components/lis2dw12/lis2dw12_reg.c ****          ctrl4_int1_pad_ctrl.int1_ff |
 4473              		.loc 1 1771 39 view .LVU1134
 4474 0022 0B43     		orrs	r3, r3, r1
1773:Drivers/BSP/Components/lis2dw12/lis2dw12_reg.c ****          ctrl4_int1_pad_ctrl.int1_wu |
 4475              		.loc 1 1773 29 view .LVU1135
 4476 0024 C2F34011 		ubfx	r1, r2, #5, #1
1772:Drivers/BSP/Components/lis2dw12/lis2dw12_reg.c ****          ctrl4_int1_pad_ctrl.int1_ff |
 4477              		.loc 1 1772 38 view .LVU1136
 4478 0028 0B43     		orrs	r3, r3, r1
1774:Drivers/BSP/Components/lis2dw12/lis2dw12_reg.c ****          ctrl4_int1_pad_ctrl.int1_single_tap |
 4479              		.loc 1 1774 29 view .LVU1137
 4480 002a C2F38011 		ubfx	r1, r2, #6, #1
1773:Drivers/BSP/Components/lis2dw12/lis2dw12_reg.c ****          ctrl4_int1_pad_ctrl.int1_wu |
 4481              		.loc 1 1773 38 view .LVU1138
 4482 002e 0B43     		orrs	r3, r3, r1
 4483              		.loc 1 1774 46 view .LVU1139
 4484 0030 43EAD213 		orr	r3, r3, r2, lsr #7
1775:Drivers/BSP/Components/lis2dw12/lis2dw12_reg.c ****          ctrl4_int1_pad_ctrl.int1_6d |
1776:Drivers/BSP/Components/lis2dw12/lis2dw12_reg.c ****          val->int2_sleep_state | val->int2_sleep_chg) != PROPERTY_DISABLE)
 4485              		.loc 1 1776 13 view .LVU1140
 4486 0034 2A78     		ldrb	r2, [r5]	@ zero_extendqisi2
1775:Drivers/BSP/Components/lis2dw12/lis2dw12_reg.c ****          ctrl4_int1_pad_ctrl.int1_6d |
 4487              		.loc 1 1775 38 view .LVU1141
 4488 0036 43EAD213 		orr	r3, r3, r2, lsr #7
 4489              		.loc 1 1776 37 view .LVU1142
 4490 003a C2F38012 		ubfx	r2, r2, #6, #1
1771:Drivers/BSP/Components/lis2dw12/lis2dw12_reg.c ****          ctrl4_int1_pad_ctrl.int1_ff |
ARM GAS  /tmp/ccEdQILT.s 			page 116


 4491              		.loc 1 1771 8 view .LVU1143
 4492 003e 1343     		orrs	r3, r3, r2
 4493 0040 15D0     		beq	.L299
1777:Drivers/BSP/Components/lis2dw12/lis2dw12_reg.c ****     {
1778:Drivers/BSP/Components/lis2dw12/lis2dw12_reg.c ****       reg.interrupts_enable = PROPERTY_ENABLE;
 4494              		.loc 1 1778 7 is_stmt 1 view .LVU1144
 4495              		.loc 1 1778 29 is_stmt 0 view .LVU1145
 4496 0042 9DF80030 		ldrb	r3, [sp]	@ zero_extendqisi2
 4497 0046 43F02003 		orr	r3, r3, #32
 4498 004a 8DF80030 		strb	r3, [sp]
 4499              	.L300:
1779:Drivers/BSP/Components/lis2dw12/lis2dw12_reg.c ****     }
1780:Drivers/BSP/Components/lis2dw12/lis2dw12_reg.c **** 
1781:Drivers/BSP/Components/lis2dw12/lis2dw12_reg.c ****     else
1782:Drivers/BSP/Components/lis2dw12/lis2dw12_reg.c ****     {
1783:Drivers/BSP/Components/lis2dw12/lis2dw12_reg.c ****       reg.interrupts_enable = PROPERTY_DISABLE;
1784:Drivers/BSP/Components/lis2dw12/lis2dw12_reg.c ****     }
1785:Drivers/BSP/Components/lis2dw12/lis2dw12_reg.c **** 
1786:Drivers/BSP/Components/lis2dw12/lis2dw12_reg.c ****     ret = lis2dw12_write_reg(ctx, LIS2DW12_CTRL5_INT2_PAD_CTRL,
 4500              		.loc 1 1786 5 is_stmt 1 view .LVU1146
 4501              		.loc 1 1786 11 is_stmt 0 view .LVU1147
 4502 004e 0123     		movs	r3, #1
 4503 0050 2A46     		mov	r2, r5
 4504 0052 2421     		movs	r1, #36
 4505 0054 2046     		mov	r0, r4
 4506              	.LVL294:
 4507              		.loc 1 1786 11 view .LVU1148
 4508 0056 FFF7FEFF 		bl	lis2dw12_write_reg
 4509              	.LVL295:
 4510              	.L298:
1787:Drivers/BSP/Components/lis2dw12/lis2dw12_reg.c ****                              (uint8_t *) val, 1);
1788:Drivers/BSP/Components/lis2dw12/lis2dw12_reg.c ****   }
1789:Drivers/BSP/Components/lis2dw12/lis2dw12_reg.c **** 
1790:Drivers/BSP/Components/lis2dw12/lis2dw12_reg.c ****   if (ret == 0)
 4511              		.loc 1 1790 3 is_stmt 1 view .LVU1149
 4512              		.loc 1 1790 6 is_stmt 0 view .LVU1150
 4513 005a 78B1     		cbz	r0, .L304
 4514              	.L296:
1791:Drivers/BSP/Components/lis2dw12/lis2dw12_reg.c ****   {
1792:Drivers/BSP/Components/lis2dw12/lis2dw12_reg.c ****     ret = lis2dw12_write_reg(ctx, LIS2DW12_CTRL_REG7, (uint8_t *) &reg, 1);
1793:Drivers/BSP/Components/lis2dw12/lis2dw12_reg.c ****   }
1794:Drivers/BSP/Components/lis2dw12/lis2dw12_reg.c **** 
1795:Drivers/BSP/Components/lis2dw12/lis2dw12_reg.c ****   return ret;
1796:Drivers/BSP/Components/lis2dw12/lis2dw12_reg.c **** }
 4515              		.loc 1 1796 1 view .LVU1151
 4516 005c 03B0     		add	sp, sp, #12
 4517              	.LCFI174:
 4518              		.cfi_remember_state
 4519              		.cfi_def_cfa_offset 12
 4520              		@ sp needed
 4521 005e 30BD     		pop	{r4, r5, pc}
 4522              	.LVL296:
 4523              	.L303:
 4524              	.LCFI175:
 4525              		.cfi_restore_state
1766:Drivers/BSP/Components/lis2dw12/lis2dw12_reg.c ****   }
 4526              		.loc 1 1766 5 is_stmt 1 view .LVU1152
ARM GAS  /tmp/ccEdQILT.s 			page 117


1766:Drivers/BSP/Components/lis2dw12/lis2dw12_reg.c ****   }
 4527              		.loc 1 1766 11 is_stmt 0 view .LVU1153
 4528 0060 0123     		movs	r3, #1
 4529              	.LVL297:
1766:Drivers/BSP/Components/lis2dw12/lis2dw12_reg.c ****   }
 4530              		.loc 1 1766 11 view .LVU1154
 4531 0062 6A46     		mov	r2, sp
 4532 0064 3F21     		movs	r1, #63
 4533 0066 2046     		mov	r0, r4
 4534 0068 FFF7FEFF 		bl	lis2dw12_read_reg
 4535              	.LVL298:
1766:Drivers/BSP/Components/lis2dw12/lis2dw12_reg.c ****   }
 4536              		.loc 1 1766 11 view .LVU1155
 4537 006c D2E7     		b	.L297
 4538              	.L299:
1783:Drivers/BSP/Components/lis2dw12/lis2dw12_reg.c ****     }
 4539              		.loc 1 1783 7 is_stmt 1 view .LVU1156
1783:Drivers/BSP/Components/lis2dw12/lis2dw12_reg.c ****     }
 4540              		.loc 1 1783 29 is_stmt 0 view .LVU1157
 4541 006e 9DF80030 		ldrb	r3, [sp]	@ zero_extendqisi2
 4542 0072 6FF34513 		bfc	r3, #5, #1
 4543 0076 8DF80030 		strb	r3, [sp]
 4544 007a E8E7     		b	.L300
 4545              	.L304:
1792:Drivers/BSP/Components/lis2dw12/lis2dw12_reg.c ****   }
 4546              		.loc 1 1792 5 is_stmt 1 view .LVU1158
1792:Drivers/BSP/Components/lis2dw12/lis2dw12_reg.c ****   }
 4547              		.loc 1 1792 11 is_stmt 0 view .LVU1159
 4548 007c 0123     		movs	r3, #1
 4549 007e 6A46     		mov	r2, sp
 4550 0080 3F21     		movs	r1, #63
 4551 0082 2046     		mov	r0, r4
 4552              	.LVL299:
1792:Drivers/BSP/Components/lis2dw12/lis2dw12_reg.c ****   }
 4553              		.loc 1 1792 11 view .LVU1160
 4554 0084 FFF7FEFF 		bl	lis2dw12_write_reg
 4555              	.LVL300:
1795:Drivers/BSP/Components/lis2dw12/lis2dw12_reg.c **** }
 4556              		.loc 1 1795 3 is_stmt 1 view .LVU1161
1795:Drivers/BSP/Components/lis2dw12/lis2dw12_reg.c **** }
 4557              		.loc 1 1795 10 is_stmt 0 view .LVU1162
 4558 0088 E8E7     		b	.L296
 4559              		.cfi_endproc
 4560              	.LFE63:
 4562              		.section	.text.lis2dw12_pin_int2_route_get,"ax",%progbits
 4563              		.align	1
 4564              		.global	lis2dw12_pin_int2_route_get
 4565              		.syntax unified
 4566              		.thumb
 4567              		.thumb_func
 4568              		.fpu fpv4-sp-d16
 4570              	lis2dw12_pin_int2_route_get:
 4571              	.LVL301:
 4572              	.LFB64:
1797:Drivers/BSP/Components/lis2dw12/lis2dw12_reg.c **** 
1798:Drivers/BSP/Components/lis2dw12/lis2dw12_reg.c **** /**
1799:Drivers/BSP/Components/lis2dw12/lis2dw12_reg.c ****   * @brief  Select the signal that need to route on int2 pad.[get]
ARM GAS  /tmp/ccEdQILT.s 			page 118


1800:Drivers/BSP/Components/lis2dw12/lis2dw12_reg.c ****   *
1801:Drivers/BSP/Components/lis2dw12/lis2dw12_reg.c ****   * @param  ctx      read / write interface definitions
1802:Drivers/BSP/Components/lis2dw12/lis2dw12_reg.c ****   * @param  val      register CTRL5_INT2_PAD_CTRL
1803:Drivers/BSP/Components/lis2dw12/lis2dw12_reg.c ****   * @retval          interface status (MANDATORY: return 0 -> no Error)
1804:Drivers/BSP/Components/lis2dw12/lis2dw12_reg.c ****   *
1805:Drivers/BSP/Components/lis2dw12/lis2dw12_reg.c ****   */
1806:Drivers/BSP/Components/lis2dw12/lis2dw12_reg.c **** int32_t lis2dw12_pin_int2_route_get(stmdev_ctx_t *ctx,
1807:Drivers/BSP/Components/lis2dw12/lis2dw12_reg.c ****                                     lis2dw12_ctrl5_int2_pad_ctrl_t *val)
1808:Drivers/BSP/Components/lis2dw12/lis2dw12_reg.c **** {
 4573              		.loc 1 1808 1 is_stmt 1 view -0
 4574              		.cfi_startproc
 4575              		@ args = 0, pretend = 0, frame = 0
 4576              		@ frame_needed = 0, uses_anonymous_args = 0
 4577              		.loc 1 1808 1 is_stmt 0 view .LVU1164
 4578 0000 08B5     		push	{r3, lr}
 4579              	.LCFI176:
 4580              		.cfi_def_cfa_offset 8
 4581              		.cfi_offset 3, -8
 4582              		.cfi_offset 14, -4
 4583 0002 0A46     		mov	r2, r1
1809:Drivers/BSP/Components/lis2dw12/lis2dw12_reg.c ****   int32_t ret;
 4584              		.loc 1 1809 3 is_stmt 1 view .LVU1165
1810:Drivers/BSP/Components/lis2dw12/lis2dw12_reg.c **** 
1811:Drivers/BSP/Components/lis2dw12/lis2dw12_reg.c ****   ret = lis2dw12_read_reg(ctx, LIS2DW12_CTRL5_INT2_PAD_CTRL,
 4585              		.loc 1 1811 3 view .LVU1166
 4586              		.loc 1 1811 9 is_stmt 0 view .LVU1167
 4587 0004 0123     		movs	r3, #1
 4588 0006 2421     		movs	r1, #36
 4589              	.LVL302:
 4590              		.loc 1 1811 9 view .LVU1168
 4591 0008 FFF7FEFF 		bl	lis2dw12_read_reg
 4592              	.LVL303:
1812:Drivers/BSP/Components/lis2dw12/lis2dw12_reg.c ****                           (uint8_t *) val, 1);
1813:Drivers/BSP/Components/lis2dw12/lis2dw12_reg.c **** 
1814:Drivers/BSP/Components/lis2dw12/lis2dw12_reg.c ****   return ret;
 4593              		.loc 1 1814 3 is_stmt 1 view .LVU1169
1815:Drivers/BSP/Components/lis2dw12/lis2dw12_reg.c **** }
 4594              		.loc 1 1815 1 is_stmt 0 view .LVU1170
 4595 000c 08BD     		pop	{r3, pc}
 4596              		.cfi_endproc
 4597              	.LFE64:
 4599              		.section	.text.lis2dw12_all_on_int1_set,"ax",%progbits
 4600              		.align	1
 4601              		.global	lis2dw12_all_on_int1_set
 4602              		.syntax unified
 4603              		.thumb
 4604              		.thumb_func
 4605              		.fpu fpv4-sp-d16
 4607              	lis2dw12_all_on_int1_set:
 4608              	.LVL304:
 4609              	.LFB65:
1816:Drivers/BSP/Components/lis2dw12/lis2dw12_reg.c **** /**
1817:Drivers/BSP/Components/lis2dw12/lis2dw12_reg.c ****   * @brief All interrupt signals become available on INT1 pin.[set]
1818:Drivers/BSP/Components/lis2dw12/lis2dw12_reg.c ****   *
1819:Drivers/BSP/Components/lis2dw12/lis2dw12_reg.c ****   * @param  ctx      read / write interface definitions
1820:Drivers/BSP/Components/lis2dw12/lis2dw12_reg.c ****   * @param  val      change the values of int2_on_int1 in reg CTRL_REG7
1821:Drivers/BSP/Components/lis2dw12/lis2dw12_reg.c ****   * @retval          interface status (MANDATORY: return 0 -> no Error)
ARM GAS  /tmp/ccEdQILT.s 			page 119


1822:Drivers/BSP/Components/lis2dw12/lis2dw12_reg.c ****   *
1823:Drivers/BSP/Components/lis2dw12/lis2dw12_reg.c ****   */
1824:Drivers/BSP/Components/lis2dw12/lis2dw12_reg.c **** int32_t lis2dw12_all_on_int1_set(stmdev_ctx_t *ctx, uint8_t val)
1825:Drivers/BSP/Components/lis2dw12/lis2dw12_reg.c **** {
 4610              		.loc 1 1825 1 is_stmt 1 view -0
 4611              		.cfi_startproc
 4612              		@ args = 0, pretend = 0, frame = 8
 4613              		@ frame_needed = 0, uses_anonymous_args = 0
 4614              		.loc 1 1825 1 is_stmt 0 view .LVU1172
 4615 0000 30B5     		push	{r4, r5, lr}
 4616              	.LCFI177:
 4617              		.cfi_def_cfa_offset 12
 4618              		.cfi_offset 4, -12
 4619              		.cfi_offset 5, -8
 4620              		.cfi_offset 14, -4
 4621 0002 83B0     		sub	sp, sp, #12
 4622              	.LCFI178:
 4623              		.cfi_def_cfa_offset 24
 4624 0004 0446     		mov	r4, r0
 4625 0006 0D46     		mov	r5, r1
1826:Drivers/BSP/Components/lis2dw12/lis2dw12_reg.c ****   lis2dw12_ctrl_reg7_t reg;
 4626              		.loc 1 1826 3 is_stmt 1 view .LVU1173
1827:Drivers/BSP/Components/lis2dw12/lis2dw12_reg.c ****   int32_t ret;
 4627              		.loc 1 1827 3 view .LVU1174
1828:Drivers/BSP/Components/lis2dw12/lis2dw12_reg.c **** 
1829:Drivers/BSP/Components/lis2dw12/lis2dw12_reg.c ****   ret = lis2dw12_read_reg(ctx, LIS2DW12_CTRL_REG7, (uint8_t *) &reg, 1);
 4628              		.loc 1 1829 3 view .LVU1175
 4629              		.loc 1 1829 9 is_stmt 0 view .LVU1176
 4630 0008 0123     		movs	r3, #1
 4631 000a 01AA     		add	r2, sp, #4
 4632 000c 3F21     		movs	r1, #63
 4633              	.LVL305:
 4634              		.loc 1 1829 9 view .LVU1177
 4635 000e FFF7FEFF 		bl	lis2dw12_read_reg
 4636              	.LVL306:
1830:Drivers/BSP/Components/lis2dw12/lis2dw12_reg.c **** 
1831:Drivers/BSP/Components/lis2dw12/lis2dw12_reg.c ****   if (ret == 0)
 4637              		.loc 1 1831 3 is_stmt 1 view .LVU1178
 4638              		.loc 1 1831 6 is_stmt 0 view .LVU1179
 4639 0012 08B1     		cbz	r0, .L310
 4640              	.LVL307:
 4641              	.L307:
1832:Drivers/BSP/Components/lis2dw12/lis2dw12_reg.c ****   {
1833:Drivers/BSP/Components/lis2dw12/lis2dw12_reg.c ****     reg.int2_on_int1 = val;
1834:Drivers/BSP/Components/lis2dw12/lis2dw12_reg.c ****     ret = lis2dw12_write_reg(ctx, LIS2DW12_CTRL_REG7, (uint8_t *) &reg, 1);
1835:Drivers/BSP/Components/lis2dw12/lis2dw12_reg.c ****   }
1836:Drivers/BSP/Components/lis2dw12/lis2dw12_reg.c **** 
1837:Drivers/BSP/Components/lis2dw12/lis2dw12_reg.c ****   return ret;
1838:Drivers/BSP/Components/lis2dw12/lis2dw12_reg.c **** }
 4642              		.loc 1 1838 1 view .LVU1180
 4643 0014 03B0     		add	sp, sp, #12
 4644              	.LCFI179:
 4645              		.cfi_remember_state
 4646              		.cfi_def_cfa_offset 12
 4647              		@ sp needed
 4648 0016 30BD     		pop	{r4, r5, pc}
 4649              	.LVL308:
ARM GAS  /tmp/ccEdQILT.s 			page 120


 4650              	.L310:
 4651              	.LCFI180:
 4652              		.cfi_restore_state
1833:Drivers/BSP/Components/lis2dw12/lis2dw12_reg.c ****     ret = lis2dw12_write_reg(ctx, LIS2DW12_CTRL_REG7, (uint8_t *) &reg, 1);
 4653              		.loc 1 1833 5 is_stmt 1 view .LVU1181
1833:Drivers/BSP/Components/lis2dw12/lis2dw12_reg.c ****     ret = lis2dw12_write_reg(ctx, LIS2DW12_CTRL_REG7, (uint8_t *) &reg, 1);
 4654              		.loc 1 1833 22 is_stmt 0 view .LVU1182
 4655 0018 9DF80430 		ldrb	r3, [sp, #4]	@ zero_extendqisi2
 4656 001c 65F38613 		bfi	r3, r5, #6, #1
 4657 0020 8DF80430 		strb	r3, [sp, #4]
1834:Drivers/BSP/Components/lis2dw12/lis2dw12_reg.c ****   }
 4658              		.loc 1 1834 5 is_stmt 1 view .LVU1183
1834:Drivers/BSP/Components/lis2dw12/lis2dw12_reg.c ****   }
 4659              		.loc 1 1834 11 is_stmt 0 view .LVU1184
 4660 0024 0123     		movs	r3, #1
 4661              	.LVL309:
1834:Drivers/BSP/Components/lis2dw12/lis2dw12_reg.c ****   }
 4662              		.loc 1 1834 11 view .LVU1185
 4663 0026 01AA     		add	r2, sp, #4
 4664 0028 3F21     		movs	r1, #63
 4665 002a 2046     		mov	r0, r4
 4666 002c FFF7FEFF 		bl	lis2dw12_write_reg
 4667              	.LVL310:
1837:Drivers/BSP/Components/lis2dw12/lis2dw12_reg.c **** }
 4668              		.loc 1 1837 3 is_stmt 1 view .LVU1186
1837:Drivers/BSP/Components/lis2dw12/lis2dw12_reg.c **** }
 4669              		.loc 1 1837 10 is_stmt 0 view .LVU1187
 4670 0030 F0E7     		b	.L307
 4671              		.cfi_endproc
 4672              	.LFE65:
 4674              		.section	.text.lis2dw12_all_on_int1_get,"ax",%progbits
 4675              		.align	1
 4676              		.global	lis2dw12_all_on_int1_get
 4677              		.syntax unified
 4678              		.thumb
 4679              		.thumb_func
 4680              		.fpu fpv4-sp-d16
 4682              	lis2dw12_all_on_int1_get:
 4683              	.LVL311:
 4684              	.LFB66:
1839:Drivers/BSP/Components/lis2dw12/lis2dw12_reg.c **** 
1840:Drivers/BSP/Components/lis2dw12/lis2dw12_reg.c **** /**
1841:Drivers/BSP/Components/lis2dw12/lis2dw12_reg.c ****   * @brief  All interrupt signals become available on INT1 pin.[get]
1842:Drivers/BSP/Components/lis2dw12/lis2dw12_reg.c ****   *
1843:Drivers/BSP/Components/lis2dw12/lis2dw12_reg.c ****   * @param  ctx      read / write interface definitions
1844:Drivers/BSP/Components/lis2dw12/lis2dw12_reg.c ****   * @param  val      change the values of int2_on_int1 in reg CTRL_REG7
1845:Drivers/BSP/Components/lis2dw12/lis2dw12_reg.c ****   * @retval          interface status (MANDATORY: return 0 -> no Error)
1846:Drivers/BSP/Components/lis2dw12/lis2dw12_reg.c ****   *
1847:Drivers/BSP/Components/lis2dw12/lis2dw12_reg.c ****   */
1848:Drivers/BSP/Components/lis2dw12/lis2dw12_reg.c **** int32_t lis2dw12_all_on_int1_get(stmdev_ctx_t *ctx, uint8_t *val)
1849:Drivers/BSP/Components/lis2dw12/lis2dw12_reg.c **** {
 4685              		.loc 1 1849 1 is_stmt 1 view -0
 4686              		.cfi_startproc
 4687              		@ args = 0, pretend = 0, frame = 8
 4688              		@ frame_needed = 0, uses_anonymous_args = 0
 4689              		.loc 1 1849 1 is_stmt 0 view .LVU1189
 4690 0000 10B5     		push	{r4, lr}
ARM GAS  /tmp/ccEdQILT.s 			page 121


 4691              	.LCFI181:
 4692              		.cfi_def_cfa_offset 8
 4693              		.cfi_offset 4, -8
 4694              		.cfi_offset 14, -4
 4695 0002 82B0     		sub	sp, sp, #8
 4696              	.LCFI182:
 4697              		.cfi_def_cfa_offset 16
 4698 0004 0C46     		mov	r4, r1
1850:Drivers/BSP/Components/lis2dw12/lis2dw12_reg.c ****   lis2dw12_ctrl_reg7_t reg;
 4699              		.loc 1 1850 3 is_stmt 1 view .LVU1190
1851:Drivers/BSP/Components/lis2dw12/lis2dw12_reg.c ****   int32_t ret;
 4700              		.loc 1 1851 3 view .LVU1191
1852:Drivers/BSP/Components/lis2dw12/lis2dw12_reg.c **** 
1853:Drivers/BSP/Components/lis2dw12/lis2dw12_reg.c ****   ret = lis2dw12_read_reg(ctx, LIS2DW12_CTRL_REG7, (uint8_t *) &reg, 1);
 4701              		.loc 1 1853 3 view .LVU1192
 4702              		.loc 1 1853 9 is_stmt 0 view .LVU1193
 4703 0006 0123     		movs	r3, #1
 4704 0008 01AA     		add	r2, sp, #4
 4705 000a 3F21     		movs	r1, #63
 4706              	.LVL312:
 4707              		.loc 1 1853 9 view .LVU1194
 4708 000c FFF7FEFF 		bl	lis2dw12_read_reg
 4709              	.LVL313:
1854:Drivers/BSP/Components/lis2dw12/lis2dw12_reg.c ****   *val = reg.int2_on_int1;
 4710              		.loc 1 1854 3 is_stmt 1 view .LVU1195
 4711              		.loc 1 1854 13 is_stmt 0 view .LVU1196
 4712 0010 9DF80430 		ldrb	r3, [sp, #4]	@ zero_extendqisi2
 4713 0014 C3F38013 		ubfx	r3, r3, #6, #1
 4714              		.loc 1 1854 8 view .LVU1197
 4715 0018 2370     		strb	r3, [r4]
1855:Drivers/BSP/Components/lis2dw12/lis2dw12_reg.c **** 
1856:Drivers/BSP/Components/lis2dw12/lis2dw12_reg.c ****   return ret;
 4716              		.loc 1 1856 3 is_stmt 1 view .LVU1198
1857:Drivers/BSP/Components/lis2dw12/lis2dw12_reg.c **** }
 4717              		.loc 1 1857 1 is_stmt 0 view .LVU1199
 4718 001a 02B0     		add	sp, sp, #8
 4719              	.LCFI183:
 4720              		.cfi_def_cfa_offset 8
 4721              		@ sp needed
 4722 001c 10BD     		pop	{r4, pc}
 4723              		.loc 1 1857 1 view .LVU1200
 4724              		.cfi_endproc
 4725              	.LFE66:
 4727              		.section	.text.lis2dw12_wkup_threshold_set,"ax",%progbits
 4728              		.align	1
 4729              		.global	lis2dw12_wkup_threshold_set
 4730              		.syntax unified
 4731              		.thumb
 4732              		.thumb_func
 4733              		.fpu fpv4-sp-d16
 4735              	lis2dw12_wkup_threshold_set:
 4736              	.LVL314:
 4737              	.LFB67:
1858:Drivers/BSP/Components/lis2dw12/lis2dw12_reg.c **** 
1859:Drivers/BSP/Components/lis2dw12/lis2dw12_reg.c **** /**
1860:Drivers/BSP/Components/lis2dw12/lis2dw12_reg.c ****   * @}
1861:Drivers/BSP/Components/lis2dw12/lis2dw12_reg.c ****   *
ARM GAS  /tmp/ccEdQILT.s 			page 122


1862:Drivers/BSP/Components/lis2dw12/lis2dw12_reg.c ****   */
1863:Drivers/BSP/Components/lis2dw12/lis2dw12_reg.c **** 
1864:Drivers/BSP/Components/lis2dw12/lis2dw12_reg.c **** /**
1865:Drivers/BSP/Components/lis2dw12/lis2dw12_reg.c ****   * @defgroup  LIS2DW12_Wake_Up_Event
1866:Drivers/BSP/Components/lis2dw12/lis2dw12_reg.c ****   * @brief     This section groups all the functions that manage the Wake
1867:Drivers/BSP/Components/lis2dw12/lis2dw12_reg.c ****   *            Up event generation.
1868:Drivers/BSP/Components/lis2dw12/lis2dw12_reg.c ****   * @{
1869:Drivers/BSP/Components/lis2dw12/lis2dw12_reg.c ****   *
1870:Drivers/BSP/Components/lis2dw12/lis2dw12_reg.c ****   */
1871:Drivers/BSP/Components/lis2dw12/lis2dw12_reg.c **** 
1872:Drivers/BSP/Components/lis2dw12/lis2dw12_reg.c **** /**
1873:Drivers/BSP/Components/lis2dw12/lis2dw12_reg.c ****   * @brief  Threshold for wakeup.1 LSB = FS_XL / 64.[set]
1874:Drivers/BSP/Components/lis2dw12/lis2dw12_reg.c ****   *
1875:Drivers/BSP/Components/lis2dw12/lis2dw12_reg.c ****   * @param  ctx      read / write interface definitions
1876:Drivers/BSP/Components/lis2dw12/lis2dw12_reg.c ****   * @param  val      change the values of wk_ths in reg WAKE_UP_THS
1877:Drivers/BSP/Components/lis2dw12/lis2dw12_reg.c ****   * @retval          interface status (MANDATORY: return 0 -> no Error)
1878:Drivers/BSP/Components/lis2dw12/lis2dw12_reg.c ****   *
1879:Drivers/BSP/Components/lis2dw12/lis2dw12_reg.c ****   */
1880:Drivers/BSP/Components/lis2dw12/lis2dw12_reg.c **** int32_t lis2dw12_wkup_threshold_set(stmdev_ctx_t *ctx, uint8_t val)
1881:Drivers/BSP/Components/lis2dw12/lis2dw12_reg.c **** {
 4738              		.loc 1 1881 1 is_stmt 1 view -0
 4739              		.cfi_startproc
 4740              		@ args = 0, pretend = 0, frame = 8
 4741              		@ frame_needed = 0, uses_anonymous_args = 0
 4742              		.loc 1 1881 1 is_stmt 0 view .LVU1202
 4743 0000 30B5     		push	{r4, r5, lr}
 4744              	.LCFI184:
 4745              		.cfi_def_cfa_offset 12
 4746              		.cfi_offset 4, -12
 4747              		.cfi_offset 5, -8
 4748              		.cfi_offset 14, -4
 4749 0002 83B0     		sub	sp, sp, #12
 4750              	.LCFI185:
 4751              		.cfi_def_cfa_offset 24
 4752 0004 0446     		mov	r4, r0
 4753 0006 0D46     		mov	r5, r1
1882:Drivers/BSP/Components/lis2dw12/lis2dw12_reg.c ****   lis2dw12_wake_up_ths_t reg;
 4754              		.loc 1 1882 3 is_stmt 1 view .LVU1203
1883:Drivers/BSP/Components/lis2dw12/lis2dw12_reg.c ****   int32_t ret;
 4755              		.loc 1 1883 3 view .LVU1204
1884:Drivers/BSP/Components/lis2dw12/lis2dw12_reg.c **** 
1885:Drivers/BSP/Components/lis2dw12/lis2dw12_reg.c ****   ret = lis2dw12_read_reg(ctx, LIS2DW12_WAKE_UP_THS, (uint8_t *) &reg, 1);
 4756              		.loc 1 1885 3 view .LVU1205
 4757              		.loc 1 1885 9 is_stmt 0 view .LVU1206
 4758 0008 0123     		movs	r3, #1
 4759 000a 01AA     		add	r2, sp, #4
 4760 000c 3421     		movs	r1, #52
 4761              	.LVL315:
 4762              		.loc 1 1885 9 view .LVU1207
 4763 000e FFF7FEFF 		bl	lis2dw12_read_reg
 4764              	.LVL316:
1886:Drivers/BSP/Components/lis2dw12/lis2dw12_reg.c **** 
1887:Drivers/BSP/Components/lis2dw12/lis2dw12_reg.c ****   if (ret == 0)
 4765              		.loc 1 1887 3 is_stmt 1 view .LVU1208
 4766              		.loc 1 1887 6 is_stmt 0 view .LVU1209
 4767 0012 08B1     		cbz	r0, .L316
 4768              	.LVL317:
ARM GAS  /tmp/ccEdQILT.s 			page 123


 4769              	.L313:
1888:Drivers/BSP/Components/lis2dw12/lis2dw12_reg.c ****   {
1889:Drivers/BSP/Components/lis2dw12/lis2dw12_reg.c ****     reg.wk_ths = val;
1890:Drivers/BSP/Components/lis2dw12/lis2dw12_reg.c ****     ret = lis2dw12_write_reg(ctx, LIS2DW12_WAKE_UP_THS, (uint8_t *) &reg, 1);
1891:Drivers/BSP/Components/lis2dw12/lis2dw12_reg.c ****   }
1892:Drivers/BSP/Components/lis2dw12/lis2dw12_reg.c **** 
1893:Drivers/BSP/Components/lis2dw12/lis2dw12_reg.c ****   return ret;
1894:Drivers/BSP/Components/lis2dw12/lis2dw12_reg.c **** }
 4770              		.loc 1 1894 1 view .LVU1210
 4771 0014 03B0     		add	sp, sp, #12
 4772              	.LCFI186:
 4773              		.cfi_remember_state
 4774              		.cfi_def_cfa_offset 12
 4775              		@ sp needed
 4776 0016 30BD     		pop	{r4, r5, pc}
 4777              	.LVL318:
 4778              	.L316:
 4779              	.LCFI187:
 4780              		.cfi_restore_state
1889:Drivers/BSP/Components/lis2dw12/lis2dw12_reg.c ****     ret = lis2dw12_write_reg(ctx, LIS2DW12_WAKE_UP_THS, (uint8_t *) &reg, 1);
 4781              		.loc 1 1889 5 is_stmt 1 view .LVU1211
1889:Drivers/BSP/Components/lis2dw12/lis2dw12_reg.c ****     ret = lis2dw12_write_reg(ctx, LIS2DW12_WAKE_UP_THS, (uint8_t *) &reg, 1);
 4782              		.loc 1 1889 16 is_stmt 0 view .LVU1212
 4783 0018 9DF80430 		ldrb	r3, [sp, #4]	@ zero_extendqisi2
 4784 001c 65F30503 		bfi	r3, r5, #0, #6
 4785 0020 8DF80430 		strb	r3, [sp, #4]
1890:Drivers/BSP/Components/lis2dw12/lis2dw12_reg.c ****   }
 4786              		.loc 1 1890 5 is_stmt 1 view .LVU1213
1890:Drivers/BSP/Components/lis2dw12/lis2dw12_reg.c ****   }
 4787              		.loc 1 1890 11 is_stmt 0 view .LVU1214
 4788 0024 0123     		movs	r3, #1
 4789              	.LVL319:
1890:Drivers/BSP/Components/lis2dw12/lis2dw12_reg.c ****   }
 4790              		.loc 1 1890 11 view .LVU1215
 4791 0026 01AA     		add	r2, sp, #4
 4792 0028 3421     		movs	r1, #52
 4793 002a 2046     		mov	r0, r4
 4794 002c FFF7FEFF 		bl	lis2dw12_write_reg
 4795              	.LVL320:
1893:Drivers/BSP/Components/lis2dw12/lis2dw12_reg.c **** }
 4796              		.loc 1 1893 3 is_stmt 1 view .LVU1216
1893:Drivers/BSP/Components/lis2dw12/lis2dw12_reg.c **** }
 4797              		.loc 1 1893 10 is_stmt 0 view .LVU1217
 4798 0030 F0E7     		b	.L313
 4799              		.cfi_endproc
 4800              	.LFE67:
 4802              		.section	.text.lis2dw12_wkup_threshold_get,"ax",%progbits
 4803              		.align	1
 4804              		.global	lis2dw12_wkup_threshold_get
 4805              		.syntax unified
 4806              		.thumb
 4807              		.thumb_func
 4808              		.fpu fpv4-sp-d16
 4810              	lis2dw12_wkup_threshold_get:
 4811              	.LVL321:
 4812              	.LFB68:
1895:Drivers/BSP/Components/lis2dw12/lis2dw12_reg.c **** 
ARM GAS  /tmp/ccEdQILT.s 			page 124


1896:Drivers/BSP/Components/lis2dw12/lis2dw12_reg.c **** /**
1897:Drivers/BSP/Components/lis2dw12/lis2dw12_reg.c ****   * @brief  Threshold for wakeup.1 LSB = FS_XL / 64.[get]
1898:Drivers/BSP/Components/lis2dw12/lis2dw12_reg.c ****   *
1899:Drivers/BSP/Components/lis2dw12/lis2dw12_reg.c ****   * @param  ctx      read / write interface definitions
1900:Drivers/BSP/Components/lis2dw12/lis2dw12_reg.c ****   * @param  val      change the values of wk_ths in reg WAKE_UP_THS
1901:Drivers/BSP/Components/lis2dw12/lis2dw12_reg.c ****   * @retval          interface status (MANDATORY: return 0 -> no Error)
1902:Drivers/BSP/Components/lis2dw12/lis2dw12_reg.c ****   *
1903:Drivers/BSP/Components/lis2dw12/lis2dw12_reg.c ****   */
1904:Drivers/BSP/Components/lis2dw12/lis2dw12_reg.c **** int32_t lis2dw12_wkup_threshold_get(stmdev_ctx_t *ctx, uint8_t *val)
1905:Drivers/BSP/Components/lis2dw12/lis2dw12_reg.c **** {
 4813              		.loc 1 1905 1 is_stmt 1 view -0
 4814              		.cfi_startproc
 4815              		@ args = 0, pretend = 0, frame = 8
 4816              		@ frame_needed = 0, uses_anonymous_args = 0
 4817              		.loc 1 1905 1 is_stmt 0 view .LVU1219
 4818 0000 10B5     		push	{r4, lr}
 4819              	.LCFI188:
 4820              		.cfi_def_cfa_offset 8
 4821              		.cfi_offset 4, -8
 4822              		.cfi_offset 14, -4
 4823 0002 82B0     		sub	sp, sp, #8
 4824              	.LCFI189:
 4825              		.cfi_def_cfa_offset 16
 4826 0004 0C46     		mov	r4, r1
1906:Drivers/BSP/Components/lis2dw12/lis2dw12_reg.c ****   lis2dw12_wake_up_ths_t reg;
 4827              		.loc 1 1906 3 is_stmt 1 view .LVU1220
1907:Drivers/BSP/Components/lis2dw12/lis2dw12_reg.c ****   int32_t ret;
 4828              		.loc 1 1907 3 view .LVU1221
1908:Drivers/BSP/Components/lis2dw12/lis2dw12_reg.c **** 
1909:Drivers/BSP/Components/lis2dw12/lis2dw12_reg.c ****   ret = lis2dw12_read_reg(ctx, LIS2DW12_WAKE_UP_THS, (uint8_t *) &reg, 1);
 4829              		.loc 1 1909 3 view .LVU1222
 4830              		.loc 1 1909 9 is_stmt 0 view .LVU1223
 4831 0006 0123     		movs	r3, #1
 4832 0008 01AA     		add	r2, sp, #4
 4833 000a 3421     		movs	r1, #52
 4834              	.LVL322:
 4835              		.loc 1 1909 9 view .LVU1224
 4836 000c FFF7FEFF 		bl	lis2dw12_read_reg
 4837              	.LVL323:
1910:Drivers/BSP/Components/lis2dw12/lis2dw12_reg.c ****   *val = reg.wk_ths;
 4838              		.loc 1 1910 3 is_stmt 1 view .LVU1225
 4839              		.loc 1 1910 13 is_stmt 0 view .LVU1226
 4840 0010 9DF80430 		ldrb	r3, [sp, #4]	@ zero_extendqisi2
 4841 0014 C3F30503 		ubfx	r3, r3, #0, #6
 4842              		.loc 1 1910 8 view .LVU1227
 4843 0018 2370     		strb	r3, [r4]
1911:Drivers/BSP/Components/lis2dw12/lis2dw12_reg.c **** 
1912:Drivers/BSP/Components/lis2dw12/lis2dw12_reg.c ****   return ret;
 4844              		.loc 1 1912 3 is_stmt 1 view .LVU1228
1913:Drivers/BSP/Components/lis2dw12/lis2dw12_reg.c **** }
 4845              		.loc 1 1913 1 is_stmt 0 view .LVU1229
 4846 001a 02B0     		add	sp, sp, #8
 4847              	.LCFI190:
 4848              		.cfi_def_cfa_offset 8
 4849              		@ sp needed
 4850 001c 10BD     		pop	{r4, pc}
 4851              		.loc 1 1913 1 view .LVU1230
ARM GAS  /tmp/ccEdQILT.s 			page 125


 4852              		.cfi_endproc
 4853              	.LFE68:
 4855              		.section	.text.lis2dw12_wkup_dur_set,"ax",%progbits
 4856              		.align	1
 4857              		.global	lis2dw12_wkup_dur_set
 4858              		.syntax unified
 4859              		.thumb
 4860              		.thumb_func
 4861              		.fpu fpv4-sp-d16
 4863              	lis2dw12_wkup_dur_set:
 4864              	.LVL324:
 4865              	.LFB69:
1914:Drivers/BSP/Components/lis2dw12/lis2dw12_reg.c **** 
1915:Drivers/BSP/Components/lis2dw12/lis2dw12_reg.c **** /**
1916:Drivers/BSP/Components/lis2dw12/lis2dw12_reg.c ****   * @brief  Wake up duration event.1LSb = 1 / ODR.[set]
1917:Drivers/BSP/Components/lis2dw12/lis2dw12_reg.c ****   *
1918:Drivers/BSP/Components/lis2dw12/lis2dw12_reg.c ****   * @param  ctx      read / write interface definitions
1919:Drivers/BSP/Components/lis2dw12/lis2dw12_reg.c ****   * @param  val      change the values of wake_dur in reg WAKE_UP_DUR
1920:Drivers/BSP/Components/lis2dw12/lis2dw12_reg.c ****   * @retval          interface status (MANDATORY: return 0 -> no Error)
1921:Drivers/BSP/Components/lis2dw12/lis2dw12_reg.c ****   *
1922:Drivers/BSP/Components/lis2dw12/lis2dw12_reg.c ****   */
1923:Drivers/BSP/Components/lis2dw12/lis2dw12_reg.c **** int32_t lis2dw12_wkup_dur_set(stmdev_ctx_t *ctx, uint8_t val)
1924:Drivers/BSP/Components/lis2dw12/lis2dw12_reg.c **** {
 4866              		.loc 1 1924 1 is_stmt 1 view -0
 4867              		.cfi_startproc
 4868              		@ args = 0, pretend = 0, frame = 8
 4869              		@ frame_needed = 0, uses_anonymous_args = 0
 4870              		.loc 1 1924 1 is_stmt 0 view .LVU1232
 4871 0000 30B5     		push	{r4, r5, lr}
 4872              	.LCFI191:
 4873              		.cfi_def_cfa_offset 12
 4874              		.cfi_offset 4, -12
 4875              		.cfi_offset 5, -8
 4876              		.cfi_offset 14, -4
 4877 0002 83B0     		sub	sp, sp, #12
 4878              	.LCFI192:
 4879              		.cfi_def_cfa_offset 24
 4880 0004 0446     		mov	r4, r0
 4881 0006 0D46     		mov	r5, r1
1925:Drivers/BSP/Components/lis2dw12/lis2dw12_reg.c ****   lis2dw12_wake_up_dur_t reg;
 4882              		.loc 1 1925 3 is_stmt 1 view .LVU1233
1926:Drivers/BSP/Components/lis2dw12/lis2dw12_reg.c ****   int32_t ret;
 4883              		.loc 1 1926 3 view .LVU1234
1927:Drivers/BSP/Components/lis2dw12/lis2dw12_reg.c **** 
1928:Drivers/BSP/Components/lis2dw12/lis2dw12_reg.c ****   ret = lis2dw12_read_reg(ctx, LIS2DW12_WAKE_UP_DUR, (uint8_t *) &reg, 1);
 4884              		.loc 1 1928 3 view .LVU1235
 4885              		.loc 1 1928 9 is_stmt 0 view .LVU1236
 4886 0008 0123     		movs	r3, #1
 4887 000a 01AA     		add	r2, sp, #4
 4888 000c 3521     		movs	r1, #53
 4889              	.LVL325:
 4890              		.loc 1 1928 9 view .LVU1237
 4891 000e FFF7FEFF 		bl	lis2dw12_read_reg
 4892              	.LVL326:
1929:Drivers/BSP/Components/lis2dw12/lis2dw12_reg.c **** 
1930:Drivers/BSP/Components/lis2dw12/lis2dw12_reg.c ****   if (ret == 0)
 4893              		.loc 1 1930 3 is_stmt 1 view .LVU1238
ARM GAS  /tmp/ccEdQILT.s 			page 126


 4894              		.loc 1 1930 6 is_stmt 0 view .LVU1239
 4895 0012 08B1     		cbz	r0, .L322
 4896              	.LVL327:
 4897              	.L319:
1931:Drivers/BSP/Components/lis2dw12/lis2dw12_reg.c ****   {
1932:Drivers/BSP/Components/lis2dw12/lis2dw12_reg.c ****     reg.wake_dur = val;
1933:Drivers/BSP/Components/lis2dw12/lis2dw12_reg.c ****     ret = lis2dw12_write_reg(ctx, LIS2DW12_WAKE_UP_DUR, (uint8_t *) &reg, 1);
1934:Drivers/BSP/Components/lis2dw12/lis2dw12_reg.c ****   }
1935:Drivers/BSP/Components/lis2dw12/lis2dw12_reg.c **** 
1936:Drivers/BSP/Components/lis2dw12/lis2dw12_reg.c ****   return ret;
1937:Drivers/BSP/Components/lis2dw12/lis2dw12_reg.c **** }
 4898              		.loc 1 1937 1 view .LVU1240
 4899 0014 03B0     		add	sp, sp, #12
 4900              	.LCFI193:
 4901              		.cfi_remember_state
 4902              		.cfi_def_cfa_offset 12
 4903              		@ sp needed
 4904 0016 30BD     		pop	{r4, r5, pc}
 4905              	.LVL328:
 4906              	.L322:
 4907              	.LCFI194:
 4908              		.cfi_restore_state
1932:Drivers/BSP/Components/lis2dw12/lis2dw12_reg.c ****     ret = lis2dw12_write_reg(ctx, LIS2DW12_WAKE_UP_DUR, (uint8_t *) &reg, 1);
 4909              		.loc 1 1932 5 is_stmt 1 view .LVU1241
1932:Drivers/BSP/Components/lis2dw12/lis2dw12_reg.c ****     ret = lis2dw12_write_reg(ctx, LIS2DW12_WAKE_UP_DUR, (uint8_t *) &reg, 1);
 4910              		.loc 1 1932 18 is_stmt 0 view .LVU1242
 4911 0018 9DF80430 		ldrb	r3, [sp, #4]	@ zero_extendqisi2
 4912 001c 65F34613 		bfi	r3, r5, #5, #2
 4913 0020 8DF80430 		strb	r3, [sp, #4]
1933:Drivers/BSP/Components/lis2dw12/lis2dw12_reg.c ****   }
 4914              		.loc 1 1933 5 is_stmt 1 view .LVU1243
1933:Drivers/BSP/Components/lis2dw12/lis2dw12_reg.c ****   }
 4915              		.loc 1 1933 11 is_stmt 0 view .LVU1244
 4916 0024 0123     		movs	r3, #1
 4917              	.LVL329:
1933:Drivers/BSP/Components/lis2dw12/lis2dw12_reg.c ****   }
 4918              		.loc 1 1933 11 view .LVU1245
 4919 0026 01AA     		add	r2, sp, #4
 4920 0028 3521     		movs	r1, #53
 4921 002a 2046     		mov	r0, r4
 4922 002c FFF7FEFF 		bl	lis2dw12_write_reg
 4923              	.LVL330:
1936:Drivers/BSP/Components/lis2dw12/lis2dw12_reg.c **** }
 4924              		.loc 1 1936 3 is_stmt 1 view .LVU1246
1936:Drivers/BSP/Components/lis2dw12/lis2dw12_reg.c **** }
 4925              		.loc 1 1936 10 is_stmt 0 view .LVU1247
 4926 0030 F0E7     		b	.L319
 4927              		.cfi_endproc
 4928              	.LFE69:
 4930              		.section	.text.lis2dw12_wkup_dur_get,"ax",%progbits
 4931              		.align	1
 4932              		.global	lis2dw12_wkup_dur_get
 4933              		.syntax unified
 4934              		.thumb
 4935              		.thumb_func
 4936              		.fpu fpv4-sp-d16
 4938              	lis2dw12_wkup_dur_get:
ARM GAS  /tmp/ccEdQILT.s 			page 127


 4939              	.LVL331:
 4940              	.LFB70:
1938:Drivers/BSP/Components/lis2dw12/lis2dw12_reg.c **** 
1939:Drivers/BSP/Components/lis2dw12/lis2dw12_reg.c **** /**
1940:Drivers/BSP/Components/lis2dw12/lis2dw12_reg.c ****   * @brief  Wake up duration event.1LSb = 1 / ODR.[get]
1941:Drivers/BSP/Components/lis2dw12/lis2dw12_reg.c ****   *
1942:Drivers/BSP/Components/lis2dw12/lis2dw12_reg.c ****   * @param  ctx      read / write interface definitions
1943:Drivers/BSP/Components/lis2dw12/lis2dw12_reg.c ****   * @param  val      change the values of wake_dur in reg WAKE_UP_DUR
1944:Drivers/BSP/Components/lis2dw12/lis2dw12_reg.c ****   * @retval          interface status (MANDATORY: return 0 -> no Error)
1945:Drivers/BSP/Components/lis2dw12/lis2dw12_reg.c ****   *
1946:Drivers/BSP/Components/lis2dw12/lis2dw12_reg.c ****   */
1947:Drivers/BSP/Components/lis2dw12/lis2dw12_reg.c **** int32_t lis2dw12_wkup_dur_get(stmdev_ctx_t *ctx, uint8_t *val)
1948:Drivers/BSP/Components/lis2dw12/lis2dw12_reg.c **** {
 4941              		.loc 1 1948 1 is_stmt 1 view -0
 4942              		.cfi_startproc
 4943              		@ args = 0, pretend = 0, frame = 8
 4944              		@ frame_needed = 0, uses_anonymous_args = 0
 4945              		.loc 1 1948 1 is_stmt 0 view .LVU1249
 4946 0000 10B5     		push	{r4, lr}
 4947              	.LCFI195:
 4948              		.cfi_def_cfa_offset 8
 4949              		.cfi_offset 4, -8
 4950              		.cfi_offset 14, -4
 4951 0002 82B0     		sub	sp, sp, #8
 4952              	.LCFI196:
 4953              		.cfi_def_cfa_offset 16
 4954 0004 0C46     		mov	r4, r1
1949:Drivers/BSP/Components/lis2dw12/lis2dw12_reg.c ****   lis2dw12_wake_up_dur_t reg;
 4955              		.loc 1 1949 3 is_stmt 1 view .LVU1250
1950:Drivers/BSP/Components/lis2dw12/lis2dw12_reg.c ****   int32_t ret;
 4956              		.loc 1 1950 3 view .LVU1251
1951:Drivers/BSP/Components/lis2dw12/lis2dw12_reg.c **** 
1952:Drivers/BSP/Components/lis2dw12/lis2dw12_reg.c ****   ret = lis2dw12_read_reg(ctx, LIS2DW12_WAKE_UP_DUR, (uint8_t *) &reg, 1);
 4957              		.loc 1 1952 3 view .LVU1252
 4958              		.loc 1 1952 9 is_stmt 0 view .LVU1253
 4959 0006 0123     		movs	r3, #1
 4960 0008 01AA     		add	r2, sp, #4
 4961 000a 3521     		movs	r1, #53
 4962              	.LVL332:
 4963              		.loc 1 1952 9 view .LVU1254
 4964 000c FFF7FEFF 		bl	lis2dw12_read_reg
 4965              	.LVL333:
1953:Drivers/BSP/Components/lis2dw12/lis2dw12_reg.c ****   *val = reg.wake_dur;
 4966              		.loc 1 1953 3 is_stmt 1 view .LVU1255
 4967              		.loc 1 1953 13 is_stmt 0 view .LVU1256
 4968 0010 9DF80430 		ldrb	r3, [sp, #4]	@ zero_extendqisi2
 4969 0014 C3F34113 		ubfx	r3, r3, #5, #2
 4970              		.loc 1 1953 8 view .LVU1257
 4971 0018 2370     		strb	r3, [r4]
1954:Drivers/BSP/Components/lis2dw12/lis2dw12_reg.c **** 
1955:Drivers/BSP/Components/lis2dw12/lis2dw12_reg.c ****   return ret;
 4972              		.loc 1 1955 3 is_stmt 1 view .LVU1258
1956:Drivers/BSP/Components/lis2dw12/lis2dw12_reg.c **** }
 4973              		.loc 1 1956 1 is_stmt 0 view .LVU1259
 4974 001a 02B0     		add	sp, sp, #8
 4975              	.LCFI197:
 4976              		.cfi_def_cfa_offset 8
ARM GAS  /tmp/ccEdQILT.s 			page 128


 4977              		@ sp needed
 4978 001c 10BD     		pop	{r4, pc}
 4979              		.loc 1 1956 1 view .LVU1260
 4980              		.cfi_endproc
 4981              	.LFE70:
 4983              		.section	.text.lis2dw12_wkup_feed_data_set,"ax",%progbits
 4984              		.align	1
 4985              		.global	lis2dw12_wkup_feed_data_set
 4986              		.syntax unified
 4987              		.thumb
 4988              		.thumb_func
 4989              		.fpu fpv4-sp-d16
 4991              	lis2dw12_wkup_feed_data_set:
 4992              	.LVL334:
 4993              	.LFB71:
1957:Drivers/BSP/Components/lis2dw12/lis2dw12_reg.c **** 
1958:Drivers/BSP/Components/lis2dw12/lis2dw12_reg.c **** /**
1959:Drivers/BSP/Components/lis2dw12/lis2dw12_reg.c ****   * @brief  Data sent to wake-up interrupt function.[set]
1960:Drivers/BSP/Components/lis2dw12/lis2dw12_reg.c ****   *
1961:Drivers/BSP/Components/lis2dw12/lis2dw12_reg.c ****   * @param  ctx      read / write interface definitions
1962:Drivers/BSP/Components/lis2dw12/lis2dw12_reg.c ****   * @param  val      change the values of usr_off_on_wu in reg CTRL_REG7
1963:Drivers/BSP/Components/lis2dw12/lis2dw12_reg.c ****   * @retval          interface status (MANDATORY: return 0 -> no Error)
1964:Drivers/BSP/Components/lis2dw12/lis2dw12_reg.c ****   *
1965:Drivers/BSP/Components/lis2dw12/lis2dw12_reg.c ****   */
1966:Drivers/BSP/Components/lis2dw12/lis2dw12_reg.c **** int32_t lis2dw12_wkup_feed_data_set(stmdev_ctx_t *ctx,
1967:Drivers/BSP/Components/lis2dw12/lis2dw12_reg.c ****                                     lis2dw12_usr_off_on_wu_t val)
1968:Drivers/BSP/Components/lis2dw12/lis2dw12_reg.c **** {
 4994              		.loc 1 1968 1 is_stmt 1 view -0
 4995              		.cfi_startproc
 4996              		@ args = 0, pretend = 0, frame = 8
 4997              		@ frame_needed = 0, uses_anonymous_args = 0
 4998              		.loc 1 1968 1 is_stmt 0 view .LVU1262
 4999 0000 30B5     		push	{r4, r5, lr}
 5000              	.LCFI198:
 5001              		.cfi_def_cfa_offset 12
 5002              		.cfi_offset 4, -12
 5003              		.cfi_offset 5, -8
 5004              		.cfi_offset 14, -4
 5005 0002 83B0     		sub	sp, sp, #12
 5006              	.LCFI199:
 5007              		.cfi_def_cfa_offset 24
 5008 0004 0446     		mov	r4, r0
 5009 0006 0D46     		mov	r5, r1
1969:Drivers/BSP/Components/lis2dw12/lis2dw12_reg.c ****   lis2dw12_ctrl_reg7_t reg;
 5010              		.loc 1 1969 3 is_stmt 1 view .LVU1263
1970:Drivers/BSP/Components/lis2dw12/lis2dw12_reg.c ****   int32_t ret;
 5011              		.loc 1 1970 3 view .LVU1264
1971:Drivers/BSP/Components/lis2dw12/lis2dw12_reg.c **** 
1972:Drivers/BSP/Components/lis2dw12/lis2dw12_reg.c ****   ret = lis2dw12_read_reg(ctx, LIS2DW12_CTRL_REG7, (uint8_t *) &reg, 1);
 5012              		.loc 1 1972 3 view .LVU1265
 5013              		.loc 1 1972 9 is_stmt 0 view .LVU1266
 5014 0008 0123     		movs	r3, #1
 5015 000a 01AA     		add	r2, sp, #4
 5016 000c 3F21     		movs	r1, #63
 5017              	.LVL335:
 5018              		.loc 1 1972 9 view .LVU1267
 5019 000e FFF7FEFF 		bl	lis2dw12_read_reg
ARM GAS  /tmp/ccEdQILT.s 			page 129


 5020              	.LVL336:
1973:Drivers/BSP/Components/lis2dw12/lis2dw12_reg.c **** 
1974:Drivers/BSP/Components/lis2dw12/lis2dw12_reg.c ****   if (ret == 0)
 5021              		.loc 1 1974 3 is_stmt 1 view .LVU1268
 5022              		.loc 1 1974 6 is_stmt 0 view .LVU1269
 5023 0012 08B1     		cbz	r0, .L328
 5024              	.LVL337:
 5025              	.L325:
1975:Drivers/BSP/Components/lis2dw12/lis2dw12_reg.c ****   {
1976:Drivers/BSP/Components/lis2dw12/lis2dw12_reg.c ****     reg.usr_off_on_wu = (uint8_t) val;
1977:Drivers/BSP/Components/lis2dw12/lis2dw12_reg.c ****     ret = lis2dw12_write_reg(ctx, LIS2DW12_CTRL_REG7, (uint8_t *) &reg, 1);
1978:Drivers/BSP/Components/lis2dw12/lis2dw12_reg.c ****   }
1979:Drivers/BSP/Components/lis2dw12/lis2dw12_reg.c **** 
1980:Drivers/BSP/Components/lis2dw12/lis2dw12_reg.c ****   return ret;
1981:Drivers/BSP/Components/lis2dw12/lis2dw12_reg.c **** }
 5026              		.loc 1 1981 1 view .LVU1270
 5027 0014 03B0     		add	sp, sp, #12
 5028              	.LCFI200:
 5029              		.cfi_remember_state
 5030              		.cfi_def_cfa_offset 12
 5031              		@ sp needed
 5032 0016 30BD     		pop	{r4, r5, pc}
 5033              	.LVL338:
 5034              	.L328:
 5035              	.LCFI201:
 5036              		.cfi_restore_state
1976:Drivers/BSP/Components/lis2dw12/lis2dw12_reg.c ****     ret = lis2dw12_write_reg(ctx, LIS2DW12_CTRL_REG7, (uint8_t *) &reg, 1);
 5037              		.loc 1 1976 5 is_stmt 1 view .LVU1271
1976:Drivers/BSP/Components/lis2dw12/lis2dw12_reg.c ****     ret = lis2dw12_write_reg(ctx, LIS2DW12_CTRL_REG7, (uint8_t *) &reg, 1);
 5038              		.loc 1 1976 23 is_stmt 0 view .LVU1272
 5039 0018 9DF80430 		ldrb	r3, [sp, #4]	@ zero_extendqisi2
 5040 001c 65F3C303 		bfi	r3, r5, #3, #1
 5041 0020 8DF80430 		strb	r3, [sp, #4]
1977:Drivers/BSP/Components/lis2dw12/lis2dw12_reg.c ****   }
 5042              		.loc 1 1977 5 is_stmt 1 view .LVU1273
1977:Drivers/BSP/Components/lis2dw12/lis2dw12_reg.c ****   }
 5043              		.loc 1 1977 11 is_stmt 0 view .LVU1274
 5044 0024 0123     		movs	r3, #1
 5045              	.LVL339:
1977:Drivers/BSP/Components/lis2dw12/lis2dw12_reg.c ****   }
 5046              		.loc 1 1977 11 view .LVU1275
 5047 0026 01AA     		add	r2, sp, #4
 5048 0028 3F21     		movs	r1, #63
 5049 002a 2046     		mov	r0, r4
 5050 002c FFF7FEFF 		bl	lis2dw12_write_reg
 5051              	.LVL340:
1980:Drivers/BSP/Components/lis2dw12/lis2dw12_reg.c **** }
 5052              		.loc 1 1980 3 is_stmt 1 view .LVU1276
1980:Drivers/BSP/Components/lis2dw12/lis2dw12_reg.c **** }
 5053              		.loc 1 1980 10 is_stmt 0 view .LVU1277
 5054 0030 F0E7     		b	.L325
 5055              		.cfi_endproc
 5056              	.LFE71:
 5058              		.section	.text.lis2dw12_wkup_feed_data_get,"ax",%progbits
 5059              		.align	1
 5060              		.global	lis2dw12_wkup_feed_data_get
 5061              		.syntax unified
ARM GAS  /tmp/ccEdQILT.s 			page 130


 5062              		.thumb
 5063              		.thumb_func
 5064              		.fpu fpv4-sp-d16
 5066              	lis2dw12_wkup_feed_data_get:
 5067              	.LVL341:
 5068              	.LFB72:
1982:Drivers/BSP/Components/lis2dw12/lis2dw12_reg.c **** 
1983:Drivers/BSP/Components/lis2dw12/lis2dw12_reg.c **** /**
1984:Drivers/BSP/Components/lis2dw12/lis2dw12_reg.c ****   * @brief  Data sent to wake-up interrupt function.[get]
1985:Drivers/BSP/Components/lis2dw12/lis2dw12_reg.c ****   *
1986:Drivers/BSP/Components/lis2dw12/lis2dw12_reg.c ****   * @param  ctx      read / write interface definitions
1987:Drivers/BSP/Components/lis2dw12/lis2dw12_reg.c ****   * @param  val      Get the values of usr_off_on_wu in reg CTRL_REG7
1988:Drivers/BSP/Components/lis2dw12/lis2dw12_reg.c ****   * @retval          interface status (MANDATORY: return 0 -> no Error)
1989:Drivers/BSP/Components/lis2dw12/lis2dw12_reg.c ****   *
1990:Drivers/BSP/Components/lis2dw12/lis2dw12_reg.c ****   */
1991:Drivers/BSP/Components/lis2dw12/lis2dw12_reg.c **** int32_t lis2dw12_wkup_feed_data_get(stmdev_ctx_t *ctx,
1992:Drivers/BSP/Components/lis2dw12/lis2dw12_reg.c ****                                     lis2dw12_usr_off_on_wu_t *val)
1993:Drivers/BSP/Components/lis2dw12/lis2dw12_reg.c **** {
 5069              		.loc 1 1993 1 is_stmt 1 view -0
 5070              		.cfi_startproc
 5071              		@ args = 0, pretend = 0, frame = 8
 5072              		@ frame_needed = 0, uses_anonymous_args = 0
 5073              		.loc 1 1993 1 is_stmt 0 view .LVU1279
 5074 0000 10B5     		push	{r4, lr}
 5075              	.LCFI202:
 5076              		.cfi_def_cfa_offset 8
 5077              		.cfi_offset 4, -8
 5078              		.cfi_offset 14, -4
 5079 0002 82B0     		sub	sp, sp, #8
 5080              	.LCFI203:
 5081              		.cfi_def_cfa_offset 16
 5082 0004 0C46     		mov	r4, r1
1994:Drivers/BSP/Components/lis2dw12/lis2dw12_reg.c ****   lis2dw12_ctrl_reg7_t reg;
 5083              		.loc 1 1994 3 is_stmt 1 view .LVU1280
1995:Drivers/BSP/Components/lis2dw12/lis2dw12_reg.c ****   int32_t ret;
 5084              		.loc 1 1995 3 view .LVU1281
1996:Drivers/BSP/Components/lis2dw12/lis2dw12_reg.c **** 
1997:Drivers/BSP/Components/lis2dw12/lis2dw12_reg.c ****   ret = lis2dw12_read_reg(ctx, LIS2DW12_CTRL_REG7, (uint8_t *) &reg, 1);
 5085              		.loc 1 1997 3 view .LVU1282
 5086              		.loc 1 1997 9 is_stmt 0 view .LVU1283
 5087 0006 0123     		movs	r3, #1
 5088 0008 01AA     		add	r2, sp, #4
 5089 000a 3F21     		movs	r1, #63
 5090              	.LVL342:
 5091              		.loc 1 1997 9 view .LVU1284
 5092 000c FFF7FEFF 		bl	lis2dw12_read_reg
 5093              	.LVL343:
1998:Drivers/BSP/Components/lis2dw12/lis2dw12_reg.c **** 
1999:Drivers/BSP/Components/lis2dw12/lis2dw12_reg.c ****   switch (reg.usr_off_on_wu)
 5094              		.loc 1 1999 3 is_stmt 1 view .LVU1285
 5095              		.loc 1 1999 14 is_stmt 0 view .LVU1286
 5096 0010 9DF80430 		ldrb	r3, [sp, #4]	@ zero_extendqisi2
 5097 0014 C3F3C002 		ubfx	r2, r3, #3, #1
 5098              		.loc 1 1999 3 view .LVU1287
 5099 0018 13F0080F 		tst	r3, #8
 5100 001c 03D0     		beq	.L330
 5101 001e 32B9     		cbnz	r2, .L331
ARM GAS  /tmp/ccEdQILT.s 			page 131


2000:Drivers/BSP/Components/lis2dw12/lis2dw12_reg.c ****   {
2001:Drivers/BSP/Components/lis2dw12/lis2dw12_reg.c ****     case LIS2DW12_HP_FEED:
2002:Drivers/BSP/Components/lis2dw12/lis2dw12_reg.c ****       *val = LIS2DW12_HP_FEED;
2003:Drivers/BSP/Components/lis2dw12/lis2dw12_reg.c ****       break;
2004:Drivers/BSP/Components/lis2dw12/lis2dw12_reg.c **** 
2005:Drivers/BSP/Components/lis2dw12/lis2dw12_reg.c ****     case LIS2DW12_USER_OFFSET_FEED:
2006:Drivers/BSP/Components/lis2dw12/lis2dw12_reg.c ****       *val = LIS2DW12_USER_OFFSET_FEED;
2007:Drivers/BSP/Components/lis2dw12/lis2dw12_reg.c ****       break;
2008:Drivers/BSP/Components/lis2dw12/lis2dw12_reg.c **** 
2009:Drivers/BSP/Components/lis2dw12/lis2dw12_reg.c ****     default:
2010:Drivers/BSP/Components/lis2dw12/lis2dw12_reg.c ****       *val = LIS2DW12_HP_FEED;
 5102              		.loc 1 2010 7 is_stmt 1 view .LVU1288
 5103              		.loc 1 2010 12 is_stmt 0 view .LVU1289
 5104 0020 0023     		movs	r3, #0
 5105 0022 2370     		strb	r3, [r4]
2011:Drivers/BSP/Components/lis2dw12/lis2dw12_reg.c ****       break;
 5106              		.loc 1 2011 7 is_stmt 1 view .LVU1290
2012:Drivers/BSP/Components/lis2dw12/lis2dw12_reg.c ****   }
2013:Drivers/BSP/Components/lis2dw12/lis2dw12_reg.c **** 
2014:Drivers/BSP/Components/lis2dw12/lis2dw12_reg.c ****   return ret;
 5107              		.loc 1 2014 3 view .LVU1291
 5108              		.loc 1 2014 10 is_stmt 0 view .LVU1292
 5109 0024 01E0     		b	.L329
 5110              	.L330:
2002:Drivers/BSP/Components/lis2dw12/lis2dw12_reg.c ****       break;
 5111              		.loc 1 2002 7 is_stmt 1 view .LVU1293
2002:Drivers/BSP/Components/lis2dw12/lis2dw12_reg.c ****       break;
 5112              		.loc 1 2002 12 is_stmt 0 view .LVU1294
 5113 0026 0023     		movs	r3, #0
 5114 0028 2370     		strb	r3, [r4]
2003:Drivers/BSP/Components/lis2dw12/lis2dw12_reg.c **** 
 5115              		.loc 1 2003 7 is_stmt 1 view .LVU1295
 5116              	.L329:
2015:Drivers/BSP/Components/lis2dw12/lis2dw12_reg.c **** }
 5117              		.loc 1 2015 1 is_stmt 0 view .LVU1296
 5118 002a 02B0     		add	sp, sp, #8
 5119              	.LCFI204:
 5120              		.cfi_remember_state
 5121              		.cfi_def_cfa_offset 8
 5122              		@ sp needed
 5123 002c 10BD     		pop	{r4, pc}
 5124              	.LVL344:
 5125              	.L331:
 5126              	.LCFI205:
 5127              		.cfi_restore_state
2006:Drivers/BSP/Components/lis2dw12/lis2dw12_reg.c ****       break;
 5128              		.loc 1 2006 7 is_stmt 1 view .LVU1297
2006:Drivers/BSP/Components/lis2dw12/lis2dw12_reg.c ****       break;
 5129              		.loc 1 2006 12 is_stmt 0 view .LVU1298
 5130 002e 0123     		movs	r3, #1
 5131 0030 2370     		strb	r3, [r4]
2007:Drivers/BSP/Components/lis2dw12/lis2dw12_reg.c **** 
 5132              		.loc 1 2007 7 is_stmt 1 view .LVU1299
 5133 0032 FAE7     		b	.L329
 5134              		.cfi_endproc
 5135              	.LFE72:
 5137              		.section	.text.lis2dw12_act_mode_set,"ax",%progbits
ARM GAS  /tmp/ccEdQILT.s 			page 132


 5138              		.align	1
 5139              		.global	lis2dw12_act_mode_set
 5140              		.syntax unified
 5141              		.thumb
 5142              		.thumb_func
 5143              		.fpu fpv4-sp-d16
 5145              	lis2dw12_act_mode_set:
 5146              	.LVL345:
 5147              	.LFB73:
2016:Drivers/BSP/Components/lis2dw12/lis2dw12_reg.c **** 
2017:Drivers/BSP/Components/lis2dw12/lis2dw12_reg.c **** /**
2018:Drivers/BSP/Components/lis2dw12/lis2dw12_reg.c ****   * @}
2019:Drivers/BSP/Components/lis2dw12/lis2dw12_reg.c ****   *
2020:Drivers/BSP/Components/lis2dw12/lis2dw12_reg.c ****   */
2021:Drivers/BSP/Components/lis2dw12/lis2dw12_reg.c **** 
2022:Drivers/BSP/Components/lis2dw12/lis2dw12_reg.c **** /**
2023:Drivers/BSP/Components/lis2dw12/lis2dw12_reg.c ****   * @defgroup   LIS2DW12_Activity/Inactivity_Detection
2024:Drivers/BSP/Components/lis2dw12/lis2dw12_reg.c ****   * @brief      This section groups all the functions concerning
2025:Drivers/BSP/Components/lis2dw12/lis2dw12_reg.c ****   *             activity/inactivity detection.
2026:Drivers/BSP/Components/lis2dw12/lis2dw12_reg.c ****   * @{
2027:Drivers/BSP/Components/lis2dw12/lis2dw12_reg.c ****   *
2028:Drivers/BSP/Components/lis2dw12/lis2dw12_reg.c ****   */
2029:Drivers/BSP/Components/lis2dw12/lis2dw12_reg.c **** 
2030:Drivers/BSP/Components/lis2dw12/lis2dw12_reg.c **** /**
2031:Drivers/BSP/Components/lis2dw12/lis2dw12_reg.c ****   * @brief  Config activity / inactivity or
2032:Drivers/BSP/Components/lis2dw12/lis2dw12_reg.c ****   *         stationary / motion detection.[set]
2033:Drivers/BSP/Components/lis2dw12/lis2dw12_reg.c ****   *
2034:Drivers/BSP/Components/lis2dw12/lis2dw12_reg.c ****   * @param  ctx      read / write interface definitions
2035:Drivers/BSP/Components/lis2dw12/lis2dw12_reg.c ****   * @param  val      change the values of sleep_on / stationary in
2036:Drivers/BSP/Components/lis2dw12/lis2dw12_reg.c ****   *                  reg WAKE_UP_THS / WAKE_UP_DUR
2037:Drivers/BSP/Components/lis2dw12/lis2dw12_reg.c ****   * @retval          interface status (MANDATORY: return 0 -> no Error)
2038:Drivers/BSP/Components/lis2dw12/lis2dw12_reg.c ****   *
2039:Drivers/BSP/Components/lis2dw12/lis2dw12_reg.c ****   */
2040:Drivers/BSP/Components/lis2dw12/lis2dw12_reg.c **** int32_t lis2dw12_act_mode_set(stmdev_ctx_t *ctx,
2041:Drivers/BSP/Components/lis2dw12/lis2dw12_reg.c ****                               lis2dw12_sleep_on_t val)
2042:Drivers/BSP/Components/lis2dw12/lis2dw12_reg.c **** {
 5148              		.loc 1 2042 1 view -0
 5149              		.cfi_startproc
 5150              		@ args = 0, pretend = 0, frame = 8
 5151              		@ frame_needed = 0, uses_anonymous_args = 0
 5152              		.loc 1 2042 1 is_stmt 0 view .LVU1301
 5153 0000 30B5     		push	{r4, r5, lr}
 5154              	.LCFI206:
 5155              		.cfi_def_cfa_offset 12
 5156              		.cfi_offset 4, -12
 5157              		.cfi_offset 5, -8
 5158              		.cfi_offset 14, -4
 5159 0002 83B0     		sub	sp, sp, #12
 5160              	.LCFI207:
 5161              		.cfi_def_cfa_offset 24
 5162 0004 0546     		mov	r5, r0
 5163 0006 0C46     		mov	r4, r1
2043:Drivers/BSP/Components/lis2dw12/lis2dw12_reg.c ****   lis2dw12_wake_up_ths_t wake_up_ths;
 5164              		.loc 1 2043 3 is_stmt 1 view .LVU1302
2044:Drivers/BSP/Components/lis2dw12/lis2dw12_reg.c ****   lis2dw12_wake_up_dur_t wake_up_dur;
 5165              		.loc 1 2044 3 view .LVU1303
2045:Drivers/BSP/Components/lis2dw12/lis2dw12_reg.c ****   int32_t ret;
ARM GAS  /tmp/ccEdQILT.s 			page 133


 5166              		.loc 1 2045 3 view .LVU1304
2046:Drivers/BSP/Components/lis2dw12/lis2dw12_reg.c **** 
2047:Drivers/BSP/Components/lis2dw12/lis2dw12_reg.c ****   ret = lis2dw12_read_reg(ctx, LIS2DW12_WAKE_UP_THS,
 5167              		.loc 1 2047 3 view .LVU1305
 5168              		.loc 1 2047 9 is_stmt 0 view .LVU1306
 5169 0008 0123     		movs	r3, #1
 5170 000a 01AA     		add	r2, sp, #4
 5171 000c 3421     		movs	r1, #52
 5172              	.LVL346:
 5173              		.loc 1 2047 9 view .LVU1307
 5174 000e FFF7FEFF 		bl	lis2dw12_read_reg
 5175              	.LVL347:
2048:Drivers/BSP/Components/lis2dw12/lis2dw12_reg.c ****                           (uint8_t *) &wake_up_ths, 1);
2049:Drivers/BSP/Components/lis2dw12/lis2dw12_reg.c **** 
2050:Drivers/BSP/Components/lis2dw12/lis2dw12_reg.c ****   if (ret == 0)
 5176              		.loc 1 2050 3 is_stmt 1 view .LVU1308
 5177              		.loc 1 2050 6 is_stmt 0 view .LVU1309
 5178 0012 18B1     		cbz	r0, .L341
 5179              	.LVL348:
 5180              	.L337:
2051:Drivers/BSP/Components/lis2dw12/lis2dw12_reg.c ****   {
2052:Drivers/BSP/Components/lis2dw12/lis2dw12_reg.c ****     ret = lis2dw12_read_reg(ctx, LIS2DW12_WAKE_UP_DUR,
2053:Drivers/BSP/Components/lis2dw12/lis2dw12_reg.c ****                             (uint8_t *) &wake_up_dur, 1);
2054:Drivers/BSP/Components/lis2dw12/lis2dw12_reg.c ****   }
2055:Drivers/BSP/Components/lis2dw12/lis2dw12_reg.c **** 
2056:Drivers/BSP/Components/lis2dw12/lis2dw12_reg.c ****   if (ret == 0)
 5181              		.loc 1 2056 3 is_stmt 1 view .LVU1310
 5182              		.loc 1 2056 6 is_stmt 0 view .LVU1311
 5183 0014 48B1     		cbz	r0, .L342
 5184              	.L338:
2057:Drivers/BSP/Components/lis2dw12/lis2dw12_reg.c ****   {
2058:Drivers/BSP/Components/lis2dw12/lis2dw12_reg.c ****     wake_up_ths.sleep_on = (uint8_t) val & 0x01U;
2059:Drivers/BSP/Components/lis2dw12/lis2dw12_reg.c ****     ret = lis2dw12_write_reg(ctx, LIS2DW12_WAKE_UP_THS,
2060:Drivers/BSP/Components/lis2dw12/lis2dw12_reg.c ****                              (uint8_t *) &wake_up_ths, 1);
2061:Drivers/BSP/Components/lis2dw12/lis2dw12_reg.c ****   }
2062:Drivers/BSP/Components/lis2dw12/lis2dw12_reg.c **** 
2063:Drivers/BSP/Components/lis2dw12/lis2dw12_reg.c ****   if (ret == 0)
 5185              		.loc 1 2063 3 is_stmt 1 view .LVU1312
 5186              		.loc 1 2063 6 is_stmt 0 view .LVU1313
 5187 0016 A8B1     		cbz	r0, .L343
 5188              	.L336:
2064:Drivers/BSP/Components/lis2dw12/lis2dw12_reg.c ****   {
2065:Drivers/BSP/Components/lis2dw12/lis2dw12_reg.c ****     wake_up_dur.stationary = ((uint8_t)val & 0x02U) >> 1;
2066:Drivers/BSP/Components/lis2dw12/lis2dw12_reg.c ****     ret = lis2dw12_write_reg(ctx, LIS2DW12_WAKE_UP_DUR,
2067:Drivers/BSP/Components/lis2dw12/lis2dw12_reg.c ****                              (uint8_t *) &wake_up_dur, 1);
2068:Drivers/BSP/Components/lis2dw12/lis2dw12_reg.c ****   }
2069:Drivers/BSP/Components/lis2dw12/lis2dw12_reg.c **** 
2070:Drivers/BSP/Components/lis2dw12/lis2dw12_reg.c ****   return ret;
2071:Drivers/BSP/Components/lis2dw12/lis2dw12_reg.c **** }
 5189              		.loc 1 2071 1 view .LVU1314
 5190 0018 03B0     		add	sp, sp, #12
 5191              	.LCFI208:
 5192              		.cfi_remember_state
 5193              		.cfi_def_cfa_offset 12
 5194              		@ sp needed
 5195 001a 30BD     		pop	{r4, r5, pc}
 5196              	.LVL349:
ARM GAS  /tmp/ccEdQILT.s 			page 134


 5197              	.L341:
 5198              	.LCFI209:
 5199              		.cfi_restore_state
2052:Drivers/BSP/Components/lis2dw12/lis2dw12_reg.c ****                             (uint8_t *) &wake_up_dur, 1);
 5200              		.loc 1 2052 5 is_stmt 1 view .LVU1315
2052:Drivers/BSP/Components/lis2dw12/lis2dw12_reg.c ****                             (uint8_t *) &wake_up_dur, 1);
 5201              		.loc 1 2052 11 is_stmt 0 view .LVU1316
 5202 001c 0123     		movs	r3, #1
 5203              	.LVL350:
2052:Drivers/BSP/Components/lis2dw12/lis2dw12_reg.c ****                             (uint8_t *) &wake_up_dur, 1);
 5204              		.loc 1 2052 11 view .LVU1317
 5205 001e 6A46     		mov	r2, sp
 5206 0020 3521     		movs	r1, #53
 5207 0022 2846     		mov	r0, r5
 5208 0024 FFF7FEFF 		bl	lis2dw12_read_reg
 5209              	.LVL351:
2052:Drivers/BSP/Components/lis2dw12/lis2dw12_reg.c ****                             (uint8_t *) &wake_up_dur, 1);
 5210              		.loc 1 2052 11 view .LVU1318
 5211 0028 F4E7     		b	.L337
 5212              	.L342:
2058:Drivers/BSP/Components/lis2dw12/lis2dw12_reg.c ****     ret = lis2dw12_write_reg(ctx, LIS2DW12_WAKE_UP_THS,
 5213              		.loc 1 2058 5 is_stmt 1 view .LVU1319
2058:Drivers/BSP/Components/lis2dw12/lis2dw12_reg.c ****     ret = lis2dw12_write_reg(ctx, LIS2DW12_WAKE_UP_THS,
 5214              		.loc 1 2058 26 is_stmt 0 view .LVU1320
 5215 002a 9DF80430 		ldrb	r3, [sp, #4]	@ zero_extendqisi2
 5216 002e 64F38613 		bfi	r3, r4, #6, #1
 5217 0032 8DF80430 		strb	r3, [sp, #4]
2059:Drivers/BSP/Components/lis2dw12/lis2dw12_reg.c ****                              (uint8_t *) &wake_up_ths, 1);
 5218              		.loc 1 2059 5 is_stmt 1 view .LVU1321
2059:Drivers/BSP/Components/lis2dw12/lis2dw12_reg.c ****                              (uint8_t *) &wake_up_ths, 1);
 5219              		.loc 1 2059 11 is_stmt 0 view .LVU1322
 5220 0036 0123     		movs	r3, #1
 5221 0038 01AA     		add	r2, sp, #4
 5222 003a 3421     		movs	r1, #52
 5223 003c 2846     		mov	r0, r5
 5224              	.LVL352:
2059:Drivers/BSP/Components/lis2dw12/lis2dw12_reg.c ****                              (uint8_t *) &wake_up_ths, 1);
 5225              		.loc 1 2059 11 view .LVU1323
 5226 003e FFF7FEFF 		bl	lis2dw12_write_reg
 5227              	.LVL353:
2059:Drivers/BSP/Components/lis2dw12/lis2dw12_reg.c ****                              (uint8_t *) &wake_up_ths, 1);
 5228              		.loc 1 2059 11 view .LVU1324
 5229 0042 E8E7     		b	.L338
 5230              	.L343:
2065:Drivers/BSP/Components/lis2dw12/lis2dw12_reg.c ****     ret = lis2dw12_write_reg(ctx, LIS2DW12_WAKE_UP_DUR,
 5231              		.loc 1 2065 5 is_stmt 1 view .LVU1325
2065:Drivers/BSP/Components/lis2dw12/lis2dw12_reg.c ****     ret = lis2dw12_write_reg(ctx, LIS2DW12_WAKE_UP_DUR,
 5232              		.loc 1 2065 53 is_stmt 0 view .LVU1326
 5233 0044 C4F34001 		ubfx	r1, r4, #1, #1
2065:Drivers/BSP/Components/lis2dw12/lis2dw12_reg.c ****     ret = lis2dw12_write_reg(ctx, LIS2DW12_WAKE_UP_DUR,
 5234              		.loc 1 2065 28 view .LVU1327
 5235 0048 9DF80030 		ldrb	r3, [sp]	@ zero_extendqisi2
 5236 004c 61F30413 		bfi	r3, r1, #4, #1
 5237 0050 8DF80030 		strb	r3, [sp]
2066:Drivers/BSP/Components/lis2dw12/lis2dw12_reg.c ****                              (uint8_t *) &wake_up_dur, 1);
 5238              		.loc 1 2066 5 is_stmt 1 view .LVU1328
2066:Drivers/BSP/Components/lis2dw12/lis2dw12_reg.c ****                              (uint8_t *) &wake_up_dur, 1);
ARM GAS  /tmp/ccEdQILT.s 			page 135


 5239              		.loc 1 2066 11 is_stmt 0 view .LVU1329
 5240 0054 0123     		movs	r3, #1
 5241 0056 6A46     		mov	r2, sp
 5242 0058 3521     		movs	r1, #53
 5243 005a 2846     		mov	r0, r5
 5244              	.LVL354:
2066:Drivers/BSP/Components/lis2dw12/lis2dw12_reg.c ****                              (uint8_t *) &wake_up_dur, 1);
 5245              		.loc 1 2066 11 view .LVU1330
 5246 005c FFF7FEFF 		bl	lis2dw12_write_reg
 5247              	.LVL355:
2070:Drivers/BSP/Components/lis2dw12/lis2dw12_reg.c **** }
 5248              		.loc 1 2070 3 is_stmt 1 view .LVU1331
2070:Drivers/BSP/Components/lis2dw12/lis2dw12_reg.c **** }
 5249              		.loc 1 2070 10 is_stmt 0 view .LVU1332
 5250 0060 DAE7     		b	.L336
 5251              		.cfi_endproc
 5252              	.LFE73:
 5254              		.section	.text.lis2dw12_act_mode_get,"ax",%progbits
 5255              		.align	1
 5256              		.global	lis2dw12_act_mode_get
 5257              		.syntax unified
 5258              		.thumb
 5259              		.thumb_func
 5260              		.fpu fpv4-sp-d16
 5262              	lis2dw12_act_mode_get:
 5263              	.LVL356:
 5264              	.LFB74:
2072:Drivers/BSP/Components/lis2dw12/lis2dw12_reg.c **** 
2073:Drivers/BSP/Components/lis2dw12/lis2dw12_reg.c **** /**
2074:Drivers/BSP/Components/lis2dw12/lis2dw12_reg.c ****   * @brief  Config activity / inactivity or
2075:Drivers/BSP/Components/lis2dw12/lis2dw12_reg.c ****   *         stationary / motion detection. [get]
2076:Drivers/BSP/Components/lis2dw12/lis2dw12_reg.c ****   *
2077:Drivers/BSP/Components/lis2dw12/lis2dw12_reg.c ****   * @param  ctx      read / write interface definitions
2078:Drivers/BSP/Components/lis2dw12/lis2dw12_reg.c ****   * @param  val      Get the values of sleep_on in reg WAKE_UP_THS
2079:Drivers/BSP/Components/lis2dw12/lis2dw12_reg.c ****   * @retval          interface status (MANDATORY: return 0 -> no Error)
2080:Drivers/BSP/Components/lis2dw12/lis2dw12_reg.c ****   *
2081:Drivers/BSP/Components/lis2dw12/lis2dw12_reg.c ****   */
2082:Drivers/BSP/Components/lis2dw12/lis2dw12_reg.c **** int32_t lis2dw12_act_mode_get(stmdev_ctx_t *ctx,
2083:Drivers/BSP/Components/lis2dw12/lis2dw12_reg.c ****                               lis2dw12_sleep_on_t *val)
2084:Drivers/BSP/Components/lis2dw12/lis2dw12_reg.c **** {
 5265              		.loc 1 2084 1 is_stmt 1 view -0
 5266              		.cfi_startproc
 5267              		@ args = 0, pretend = 0, frame = 8
 5268              		@ frame_needed = 0, uses_anonymous_args = 0
 5269              		.loc 1 2084 1 is_stmt 0 view .LVU1334
 5270 0000 30B5     		push	{r4, r5, lr}
 5271              	.LCFI210:
 5272              		.cfi_def_cfa_offset 12
 5273              		.cfi_offset 4, -12
 5274              		.cfi_offset 5, -8
 5275              		.cfi_offset 14, -4
 5276 0002 83B0     		sub	sp, sp, #12
 5277              	.LCFI211:
 5278              		.cfi_def_cfa_offset 24
 5279 0004 0446     		mov	r4, r0
 5280 0006 0D46     		mov	r5, r1
2085:Drivers/BSP/Components/lis2dw12/lis2dw12_reg.c ****   lis2dw12_wake_up_ths_t wake_up_ths;
ARM GAS  /tmp/ccEdQILT.s 			page 136


 5281              		.loc 1 2085 3 is_stmt 1 view .LVU1335
2086:Drivers/BSP/Components/lis2dw12/lis2dw12_reg.c ****   lis2dw12_wake_up_dur_t wake_up_dur;;
 5282              		.loc 1 2086 3 view .LVU1336
 5283              		.loc 1 2086 38 view .LVU1337
2087:Drivers/BSP/Components/lis2dw12/lis2dw12_reg.c ****   int32_t ret;
 5284              		.loc 1 2087 3 view .LVU1338
2088:Drivers/BSP/Components/lis2dw12/lis2dw12_reg.c **** 
2089:Drivers/BSP/Components/lis2dw12/lis2dw12_reg.c ****   ret = lis2dw12_read_reg(ctx, LIS2DW12_WAKE_UP_THS,
 5285              		.loc 1 2089 3 view .LVU1339
 5286              		.loc 1 2089 9 is_stmt 0 view .LVU1340
 5287 0008 0123     		movs	r3, #1
 5288 000a 01AA     		add	r2, sp, #4
 5289 000c 3421     		movs	r1, #52
 5290              	.LVL357:
 5291              		.loc 1 2089 9 view .LVU1341
 5292 000e FFF7FEFF 		bl	lis2dw12_read_reg
 5293              	.LVL358:
2090:Drivers/BSP/Components/lis2dw12/lis2dw12_reg.c ****                           (uint8_t *) &wake_up_ths, 1);
2091:Drivers/BSP/Components/lis2dw12/lis2dw12_reg.c **** 
2092:Drivers/BSP/Components/lis2dw12/lis2dw12_reg.c ****   if (ret == 0)
 5294              		.loc 1 2092 3 is_stmt 1 view .LVU1342
 5295              		.loc 1 2092 6 is_stmt 0 view .LVU1343
 5296 0012 08B1     		cbz	r0, .L350
 5297              	.LVL359:
 5298              	.L344:
2093:Drivers/BSP/Components/lis2dw12/lis2dw12_reg.c ****   {
2094:Drivers/BSP/Components/lis2dw12/lis2dw12_reg.c ****     ret = lis2dw12_read_reg(ctx, LIS2DW12_WAKE_UP_DUR,
2095:Drivers/BSP/Components/lis2dw12/lis2dw12_reg.c ****                             (uint8_t *) &wake_up_dur, 1);
2096:Drivers/BSP/Components/lis2dw12/lis2dw12_reg.c **** 
2097:Drivers/BSP/Components/lis2dw12/lis2dw12_reg.c ****     switch ((wake_up_dur.stationary << 1) + wake_up_ths.sleep_on)
2098:Drivers/BSP/Components/lis2dw12/lis2dw12_reg.c ****     {
2099:Drivers/BSP/Components/lis2dw12/lis2dw12_reg.c ****       case LIS2DW12_NO_DETECTION:
2100:Drivers/BSP/Components/lis2dw12/lis2dw12_reg.c ****         *val = LIS2DW12_NO_DETECTION;
2101:Drivers/BSP/Components/lis2dw12/lis2dw12_reg.c ****         break;
2102:Drivers/BSP/Components/lis2dw12/lis2dw12_reg.c **** 
2103:Drivers/BSP/Components/lis2dw12/lis2dw12_reg.c ****       case LIS2DW12_DETECT_ACT_INACT:
2104:Drivers/BSP/Components/lis2dw12/lis2dw12_reg.c ****         *val = LIS2DW12_DETECT_ACT_INACT;
2105:Drivers/BSP/Components/lis2dw12/lis2dw12_reg.c ****         break;
2106:Drivers/BSP/Components/lis2dw12/lis2dw12_reg.c **** 
2107:Drivers/BSP/Components/lis2dw12/lis2dw12_reg.c ****       case LIS2DW12_DETECT_STAT_MOTION:
2108:Drivers/BSP/Components/lis2dw12/lis2dw12_reg.c ****         *val = LIS2DW12_DETECT_STAT_MOTION;
2109:Drivers/BSP/Components/lis2dw12/lis2dw12_reg.c ****         break;
2110:Drivers/BSP/Components/lis2dw12/lis2dw12_reg.c **** 
2111:Drivers/BSP/Components/lis2dw12/lis2dw12_reg.c ****       default:
2112:Drivers/BSP/Components/lis2dw12/lis2dw12_reg.c ****         *val = LIS2DW12_NO_DETECTION;
2113:Drivers/BSP/Components/lis2dw12/lis2dw12_reg.c ****         break;
2114:Drivers/BSP/Components/lis2dw12/lis2dw12_reg.c ****     }
2115:Drivers/BSP/Components/lis2dw12/lis2dw12_reg.c ****   }
2116:Drivers/BSP/Components/lis2dw12/lis2dw12_reg.c **** 
2117:Drivers/BSP/Components/lis2dw12/lis2dw12_reg.c ****   return ret;
2118:Drivers/BSP/Components/lis2dw12/lis2dw12_reg.c **** }
 5299              		.loc 1 2118 1 view .LVU1344
 5300 0014 03B0     		add	sp, sp, #12
 5301              	.LCFI212:
 5302              		.cfi_remember_state
 5303              		.cfi_def_cfa_offset 12
 5304              		@ sp needed
ARM GAS  /tmp/ccEdQILT.s 			page 137


 5305 0016 30BD     		pop	{r4, r5, pc}
 5306              	.LVL360:
 5307              	.L350:
 5308              	.LCFI213:
 5309              		.cfi_restore_state
2094:Drivers/BSP/Components/lis2dw12/lis2dw12_reg.c ****                             (uint8_t *) &wake_up_dur, 1);
 5310              		.loc 1 2094 5 is_stmt 1 view .LVU1345
2094:Drivers/BSP/Components/lis2dw12/lis2dw12_reg.c ****                             (uint8_t *) &wake_up_dur, 1);
 5311              		.loc 1 2094 11 is_stmt 0 view .LVU1346
 5312 0018 0123     		movs	r3, #1
 5313              	.LVL361:
2094:Drivers/BSP/Components/lis2dw12/lis2dw12_reg.c ****                             (uint8_t *) &wake_up_dur, 1);
 5314              		.loc 1 2094 11 view .LVU1347
 5315 001a 6A46     		mov	r2, sp
 5316 001c 3521     		movs	r1, #53
 5317 001e 2046     		mov	r0, r4
 5318 0020 FFF7FEFF 		bl	lis2dw12_read_reg
 5319              	.LVL362:
2097:Drivers/BSP/Components/lis2dw12/lis2dw12_reg.c ****     {
 5320              		.loc 1 2097 5 is_stmt 1 view .LVU1348
2097:Drivers/BSP/Components/lis2dw12/lis2dw12_reg.c ****     {
 5321              		.loc 1 2097 25 is_stmt 0 view .LVU1349
 5322 0024 9DF80030 		ldrb	r3, [sp]	@ zero_extendqisi2
 5323 0028 C3F30012 		ubfx	r2, r3, #4, #1
2097:Drivers/BSP/Components/lis2dw12/lis2dw12_reg.c ****     {
 5324              		.loc 1 2097 56 view .LVU1350
 5325 002c 9DF80430 		ldrb	r3, [sp, #4]	@ zero_extendqisi2
 5326 0030 C3F38013 		ubfx	r3, r3, #6, #1
2097:Drivers/BSP/Components/lis2dw12/lis2dw12_reg.c ****     {
 5327              		.loc 1 2097 43 view .LVU1351
 5328 0034 03EB4203 		add	r3, r3, r2, lsl #1
2097:Drivers/BSP/Components/lis2dw12/lis2dw12_reg.c ****     {
 5329              		.loc 1 2097 5 view .LVU1352
 5330 0038 012B     		cmp	r3, #1
 5331 003a 07D0     		beq	.L346
 5332 003c 032B     		cmp	r3, #3
 5333 003e 08D0     		beq	.L347
 5334 0040 13B1     		cbz	r3, .L351
2112:Drivers/BSP/Components/lis2dw12/lis2dw12_reg.c ****         break;
 5335              		.loc 1 2112 9 is_stmt 1 view .LVU1353
2112:Drivers/BSP/Components/lis2dw12/lis2dw12_reg.c ****         break;
 5336              		.loc 1 2112 14 is_stmt 0 view .LVU1354
 5337 0042 0023     		movs	r3, #0
 5338 0044 2B70     		strb	r3, [r5]
2113:Drivers/BSP/Components/lis2dw12/lis2dw12_reg.c ****     }
 5339              		.loc 1 2113 9 is_stmt 1 view .LVU1355
2117:Drivers/BSP/Components/lis2dw12/lis2dw12_reg.c **** }
 5340              		.loc 1 2117 3 view .LVU1356
2117:Drivers/BSP/Components/lis2dw12/lis2dw12_reg.c **** }
 5341              		.loc 1 2117 10 is_stmt 0 view .LVU1357
 5342 0046 E5E7     		b	.L344
 5343              	.L351:
2100:Drivers/BSP/Components/lis2dw12/lis2dw12_reg.c ****         break;
 5344              		.loc 1 2100 9 is_stmt 1 view .LVU1358
2100:Drivers/BSP/Components/lis2dw12/lis2dw12_reg.c ****         break;
 5345              		.loc 1 2100 14 is_stmt 0 view .LVU1359
 5346 0048 2B70     		strb	r3, [r5]
ARM GAS  /tmp/ccEdQILT.s 			page 138


2101:Drivers/BSP/Components/lis2dw12/lis2dw12_reg.c **** 
 5347              		.loc 1 2101 9 is_stmt 1 view .LVU1360
 5348 004a E3E7     		b	.L344
 5349              	.L346:
2104:Drivers/BSP/Components/lis2dw12/lis2dw12_reg.c ****         break;
 5350              		.loc 1 2104 9 view .LVU1361
2104:Drivers/BSP/Components/lis2dw12/lis2dw12_reg.c ****         break;
 5351              		.loc 1 2104 14 is_stmt 0 view .LVU1362
 5352 004c 0123     		movs	r3, #1
 5353 004e 2B70     		strb	r3, [r5]
2105:Drivers/BSP/Components/lis2dw12/lis2dw12_reg.c **** 
 5354              		.loc 1 2105 9 is_stmt 1 view .LVU1363
 5355 0050 E0E7     		b	.L344
 5356              	.L347:
2108:Drivers/BSP/Components/lis2dw12/lis2dw12_reg.c ****         break;
 5357              		.loc 1 2108 9 view .LVU1364
2108:Drivers/BSP/Components/lis2dw12/lis2dw12_reg.c ****         break;
 5358              		.loc 1 2108 14 is_stmt 0 view .LVU1365
 5359 0052 0323     		movs	r3, #3
 5360 0054 2B70     		strb	r3, [r5]
2109:Drivers/BSP/Components/lis2dw12/lis2dw12_reg.c **** 
 5361              		.loc 1 2109 9 is_stmt 1 view .LVU1366
 5362 0056 DDE7     		b	.L344
 5363              		.cfi_endproc
 5364              	.LFE74:
 5366              		.section	.text.lis2dw12_act_sleep_dur_set,"ax",%progbits
 5367              		.align	1
 5368              		.global	lis2dw12_act_sleep_dur_set
 5369              		.syntax unified
 5370              		.thumb
 5371              		.thumb_func
 5372              		.fpu fpv4-sp-d16
 5374              	lis2dw12_act_sleep_dur_set:
 5375              	.LVL363:
 5376              	.LFB75:
2119:Drivers/BSP/Components/lis2dw12/lis2dw12_reg.c **** 
2120:Drivers/BSP/Components/lis2dw12/lis2dw12_reg.c **** /**
2121:Drivers/BSP/Components/lis2dw12/lis2dw12_reg.c ****   * @brief  Duration to go in sleep mode (1 LSb = 512 / ODR).[set]
2122:Drivers/BSP/Components/lis2dw12/lis2dw12_reg.c ****   *
2123:Drivers/BSP/Components/lis2dw12/lis2dw12_reg.c ****   * @param  ctx      read / write interface definitions
2124:Drivers/BSP/Components/lis2dw12/lis2dw12_reg.c ****   * @param  val      change the values of sleep_dur in reg WAKE_UP_DUR
2125:Drivers/BSP/Components/lis2dw12/lis2dw12_reg.c ****   * @retval          interface status (MANDATORY: return 0 -> no Error)
2126:Drivers/BSP/Components/lis2dw12/lis2dw12_reg.c ****   *
2127:Drivers/BSP/Components/lis2dw12/lis2dw12_reg.c ****   */
2128:Drivers/BSP/Components/lis2dw12/lis2dw12_reg.c **** int32_t lis2dw12_act_sleep_dur_set(stmdev_ctx_t *ctx, uint8_t val)
2129:Drivers/BSP/Components/lis2dw12/lis2dw12_reg.c **** {
 5377              		.loc 1 2129 1 view -0
 5378              		.cfi_startproc
 5379              		@ args = 0, pretend = 0, frame = 8
 5380              		@ frame_needed = 0, uses_anonymous_args = 0
 5381              		.loc 1 2129 1 is_stmt 0 view .LVU1368
 5382 0000 30B5     		push	{r4, r5, lr}
 5383              	.LCFI214:
 5384              		.cfi_def_cfa_offset 12
 5385              		.cfi_offset 4, -12
 5386              		.cfi_offset 5, -8
 5387              		.cfi_offset 14, -4
ARM GAS  /tmp/ccEdQILT.s 			page 139


 5388 0002 83B0     		sub	sp, sp, #12
 5389              	.LCFI215:
 5390              		.cfi_def_cfa_offset 24
 5391 0004 0446     		mov	r4, r0
 5392 0006 0D46     		mov	r5, r1
2130:Drivers/BSP/Components/lis2dw12/lis2dw12_reg.c ****   lis2dw12_wake_up_dur_t reg;
 5393              		.loc 1 2130 3 is_stmt 1 view .LVU1369
2131:Drivers/BSP/Components/lis2dw12/lis2dw12_reg.c ****   int32_t ret;
 5394              		.loc 1 2131 3 view .LVU1370
2132:Drivers/BSP/Components/lis2dw12/lis2dw12_reg.c **** 
2133:Drivers/BSP/Components/lis2dw12/lis2dw12_reg.c ****   ret = lis2dw12_read_reg(ctx, LIS2DW12_WAKE_UP_DUR, (uint8_t *) &reg, 1);
 5395              		.loc 1 2133 3 view .LVU1371
 5396              		.loc 1 2133 9 is_stmt 0 view .LVU1372
 5397 0008 0123     		movs	r3, #1
 5398 000a 01AA     		add	r2, sp, #4
 5399 000c 3521     		movs	r1, #53
 5400              	.LVL364:
 5401              		.loc 1 2133 9 view .LVU1373
 5402 000e FFF7FEFF 		bl	lis2dw12_read_reg
 5403              	.LVL365:
2134:Drivers/BSP/Components/lis2dw12/lis2dw12_reg.c **** 
2135:Drivers/BSP/Components/lis2dw12/lis2dw12_reg.c ****   if (ret == 0)
 5404              		.loc 1 2135 3 is_stmt 1 view .LVU1374
 5405              		.loc 1 2135 6 is_stmt 0 view .LVU1375
 5406 0012 08B1     		cbz	r0, .L355
 5407              	.LVL366:
 5408              	.L352:
2136:Drivers/BSP/Components/lis2dw12/lis2dw12_reg.c ****   {
2137:Drivers/BSP/Components/lis2dw12/lis2dw12_reg.c ****     reg.sleep_dur = val;
2138:Drivers/BSP/Components/lis2dw12/lis2dw12_reg.c ****     ret = lis2dw12_write_reg(ctx, LIS2DW12_WAKE_UP_DUR, (uint8_t *) &reg, 1);
2139:Drivers/BSP/Components/lis2dw12/lis2dw12_reg.c ****   }
2140:Drivers/BSP/Components/lis2dw12/lis2dw12_reg.c **** 
2141:Drivers/BSP/Components/lis2dw12/lis2dw12_reg.c ****   return ret;
2142:Drivers/BSP/Components/lis2dw12/lis2dw12_reg.c **** }
 5409              		.loc 1 2142 1 view .LVU1376
 5410 0014 03B0     		add	sp, sp, #12
 5411              	.LCFI216:
 5412              		.cfi_remember_state
 5413              		.cfi_def_cfa_offset 12
 5414              		@ sp needed
 5415 0016 30BD     		pop	{r4, r5, pc}
 5416              	.LVL367:
 5417              	.L355:
 5418              	.LCFI217:
 5419              		.cfi_restore_state
2137:Drivers/BSP/Components/lis2dw12/lis2dw12_reg.c ****     ret = lis2dw12_write_reg(ctx, LIS2DW12_WAKE_UP_DUR, (uint8_t *) &reg, 1);
 5420              		.loc 1 2137 5 is_stmt 1 view .LVU1377
2137:Drivers/BSP/Components/lis2dw12/lis2dw12_reg.c ****     ret = lis2dw12_write_reg(ctx, LIS2DW12_WAKE_UP_DUR, (uint8_t *) &reg, 1);
 5421              		.loc 1 2137 19 is_stmt 0 view .LVU1378
 5422 0018 9DF80430 		ldrb	r3, [sp, #4]	@ zero_extendqisi2
 5423 001c 65F30303 		bfi	r3, r5, #0, #4
 5424 0020 8DF80430 		strb	r3, [sp, #4]
2138:Drivers/BSP/Components/lis2dw12/lis2dw12_reg.c ****   }
 5425              		.loc 1 2138 5 is_stmt 1 view .LVU1379
2138:Drivers/BSP/Components/lis2dw12/lis2dw12_reg.c ****   }
 5426              		.loc 1 2138 11 is_stmt 0 view .LVU1380
 5427 0024 0123     		movs	r3, #1
ARM GAS  /tmp/ccEdQILT.s 			page 140


 5428              	.LVL368:
2138:Drivers/BSP/Components/lis2dw12/lis2dw12_reg.c ****   }
 5429              		.loc 1 2138 11 view .LVU1381
 5430 0026 01AA     		add	r2, sp, #4
 5431 0028 3521     		movs	r1, #53
 5432 002a 2046     		mov	r0, r4
 5433 002c FFF7FEFF 		bl	lis2dw12_write_reg
 5434              	.LVL369:
2141:Drivers/BSP/Components/lis2dw12/lis2dw12_reg.c **** }
 5435              		.loc 1 2141 3 is_stmt 1 view .LVU1382
2141:Drivers/BSP/Components/lis2dw12/lis2dw12_reg.c **** }
 5436              		.loc 1 2141 10 is_stmt 0 view .LVU1383
 5437 0030 F0E7     		b	.L352
 5438              		.cfi_endproc
 5439              	.LFE75:
 5441              		.section	.text.lis2dw12_act_sleep_dur_get,"ax",%progbits
 5442              		.align	1
 5443              		.global	lis2dw12_act_sleep_dur_get
 5444              		.syntax unified
 5445              		.thumb
 5446              		.thumb_func
 5447              		.fpu fpv4-sp-d16
 5449              	lis2dw12_act_sleep_dur_get:
 5450              	.LVL370:
 5451              	.LFB76:
2143:Drivers/BSP/Components/lis2dw12/lis2dw12_reg.c **** 
2144:Drivers/BSP/Components/lis2dw12/lis2dw12_reg.c **** /**
2145:Drivers/BSP/Components/lis2dw12/lis2dw12_reg.c ****   * @brief  Duration to go in sleep mode (1 LSb = 512 / ODR).[get]
2146:Drivers/BSP/Components/lis2dw12/lis2dw12_reg.c ****   *
2147:Drivers/BSP/Components/lis2dw12/lis2dw12_reg.c ****   * @param  ctx      read / write interface definitions
2148:Drivers/BSP/Components/lis2dw12/lis2dw12_reg.c ****   * @param  val      change the values of sleep_dur in reg WAKE_UP_DUR
2149:Drivers/BSP/Components/lis2dw12/lis2dw12_reg.c ****   * @retval          interface status (MANDATORY: return 0 -> no Error)
2150:Drivers/BSP/Components/lis2dw12/lis2dw12_reg.c ****   *
2151:Drivers/BSP/Components/lis2dw12/lis2dw12_reg.c ****   */
2152:Drivers/BSP/Components/lis2dw12/lis2dw12_reg.c **** int32_t lis2dw12_act_sleep_dur_get(stmdev_ctx_t *ctx, uint8_t *val)
2153:Drivers/BSP/Components/lis2dw12/lis2dw12_reg.c **** {
 5452              		.loc 1 2153 1 is_stmt 1 view -0
 5453              		.cfi_startproc
 5454              		@ args = 0, pretend = 0, frame = 8
 5455              		@ frame_needed = 0, uses_anonymous_args = 0
 5456              		.loc 1 2153 1 is_stmt 0 view .LVU1385
 5457 0000 10B5     		push	{r4, lr}
 5458              	.LCFI218:
 5459              		.cfi_def_cfa_offset 8
 5460              		.cfi_offset 4, -8
 5461              		.cfi_offset 14, -4
 5462 0002 82B0     		sub	sp, sp, #8
 5463              	.LCFI219:
 5464              		.cfi_def_cfa_offset 16
 5465 0004 0C46     		mov	r4, r1
2154:Drivers/BSP/Components/lis2dw12/lis2dw12_reg.c ****   lis2dw12_wake_up_dur_t reg;
 5466              		.loc 1 2154 3 is_stmt 1 view .LVU1386
2155:Drivers/BSP/Components/lis2dw12/lis2dw12_reg.c ****   int32_t ret;
 5467              		.loc 1 2155 3 view .LVU1387
2156:Drivers/BSP/Components/lis2dw12/lis2dw12_reg.c **** 
2157:Drivers/BSP/Components/lis2dw12/lis2dw12_reg.c ****   ret = lis2dw12_read_reg(ctx, LIS2DW12_WAKE_UP_DUR, (uint8_t *) &reg, 1);
 5468              		.loc 1 2157 3 view .LVU1388
ARM GAS  /tmp/ccEdQILT.s 			page 141


 5469              		.loc 1 2157 9 is_stmt 0 view .LVU1389
 5470 0006 0123     		movs	r3, #1
 5471 0008 01AA     		add	r2, sp, #4
 5472 000a 3521     		movs	r1, #53
 5473              	.LVL371:
 5474              		.loc 1 2157 9 view .LVU1390
 5475 000c FFF7FEFF 		bl	lis2dw12_read_reg
 5476              	.LVL372:
2158:Drivers/BSP/Components/lis2dw12/lis2dw12_reg.c ****   *val = reg.sleep_dur;
 5477              		.loc 1 2158 3 is_stmt 1 view .LVU1391
 5478              		.loc 1 2158 13 is_stmt 0 view .LVU1392
 5479 0010 9DF80430 		ldrb	r3, [sp, #4]	@ zero_extendqisi2
 5480 0014 C3F30303 		ubfx	r3, r3, #0, #4
 5481              		.loc 1 2158 8 view .LVU1393
 5482 0018 2370     		strb	r3, [r4]
2159:Drivers/BSP/Components/lis2dw12/lis2dw12_reg.c **** 
2160:Drivers/BSP/Components/lis2dw12/lis2dw12_reg.c ****   return ret;
 5483              		.loc 1 2160 3 is_stmt 1 view .LVU1394
2161:Drivers/BSP/Components/lis2dw12/lis2dw12_reg.c **** }
 5484              		.loc 1 2161 1 is_stmt 0 view .LVU1395
 5485 001a 02B0     		add	sp, sp, #8
 5486              	.LCFI220:
 5487              		.cfi_def_cfa_offset 8
 5488              		@ sp needed
 5489 001c 10BD     		pop	{r4, pc}
 5490              		.loc 1 2161 1 view .LVU1396
 5491              		.cfi_endproc
 5492              	.LFE76:
 5494              		.section	.text.lis2dw12_tap_threshold_x_set,"ax",%progbits
 5495              		.align	1
 5496              		.global	lis2dw12_tap_threshold_x_set
 5497              		.syntax unified
 5498              		.thumb
 5499              		.thumb_func
 5500              		.fpu fpv4-sp-d16
 5502              	lis2dw12_tap_threshold_x_set:
 5503              	.LVL373:
 5504              	.LFB77:
2162:Drivers/BSP/Components/lis2dw12/lis2dw12_reg.c **** 
2163:Drivers/BSP/Components/lis2dw12/lis2dw12_reg.c **** /**
2164:Drivers/BSP/Components/lis2dw12/lis2dw12_reg.c ****   * @}
2165:Drivers/BSP/Components/lis2dw12/lis2dw12_reg.c ****   *
2166:Drivers/BSP/Components/lis2dw12/lis2dw12_reg.c ****   */
2167:Drivers/BSP/Components/lis2dw12/lis2dw12_reg.c **** 
2168:Drivers/BSP/Components/lis2dw12/lis2dw12_reg.c **** /**
2169:Drivers/BSP/Components/lis2dw12/lis2dw12_reg.c ****   * @defgroup  LIS2DW12_Tap_Generator
2170:Drivers/BSP/Components/lis2dw12/lis2dw12_reg.c ****   * @brief     This section groups all the functions that manage the tap
2171:Drivers/BSP/Components/lis2dw12/lis2dw12_reg.c ****   *            and double tap event generation.
2172:Drivers/BSP/Components/lis2dw12/lis2dw12_reg.c ****   * @{
2173:Drivers/BSP/Components/lis2dw12/lis2dw12_reg.c ****   *
2174:Drivers/BSP/Components/lis2dw12/lis2dw12_reg.c ****   */
2175:Drivers/BSP/Components/lis2dw12/lis2dw12_reg.c **** 
2176:Drivers/BSP/Components/lis2dw12/lis2dw12_reg.c **** /**
2177:Drivers/BSP/Components/lis2dw12/lis2dw12_reg.c ****   * @brief  Threshold for tap recognition.[set]
2178:Drivers/BSP/Components/lis2dw12/lis2dw12_reg.c ****   *
2179:Drivers/BSP/Components/lis2dw12/lis2dw12_reg.c ****   * @param  ctx      read / write interface definitions
2180:Drivers/BSP/Components/lis2dw12/lis2dw12_reg.c ****   * @param  val      change the values of tap_thsx in reg TAP_THS_X
ARM GAS  /tmp/ccEdQILT.s 			page 142


2181:Drivers/BSP/Components/lis2dw12/lis2dw12_reg.c ****   * @retval          interface status (MANDATORY: return 0 -> no Error)
2182:Drivers/BSP/Components/lis2dw12/lis2dw12_reg.c ****   *
2183:Drivers/BSP/Components/lis2dw12/lis2dw12_reg.c ****   */
2184:Drivers/BSP/Components/lis2dw12/lis2dw12_reg.c **** int32_t lis2dw12_tap_threshold_x_set(stmdev_ctx_t *ctx, uint8_t val)
2185:Drivers/BSP/Components/lis2dw12/lis2dw12_reg.c **** {
 5505              		.loc 1 2185 1 is_stmt 1 view -0
 5506              		.cfi_startproc
 5507              		@ args = 0, pretend = 0, frame = 8
 5508              		@ frame_needed = 0, uses_anonymous_args = 0
 5509              		.loc 1 2185 1 is_stmt 0 view .LVU1398
 5510 0000 30B5     		push	{r4, r5, lr}
 5511              	.LCFI221:
 5512              		.cfi_def_cfa_offset 12
 5513              		.cfi_offset 4, -12
 5514              		.cfi_offset 5, -8
 5515              		.cfi_offset 14, -4
 5516 0002 83B0     		sub	sp, sp, #12
 5517              	.LCFI222:
 5518              		.cfi_def_cfa_offset 24
 5519 0004 0446     		mov	r4, r0
 5520 0006 0D46     		mov	r5, r1
2186:Drivers/BSP/Components/lis2dw12/lis2dw12_reg.c ****   lis2dw12_tap_ths_x_t reg;
 5521              		.loc 1 2186 3 is_stmt 1 view .LVU1399
2187:Drivers/BSP/Components/lis2dw12/lis2dw12_reg.c ****   int32_t ret;
 5522              		.loc 1 2187 3 view .LVU1400
2188:Drivers/BSP/Components/lis2dw12/lis2dw12_reg.c **** 
2189:Drivers/BSP/Components/lis2dw12/lis2dw12_reg.c ****   ret = lis2dw12_read_reg(ctx, LIS2DW12_TAP_THS_X, (uint8_t *) &reg, 1);
 5523              		.loc 1 2189 3 view .LVU1401
 5524              		.loc 1 2189 9 is_stmt 0 view .LVU1402
 5525 0008 0123     		movs	r3, #1
 5526 000a 01AA     		add	r2, sp, #4
 5527 000c 3021     		movs	r1, #48
 5528              	.LVL374:
 5529              		.loc 1 2189 9 view .LVU1403
 5530 000e FFF7FEFF 		bl	lis2dw12_read_reg
 5531              	.LVL375:
2190:Drivers/BSP/Components/lis2dw12/lis2dw12_reg.c **** 
2191:Drivers/BSP/Components/lis2dw12/lis2dw12_reg.c ****   if (ret == 0)
 5532              		.loc 1 2191 3 is_stmt 1 view .LVU1404
 5533              		.loc 1 2191 6 is_stmt 0 view .LVU1405
 5534 0012 08B1     		cbz	r0, .L361
 5535              	.LVL376:
 5536              	.L358:
2192:Drivers/BSP/Components/lis2dw12/lis2dw12_reg.c ****   {
2193:Drivers/BSP/Components/lis2dw12/lis2dw12_reg.c ****     reg.tap_thsx = val;
2194:Drivers/BSP/Components/lis2dw12/lis2dw12_reg.c ****     ret = lis2dw12_write_reg(ctx, LIS2DW12_TAP_THS_X, (uint8_t *) &reg, 1);
2195:Drivers/BSP/Components/lis2dw12/lis2dw12_reg.c ****   }
2196:Drivers/BSP/Components/lis2dw12/lis2dw12_reg.c **** 
2197:Drivers/BSP/Components/lis2dw12/lis2dw12_reg.c ****   return ret;
2198:Drivers/BSP/Components/lis2dw12/lis2dw12_reg.c **** }
 5537              		.loc 1 2198 1 view .LVU1406
 5538 0014 03B0     		add	sp, sp, #12
 5539              	.LCFI223:
 5540              		.cfi_remember_state
 5541              		.cfi_def_cfa_offset 12
 5542              		@ sp needed
 5543 0016 30BD     		pop	{r4, r5, pc}
ARM GAS  /tmp/ccEdQILT.s 			page 143


 5544              	.LVL377:
 5545              	.L361:
 5546              	.LCFI224:
 5547              		.cfi_restore_state
2193:Drivers/BSP/Components/lis2dw12/lis2dw12_reg.c ****     ret = lis2dw12_write_reg(ctx, LIS2DW12_TAP_THS_X, (uint8_t *) &reg, 1);
 5548              		.loc 1 2193 5 is_stmt 1 view .LVU1407
2193:Drivers/BSP/Components/lis2dw12/lis2dw12_reg.c ****     ret = lis2dw12_write_reg(ctx, LIS2DW12_TAP_THS_X, (uint8_t *) &reg, 1);
 5549              		.loc 1 2193 18 is_stmt 0 view .LVU1408
 5550 0018 9DF80430 		ldrb	r3, [sp, #4]	@ zero_extendqisi2
 5551 001c 65F30403 		bfi	r3, r5, #0, #5
 5552 0020 8DF80430 		strb	r3, [sp, #4]
2194:Drivers/BSP/Components/lis2dw12/lis2dw12_reg.c ****   }
 5553              		.loc 1 2194 5 is_stmt 1 view .LVU1409
2194:Drivers/BSP/Components/lis2dw12/lis2dw12_reg.c ****   }
 5554              		.loc 1 2194 11 is_stmt 0 view .LVU1410
 5555 0024 0123     		movs	r3, #1
 5556              	.LVL378:
2194:Drivers/BSP/Components/lis2dw12/lis2dw12_reg.c ****   }
 5557              		.loc 1 2194 11 view .LVU1411
 5558 0026 01AA     		add	r2, sp, #4
 5559 0028 3021     		movs	r1, #48
 5560 002a 2046     		mov	r0, r4
 5561 002c FFF7FEFF 		bl	lis2dw12_write_reg
 5562              	.LVL379:
2197:Drivers/BSP/Components/lis2dw12/lis2dw12_reg.c **** }
 5563              		.loc 1 2197 3 is_stmt 1 view .LVU1412
2197:Drivers/BSP/Components/lis2dw12/lis2dw12_reg.c **** }
 5564              		.loc 1 2197 10 is_stmt 0 view .LVU1413
 5565 0030 F0E7     		b	.L358
 5566              		.cfi_endproc
 5567              	.LFE77:
 5569              		.section	.text.lis2dw12_tap_threshold_x_get,"ax",%progbits
 5570              		.align	1
 5571              		.global	lis2dw12_tap_threshold_x_get
 5572              		.syntax unified
 5573              		.thumb
 5574              		.thumb_func
 5575              		.fpu fpv4-sp-d16
 5577              	lis2dw12_tap_threshold_x_get:
 5578              	.LVL380:
 5579              	.LFB78:
2199:Drivers/BSP/Components/lis2dw12/lis2dw12_reg.c **** 
2200:Drivers/BSP/Components/lis2dw12/lis2dw12_reg.c **** /**
2201:Drivers/BSP/Components/lis2dw12/lis2dw12_reg.c ****   * @brief  Threshold for tap recognition.[get]
2202:Drivers/BSP/Components/lis2dw12/lis2dw12_reg.c ****   *
2203:Drivers/BSP/Components/lis2dw12/lis2dw12_reg.c ****   * @param  ctx      read / write interface definitions
2204:Drivers/BSP/Components/lis2dw12/lis2dw12_reg.c ****   * @param  val      change the values of tap_thsx in reg TAP_THS_X
2205:Drivers/BSP/Components/lis2dw12/lis2dw12_reg.c ****   * @retval          interface status (MANDATORY: return 0 -> no Error)
2206:Drivers/BSP/Components/lis2dw12/lis2dw12_reg.c ****   *
2207:Drivers/BSP/Components/lis2dw12/lis2dw12_reg.c ****   */
2208:Drivers/BSP/Components/lis2dw12/lis2dw12_reg.c **** int32_t lis2dw12_tap_threshold_x_get(stmdev_ctx_t *ctx, uint8_t *val)
2209:Drivers/BSP/Components/lis2dw12/lis2dw12_reg.c **** {
 5580              		.loc 1 2209 1 is_stmt 1 view -0
 5581              		.cfi_startproc
 5582              		@ args = 0, pretend = 0, frame = 8
 5583              		@ frame_needed = 0, uses_anonymous_args = 0
 5584              		.loc 1 2209 1 is_stmt 0 view .LVU1415
ARM GAS  /tmp/ccEdQILT.s 			page 144


 5585 0000 10B5     		push	{r4, lr}
 5586              	.LCFI225:
 5587              		.cfi_def_cfa_offset 8
 5588              		.cfi_offset 4, -8
 5589              		.cfi_offset 14, -4
 5590 0002 82B0     		sub	sp, sp, #8
 5591              	.LCFI226:
 5592              		.cfi_def_cfa_offset 16
 5593 0004 0C46     		mov	r4, r1
2210:Drivers/BSP/Components/lis2dw12/lis2dw12_reg.c ****   lis2dw12_tap_ths_x_t reg;
 5594              		.loc 1 2210 3 is_stmt 1 view .LVU1416
2211:Drivers/BSP/Components/lis2dw12/lis2dw12_reg.c ****   int32_t ret;
 5595              		.loc 1 2211 3 view .LVU1417
2212:Drivers/BSP/Components/lis2dw12/lis2dw12_reg.c **** 
2213:Drivers/BSP/Components/lis2dw12/lis2dw12_reg.c ****   ret = lis2dw12_read_reg(ctx, LIS2DW12_TAP_THS_X, (uint8_t *) &reg, 1);
 5596              		.loc 1 2213 3 view .LVU1418
 5597              		.loc 1 2213 9 is_stmt 0 view .LVU1419
 5598 0006 0123     		movs	r3, #1
 5599 0008 01AA     		add	r2, sp, #4
 5600 000a 3021     		movs	r1, #48
 5601              	.LVL381:
 5602              		.loc 1 2213 9 view .LVU1420
 5603 000c FFF7FEFF 		bl	lis2dw12_read_reg
 5604              	.LVL382:
2214:Drivers/BSP/Components/lis2dw12/lis2dw12_reg.c ****   *val = reg.tap_thsx;
 5605              		.loc 1 2214 3 is_stmt 1 view .LVU1421
 5606              		.loc 1 2214 13 is_stmt 0 view .LVU1422
 5607 0010 9DF80430 		ldrb	r3, [sp, #4]	@ zero_extendqisi2
 5608 0014 C3F30403 		ubfx	r3, r3, #0, #5
 5609              		.loc 1 2214 8 view .LVU1423
 5610 0018 2370     		strb	r3, [r4]
2215:Drivers/BSP/Components/lis2dw12/lis2dw12_reg.c **** 
2216:Drivers/BSP/Components/lis2dw12/lis2dw12_reg.c ****   return ret;
 5611              		.loc 1 2216 3 is_stmt 1 view .LVU1424
2217:Drivers/BSP/Components/lis2dw12/lis2dw12_reg.c **** }
 5612              		.loc 1 2217 1 is_stmt 0 view .LVU1425
 5613 001a 02B0     		add	sp, sp, #8
 5614              	.LCFI227:
 5615              		.cfi_def_cfa_offset 8
 5616              		@ sp needed
 5617 001c 10BD     		pop	{r4, pc}
 5618              		.loc 1 2217 1 view .LVU1426
 5619              		.cfi_endproc
 5620              	.LFE78:
 5622              		.section	.text.lis2dw12_tap_threshold_y_set,"ax",%progbits
 5623              		.align	1
 5624              		.global	lis2dw12_tap_threshold_y_set
 5625              		.syntax unified
 5626              		.thumb
 5627              		.thumb_func
 5628              		.fpu fpv4-sp-d16
 5630              	lis2dw12_tap_threshold_y_set:
 5631              	.LVL383:
 5632              	.LFB79:
2218:Drivers/BSP/Components/lis2dw12/lis2dw12_reg.c **** 
2219:Drivers/BSP/Components/lis2dw12/lis2dw12_reg.c **** /**
2220:Drivers/BSP/Components/lis2dw12/lis2dw12_reg.c ****   * @brief  Threshold for tap recognition.[set]
ARM GAS  /tmp/ccEdQILT.s 			page 145


2221:Drivers/BSP/Components/lis2dw12/lis2dw12_reg.c ****   *
2222:Drivers/BSP/Components/lis2dw12/lis2dw12_reg.c ****   * @param  ctx      read / write interface definitions
2223:Drivers/BSP/Components/lis2dw12/lis2dw12_reg.c ****   * @param  val      change the values of tap_thsy in reg TAP_THS_Y
2224:Drivers/BSP/Components/lis2dw12/lis2dw12_reg.c ****   * @retval          interface status (MANDATORY: return 0 -> no Error)
2225:Drivers/BSP/Components/lis2dw12/lis2dw12_reg.c ****   *
2226:Drivers/BSP/Components/lis2dw12/lis2dw12_reg.c ****   */
2227:Drivers/BSP/Components/lis2dw12/lis2dw12_reg.c **** int32_t lis2dw12_tap_threshold_y_set(stmdev_ctx_t *ctx, uint8_t val)
2228:Drivers/BSP/Components/lis2dw12/lis2dw12_reg.c **** {
 5633              		.loc 1 2228 1 is_stmt 1 view -0
 5634              		.cfi_startproc
 5635              		@ args = 0, pretend = 0, frame = 8
 5636              		@ frame_needed = 0, uses_anonymous_args = 0
 5637              		.loc 1 2228 1 is_stmt 0 view .LVU1428
 5638 0000 30B5     		push	{r4, r5, lr}
 5639              	.LCFI228:
 5640              		.cfi_def_cfa_offset 12
 5641              		.cfi_offset 4, -12
 5642              		.cfi_offset 5, -8
 5643              		.cfi_offset 14, -4
 5644 0002 83B0     		sub	sp, sp, #12
 5645              	.LCFI229:
 5646              		.cfi_def_cfa_offset 24
 5647 0004 0446     		mov	r4, r0
 5648 0006 0D46     		mov	r5, r1
2229:Drivers/BSP/Components/lis2dw12/lis2dw12_reg.c ****   lis2dw12_tap_ths_y_t reg;
 5649              		.loc 1 2229 3 is_stmt 1 view .LVU1429
2230:Drivers/BSP/Components/lis2dw12/lis2dw12_reg.c ****   int32_t ret;
 5650              		.loc 1 2230 3 view .LVU1430
2231:Drivers/BSP/Components/lis2dw12/lis2dw12_reg.c **** 
2232:Drivers/BSP/Components/lis2dw12/lis2dw12_reg.c ****   ret = lis2dw12_read_reg(ctx, LIS2DW12_TAP_THS_Y, (uint8_t *) &reg, 1);
 5651              		.loc 1 2232 3 view .LVU1431
 5652              		.loc 1 2232 9 is_stmt 0 view .LVU1432
 5653 0008 0123     		movs	r3, #1
 5654 000a 01AA     		add	r2, sp, #4
 5655 000c 3121     		movs	r1, #49
 5656              	.LVL384:
 5657              		.loc 1 2232 9 view .LVU1433
 5658 000e FFF7FEFF 		bl	lis2dw12_read_reg
 5659              	.LVL385:
2233:Drivers/BSP/Components/lis2dw12/lis2dw12_reg.c **** 
2234:Drivers/BSP/Components/lis2dw12/lis2dw12_reg.c ****   if (ret == 0)
 5660              		.loc 1 2234 3 is_stmt 1 view .LVU1434
 5661              		.loc 1 2234 6 is_stmt 0 view .LVU1435
 5662 0012 08B1     		cbz	r0, .L367
 5663              	.LVL386:
 5664              	.L364:
2235:Drivers/BSP/Components/lis2dw12/lis2dw12_reg.c ****   {
2236:Drivers/BSP/Components/lis2dw12/lis2dw12_reg.c ****     reg.tap_thsy = val;
2237:Drivers/BSP/Components/lis2dw12/lis2dw12_reg.c ****     ret = lis2dw12_write_reg(ctx, LIS2DW12_TAP_THS_Y, (uint8_t *) &reg, 1);
2238:Drivers/BSP/Components/lis2dw12/lis2dw12_reg.c ****   }
2239:Drivers/BSP/Components/lis2dw12/lis2dw12_reg.c **** 
2240:Drivers/BSP/Components/lis2dw12/lis2dw12_reg.c ****   return ret;
2241:Drivers/BSP/Components/lis2dw12/lis2dw12_reg.c **** }
 5665              		.loc 1 2241 1 view .LVU1436
 5666 0014 03B0     		add	sp, sp, #12
 5667              	.LCFI230:
 5668              		.cfi_remember_state
ARM GAS  /tmp/ccEdQILT.s 			page 146


 5669              		.cfi_def_cfa_offset 12
 5670              		@ sp needed
 5671 0016 30BD     		pop	{r4, r5, pc}
 5672              	.LVL387:
 5673              	.L367:
 5674              	.LCFI231:
 5675              		.cfi_restore_state
2236:Drivers/BSP/Components/lis2dw12/lis2dw12_reg.c ****     ret = lis2dw12_write_reg(ctx, LIS2DW12_TAP_THS_Y, (uint8_t *) &reg, 1);
 5676              		.loc 1 2236 5 is_stmt 1 view .LVU1437
2236:Drivers/BSP/Components/lis2dw12/lis2dw12_reg.c ****     ret = lis2dw12_write_reg(ctx, LIS2DW12_TAP_THS_Y, (uint8_t *) &reg, 1);
 5677              		.loc 1 2236 18 is_stmt 0 view .LVU1438
 5678 0018 9DF80430 		ldrb	r3, [sp, #4]	@ zero_extendqisi2
 5679 001c 65F30403 		bfi	r3, r5, #0, #5
 5680 0020 8DF80430 		strb	r3, [sp, #4]
2237:Drivers/BSP/Components/lis2dw12/lis2dw12_reg.c ****   }
 5681              		.loc 1 2237 5 is_stmt 1 view .LVU1439
2237:Drivers/BSP/Components/lis2dw12/lis2dw12_reg.c ****   }
 5682              		.loc 1 2237 11 is_stmt 0 view .LVU1440
 5683 0024 0123     		movs	r3, #1
 5684              	.LVL388:
2237:Drivers/BSP/Components/lis2dw12/lis2dw12_reg.c ****   }
 5685              		.loc 1 2237 11 view .LVU1441
 5686 0026 01AA     		add	r2, sp, #4
 5687 0028 3121     		movs	r1, #49
 5688 002a 2046     		mov	r0, r4
 5689 002c FFF7FEFF 		bl	lis2dw12_write_reg
 5690              	.LVL389:
2240:Drivers/BSP/Components/lis2dw12/lis2dw12_reg.c **** }
 5691              		.loc 1 2240 3 is_stmt 1 view .LVU1442
2240:Drivers/BSP/Components/lis2dw12/lis2dw12_reg.c **** }
 5692              		.loc 1 2240 10 is_stmt 0 view .LVU1443
 5693 0030 F0E7     		b	.L364
 5694              		.cfi_endproc
 5695              	.LFE79:
 5697              		.section	.text.lis2dw12_tap_threshold_y_get,"ax",%progbits
 5698              		.align	1
 5699              		.global	lis2dw12_tap_threshold_y_get
 5700              		.syntax unified
 5701              		.thumb
 5702              		.thumb_func
 5703              		.fpu fpv4-sp-d16
 5705              	lis2dw12_tap_threshold_y_get:
 5706              	.LVL390:
 5707              	.LFB80:
2242:Drivers/BSP/Components/lis2dw12/lis2dw12_reg.c **** 
2243:Drivers/BSP/Components/lis2dw12/lis2dw12_reg.c **** /**
2244:Drivers/BSP/Components/lis2dw12/lis2dw12_reg.c ****   * @brief  Threshold for tap recognition.[get]
2245:Drivers/BSP/Components/lis2dw12/lis2dw12_reg.c ****   *
2246:Drivers/BSP/Components/lis2dw12/lis2dw12_reg.c ****   * @param  ctx      read / write interface definitions
2247:Drivers/BSP/Components/lis2dw12/lis2dw12_reg.c ****   * @param  val      change the values of tap_thsy in reg TAP_THS_Y
2248:Drivers/BSP/Components/lis2dw12/lis2dw12_reg.c ****   * @retval          interface status (MANDATORY: return 0 -> no Error)
2249:Drivers/BSP/Components/lis2dw12/lis2dw12_reg.c ****   *
2250:Drivers/BSP/Components/lis2dw12/lis2dw12_reg.c ****   */
2251:Drivers/BSP/Components/lis2dw12/lis2dw12_reg.c **** int32_t lis2dw12_tap_threshold_y_get(stmdev_ctx_t *ctx, uint8_t *val)
2252:Drivers/BSP/Components/lis2dw12/lis2dw12_reg.c **** {
 5708              		.loc 1 2252 1 is_stmt 1 view -0
 5709              		.cfi_startproc
ARM GAS  /tmp/ccEdQILT.s 			page 147


 5710              		@ args = 0, pretend = 0, frame = 8
 5711              		@ frame_needed = 0, uses_anonymous_args = 0
 5712              		.loc 1 2252 1 is_stmt 0 view .LVU1445
 5713 0000 10B5     		push	{r4, lr}
 5714              	.LCFI232:
 5715              		.cfi_def_cfa_offset 8
 5716              		.cfi_offset 4, -8
 5717              		.cfi_offset 14, -4
 5718 0002 82B0     		sub	sp, sp, #8
 5719              	.LCFI233:
 5720              		.cfi_def_cfa_offset 16
 5721 0004 0C46     		mov	r4, r1
2253:Drivers/BSP/Components/lis2dw12/lis2dw12_reg.c ****   lis2dw12_tap_ths_y_t reg;
 5722              		.loc 1 2253 3 is_stmt 1 view .LVU1446
2254:Drivers/BSP/Components/lis2dw12/lis2dw12_reg.c ****   int32_t ret;
 5723              		.loc 1 2254 3 view .LVU1447
2255:Drivers/BSP/Components/lis2dw12/lis2dw12_reg.c **** 
2256:Drivers/BSP/Components/lis2dw12/lis2dw12_reg.c ****   ret = lis2dw12_read_reg(ctx, LIS2DW12_TAP_THS_Y, (uint8_t *) &reg, 1);
 5724              		.loc 1 2256 3 view .LVU1448
 5725              		.loc 1 2256 9 is_stmt 0 view .LVU1449
 5726 0006 0123     		movs	r3, #1
 5727 0008 01AA     		add	r2, sp, #4
 5728 000a 3121     		movs	r1, #49
 5729              	.LVL391:
 5730              		.loc 1 2256 9 view .LVU1450
 5731 000c FFF7FEFF 		bl	lis2dw12_read_reg
 5732              	.LVL392:
2257:Drivers/BSP/Components/lis2dw12/lis2dw12_reg.c ****   *val = reg.tap_thsy;
 5733              		.loc 1 2257 3 is_stmt 1 view .LVU1451
 5734              		.loc 1 2257 13 is_stmt 0 view .LVU1452
 5735 0010 9DF80430 		ldrb	r3, [sp, #4]	@ zero_extendqisi2
 5736 0014 C3F30403 		ubfx	r3, r3, #0, #5
 5737              		.loc 1 2257 8 view .LVU1453
 5738 0018 2370     		strb	r3, [r4]
2258:Drivers/BSP/Components/lis2dw12/lis2dw12_reg.c **** 
2259:Drivers/BSP/Components/lis2dw12/lis2dw12_reg.c ****   return ret;
 5739              		.loc 1 2259 3 is_stmt 1 view .LVU1454
2260:Drivers/BSP/Components/lis2dw12/lis2dw12_reg.c **** }
 5740              		.loc 1 2260 1 is_stmt 0 view .LVU1455
 5741 001a 02B0     		add	sp, sp, #8
 5742              	.LCFI234:
 5743              		.cfi_def_cfa_offset 8
 5744              		@ sp needed
 5745 001c 10BD     		pop	{r4, pc}
 5746              		.loc 1 2260 1 view .LVU1456
 5747              		.cfi_endproc
 5748              	.LFE80:
 5750              		.section	.text.lis2dw12_tap_axis_priority_set,"ax",%progbits
 5751              		.align	1
 5752              		.global	lis2dw12_tap_axis_priority_set
 5753              		.syntax unified
 5754              		.thumb
 5755              		.thumb_func
 5756              		.fpu fpv4-sp-d16
 5758              	lis2dw12_tap_axis_priority_set:
 5759              	.LVL393:
 5760              	.LFB81:
ARM GAS  /tmp/ccEdQILT.s 			page 148


2261:Drivers/BSP/Components/lis2dw12/lis2dw12_reg.c **** 
2262:Drivers/BSP/Components/lis2dw12/lis2dw12_reg.c **** /**
2263:Drivers/BSP/Components/lis2dw12/lis2dw12_reg.c ****   * @brief  Selection of axis priority for TAP detection.[set]
2264:Drivers/BSP/Components/lis2dw12/lis2dw12_reg.c ****   *
2265:Drivers/BSP/Components/lis2dw12/lis2dw12_reg.c ****   * @param  ctx      read / write interface definitions
2266:Drivers/BSP/Components/lis2dw12/lis2dw12_reg.c ****   * @param  val      change the values of tap_prior in reg TAP_THS_Y
2267:Drivers/BSP/Components/lis2dw12/lis2dw12_reg.c ****   * @retval          interface status (MANDATORY: return 0 -> no Error)
2268:Drivers/BSP/Components/lis2dw12/lis2dw12_reg.c ****   *
2269:Drivers/BSP/Components/lis2dw12/lis2dw12_reg.c ****   */
2270:Drivers/BSP/Components/lis2dw12/lis2dw12_reg.c **** int32_t lis2dw12_tap_axis_priority_set(stmdev_ctx_t *ctx,
2271:Drivers/BSP/Components/lis2dw12/lis2dw12_reg.c ****                                        lis2dw12_tap_prior_t val)
2272:Drivers/BSP/Components/lis2dw12/lis2dw12_reg.c **** {
 5761              		.loc 1 2272 1 is_stmt 1 view -0
 5762              		.cfi_startproc
 5763              		@ args = 0, pretend = 0, frame = 8
 5764              		@ frame_needed = 0, uses_anonymous_args = 0
 5765              		.loc 1 2272 1 is_stmt 0 view .LVU1458
 5766 0000 30B5     		push	{r4, r5, lr}
 5767              	.LCFI235:
 5768              		.cfi_def_cfa_offset 12
 5769              		.cfi_offset 4, -12
 5770              		.cfi_offset 5, -8
 5771              		.cfi_offset 14, -4
 5772 0002 83B0     		sub	sp, sp, #12
 5773              	.LCFI236:
 5774              		.cfi_def_cfa_offset 24
 5775 0004 0446     		mov	r4, r0
 5776 0006 0D46     		mov	r5, r1
2273:Drivers/BSP/Components/lis2dw12/lis2dw12_reg.c ****   lis2dw12_tap_ths_y_t reg;
 5777              		.loc 1 2273 3 is_stmt 1 view .LVU1459
2274:Drivers/BSP/Components/lis2dw12/lis2dw12_reg.c ****   int32_t ret;
 5778              		.loc 1 2274 3 view .LVU1460
2275:Drivers/BSP/Components/lis2dw12/lis2dw12_reg.c **** 
2276:Drivers/BSP/Components/lis2dw12/lis2dw12_reg.c ****   ret = lis2dw12_read_reg(ctx, LIS2DW12_TAP_THS_Y, (uint8_t *) &reg, 1);
 5779              		.loc 1 2276 3 view .LVU1461
 5780              		.loc 1 2276 9 is_stmt 0 view .LVU1462
 5781 0008 0123     		movs	r3, #1
 5782 000a 01AA     		add	r2, sp, #4
 5783 000c 3121     		movs	r1, #49
 5784              	.LVL394:
 5785              		.loc 1 2276 9 view .LVU1463
 5786 000e FFF7FEFF 		bl	lis2dw12_read_reg
 5787              	.LVL395:
2277:Drivers/BSP/Components/lis2dw12/lis2dw12_reg.c **** 
2278:Drivers/BSP/Components/lis2dw12/lis2dw12_reg.c ****   if (ret == 0)
 5788              		.loc 1 2278 3 is_stmt 1 view .LVU1464
 5789              		.loc 1 2278 6 is_stmt 0 view .LVU1465
 5790 0012 08B1     		cbz	r0, .L373
 5791              	.LVL396:
 5792              	.L370:
2279:Drivers/BSP/Components/lis2dw12/lis2dw12_reg.c ****   {
2280:Drivers/BSP/Components/lis2dw12/lis2dw12_reg.c ****     reg.tap_prior = (uint8_t) val;
2281:Drivers/BSP/Components/lis2dw12/lis2dw12_reg.c ****     ret = lis2dw12_write_reg(ctx, LIS2DW12_TAP_THS_Y, (uint8_t *) &reg, 1);
2282:Drivers/BSP/Components/lis2dw12/lis2dw12_reg.c ****   }
2283:Drivers/BSP/Components/lis2dw12/lis2dw12_reg.c **** 
2284:Drivers/BSP/Components/lis2dw12/lis2dw12_reg.c ****   return ret;
2285:Drivers/BSP/Components/lis2dw12/lis2dw12_reg.c **** }
ARM GAS  /tmp/ccEdQILT.s 			page 149


 5793              		.loc 1 2285 1 view .LVU1466
 5794 0014 03B0     		add	sp, sp, #12
 5795              	.LCFI237:
 5796              		.cfi_remember_state
 5797              		.cfi_def_cfa_offset 12
 5798              		@ sp needed
 5799 0016 30BD     		pop	{r4, r5, pc}
 5800              	.LVL397:
 5801              	.L373:
 5802              	.LCFI238:
 5803              		.cfi_restore_state
2280:Drivers/BSP/Components/lis2dw12/lis2dw12_reg.c ****     ret = lis2dw12_write_reg(ctx, LIS2DW12_TAP_THS_Y, (uint8_t *) &reg, 1);
 5804              		.loc 1 2280 5 is_stmt 1 view .LVU1467
2280:Drivers/BSP/Components/lis2dw12/lis2dw12_reg.c ****     ret = lis2dw12_write_reg(ctx, LIS2DW12_TAP_THS_Y, (uint8_t *) &reg, 1);
 5805              		.loc 1 2280 19 is_stmt 0 view .LVU1468
 5806 0018 9DF80430 		ldrb	r3, [sp, #4]	@ zero_extendqisi2
 5807 001c 65F34713 		bfi	r3, r5, #5, #3
 5808 0020 8DF80430 		strb	r3, [sp, #4]
2281:Drivers/BSP/Components/lis2dw12/lis2dw12_reg.c ****   }
 5809              		.loc 1 2281 5 is_stmt 1 view .LVU1469
2281:Drivers/BSP/Components/lis2dw12/lis2dw12_reg.c ****   }
 5810              		.loc 1 2281 11 is_stmt 0 view .LVU1470
 5811 0024 0123     		movs	r3, #1
 5812              	.LVL398:
2281:Drivers/BSP/Components/lis2dw12/lis2dw12_reg.c ****   }
 5813              		.loc 1 2281 11 view .LVU1471
 5814 0026 01AA     		add	r2, sp, #4
 5815 0028 3121     		movs	r1, #49
 5816 002a 2046     		mov	r0, r4
 5817 002c FFF7FEFF 		bl	lis2dw12_write_reg
 5818              	.LVL399:
2284:Drivers/BSP/Components/lis2dw12/lis2dw12_reg.c **** }
 5819              		.loc 1 2284 3 is_stmt 1 view .LVU1472
2284:Drivers/BSP/Components/lis2dw12/lis2dw12_reg.c **** }
 5820              		.loc 1 2284 10 is_stmt 0 view .LVU1473
 5821 0030 F0E7     		b	.L370
 5822              		.cfi_endproc
 5823              	.LFE81:
 5825              		.section	.text.lis2dw12_tap_axis_priority_get,"ax",%progbits
 5826              		.align	1
 5827              		.global	lis2dw12_tap_axis_priority_get
 5828              		.syntax unified
 5829              		.thumb
 5830              		.thumb_func
 5831              		.fpu fpv4-sp-d16
 5833              	lis2dw12_tap_axis_priority_get:
 5834              	.LVL400:
 5835              	.LFB82:
2286:Drivers/BSP/Components/lis2dw12/lis2dw12_reg.c **** 
2287:Drivers/BSP/Components/lis2dw12/lis2dw12_reg.c **** /**
2288:Drivers/BSP/Components/lis2dw12/lis2dw12_reg.c ****   * @brief  Selection of axis priority for TAP detection.[get]
2289:Drivers/BSP/Components/lis2dw12/lis2dw12_reg.c ****   *
2290:Drivers/BSP/Components/lis2dw12/lis2dw12_reg.c ****   * @param  ctx      read / write interface definitions
2291:Drivers/BSP/Components/lis2dw12/lis2dw12_reg.c ****   * @param  val      Get the values of tap_prior in reg TAP_THS_Y
2292:Drivers/BSP/Components/lis2dw12/lis2dw12_reg.c ****   * @retval          interface status (MANDATORY: return 0 -> no Error)
2293:Drivers/BSP/Components/lis2dw12/lis2dw12_reg.c ****   *
2294:Drivers/BSP/Components/lis2dw12/lis2dw12_reg.c ****   */
ARM GAS  /tmp/ccEdQILT.s 			page 150


2295:Drivers/BSP/Components/lis2dw12/lis2dw12_reg.c **** int32_t lis2dw12_tap_axis_priority_get(stmdev_ctx_t *ctx,
2296:Drivers/BSP/Components/lis2dw12/lis2dw12_reg.c ****                                        lis2dw12_tap_prior_t *val)
2297:Drivers/BSP/Components/lis2dw12/lis2dw12_reg.c **** {
 5836              		.loc 1 2297 1 is_stmt 1 view -0
 5837              		.cfi_startproc
 5838              		@ args = 0, pretend = 0, frame = 8
 5839              		@ frame_needed = 0, uses_anonymous_args = 0
 5840              		.loc 1 2297 1 is_stmt 0 view .LVU1475
 5841 0000 10B5     		push	{r4, lr}
 5842              	.LCFI239:
 5843              		.cfi_def_cfa_offset 8
 5844              		.cfi_offset 4, -8
 5845              		.cfi_offset 14, -4
 5846 0002 82B0     		sub	sp, sp, #8
 5847              	.LCFI240:
 5848              		.cfi_def_cfa_offset 16
 5849 0004 0C46     		mov	r4, r1
2298:Drivers/BSP/Components/lis2dw12/lis2dw12_reg.c ****   lis2dw12_tap_ths_y_t reg;
 5850              		.loc 1 2298 3 is_stmt 1 view .LVU1476
2299:Drivers/BSP/Components/lis2dw12/lis2dw12_reg.c ****   int32_t ret;
 5851              		.loc 1 2299 3 view .LVU1477
2300:Drivers/BSP/Components/lis2dw12/lis2dw12_reg.c **** 
2301:Drivers/BSP/Components/lis2dw12/lis2dw12_reg.c ****   ret = lis2dw12_read_reg(ctx, LIS2DW12_TAP_THS_Y, (uint8_t *) &reg, 1);
 5852              		.loc 1 2301 3 view .LVU1478
 5853              		.loc 1 2301 9 is_stmt 0 view .LVU1479
 5854 0006 0123     		movs	r3, #1
 5855 0008 01AA     		add	r2, sp, #4
 5856 000a 3121     		movs	r1, #49
 5857              	.LVL401:
 5858              		.loc 1 2301 9 view .LVU1480
 5859 000c FFF7FEFF 		bl	lis2dw12_read_reg
 5860              	.LVL402:
2302:Drivers/BSP/Components/lis2dw12/lis2dw12_reg.c **** 
2303:Drivers/BSP/Components/lis2dw12/lis2dw12_reg.c ****   switch (reg.tap_prior)
 5861              		.loc 1 2303 3 is_stmt 1 view .LVU1481
 5862              		.loc 1 2303 14 is_stmt 0 view .LVU1482
 5863 0010 9DF80430 		ldrb	r3, [sp, #4]	@ zero_extendqisi2
 5864 0014 5B09     		lsrs	r3, r3, #5
 5865              		.loc 1 2303 3 view .LVU1483
 5866 0016 062B     		cmp	r3, #6
 5867 0018 18D8     		bhi	.L375
 5868 001a DFE803F0 		tbb	[pc, r3]
 5869              	.L377:
 5870 001e 04       		.byte	(.L382-.L377)/2
 5871 001f 08       		.byte	(.L381-.L377)/2
 5872 0020 0B       		.byte	(.L380-.L377)/2
 5873 0021 0E       		.byte	(.L379-.L377)/2
 5874 0022 17       		.byte	(.L375-.L377)/2
 5875 0023 11       		.byte	(.L378-.L377)/2
 5876 0024 14       		.byte	(.L376-.L377)/2
 5877 0025 00       		.p2align 1
 5878              	.L382:
2304:Drivers/BSP/Components/lis2dw12/lis2dw12_reg.c ****   {
2305:Drivers/BSP/Components/lis2dw12/lis2dw12_reg.c ****     case LIS2DW12_XYZ:
2306:Drivers/BSP/Components/lis2dw12/lis2dw12_reg.c ****       *val = LIS2DW12_XYZ;
 5879              		.loc 1 2306 7 is_stmt 1 view .LVU1484
 5880              		.loc 1 2306 12 is_stmt 0 view .LVU1485
ARM GAS  /tmp/ccEdQILT.s 			page 151


 5881 0026 0023     		movs	r3, #0
 5882 0028 2370     		strb	r3, [r4]
2307:Drivers/BSP/Components/lis2dw12/lis2dw12_reg.c ****       break;
 5883              		.loc 1 2307 7 is_stmt 1 view .LVU1486
 5884              	.L374:
2308:Drivers/BSP/Components/lis2dw12/lis2dw12_reg.c **** 
2309:Drivers/BSP/Components/lis2dw12/lis2dw12_reg.c ****     case LIS2DW12_YXZ:
2310:Drivers/BSP/Components/lis2dw12/lis2dw12_reg.c ****       *val = LIS2DW12_YXZ;
2311:Drivers/BSP/Components/lis2dw12/lis2dw12_reg.c ****       break;
2312:Drivers/BSP/Components/lis2dw12/lis2dw12_reg.c **** 
2313:Drivers/BSP/Components/lis2dw12/lis2dw12_reg.c ****     case LIS2DW12_XZY:
2314:Drivers/BSP/Components/lis2dw12/lis2dw12_reg.c ****       *val = LIS2DW12_XZY;
2315:Drivers/BSP/Components/lis2dw12/lis2dw12_reg.c ****       break;
2316:Drivers/BSP/Components/lis2dw12/lis2dw12_reg.c **** 
2317:Drivers/BSP/Components/lis2dw12/lis2dw12_reg.c ****     case LIS2DW12_ZYX:
2318:Drivers/BSP/Components/lis2dw12/lis2dw12_reg.c ****       *val = LIS2DW12_ZYX;
2319:Drivers/BSP/Components/lis2dw12/lis2dw12_reg.c ****       break;
2320:Drivers/BSP/Components/lis2dw12/lis2dw12_reg.c **** 
2321:Drivers/BSP/Components/lis2dw12/lis2dw12_reg.c ****     case LIS2DW12_YZX:
2322:Drivers/BSP/Components/lis2dw12/lis2dw12_reg.c ****       *val = LIS2DW12_YZX;
2323:Drivers/BSP/Components/lis2dw12/lis2dw12_reg.c ****       break;
2324:Drivers/BSP/Components/lis2dw12/lis2dw12_reg.c **** 
2325:Drivers/BSP/Components/lis2dw12/lis2dw12_reg.c ****     case LIS2DW12_ZXY:
2326:Drivers/BSP/Components/lis2dw12/lis2dw12_reg.c ****       *val = LIS2DW12_ZXY;
2327:Drivers/BSP/Components/lis2dw12/lis2dw12_reg.c ****       break;
2328:Drivers/BSP/Components/lis2dw12/lis2dw12_reg.c **** 
2329:Drivers/BSP/Components/lis2dw12/lis2dw12_reg.c ****     default:
2330:Drivers/BSP/Components/lis2dw12/lis2dw12_reg.c ****       *val = LIS2DW12_XYZ;
2331:Drivers/BSP/Components/lis2dw12/lis2dw12_reg.c ****       break;
2332:Drivers/BSP/Components/lis2dw12/lis2dw12_reg.c ****   }
2333:Drivers/BSP/Components/lis2dw12/lis2dw12_reg.c **** 
2334:Drivers/BSP/Components/lis2dw12/lis2dw12_reg.c ****   return ret;
2335:Drivers/BSP/Components/lis2dw12/lis2dw12_reg.c **** }
 5885              		.loc 1 2335 1 is_stmt 0 view .LVU1487
 5886 002a 02B0     		add	sp, sp, #8
 5887              	.LCFI241:
 5888              		.cfi_remember_state
 5889              		.cfi_def_cfa_offset 8
 5890              		@ sp needed
 5891 002c 10BD     		pop	{r4, pc}
 5892              	.LVL403:
 5893              	.L381:
 5894              	.LCFI242:
 5895              		.cfi_restore_state
2310:Drivers/BSP/Components/lis2dw12/lis2dw12_reg.c ****       break;
 5896              		.loc 1 2310 7 is_stmt 1 view .LVU1488
2310:Drivers/BSP/Components/lis2dw12/lis2dw12_reg.c ****       break;
 5897              		.loc 1 2310 12 is_stmt 0 view .LVU1489
 5898 002e 0123     		movs	r3, #1
 5899 0030 2370     		strb	r3, [r4]
2311:Drivers/BSP/Components/lis2dw12/lis2dw12_reg.c **** 
 5900              		.loc 1 2311 7 is_stmt 1 view .LVU1490
 5901 0032 FAE7     		b	.L374
 5902              	.L380:
2314:Drivers/BSP/Components/lis2dw12/lis2dw12_reg.c ****       break;
 5903              		.loc 1 2314 7 view .LVU1491
2314:Drivers/BSP/Components/lis2dw12/lis2dw12_reg.c ****       break;
ARM GAS  /tmp/ccEdQILT.s 			page 152


 5904              		.loc 1 2314 12 is_stmt 0 view .LVU1492
 5905 0034 0223     		movs	r3, #2
 5906 0036 2370     		strb	r3, [r4]
2315:Drivers/BSP/Components/lis2dw12/lis2dw12_reg.c **** 
 5907              		.loc 1 2315 7 is_stmt 1 view .LVU1493
 5908 0038 F7E7     		b	.L374
 5909              	.L379:
2318:Drivers/BSP/Components/lis2dw12/lis2dw12_reg.c ****       break;
 5910              		.loc 1 2318 7 view .LVU1494
2318:Drivers/BSP/Components/lis2dw12/lis2dw12_reg.c ****       break;
 5911              		.loc 1 2318 12 is_stmt 0 view .LVU1495
 5912 003a 0323     		movs	r3, #3
 5913 003c 2370     		strb	r3, [r4]
2319:Drivers/BSP/Components/lis2dw12/lis2dw12_reg.c **** 
 5914              		.loc 1 2319 7 is_stmt 1 view .LVU1496
 5915 003e F4E7     		b	.L374
 5916              	.L378:
2322:Drivers/BSP/Components/lis2dw12/lis2dw12_reg.c ****       break;
 5917              		.loc 1 2322 7 view .LVU1497
2322:Drivers/BSP/Components/lis2dw12/lis2dw12_reg.c ****       break;
 5918              		.loc 1 2322 12 is_stmt 0 view .LVU1498
 5919 0040 0523     		movs	r3, #5
 5920 0042 2370     		strb	r3, [r4]
2323:Drivers/BSP/Components/lis2dw12/lis2dw12_reg.c **** 
 5921              		.loc 1 2323 7 is_stmt 1 view .LVU1499
 5922 0044 F1E7     		b	.L374
 5923              	.L376:
2326:Drivers/BSP/Components/lis2dw12/lis2dw12_reg.c ****       break;
 5924              		.loc 1 2326 7 view .LVU1500
2326:Drivers/BSP/Components/lis2dw12/lis2dw12_reg.c ****       break;
 5925              		.loc 1 2326 12 is_stmt 0 view .LVU1501
 5926 0046 0623     		movs	r3, #6
 5927 0048 2370     		strb	r3, [r4]
2327:Drivers/BSP/Components/lis2dw12/lis2dw12_reg.c **** 
 5928              		.loc 1 2327 7 is_stmt 1 view .LVU1502
 5929 004a EEE7     		b	.L374
 5930              	.L375:
2330:Drivers/BSP/Components/lis2dw12/lis2dw12_reg.c ****       break;
 5931              		.loc 1 2330 7 view .LVU1503
2330:Drivers/BSP/Components/lis2dw12/lis2dw12_reg.c ****       break;
 5932              		.loc 1 2330 12 is_stmt 0 view .LVU1504
 5933 004c 0023     		movs	r3, #0
 5934 004e 2370     		strb	r3, [r4]
2331:Drivers/BSP/Components/lis2dw12/lis2dw12_reg.c ****   }
 5935              		.loc 1 2331 7 is_stmt 1 view .LVU1505
2334:Drivers/BSP/Components/lis2dw12/lis2dw12_reg.c **** }
 5936              		.loc 1 2334 3 view .LVU1506
2334:Drivers/BSP/Components/lis2dw12/lis2dw12_reg.c **** }
 5937              		.loc 1 2334 10 is_stmt 0 view .LVU1507
 5938 0050 EBE7     		b	.L374
 5939              		.cfi_endproc
 5940              	.LFE82:
 5942              		.section	.text.lis2dw12_tap_threshold_z_set,"ax",%progbits
 5943              		.align	1
 5944              		.global	lis2dw12_tap_threshold_z_set
 5945              		.syntax unified
 5946              		.thumb
ARM GAS  /tmp/ccEdQILT.s 			page 153


 5947              		.thumb_func
 5948              		.fpu fpv4-sp-d16
 5950              	lis2dw12_tap_threshold_z_set:
 5951              	.LVL404:
 5952              	.LFB83:
2336:Drivers/BSP/Components/lis2dw12/lis2dw12_reg.c **** 
2337:Drivers/BSP/Components/lis2dw12/lis2dw12_reg.c **** /**
2338:Drivers/BSP/Components/lis2dw12/lis2dw12_reg.c ****   * @brief  Threshold for tap recognition.[set]
2339:Drivers/BSP/Components/lis2dw12/lis2dw12_reg.c ****   *
2340:Drivers/BSP/Components/lis2dw12/lis2dw12_reg.c ****   * @param  ctx      read / write interface definitions
2341:Drivers/BSP/Components/lis2dw12/lis2dw12_reg.c ****   * @param  val      change the values of tap_thsz in reg TAP_THS_Z
2342:Drivers/BSP/Components/lis2dw12/lis2dw12_reg.c ****   * @retval          interface status (MANDATORY: return 0 -> no Error)
2343:Drivers/BSP/Components/lis2dw12/lis2dw12_reg.c ****   *
2344:Drivers/BSP/Components/lis2dw12/lis2dw12_reg.c ****   */
2345:Drivers/BSP/Components/lis2dw12/lis2dw12_reg.c **** int32_t lis2dw12_tap_threshold_z_set(stmdev_ctx_t *ctx, uint8_t val)
2346:Drivers/BSP/Components/lis2dw12/lis2dw12_reg.c **** {
 5953              		.loc 1 2346 1 is_stmt 1 view -0
 5954              		.cfi_startproc
 5955              		@ args = 0, pretend = 0, frame = 8
 5956              		@ frame_needed = 0, uses_anonymous_args = 0
 5957              		.loc 1 2346 1 is_stmt 0 view .LVU1509
 5958 0000 30B5     		push	{r4, r5, lr}
 5959              	.LCFI243:
 5960              		.cfi_def_cfa_offset 12
 5961              		.cfi_offset 4, -12
 5962              		.cfi_offset 5, -8
 5963              		.cfi_offset 14, -4
 5964 0002 83B0     		sub	sp, sp, #12
 5965              	.LCFI244:
 5966              		.cfi_def_cfa_offset 24
 5967 0004 0446     		mov	r4, r0
 5968 0006 0D46     		mov	r5, r1
2347:Drivers/BSP/Components/lis2dw12/lis2dw12_reg.c ****   lis2dw12_tap_ths_z_t reg;
 5969              		.loc 1 2347 3 is_stmt 1 view .LVU1510
2348:Drivers/BSP/Components/lis2dw12/lis2dw12_reg.c ****   int32_t ret;
 5970              		.loc 1 2348 3 view .LVU1511
2349:Drivers/BSP/Components/lis2dw12/lis2dw12_reg.c **** 
2350:Drivers/BSP/Components/lis2dw12/lis2dw12_reg.c ****   ret = lis2dw12_read_reg(ctx, LIS2DW12_TAP_THS_Z, (uint8_t *) &reg, 1);
 5971              		.loc 1 2350 3 view .LVU1512
 5972              		.loc 1 2350 9 is_stmt 0 view .LVU1513
 5973 0008 0123     		movs	r3, #1
 5974 000a 01AA     		add	r2, sp, #4
 5975 000c 3221     		movs	r1, #50
 5976              	.LVL405:
 5977              		.loc 1 2350 9 view .LVU1514
 5978 000e FFF7FEFF 		bl	lis2dw12_read_reg
 5979              	.LVL406:
2351:Drivers/BSP/Components/lis2dw12/lis2dw12_reg.c **** 
2352:Drivers/BSP/Components/lis2dw12/lis2dw12_reg.c ****   if (ret == 0)
 5980              		.loc 1 2352 3 is_stmt 1 view .LVU1515
 5981              		.loc 1 2352 6 is_stmt 0 view .LVU1516
 5982 0012 08B1     		cbz	r0, .L388
 5983              	.LVL407:
 5984              	.L385:
2353:Drivers/BSP/Components/lis2dw12/lis2dw12_reg.c ****   {
2354:Drivers/BSP/Components/lis2dw12/lis2dw12_reg.c ****     reg.tap_thsz = val;
2355:Drivers/BSP/Components/lis2dw12/lis2dw12_reg.c ****     ret = lis2dw12_write_reg(ctx, LIS2DW12_TAP_THS_Z, (uint8_t *) &reg, 1);
ARM GAS  /tmp/ccEdQILT.s 			page 154


2356:Drivers/BSP/Components/lis2dw12/lis2dw12_reg.c ****   }
2357:Drivers/BSP/Components/lis2dw12/lis2dw12_reg.c **** 
2358:Drivers/BSP/Components/lis2dw12/lis2dw12_reg.c ****   return ret;
2359:Drivers/BSP/Components/lis2dw12/lis2dw12_reg.c **** }
 5985              		.loc 1 2359 1 view .LVU1517
 5986 0014 03B0     		add	sp, sp, #12
 5987              	.LCFI245:
 5988              		.cfi_remember_state
 5989              		.cfi_def_cfa_offset 12
 5990              		@ sp needed
 5991 0016 30BD     		pop	{r4, r5, pc}
 5992              	.LVL408:
 5993              	.L388:
 5994              	.LCFI246:
 5995              		.cfi_restore_state
2354:Drivers/BSP/Components/lis2dw12/lis2dw12_reg.c ****     ret = lis2dw12_write_reg(ctx, LIS2DW12_TAP_THS_Z, (uint8_t *) &reg, 1);
 5996              		.loc 1 2354 5 is_stmt 1 view .LVU1518
2354:Drivers/BSP/Components/lis2dw12/lis2dw12_reg.c ****     ret = lis2dw12_write_reg(ctx, LIS2DW12_TAP_THS_Z, (uint8_t *) &reg, 1);
 5997              		.loc 1 2354 18 is_stmt 0 view .LVU1519
 5998 0018 9DF80430 		ldrb	r3, [sp, #4]	@ zero_extendqisi2
 5999 001c 65F30403 		bfi	r3, r5, #0, #5
 6000 0020 8DF80430 		strb	r3, [sp, #4]
2355:Drivers/BSP/Components/lis2dw12/lis2dw12_reg.c ****   }
 6001              		.loc 1 2355 5 is_stmt 1 view .LVU1520
2355:Drivers/BSP/Components/lis2dw12/lis2dw12_reg.c ****   }
 6002              		.loc 1 2355 11 is_stmt 0 view .LVU1521
 6003 0024 0123     		movs	r3, #1
 6004              	.LVL409:
2355:Drivers/BSP/Components/lis2dw12/lis2dw12_reg.c ****   }
 6005              		.loc 1 2355 11 view .LVU1522
 6006 0026 01AA     		add	r2, sp, #4
 6007 0028 3221     		movs	r1, #50
 6008 002a 2046     		mov	r0, r4
 6009 002c FFF7FEFF 		bl	lis2dw12_write_reg
 6010              	.LVL410:
2358:Drivers/BSP/Components/lis2dw12/lis2dw12_reg.c **** }
 6011              		.loc 1 2358 3 is_stmt 1 view .LVU1523
2358:Drivers/BSP/Components/lis2dw12/lis2dw12_reg.c **** }
 6012              		.loc 1 2358 10 is_stmt 0 view .LVU1524
 6013 0030 F0E7     		b	.L385
 6014              		.cfi_endproc
 6015              	.LFE83:
 6017              		.section	.text.lis2dw12_tap_threshold_z_get,"ax",%progbits
 6018              		.align	1
 6019              		.global	lis2dw12_tap_threshold_z_get
 6020              		.syntax unified
 6021              		.thumb
 6022              		.thumb_func
 6023              		.fpu fpv4-sp-d16
 6025              	lis2dw12_tap_threshold_z_get:
 6026              	.LVL411:
 6027              	.LFB84:
2360:Drivers/BSP/Components/lis2dw12/lis2dw12_reg.c **** 
2361:Drivers/BSP/Components/lis2dw12/lis2dw12_reg.c **** /**
2362:Drivers/BSP/Components/lis2dw12/lis2dw12_reg.c ****   * @brief  Threshold for tap recognition.[get]
2363:Drivers/BSP/Components/lis2dw12/lis2dw12_reg.c ****   *
2364:Drivers/BSP/Components/lis2dw12/lis2dw12_reg.c ****   * @param  ctx      read / write interface definitions
ARM GAS  /tmp/ccEdQILT.s 			page 155


2365:Drivers/BSP/Components/lis2dw12/lis2dw12_reg.c ****   * @param  val      change the values of tap_thsz in reg TAP_THS_Z
2366:Drivers/BSP/Components/lis2dw12/lis2dw12_reg.c ****   * @retval          interface status (MANDATORY: return 0 -> no Error)
2367:Drivers/BSP/Components/lis2dw12/lis2dw12_reg.c ****   *
2368:Drivers/BSP/Components/lis2dw12/lis2dw12_reg.c ****   */
2369:Drivers/BSP/Components/lis2dw12/lis2dw12_reg.c **** int32_t lis2dw12_tap_threshold_z_get(stmdev_ctx_t *ctx, uint8_t *val)
2370:Drivers/BSP/Components/lis2dw12/lis2dw12_reg.c **** {
 6028              		.loc 1 2370 1 is_stmt 1 view -0
 6029              		.cfi_startproc
 6030              		@ args = 0, pretend = 0, frame = 8
 6031              		@ frame_needed = 0, uses_anonymous_args = 0
 6032              		.loc 1 2370 1 is_stmt 0 view .LVU1526
 6033 0000 10B5     		push	{r4, lr}
 6034              	.LCFI247:
 6035              		.cfi_def_cfa_offset 8
 6036              		.cfi_offset 4, -8
 6037              		.cfi_offset 14, -4
 6038 0002 82B0     		sub	sp, sp, #8
 6039              	.LCFI248:
 6040              		.cfi_def_cfa_offset 16
 6041 0004 0C46     		mov	r4, r1
2371:Drivers/BSP/Components/lis2dw12/lis2dw12_reg.c ****   lis2dw12_tap_ths_z_t reg;
 6042              		.loc 1 2371 3 is_stmt 1 view .LVU1527
2372:Drivers/BSP/Components/lis2dw12/lis2dw12_reg.c ****   int32_t ret;
 6043              		.loc 1 2372 3 view .LVU1528
2373:Drivers/BSP/Components/lis2dw12/lis2dw12_reg.c **** 
2374:Drivers/BSP/Components/lis2dw12/lis2dw12_reg.c ****   ret = lis2dw12_read_reg(ctx, LIS2DW12_TAP_THS_Z, (uint8_t *) &reg, 1);
 6044              		.loc 1 2374 3 view .LVU1529
 6045              		.loc 1 2374 9 is_stmt 0 view .LVU1530
 6046 0006 0123     		movs	r3, #1
 6047 0008 01AA     		add	r2, sp, #4
 6048 000a 3221     		movs	r1, #50
 6049              	.LVL412:
 6050              		.loc 1 2374 9 view .LVU1531
 6051 000c FFF7FEFF 		bl	lis2dw12_read_reg
 6052              	.LVL413:
2375:Drivers/BSP/Components/lis2dw12/lis2dw12_reg.c ****   *val = reg.tap_thsz;
 6053              		.loc 1 2375 3 is_stmt 1 view .LVU1532
 6054              		.loc 1 2375 13 is_stmt 0 view .LVU1533
 6055 0010 9DF80430 		ldrb	r3, [sp, #4]	@ zero_extendqisi2
 6056 0014 C3F30403 		ubfx	r3, r3, #0, #5
 6057              		.loc 1 2375 8 view .LVU1534
 6058 0018 2370     		strb	r3, [r4]
2376:Drivers/BSP/Components/lis2dw12/lis2dw12_reg.c **** 
2377:Drivers/BSP/Components/lis2dw12/lis2dw12_reg.c ****   return ret;
 6059              		.loc 1 2377 3 is_stmt 1 view .LVU1535
2378:Drivers/BSP/Components/lis2dw12/lis2dw12_reg.c **** }
 6060              		.loc 1 2378 1 is_stmt 0 view .LVU1536
 6061 001a 02B0     		add	sp, sp, #8
 6062              	.LCFI249:
 6063              		.cfi_def_cfa_offset 8
 6064              		@ sp needed
 6065 001c 10BD     		pop	{r4, pc}
 6066              		.loc 1 2378 1 view .LVU1537
 6067              		.cfi_endproc
 6068              	.LFE84:
 6070              		.section	.text.lis2dw12_tap_detection_on_z_set,"ax",%progbits
 6071              		.align	1
ARM GAS  /tmp/ccEdQILT.s 			page 156


 6072              		.global	lis2dw12_tap_detection_on_z_set
 6073              		.syntax unified
 6074              		.thumb
 6075              		.thumb_func
 6076              		.fpu fpv4-sp-d16
 6078              	lis2dw12_tap_detection_on_z_set:
 6079              	.LVL414:
 6080              	.LFB85:
2379:Drivers/BSP/Components/lis2dw12/lis2dw12_reg.c **** 
2380:Drivers/BSP/Components/lis2dw12/lis2dw12_reg.c **** /**
2381:Drivers/BSP/Components/lis2dw12/lis2dw12_reg.c ****   * @brief  Enable Z direction in tap recognition.[set]
2382:Drivers/BSP/Components/lis2dw12/lis2dw12_reg.c ****   *
2383:Drivers/BSP/Components/lis2dw12/lis2dw12_reg.c ****   * @param  ctx      read / write interface definitions
2384:Drivers/BSP/Components/lis2dw12/lis2dw12_reg.c ****   * @param  val      change the values of tap_z_en in reg TAP_THS_Z
2385:Drivers/BSP/Components/lis2dw12/lis2dw12_reg.c ****   * @retval          interface status (MANDATORY: return 0 -> no Error)
2386:Drivers/BSP/Components/lis2dw12/lis2dw12_reg.c ****   *
2387:Drivers/BSP/Components/lis2dw12/lis2dw12_reg.c ****   */
2388:Drivers/BSP/Components/lis2dw12/lis2dw12_reg.c **** int32_t lis2dw12_tap_detection_on_z_set(stmdev_ctx_t *ctx,
2389:Drivers/BSP/Components/lis2dw12/lis2dw12_reg.c ****                                         uint8_t val)
2390:Drivers/BSP/Components/lis2dw12/lis2dw12_reg.c **** {
 6081              		.loc 1 2390 1 is_stmt 1 view -0
 6082              		.cfi_startproc
 6083              		@ args = 0, pretend = 0, frame = 8
 6084              		@ frame_needed = 0, uses_anonymous_args = 0
 6085              		.loc 1 2390 1 is_stmt 0 view .LVU1539
 6086 0000 30B5     		push	{r4, r5, lr}
 6087              	.LCFI250:
 6088              		.cfi_def_cfa_offset 12
 6089              		.cfi_offset 4, -12
 6090              		.cfi_offset 5, -8
 6091              		.cfi_offset 14, -4
 6092 0002 83B0     		sub	sp, sp, #12
 6093              	.LCFI251:
 6094              		.cfi_def_cfa_offset 24
 6095 0004 0446     		mov	r4, r0
 6096 0006 0D46     		mov	r5, r1
2391:Drivers/BSP/Components/lis2dw12/lis2dw12_reg.c ****   lis2dw12_tap_ths_z_t reg;
 6097              		.loc 1 2391 3 is_stmt 1 view .LVU1540
2392:Drivers/BSP/Components/lis2dw12/lis2dw12_reg.c ****   int32_t ret;
 6098              		.loc 1 2392 3 view .LVU1541
2393:Drivers/BSP/Components/lis2dw12/lis2dw12_reg.c **** 
2394:Drivers/BSP/Components/lis2dw12/lis2dw12_reg.c ****   ret = lis2dw12_read_reg(ctx, LIS2DW12_TAP_THS_Z, (uint8_t *) &reg, 1);
 6099              		.loc 1 2394 3 view .LVU1542
 6100              		.loc 1 2394 9 is_stmt 0 view .LVU1543
 6101 0008 0123     		movs	r3, #1
 6102 000a 01AA     		add	r2, sp, #4
 6103 000c 3221     		movs	r1, #50
 6104              	.LVL415:
 6105              		.loc 1 2394 9 view .LVU1544
 6106 000e FFF7FEFF 		bl	lis2dw12_read_reg
 6107              	.LVL416:
2395:Drivers/BSP/Components/lis2dw12/lis2dw12_reg.c **** 
2396:Drivers/BSP/Components/lis2dw12/lis2dw12_reg.c ****   if (ret == 0)
 6108              		.loc 1 2396 3 is_stmt 1 view .LVU1545
 6109              		.loc 1 2396 6 is_stmt 0 view .LVU1546
 6110 0012 08B1     		cbz	r0, .L394
 6111              	.LVL417:
ARM GAS  /tmp/ccEdQILT.s 			page 157


 6112              	.L391:
2397:Drivers/BSP/Components/lis2dw12/lis2dw12_reg.c ****   {
2398:Drivers/BSP/Components/lis2dw12/lis2dw12_reg.c ****     reg.tap_z_en = val;
2399:Drivers/BSP/Components/lis2dw12/lis2dw12_reg.c ****     ret = lis2dw12_write_reg(ctx, LIS2DW12_TAP_THS_Z, (uint8_t *) &reg, 1);
2400:Drivers/BSP/Components/lis2dw12/lis2dw12_reg.c ****   }
2401:Drivers/BSP/Components/lis2dw12/lis2dw12_reg.c **** 
2402:Drivers/BSP/Components/lis2dw12/lis2dw12_reg.c ****   return ret;
2403:Drivers/BSP/Components/lis2dw12/lis2dw12_reg.c **** }
 6113              		.loc 1 2403 1 view .LVU1547
 6114 0014 03B0     		add	sp, sp, #12
 6115              	.LCFI252:
 6116              		.cfi_remember_state
 6117              		.cfi_def_cfa_offset 12
 6118              		@ sp needed
 6119 0016 30BD     		pop	{r4, r5, pc}
 6120              	.LVL418:
 6121              	.L394:
 6122              	.LCFI253:
 6123              		.cfi_restore_state
2398:Drivers/BSP/Components/lis2dw12/lis2dw12_reg.c ****     ret = lis2dw12_write_reg(ctx, LIS2DW12_TAP_THS_Z, (uint8_t *) &reg, 1);
 6124              		.loc 1 2398 5 is_stmt 1 view .LVU1548
2398:Drivers/BSP/Components/lis2dw12/lis2dw12_reg.c ****     ret = lis2dw12_write_reg(ctx, LIS2DW12_TAP_THS_Z, (uint8_t *) &reg, 1);
 6125              		.loc 1 2398 18 is_stmt 0 view .LVU1549
 6126 0018 9DF80430 		ldrb	r3, [sp, #4]	@ zero_extendqisi2
 6127 001c 65F34513 		bfi	r3, r5, #5, #1
 6128 0020 8DF80430 		strb	r3, [sp, #4]
2399:Drivers/BSP/Components/lis2dw12/lis2dw12_reg.c ****   }
 6129              		.loc 1 2399 5 is_stmt 1 view .LVU1550
2399:Drivers/BSP/Components/lis2dw12/lis2dw12_reg.c ****   }
 6130              		.loc 1 2399 11 is_stmt 0 view .LVU1551
 6131 0024 0123     		movs	r3, #1
 6132              	.LVL419:
2399:Drivers/BSP/Components/lis2dw12/lis2dw12_reg.c ****   }
 6133              		.loc 1 2399 11 view .LVU1552
 6134 0026 01AA     		add	r2, sp, #4
 6135 0028 3221     		movs	r1, #50
 6136 002a 2046     		mov	r0, r4
 6137 002c FFF7FEFF 		bl	lis2dw12_write_reg
 6138              	.LVL420:
2402:Drivers/BSP/Components/lis2dw12/lis2dw12_reg.c **** }
 6139              		.loc 1 2402 3 is_stmt 1 view .LVU1553
2402:Drivers/BSP/Components/lis2dw12/lis2dw12_reg.c **** }
 6140              		.loc 1 2402 10 is_stmt 0 view .LVU1554
 6141 0030 F0E7     		b	.L391
 6142              		.cfi_endproc
 6143              	.LFE85:
 6145              		.section	.text.lis2dw12_tap_detection_on_z_get,"ax",%progbits
 6146              		.align	1
 6147              		.global	lis2dw12_tap_detection_on_z_get
 6148              		.syntax unified
 6149              		.thumb
 6150              		.thumb_func
 6151              		.fpu fpv4-sp-d16
 6153              	lis2dw12_tap_detection_on_z_get:
 6154              	.LVL421:
 6155              	.LFB86:
2404:Drivers/BSP/Components/lis2dw12/lis2dw12_reg.c **** 
ARM GAS  /tmp/ccEdQILT.s 			page 158


2405:Drivers/BSP/Components/lis2dw12/lis2dw12_reg.c **** /**
2406:Drivers/BSP/Components/lis2dw12/lis2dw12_reg.c ****   * @brief  Enable Z direction in tap recognition.[get]
2407:Drivers/BSP/Components/lis2dw12/lis2dw12_reg.c ****   *
2408:Drivers/BSP/Components/lis2dw12/lis2dw12_reg.c ****   * @param  ctx      read / write interface definitions
2409:Drivers/BSP/Components/lis2dw12/lis2dw12_reg.c ****   * @param  val      change the values of tap_z_en in reg TAP_THS_Z
2410:Drivers/BSP/Components/lis2dw12/lis2dw12_reg.c ****   * @retval          interface status (MANDATORY: return 0 -> no Error)
2411:Drivers/BSP/Components/lis2dw12/lis2dw12_reg.c ****   *
2412:Drivers/BSP/Components/lis2dw12/lis2dw12_reg.c ****   */
2413:Drivers/BSP/Components/lis2dw12/lis2dw12_reg.c **** int32_t lis2dw12_tap_detection_on_z_get(stmdev_ctx_t *ctx,
2414:Drivers/BSP/Components/lis2dw12/lis2dw12_reg.c ****                                         uint8_t *val)
2415:Drivers/BSP/Components/lis2dw12/lis2dw12_reg.c **** {
 6156              		.loc 1 2415 1 is_stmt 1 view -0
 6157              		.cfi_startproc
 6158              		@ args = 0, pretend = 0, frame = 8
 6159              		@ frame_needed = 0, uses_anonymous_args = 0
 6160              		.loc 1 2415 1 is_stmt 0 view .LVU1556
 6161 0000 10B5     		push	{r4, lr}
 6162              	.LCFI254:
 6163              		.cfi_def_cfa_offset 8
 6164              		.cfi_offset 4, -8
 6165              		.cfi_offset 14, -4
 6166 0002 82B0     		sub	sp, sp, #8
 6167              	.LCFI255:
 6168              		.cfi_def_cfa_offset 16
 6169 0004 0C46     		mov	r4, r1
2416:Drivers/BSP/Components/lis2dw12/lis2dw12_reg.c ****   lis2dw12_tap_ths_z_t reg;
 6170              		.loc 1 2416 3 is_stmt 1 view .LVU1557
2417:Drivers/BSP/Components/lis2dw12/lis2dw12_reg.c ****   int32_t ret;
 6171              		.loc 1 2417 3 view .LVU1558
2418:Drivers/BSP/Components/lis2dw12/lis2dw12_reg.c **** 
2419:Drivers/BSP/Components/lis2dw12/lis2dw12_reg.c ****   ret = lis2dw12_read_reg(ctx, LIS2DW12_TAP_THS_Z, (uint8_t *) &reg, 1);
 6172              		.loc 1 2419 3 view .LVU1559
 6173              		.loc 1 2419 9 is_stmt 0 view .LVU1560
 6174 0006 0123     		movs	r3, #1
 6175 0008 01AA     		add	r2, sp, #4
 6176 000a 3221     		movs	r1, #50
 6177              	.LVL422:
 6178              		.loc 1 2419 9 view .LVU1561
 6179 000c FFF7FEFF 		bl	lis2dw12_read_reg
 6180              	.LVL423:
2420:Drivers/BSP/Components/lis2dw12/lis2dw12_reg.c ****   *val = reg.tap_z_en;
 6181              		.loc 1 2420 3 is_stmt 1 view .LVU1562
 6182              		.loc 1 2420 13 is_stmt 0 view .LVU1563
 6183 0010 9DF80430 		ldrb	r3, [sp, #4]	@ zero_extendqisi2
 6184 0014 C3F34013 		ubfx	r3, r3, #5, #1
 6185              		.loc 1 2420 8 view .LVU1564
 6186 0018 2370     		strb	r3, [r4]
2421:Drivers/BSP/Components/lis2dw12/lis2dw12_reg.c **** 
2422:Drivers/BSP/Components/lis2dw12/lis2dw12_reg.c ****   return ret;
 6187              		.loc 1 2422 3 is_stmt 1 view .LVU1565
2423:Drivers/BSP/Components/lis2dw12/lis2dw12_reg.c **** }
 6188              		.loc 1 2423 1 is_stmt 0 view .LVU1566
 6189 001a 02B0     		add	sp, sp, #8
 6190              	.LCFI256:
 6191              		.cfi_def_cfa_offset 8
 6192              		@ sp needed
 6193 001c 10BD     		pop	{r4, pc}
ARM GAS  /tmp/ccEdQILT.s 			page 159


 6194              		.loc 1 2423 1 view .LVU1567
 6195              		.cfi_endproc
 6196              	.LFE86:
 6198              		.section	.text.lis2dw12_tap_detection_on_y_set,"ax",%progbits
 6199              		.align	1
 6200              		.global	lis2dw12_tap_detection_on_y_set
 6201              		.syntax unified
 6202              		.thumb
 6203              		.thumb_func
 6204              		.fpu fpv4-sp-d16
 6206              	lis2dw12_tap_detection_on_y_set:
 6207              	.LVL424:
 6208              	.LFB87:
2424:Drivers/BSP/Components/lis2dw12/lis2dw12_reg.c **** 
2425:Drivers/BSP/Components/lis2dw12/lis2dw12_reg.c **** /**
2426:Drivers/BSP/Components/lis2dw12/lis2dw12_reg.c ****   * @brief  Enable Y direction in tap recognition.[set]
2427:Drivers/BSP/Components/lis2dw12/lis2dw12_reg.c ****   *
2428:Drivers/BSP/Components/lis2dw12/lis2dw12_reg.c ****   * @param  ctx      read / write interface definitions
2429:Drivers/BSP/Components/lis2dw12/lis2dw12_reg.c ****   * @param  val      change the values of tap_y_en in reg TAP_THS_Z
2430:Drivers/BSP/Components/lis2dw12/lis2dw12_reg.c ****   * @retval          interface status (MANDATORY: return 0 -> no Error)
2431:Drivers/BSP/Components/lis2dw12/lis2dw12_reg.c ****   *
2432:Drivers/BSP/Components/lis2dw12/lis2dw12_reg.c ****   */
2433:Drivers/BSP/Components/lis2dw12/lis2dw12_reg.c **** int32_t lis2dw12_tap_detection_on_y_set(stmdev_ctx_t *ctx,
2434:Drivers/BSP/Components/lis2dw12/lis2dw12_reg.c ****                                         uint8_t val)
2435:Drivers/BSP/Components/lis2dw12/lis2dw12_reg.c **** {
 6209              		.loc 1 2435 1 is_stmt 1 view -0
 6210              		.cfi_startproc
 6211              		@ args = 0, pretend = 0, frame = 8
 6212              		@ frame_needed = 0, uses_anonymous_args = 0
 6213              		.loc 1 2435 1 is_stmt 0 view .LVU1569
 6214 0000 30B5     		push	{r4, r5, lr}
 6215              	.LCFI257:
 6216              		.cfi_def_cfa_offset 12
 6217              		.cfi_offset 4, -12
 6218              		.cfi_offset 5, -8
 6219              		.cfi_offset 14, -4
 6220 0002 83B0     		sub	sp, sp, #12
 6221              	.LCFI258:
 6222              		.cfi_def_cfa_offset 24
 6223 0004 0446     		mov	r4, r0
 6224 0006 0D46     		mov	r5, r1
2436:Drivers/BSP/Components/lis2dw12/lis2dw12_reg.c ****   lis2dw12_tap_ths_z_t reg;
 6225              		.loc 1 2436 3 is_stmt 1 view .LVU1570
2437:Drivers/BSP/Components/lis2dw12/lis2dw12_reg.c ****   int32_t ret;
 6226              		.loc 1 2437 3 view .LVU1571
2438:Drivers/BSP/Components/lis2dw12/lis2dw12_reg.c **** 
2439:Drivers/BSP/Components/lis2dw12/lis2dw12_reg.c ****   ret = lis2dw12_read_reg(ctx, LIS2DW12_TAP_THS_Z, (uint8_t *) &reg, 1);
 6227              		.loc 1 2439 3 view .LVU1572
 6228              		.loc 1 2439 9 is_stmt 0 view .LVU1573
 6229 0008 0123     		movs	r3, #1
 6230 000a 01AA     		add	r2, sp, #4
 6231 000c 3221     		movs	r1, #50
 6232              	.LVL425:
 6233              		.loc 1 2439 9 view .LVU1574
 6234 000e FFF7FEFF 		bl	lis2dw12_read_reg
 6235              	.LVL426:
2440:Drivers/BSP/Components/lis2dw12/lis2dw12_reg.c **** 
ARM GAS  /tmp/ccEdQILT.s 			page 160


2441:Drivers/BSP/Components/lis2dw12/lis2dw12_reg.c ****   if (ret == 0)
 6236              		.loc 1 2441 3 is_stmt 1 view .LVU1575
 6237              		.loc 1 2441 6 is_stmt 0 view .LVU1576
 6238 0012 08B1     		cbz	r0, .L400
 6239              	.LVL427:
 6240              	.L397:
2442:Drivers/BSP/Components/lis2dw12/lis2dw12_reg.c ****   {
2443:Drivers/BSP/Components/lis2dw12/lis2dw12_reg.c ****     reg.tap_y_en = val;
2444:Drivers/BSP/Components/lis2dw12/lis2dw12_reg.c ****     ret = lis2dw12_write_reg(ctx, LIS2DW12_TAP_THS_Z, (uint8_t *) &reg, 1);
2445:Drivers/BSP/Components/lis2dw12/lis2dw12_reg.c ****   }
2446:Drivers/BSP/Components/lis2dw12/lis2dw12_reg.c **** 
2447:Drivers/BSP/Components/lis2dw12/lis2dw12_reg.c ****   return ret;
2448:Drivers/BSP/Components/lis2dw12/lis2dw12_reg.c **** }
 6241              		.loc 1 2448 1 view .LVU1577
 6242 0014 03B0     		add	sp, sp, #12
 6243              	.LCFI259:
 6244              		.cfi_remember_state
 6245              		.cfi_def_cfa_offset 12
 6246              		@ sp needed
 6247 0016 30BD     		pop	{r4, r5, pc}
 6248              	.LVL428:
 6249              	.L400:
 6250              	.LCFI260:
 6251              		.cfi_restore_state
2443:Drivers/BSP/Components/lis2dw12/lis2dw12_reg.c ****     ret = lis2dw12_write_reg(ctx, LIS2DW12_TAP_THS_Z, (uint8_t *) &reg, 1);
 6252              		.loc 1 2443 5 is_stmt 1 view .LVU1578
2443:Drivers/BSP/Components/lis2dw12/lis2dw12_reg.c ****     ret = lis2dw12_write_reg(ctx, LIS2DW12_TAP_THS_Z, (uint8_t *) &reg, 1);
 6253              		.loc 1 2443 18 is_stmt 0 view .LVU1579
 6254 0018 9DF80430 		ldrb	r3, [sp, #4]	@ zero_extendqisi2
 6255 001c 65F38613 		bfi	r3, r5, #6, #1
 6256 0020 8DF80430 		strb	r3, [sp, #4]
2444:Drivers/BSP/Components/lis2dw12/lis2dw12_reg.c ****   }
 6257              		.loc 1 2444 5 is_stmt 1 view .LVU1580
2444:Drivers/BSP/Components/lis2dw12/lis2dw12_reg.c ****   }
 6258              		.loc 1 2444 11 is_stmt 0 view .LVU1581
 6259 0024 0123     		movs	r3, #1
 6260              	.LVL429:
2444:Drivers/BSP/Components/lis2dw12/lis2dw12_reg.c ****   }
 6261              		.loc 1 2444 11 view .LVU1582
 6262 0026 01AA     		add	r2, sp, #4
 6263 0028 3221     		movs	r1, #50
 6264 002a 2046     		mov	r0, r4
 6265 002c FFF7FEFF 		bl	lis2dw12_write_reg
 6266              	.LVL430:
2447:Drivers/BSP/Components/lis2dw12/lis2dw12_reg.c **** }
 6267              		.loc 1 2447 3 is_stmt 1 view .LVU1583
2447:Drivers/BSP/Components/lis2dw12/lis2dw12_reg.c **** }
 6268              		.loc 1 2447 10 is_stmt 0 view .LVU1584
 6269 0030 F0E7     		b	.L397
 6270              		.cfi_endproc
 6271              	.LFE87:
 6273              		.section	.text.lis2dw12_tap_detection_on_y_get,"ax",%progbits
 6274              		.align	1
 6275              		.global	lis2dw12_tap_detection_on_y_get
 6276              		.syntax unified
 6277              		.thumb
 6278              		.thumb_func
ARM GAS  /tmp/ccEdQILT.s 			page 161


 6279              		.fpu fpv4-sp-d16
 6281              	lis2dw12_tap_detection_on_y_get:
 6282              	.LVL431:
 6283              	.LFB88:
2449:Drivers/BSP/Components/lis2dw12/lis2dw12_reg.c **** 
2450:Drivers/BSP/Components/lis2dw12/lis2dw12_reg.c **** /**
2451:Drivers/BSP/Components/lis2dw12/lis2dw12_reg.c ****   * @brief  Enable Y direction in tap recognition.[get]
2452:Drivers/BSP/Components/lis2dw12/lis2dw12_reg.c ****   *
2453:Drivers/BSP/Components/lis2dw12/lis2dw12_reg.c ****   * @param  ctx      read / write interface definitions
2454:Drivers/BSP/Components/lis2dw12/lis2dw12_reg.c ****   * @param  val      change the values of tap_y_en in reg TAP_THS_Z
2455:Drivers/BSP/Components/lis2dw12/lis2dw12_reg.c ****   * @retval          interface status (MANDATORY: return 0 -> no Error)
2456:Drivers/BSP/Components/lis2dw12/lis2dw12_reg.c ****   *
2457:Drivers/BSP/Components/lis2dw12/lis2dw12_reg.c ****   */
2458:Drivers/BSP/Components/lis2dw12/lis2dw12_reg.c **** int32_t lis2dw12_tap_detection_on_y_get(stmdev_ctx_t *ctx,
2459:Drivers/BSP/Components/lis2dw12/lis2dw12_reg.c ****                                         uint8_t *val)
2460:Drivers/BSP/Components/lis2dw12/lis2dw12_reg.c **** {
 6284              		.loc 1 2460 1 is_stmt 1 view -0
 6285              		.cfi_startproc
 6286              		@ args = 0, pretend = 0, frame = 8
 6287              		@ frame_needed = 0, uses_anonymous_args = 0
 6288              		.loc 1 2460 1 is_stmt 0 view .LVU1586
 6289 0000 10B5     		push	{r4, lr}
 6290              	.LCFI261:
 6291              		.cfi_def_cfa_offset 8
 6292              		.cfi_offset 4, -8
 6293              		.cfi_offset 14, -4
 6294 0002 82B0     		sub	sp, sp, #8
 6295              	.LCFI262:
 6296              		.cfi_def_cfa_offset 16
 6297 0004 0C46     		mov	r4, r1
2461:Drivers/BSP/Components/lis2dw12/lis2dw12_reg.c ****   lis2dw12_tap_ths_z_t reg;
 6298              		.loc 1 2461 3 is_stmt 1 view .LVU1587
2462:Drivers/BSP/Components/lis2dw12/lis2dw12_reg.c ****   int32_t ret;
 6299              		.loc 1 2462 3 view .LVU1588
2463:Drivers/BSP/Components/lis2dw12/lis2dw12_reg.c **** 
2464:Drivers/BSP/Components/lis2dw12/lis2dw12_reg.c ****   ret = lis2dw12_read_reg(ctx, LIS2DW12_TAP_THS_Z, (uint8_t *) &reg, 1);
 6300              		.loc 1 2464 3 view .LVU1589
 6301              		.loc 1 2464 9 is_stmt 0 view .LVU1590
 6302 0006 0123     		movs	r3, #1
 6303 0008 01AA     		add	r2, sp, #4
 6304 000a 3221     		movs	r1, #50
 6305              	.LVL432:
 6306              		.loc 1 2464 9 view .LVU1591
 6307 000c FFF7FEFF 		bl	lis2dw12_read_reg
 6308              	.LVL433:
2465:Drivers/BSP/Components/lis2dw12/lis2dw12_reg.c ****   *val = reg.tap_y_en;
 6309              		.loc 1 2465 3 is_stmt 1 view .LVU1592
 6310              		.loc 1 2465 13 is_stmt 0 view .LVU1593
 6311 0010 9DF80430 		ldrb	r3, [sp, #4]	@ zero_extendqisi2
 6312 0014 C3F38013 		ubfx	r3, r3, #6, #1
 6313              		.loc 1 2465 8 view .LVU1594
 6314 0018 2370     		strb	r3, [r4]
2466:Drivers/BSP/Components/lis2dw12/lis2dw12_reg.c **** 
2467:Drivers/BSP/Components/lis2dw12/lis2dw12_reg.c ****   return ret;
 6315              		.loc 1 2467 3 is_stmt 1 view .LVU1595
2468:Drivers/BSP/Components/lis2dw12/lis2dw12_reg.c **** }
 6316              		.loc 1 2468 1 is_stmt 0 view .LVU1596
ARM GAS  /tmp/ccEdQILT.s 			page 162


 6317 001a 02B0     		add	sp, sp, #8
 6318              	.LCFI263:
 6319              		.cfi_def_cfa_offset 8
 6320              		@ sp needed
 6321 001c 10BD     		pop	{r4, pc}
 6322              		.loc 1 2468 1 view .LVU1597
 6323              		.cfi_endproc
 6324              	.LFE88:
 6326              		.section	.text.lis2dw12_tap_detection_on_x_set,"ax",%progbits
 6327              		.align	1
 6328              		.global	lis2dw12_tap_detection_on_x_set
 6329              		.syntax unified
 6330              		.thumb
 6331              		.thumb_func
 6332              		.fpu fpv4-sp-d16
 6334              	lis2dw12_tap_detection_on_x_set:
 6335              	.LVL434:
 6336              	.LFB89:
2469:Drivers/BSP/Components/lis2dw12/lis2dw12_reg.c **** 
2470:Drivers/BSP/Components/lis2dw12/lis2dw12_reg.c **** /**
2471:Drivers/BSP/Components/lis2dw12/lis2dw12_reg.c ****   * @brief  Enable X direction in tap recognition.[set]
2472:Drivers/BSP/Components/lis2dw12/lis2dw12_reg.c ****   *
2473:Drivers/BSP/Components/lis2dw12/lis2dw12_reg.c ****   * @param  ctx      read / write interface definitions
2474:Drivers/BSP/Components/lis2dw12/lis2dw12_reg.c ****   * @param  val      change the values of tap_x_en in reg TAP_THS_Z
2475:Drivers/BSP/Components/lis2dw12/lis2dw12_reg.c ****   * @retval          interface status (MANDATORY: return 0 -> no Error)
2476:Drivers/BSP/Components/lis2dw12/lis2dw12_reg.c ****   *
2477:Drivers/BSP/Components/lis2dw12/lis2dw12_reg.c ****   */
2478:Drivers/BSP/Components/lis2dw12/lis2dw12_reg.c **** int32_t lis2dw12_tap_detection_on_x_set(stmdev_ctx_t *ctx,
2479:Drivers/BSP/Components/lis2dw12/lis2dw12_reg.c ****                                         uint8_t val)
2480:Drivers/BSP/Components/lis2dw12/lis2dw12_reg.c **** {
 6337              		.loc 1 2480 1 is_stmt 1 view -0
 6338              		.cfi_startproc
 6339              		@ args = 0, pretend = 0, frame = 8
 6340              		@ frame_needed = 0, uses_anonymous_args = 0
 6341              		.loc 1 2480 1 is_stmt 0 view .LVU1599
 6342 0000 30B5     		push	{r4, r5, lr}
 6343              	.LCFI264:
 6344              		.cfi_def_cfa_offset 12
 6345              		.cfi_offset 4, -12
 6346              		.cfi_offset 5, -8
 6347              		.cfi_offset 14, -4
 6348 0002 83B0     		sub	sp, sp, #12
 6349              	.LCFI265:
 6350              		.cfi_def_cfa_offset 24
 6351 0004 0446     		mov	r4, r0
 6352 0006 0D46     		mov	r5, r1
2481:Drivers/BSP/Components/lis2dw12/lis2dw12_reg.c ****   lis2dw12_tap_ths_z_t reg;
 6353              		.loc 1 2481 3 is_stmt 1 view .LVU1600
2482:Drivers/BSP/Components/lis2dw12/lis2dw12_reg.c ****   int32_t ret;
 6354              		.loc 1 2482 3 view .LVU1601
2483:Drivers/BSP/Components/lis2dw12/lis2dw12_reg.c **** 
2484:Drivers/BSP/Components/lis2dw12/lis2dw12_reg.c ****   ret = lis2dw12_read_reg(ctx, LIS2DW12_TAP_THS_Z, (uint8_t *) &reg, 1);
 6355              		.loc 1 2484 3 view .LVU1602
 6356              		.loc 1 2484 9 is_stmt 0 view .LVU1603
 6357 0008 0123     		movs	r3, #1
 6358 000a 01AA     		add	r2, sp, #4
 6359 000c 3221     		movs	r1, #50
ARM GAS  /tmp/ccEdQILT.s 			page 163


 6360              	.LVL435:
 6361              		.loc 1 2484 9 view .LVU1604
 6362 000e FFF7FEFF 		bl	lis2dw12_read_reg
 6363              	.LVL436:
2485:Drivers/BSP/Components/lis2dw12/lis2dw12_reg.c **** 
2486:Drivers/BSP/Components/lis2dw12/lis2dw12_reg.c ****   if (ret == 0)
 6364              		.loc 1 2486 3 is_stmt 1 view .LVU1605
 6365              		.loc 1 2486 6 is_stmt 0 view .LVU1606
 6366 0012 08B1     		cbz	r0, .L406
 6367              	.LVL437:
 6368              	.L403:
2487:Drivers/BSP/Components/lis2dw12/lis2dw12_reg.c ****   {
2488:Drivers/BSP/Components/lis2dw12/lis2dw12_reg.c ****     reg.tap_x_en = val;
2489:Drivers/BSP/Components/lis2dw12/lis2dw12_reg.c ****     ret = lis2dw12_write_reg(ctx, LIS2DW12_TAP_THS_Z, (uint8_t *) &reg, 1);
2490:Drivers/BSP/Components/lis2dw12/lis2dw12_reg.c ****   }
2491:Drivers/BSP/Components/lis2dw12/lis2dw12_reg.c **** 
2492:Drivers/BSP/Components/lis2dw12/lis2dw12_reg.c ****   return ret;
2493:Drivers/BSP/Components/lis2dw12/lis2dw12_reg.c **** }
 6369              		.loc 1 2493 1 view .LVU1607
 6370 0014 03B0     		add	sp, sp, #12
 6371              	.LCFI266:
 6372              		.cfi_remember_state
 6373              		.cfi_def_cfa_offset 12
 6374              		@ sp needed
 6375 0016 30BD     		pop	{r4, r5, pc}
 6376              	.LVL438:
 6377              	.L406:
 6378              	.LCFI267:
 6379              		.cfi_restore_state
2488:Drivers/BSP/Components/lis2dw12/lis2dw12_reg.c ****     ret = lis2dw12_write_reg(ctx, LIS2DW12_TAP_THS_Z, (uint8_t *) &reg, 1);
 6380              		.loc 1 2488 5 is_stmt 1 view .LVU1608
2488:Drivers/BSP/Components/lis2dw12/lis2dw12_reg.c ****     ret = lis2dw12_write_reg(ctx, LIS2DW12_TAP_THS_Z, (uint8_t *) &reg, 1);
 6381              		.loc 1 2488 18 is_stmt 0 view .LVU1609
 6382 0018 9DF80430 		ldrb	r3, [sp, #4]	@ zero_extendqisi2
 6383 001c 65F3C713 		bfi	r3, r5, #7, #1
 6384 0020 8DF80430 		strb	r3, [sp, #4]
2489:Drivers/BSP/Components/lis2dw12/lis2dw12_reg.c ****   }
 6385              		.loc 1 2489 5 is_stmt 1 view .LVU1610
2489:Drivers/BSP/Components/lis2dw12/lis2dw12_reg.c ****   }
 6386              		.loc 1 2489 11 is_stmt 0 view .LVU1611
 6387 0024 0123     		movs	r3, #1
 6388              	.LVL439:
2489:Drivers/BSP/Components/lis2dw12/lis2dw12_reg.c ****   }
 6389              		.loc 1 2489 11 view .LVU1612
 6390 0026 01AA     		add	r2, sp, #4
 6391 0028 3221     		movs	r1, #50
 6392 002a 2046     		mov	r0, r4
 6393 002c FFF7FEFF 		bl	lis2dw12_write_reg
 6394              	.LVL440:
2492:Drivers/BSP/Components/lis2dw12/lis2dw12_reg.c **** }
 6395              		.loc 1 2492 3 is_stmt 1 view .LVU1613
2492:Drivers/BSP/Components/lis2dw12/lis2dw12_reg.c **** }
 6396              		.loc 1 2492 10 is_stmt 0 view .LVU1614
 6397 0030 F0E7     		b	.L403
 6398              		.cfi_endproc
 6399              	.LFE89:
 6401              		.section	.text.lis2dw12_tap_detection_on_x_get,"ax",%progbits
ARM GAS  /tmp/ccEdQILT.s 			page 164


 6402              		.align	1
 6403              		.global	lis2dw12_tap_detection_on_x_get
 6404              		.syntax unified
 6405              		.thumb
 6406              		.thumb_func
 6407              		.fpu fpv4-sp-d16
 6409              	lis2dw12_tap_detection_on_x_get:
 6410              	.LVL441:
 6411              	.LFB90:
2494:Drivers/BSP/Components/lis2dw12/lis2dw12_reg.c **** 
2495:Drivers/BSP/Components/lis2dw12/lis2dw12_reg.c **** /**
2496:Drivers/BSP/Components/lis2dw12/lis2dw12_reg.c ****   * @brief  Enable X direction in tap recognition.[get]
2497:Drivers/BSP/Components/lis2dw12/lis2dw12_reg.c ****   *
2498:Drivers/BSP/Components/lis2dw12/lis2dw12_reg.c ****   * @param  ctx      read / write interface definitions
2499:Drivers/BSP/Components/lis2dw12/lis2dw12_reg.c ****   * @param  val      change the values of tap_x_en in reg TAP_THS_Z
2500:Drivers/BSP/Components/lis2dw12/lis2dw12_reg.c ****   * @retval          interface status (MANDATORY: return 0 -> no Error)
2501:Drivers/BSP/Components/lis2dw12/lis2dw12_reg.c ****   *
2502:Drivers/BSP/Components/lis2dw12/lis2dw12_reg.c ****   */
2503:Drivers/BSP/Components/lis2dw12/lis2dw12_reg.c **** int32_t lis2dw12_tap_detection_on_x_get(stmdev_ctx_t *ctx,
2504:Drivers/BSP/Components/lis2dw12/lis2dw12_reg.c ****                                         uint8_t *val)
2505:Drivers/BSP/Components/lis2dw12/lis2dw12_reg.c **** {
 6412              		.loc 1 2505 1 is_stmt 1 view -0
 6413              		.cfi_startproc
 6414              		@ args = 0, pretend = 0, frame = 8
 6415              		@ frame_needed = 0, uses_anonymous_args = 0
 6416              		.loc 1 2505 1 is_stmt 0 view .LVU1616
 6417 0000 10B5     		push	{r4, lr}
 6418              	.LCFI268:
 6419              		.cfi_def_cfa_offset 8
 6420              		.cfi_offset 4, -8
 6421              		.cfi_offset 14, -4
 6422 0002 82B0     		sub	sp, sp, #8
 6423              	.LCFI269:
 6424              		.cfi_def_cfa_offset 16
 6425 0004 0C46     		mov	r4, r1
2506:Drivers/BSP/Components/lis2dw12/lis2dw12_reg.c ****   lis2dw12_tap_ths_z_t reg;
 6426              		.loc 1 2506 3 is_stmt 1 view .LVU1617
2507:Drivers/BSP/Components/lis2dw12/lis2dw12_reg.c ****   int32_t ret;
 6427              		.loc 1 2507 3 view .LVU1618
2508:Drivers/BSP/Components/lis2dw12/lis2dw12_reg.c **** 
2509:Drivers/BSP/Components/lis2dw12/lis2dw12_reg.c ****   ret = lis2dw12_read_reg(ctx, LIS2DW12_TAP_THS_Z, (uint8_t *) &reg, 1);
 6428              		.loc 1 2509 3 view .LVU1619
 6429              		.loc 1 2509 9 is_stmt 0 view .LVU1620
 6430 0006 0123     		movs	r3, #1
 6431 0008 01AA     		add	r2, sp, #4
 6432 000a 3221     		movs	r1, #50
 6433              	.LVL442:
 6434              		.loc 1 2509 9 view .LVU1621
 6435 000c FFF7FEFF 		bl	lis2dw12_read_reg
 6436              	.LVL443:
2510:Drivers/BSP/Components/lis2dw12/lis2dw12_reg.c ****   *val = reg.tap_x_en;
 6437              		.loc 1 2510 3 is_stmt 1 view .LVU1622
 6438              		.loc 1 2510 13 is_stmt 0 view .LVU1623
 6439 0010 9DF80430 		ldrb	r3, [sp, #4]	@ zero_extendqisi2
 6440 0014 C3F3C013 		ubfx	r3, r3, #7, #1
 6441              		.loc 1 2510 8 view .LVU1624
 6442 0018 2370     		strb	r3, [r4]
ARM GAS  /tmp/ccEdQILT.s 			page 165


2511:Drivers/BSP/Components/lis2dw12/lis2dw12_reg.c **** 
2512:Drivers/BSP/Components/lis2dw12/lis2dw12_reg.c ****   return ret;
 6443              		.loc 1 2512 3 is_stmt 1 view .LVU1625
2513:Drivers/BSP/Components/lis2dw12/lis2dw12_reg.c **** }
 6444              		.loc 1 2513 1 is_stmt 0 view .LVU1626
 6445 001a 02B0     		add	sp, sp, #8
 6446              	.LCFI270:
 6447              		.cfi_def_cfa_offset 8
 6448              		@ sp needed
 6449 001c 10BD     		pop	{r4, pc}
 6450              		.loc 1 2513 1 view .LVU1627
 6451              		.cfi_endproc
 6452              	.LFE90:
 6454              		.section	.text.lis2dw12_tap_shock_set,"ax",%progbits
 6455              		.align	1
 6456              		.global	lis2dw12_tap_shock_set
 6457              		.syntax unified
 6458              		.thumb
 6459              		.thumb_func
 6460              		.fpu fpv4-sp-d16
 6462              	lis2dw12_tap_shock_set:
 6463              	.LVL444:
 6464              	.LFB91:
2514:Drivers/BSP/Components/lis2dw12/lis2dw12_reg.c **** 
2515:Drivers/BSP/Components/lis2dw12/lis2dw12_reg.c **** /**
2516:Drivers/BSP/Components/lis2dw12/lis2dw12_reg.c ****   * @brief  Maximum duration is the maximum time of an overthreshold signal
2517:Drivers/BSP/Components/lis2dw12/lis2dw12_reg.c ****   *         detection to be recognized as a tap event. The default value
2518:Drivers/BSP/Components/lis2dw12/lis2dw12_reg.c ****   *         of these bits is 00b which corresponds to 4*ODR_XL time.
2519:Drivers/BSP/Components/lis2dw12/lis2dw12_reg.c ****   *         If the SHOCK[1:0] bits are set to a different value, 1LSB
2520:Drivers/BSP/Components/lis2dw12/lis2dw12_reg.c ****   *         corresponds to 8*ODR_XL time.[set]
2521:Drivers/BSP/Components/lis2dw12/lis2dw12_reg.c ****   *
2522:Drivers/BSP/Components/lis2dw12/lis2dw12_reg.c ****   * @param  ctx      read / write interface definitions
2523:Drivers/BSP/Components/lis2dw12/lis2dw12_reg.c ****   * @param  val      change the values of shock in reg INT_DUR
2524:Drivers/BSP/Components/lis2dw12/lis2dw12_reg.c ****   * @retval          interface status (MANDATORY: return 0 -> no Error)
2525:Drivers/BSP/Components/lis2dw12/lis2dw12_reg.c ****   *
2526:Drivers/BSP/Components/lis2dw12/lis2dw12_reg.c ****   */
2527:Drivers/BSP/Components/lis2dw12/lis2dw12_reg.c **** int32_t lis2dw12_tap_shock_set(stmdev_ctx_t *ctx, uint8_t val)
2528:Drivers/BSP/Components/lis2dw12/lis2dw12_reg.c **** {
 6465              		.loc 1 2528 1 is_stmt 1 view -0
 6466              		.cfi_startproc
 6467              		@ args = 0, pretend = 0, frame = 8
 6468              		@ frame_needed = 0, uses_anonymous_args = 0
 6469              		.loc 1 2528 1 is_stmt 0 view .LVU1629
 6470 0000 30B5     		push	{r4, r5, lr}
 6471              	.LCFI271:
 6472              		.cfi_def_cfa_offset 12
 6473              		.cfi_offset 4, -12
 6474              		.cfi_offset 5, -8
 6475              		.cfi_offset 14, -4
 6476 0002 83B0     		sub	sp, sp, #12
 6477              	.LCFI272:
 6478              		.cfi_def_cfa_offset 24
 6479 0004 0446     		mov	r4, r0
 6480 0006 0D46     		mov	r5, r1
2529:Drivers/BSP/Components/lis2dw12/lis2dw12_reg.c ****   lis2dw12_int_dur_t reg;
 6481              		.loc 1 2529 3 is_stmt 1 view .LVU1630
2530:Drivers/BSP/Components/lis2dw12/lis2dw12_reg.c ****   int32_t ret;
ARM GAS  /tmp/ccEdQILT.s 			page 166


 6482              		.loc 1 2530 3 view .LVU1631
2531:Drivers/BSP/Components/lis2dw12/lis2dw12_reg.c **** 
2532:Drivers/BSP/Components/lis2dw12/lis2dw12_reg.c ****   ret = lis2dw12_read_reg(ctx, LIS2DW12_INT_DUR, (uint8_t *) &reg, 1);
 6483              		.loc 1 2532 3 view .LVU1632
 6484              		.loc 1 2532 9 is_stmt 0 view .LVU1633
 6485 0008 0123     		movs	r3, #1
 6486 000a 01AA     		add	r2, sp, #4
 6487 000c 3321     		movs	r1, #51
 6488              	.LVL445:
 6489              		.loc 1 2532 9 view .LVU1634
 6490 000e FFF7FEFF 		bl	lis2dw12_read_reg
 6491              	.LVL446:
2533:Drivers/BSP/Components/lis2dw12/lis2dw12_reg.c **** 
2534:Drivers/BSP/Components/lis2dw12/lis2dw12_reg.c ****   if (ret == 0)
 6492              		.loc 1 2534 3 is_stmt 1 view .LVU1635
 6493              		.loc 1 2534 6 is_stmt 0 view .LVU1636
 6494 0012 08B1     		cbz	r0, .L412
 6495              	.LVL447:
 6496              	.L409:
2535:Drivers/BSP/Components/lis2dw12/lis2dw12_reg.c ****   {
2536:Drivers/BSP/Components/lis2dw12/lis2dw12_reg.c ****     reg.shock = val;
2537:Drivers/BSP/Components/lis2dw12/lis2dw12_reg.c ****     ret = lis2dw12_write_reg(ctx, LIS2DW12_INT_DUR, (uint8_t *) &reg, 1);
2538:Drivers/BSP/Components/lis2dw12/lis2dw12_reg.c ****   }
2539:Drivers/BSP/Components/lis2dw12/lis2dw12_reg.c **** 
2540:Drivers/BSP/Components/lis2dw12/lis2dw12_reg.c ****   return ret;
2541:Drivers/BSP/Components/lis2dw12/lis2dw12_reg.c **** }
 6497              		.loc 1 2541 1 view .LVU1637
 6498 0014 03B0     		add	sp, sp, #12
 6499              	.LCFI273:
 6500              		.cfi_remember_state
 6501              		.cfi_def_cfa_offset 12
 6502              		@ sp needed
 6503 0016 30BD     		pop	{r4, r5, pc}
 6504              	.LVL448:
 6505              	.L412:
 6506              	.LCFI274:
 6507              		.cfi_restore_state
2536:Drivers/BSP/Components/lis2dw12/lis2dw12_reg.c ****     ret = lis2dw12_write_reg(ctx, LIS2DW12_INT_DUR, (uint8_t *) &reg, 1);
 6508              		.loc 1 2536 5 is_stmt 1 view .LVU1638
2536:Drivers/BSP/Components/lis2dw12/lis2dw12_reg.c ****     ret = lis2dw12_write_reg(ctx, LIS2DW12_INT_DUR, (uint8_t *) &reg, 1);
 6509              		.loc 1 2536 15 is_stmt 0 view .LVU1639
 6510 0018 9DF80430 		ldrb	r3, [sp, #4]	@ zero_extendqisi2
 6511 001c 65F30103 		bfi	r3, r5, #0, #2
 6512 0020 8DF80430 		strb	r3, [sp, #4]
2537:Drivers/BSP/Components/lis2dw12/lis2dw12_reg.c ****   }
 6513              		.loc 1 2537 5 is_stmt 1 view .LVU1640
2537:Drivers/BSP/Components/lis2dw12/lis2dw12_reg.c ****   }
 6514              		.loc 1 2537 11 is_stmt 0 view .LVU1641
 6515 0024 0123     		movs	r3, #1
 6516              	.LVL449:
2537:Drivers/BSP/Components/lis2dw12/lis2dw12_reg.c ****   }
 6517              		.loc 1 2537 11 view .LVU1642
 6518 0026 01AA     		add	r2, sp, #4
 6519 0028 3321     		movs	r1, #51
 6520 002a 2046     		mov	r0, r4
 6521 002c FFF7FEFF 		bl	lis2dw12_write_reg
 6522              	.LVL450:
ARM GAS  /tmp/ccEdQILT.s 			page 167


2540:Drivers/BSP/Components/lis2dw12/lis2dw12_reg.c **** }
 6523              		.loc 1 2540 3 is_stmt 1 view .LVU1643
2540:Drivers/BSP/Components/lis2dw12/lis2dw12_reg.c **** }
 6524              		.loc 1 2540 10 is_stmt 0 view .LVU1644
 6525 0030 F0E7     		b	.L409
 6526              		.cfi_endproc
 6527              	.LFE91:
 6529              		.section	.text.lis2dw12_tap_shock_get,"ax",%progbits
 6530              		.align	1
 6531              		.global	lis2dw12_tap_shock_get
 6532              		.syntax unified
 6533              		.thumb
 6534              		.thumb_func
 6535              		.fpu fpv4-sp-d16
 6537              	lis2dw12_tap_shock_get:
 6538              	.LVL451:
 6539              	.LFB92:
2542:Drivers/BSP/Components/lis2dw12/lis2dw12_reg.c **** 
2543:Drivers/BSP/Components/lis2dw12/lis2dw12_reg.c **** /**
2544:Drivers/BSP/Components/lis2dw12/lis2dw12_reg.c ****   * @brief  Maximum duration is the maximum time of an overthreshold signal
2545:Drivers/BSP/Components/lis2dw12/lis2dw12_reg.c ****   *         detection to be recognized as a tap event. The default value
2546:Drivers/BSP/Components/lis2dw12/lis2dw12_reg.c ****   *         of these bits is 00b which corresponds to 4*ODR_XL time.
2547:Drivers/BSP/Components/lis2dw12/lis2dw12_reg.c ****   *         If the SHOCK[1:0] bits are set to a different value, 1LSB
2548:Drivers/BSP/Components/lis2dw12/lis2dw12_reg.c ****   *         corresponds to 8*ODR_XL time.[get]
2549:Drivers/BSP/Components/lis2dw12/lis2dw12_reg.c ****   *
2550:Drivers/BSP/Components/lis2dw12/lis2dw12_reg.c ****   * @param  ctx      read / write interface definitions
2551:Drivers/BSP/Components/lis2dw12/lis2dw12_reg.c ****   * @param  val      change the values of shock in reg INT_DUR
2552:Drivers/BSP/Components/lis2dw12/lis2dw12_reg.c ****   * @retval          interface status (MANDATORY: return 0 -> no Error)
2553:Drivers/BSP/Components/lis2dw12/lis2dw12_reg.c ****   *
2554:Drivers/BSP/Components/lis2dw12/lis2dw12_reg.c ****   */
2555:Drivers/BSP/Components/lis2dw12/lis2dw12_reg.c **** int32_t lis2dw12_tap_shock_get(stmdev_ctx_t *ctx, uint8_t *val)
2556:Drivers/BSP/Components/lis2dw12/lis2dw12_reg.c **** {
 6540              		.loc 1 2556 1 is_stmt 1 view -0
 6541              		.cfi_startproc
 6542              		@ args = 0, pretend = 0, frame = 8
 6543              		@ frame_needed = 0, uses_anonymous_args = 0
 6544              		.loc 1 2556 1 is_stmt 0 view .LVU1646
 6545 0000 10B5     		push	{r4, lr}
 6546              	.LCFI275:
 6547              		.cfi_def_cfa_offset 8
 6548              		.cfi_offset 4, -8
 6549              		.cfi_offset 14, -4
 6550 0002 82B0     		sub	sp, sp, #8
 6551              	.LCFI276:
 6552              		.cfi_def_cfa_offset 16
 6553 0004 0C46     		mov	r4, r1
2557:Drivers/BSP/Components/lis2dw12/lis2dw12_reg.c ****   lis2dw12_int_dur_t reg;
 6554              		.loc 1 2557 3 is_stmt 1 view .LVU1647
2558:Drivers/BSP/Components/lis2dw12/lis2dw12_reg.c ****   int32_t ret;
 6555              		.loc 1 2558 3 view .LVU1648
2559:Drivers/BSP/Components/lis2dw12/lis2dw12_reg.c **** 
2560:Drivers/BSP/Components/lis2dw12/lis2dw12_reg.c ****   ret = lis2dw12_read_reg(ctx, LIS2DW12_INT_DUR, (uint8_t *) &reg, 1);
 6556              		.loc 1 2560 3 view .LVU1649
 6557              		.loc 1 2560 9 is_stmt 0 view .LVU1650
 6558 0006 0123     		movs	r3, #1
 6559 0008 01AA     		add	r2, sp, #4
 6560 000a 3321     		movs	r1, #51
ARM GAS  /tmp/ccEdQILT.s 			page 168


 6561              	.LVL452:
 6562              		.loc 1 2560 9 view .LVU1651
 6563 000c FFF7FEFF 		bl	lis2dw12_read_reg
 6564              	.LVL453:
2561:Drivers/BSP/Components/lis2dw12/lis2dw12_reg.c ****   *val = reg.shock;
 6565              		.loc 1 2561 3 is_stmt 1 view .LVU1652
 6566              		.loc 1 2561 13 is_stmt 0 view .LVU1653
 6567 0010 9DF80430 		ldrb	r3, [sp, #4]	@ zero_extendqisi2
 6568 0014 C3F30103 		ubfx	r3, r3, #0, #2
 6569              		.loc 1 2561 8 view .LVU1654
 6570 0018 2370     		strb	r3, [r4]
2562:Drivers/BSP/Components/lis2dw12/lis2dw12_reg.c **** 
2563:Drivers/BSP/Components/lis2dw12/lis2dw12_reg.c ****   return ret;
 6571              		.loc 1 2563 3 is_stmt 1 view .LVU1655
2564:Drivers/BSP/Components/lis2dw12/lis2dw12_reg.c **** }
 6572              		.loc 1 2564 1 is_stmt 0 view .LVU1656
 6573 001a 02B0     		add	sp, sp, #8
 6574              	.LCFI277:
 6575              		.cfi_def_cfa_offset 8
 6576              		@ sp needed
 6577 001c 10BD     		pop	{r4, pc}
 6578              		.loc 1 2564 1 view .LVU1657
 6579              		.cfi_endproc
 6580              	.LFE92:
 6582              		.section	.text.lis2dw12_tap_quiet_set,"ax",%progbits
 6583              		.align	1
 6584              		.global	lis2dw12_tap_quiet_set
 6585              		.syntax unified
 6586              		.thumb
 6587              		.thumb_func
 6588              		.fpu fpv4-sp-d16
 6590              	lis2dw12_tap_quiet_set:
 6591              	.LVL454:
 6592              	.LFB93:
2565:Drivers/BSP/Components/lis2dw12/lis2dw12_reg.c **** 
2566:Drivers/BSP/Components/lis2dw12/lis2dw12_reg.c **** /**
2567:Drivers/BSP/Components/lis2dw12/lis2dw12_reg.c ****   * @brief  Quiet time is the time after the first detected tap in which
2568:Drivers/BSP/Components/lis2dw12/lis2dw12_reg.c ****   *         there must not be any overthreshold event.
2569:Drivers/BSP/Components/lis2dw12/lis2dw12_reg.c ****   *         The default value of these bits is 00b which corresponds
2570:Drivers/BSP/Components/lis2dw12/lis2dw12_reg.c ****   *         to 2*ODR_XL time. If the QUIET[1:0] bits are set to a different
2571:Drivers/BSP/Components/lis2dw12/lis2dw12_reg.c ****   *         value, 1LSB corresponds to 4*ODR_XL time.[set]
2572:Drivers/BSP/Components/lis2dw12/lis2dw12_reg.c ****   *
2573:Drivers/BSP/Components/lis2dw12/lis2dw12_reg.c ****   * @param  ctx      read / write interface definitions
2574:Drivers/BSP/Components/lis2dw12/lis2dw12_reg.c ****   * @param  val      change the values of quiet in reg INT_DUR
2575:Drivers/BSP/Components/lis2dw12/lis2dw12_reg.c ****   * @retval          interface status (MANDATORY: return 0 -> no Error)
2576:Drivers/BSP/Components/lis2dw12/lis2dw12_reg.c ****   *
2577:Drivers/BSP/Components/lis2dw12/lis2dw12_reg.c ****   */
2578:Drivers/BSP/Components/lis2dw12/lis2dw12_reg.c **** int32_t lis2dw12_tap_quiet_set(stmdev_ctx_t *ctx, uint8_t val)
2579:Drivers/BSP/Components/lis2dw12/lis2dw12_reg.c **** {
 6593              		.loc 1 2579 1 is_stmt 1 view -0
 6594              		.cfi_startproc
 6595              		@ args = 0, pretend = 0, frame = 8
 6596              		@ frame_needed = 0, uses_anonymous_args = 0
 6597              		.loc 1 2579 1 is_stmt 0 view .LVU1659
 6598 0000 30B5     		push	{r4, r5, lr}
 6599              	.LCFI278:
 6600              		.cfi_def_cfa_offset 12
ARM GAS  /tmp/ccEdQILT.s 			page 169


 6601              		.cfi_offset 4, -12
 6602              		.cfi_offset 5, -8
 6603              		.cfi_offset 14, -4
 6604 0002 83B0     		sub	sp, sp, #12
 6605              	.LCFI279:
 6606              		.cfi_def_cfa_offset 24
 6607 0004 0446     		mov	r4, r0
 6608 0006 0D46     		mov	r5, r1
2580:Drivers/BSP/Components/lis2dw12/lis2dw12_reg.c ****   lis2dw12_int_dur_t reg;
 6609              		.loc 1 2580 3 is_stmt 1 view .LVU1660
2581:Drivers/BSP/Components/lis2dw12/lis2dw12_reg.c ****   int32_t ret;
 6610              		.loc 1 2581 3 view .LVU1661
2582:Drivers/BSP/Components/lis2dw12/lis2dw12_reg.c **** 
2583:Drivers/BSP/Components/lis2dw12/lis2dw12_reg.c ****   ret = lis2dw12_read_reg(ctx, LIS2DW12_INT_DUR, (uint8_t *) &reg, 1);
 6611              		.loc 1 2583 3 view .LVU1662
 6612              		.loc 1 2583 9 is_stmt 0 view .LVU1663
 6613 0008 0123     		movs	r3, #1
 6614 000a 01AA     		add	r2, sp, #4
 6615 000c 3321     		movs	r1, #51
 6616              	.LVL455:
 6617              		.loc 1 2583 9 view .LVU1664
 6618 000e FFF7FEFF 		bl	lis2dw12_read_reg
 6619              	.LVL456:
2584:Drivers/BSP/Components/lis2dw12/lis2dw12_reg.c **** 
2585:Drivers/BSP/Components/lis2dw12/lis2dw12_reg.c ****   if (ret == 0)
 6620              		.loc 1 2585 3 is_stmt 1 view .LVU1665
 6621              		.loc 1 2585 6 is_stmt 0 view .LVU1666
 6622 0012 08B1     		cbz	r0, .L418
 6623              	.LVL457:
 6624              	.L415:
2586:Drivers/BSP/Components/lis2dw12/lis2dw12_reg.c ****   {
2587:Drivers/BSP/Components/lis2dw12/lis2dw12_reg.c ****     reg.quiet = val;
2588:Drivers/BSP/Components/lis2dw12/lis2dw12_reg.c ****     ret = lis2dw12_write_reg(ctx, LIS2DW12_INT_DUR, (uint8_t *) &reg, 1);
2589:Drivers/BSP/Components/lis2dw12/lis2dw12_reg.c ****   }
2590:Drivers/BSP/Components/lis2dw12/lis2dw12_reg.c **** 
2591:Drivers/BSP/Components/lis2dw12/lis2dw12_reg.c ****   return ret;
2592:Drivers/BSP/Components/lis2dw12/lis2dw12_reg.c **** }
 6625              		.loc 1 2592 1 view .LVU1667
 6626 0014 03B0     		add	sp, sp, #12
 6627              	.LCFI280:
 6628              		.cfi_remember_state
 6629              		.cfi_def_cfa_offset 12
 6630              		@ sp needed
 6631 0016 30BD     		pop	{r4, r5, pc}
 6632              	.LVL458:
 6633              	.L418:
 6634              	.LCFI281:
 6635              		.cfi_restore_state
2587:Drivers/BSP/Components/lis2dw12/lis2dw12_reg.c ****     ret = lis2dw12_write_reg(ctx, LIS2DW12_INT_DUR, (uint8_t *) &reg, 1);
 6636              		.loc 1 2587 5 is_stmt 1 view .LVU1668
2587:Drivers/BSP/Components/lis2dw12/lis2dw12_reg.c ****     ret = lis2dw12_write_reg(ctx, LIS2DW12_INT_DUR, (uint8_t *) &reg, 1);
 6637              		.loc 1 2587 15 is_stmt 0 view .LVU1669
 6638 0018 9DF80430 		ldrb	r3, [sp, #4]	@ zero_extendqisi2
 6639 001c 65F38303 		bfi	r3, r5, #2, #2
 6640 0020 8DF80430 		strb	r3, [sp, #4]
2588:Drivers/BSP/Components/lis2dw12/lis2dw12_reg.c ****   }
 6641              		.loc 1 2588 5 is_stmt 1 view .LVU1670
ARM GAS  /tmp/ccEdQILT.s 			page 170


2588:Drivers/BSP/Components/lis2dw12/lis2dw12_reg.c ****   }
 6642              		.loc 1 2588 11 is_stmt 0 view .LVU1671
 6643 0024 0123     		movs	r3, #1
 6644              	.LVL459:
2588:Drivers/BSP/Components/lis2dw12/lis2dw12_reg.c ****   }
 6645              		.loc 1 2588 11 view .LVU1672
 6646 0026 01AA     		add	r2, sp, #4
 6647 0028 3321     		movs	r1, #51
 6648 002a 2046     		mov	r0, r4
 6649 002c FFF7FEFF 		bl	lis2dw12_write_reg
 6650              	.LVL460:
2591:Drivers/BSP/Components/lis2dw12/lis2dw12_reg.c **** }
 6651              		.loc 1 2591 3 is_stmt 1 view .LVU1673
2591:Drivers/BSP/Components/lis2dw12/lis2dw12_reg.c **** }
 6652              		.loc 1 2591 10 is_stmt 0 view .LVU1674
 6653 0030 F0E7     		b	.L415
 6654              		.cfi_endproc
 6655              	.LFE93:
 6657              		.section	.text.lis2dw12_tap_quiet_get,"ax",%progbits
 6658              		.align	1
 6659              		.global	lis2dw12_tap_quiet_get
 6660              		.syntax unified
 6661              		.thumb
 6662              		.thumb_func
 6663              		.fpu fpv4-sp-d16
 6665              	lis2dw12_tap_quiet_get:
 6666              	.LVL461:
 6667              	.LFB94:
2593:Drivers/BSP/Components/lis2dw12/lis2dw12_reg.c **** 
2594:Drivers/BSP/Components/lis2dw12/lis2dw12_reg.c **** /**
2595:Drivers/BSP/Components/lis2dw12/lis2dw12_reg.c ****   * @brief  Quiet time is the time after the first detected tap in which
2596:Drivers/BSP/Components/lis2dw12/lis2dw12_reg.c ****   *         there must not be any overthreshold event.
2597:Drivers/BSP/Components/lis2dw12/lis2dw12_reg.c ****   *         The default value of these bits is 00b which corresponds
2598:Drivers/BSP/Components/lis2dw12/lis2dw12_reg.c ****   *         to 2*ODR_XL time. If the QUIET[1:0] bits are set to a different
2599:Drivers/BSP/Components/lis2dw12/lis2dw12_reg.c ****   *         value, 1LSB corresponds to 4*ODR_XL time.[get]
2600:Drivers/BSP/Components/lis2dw12/lis2dw12_reg.c ****   *
2601:Drivers/BSP/Components/lis2dw12/lis2dw12_reg.c ****   * @param  ctx      read / write interface definitions
2602:Drivers/BSP/Components/lis2dw12/lis2dw12_reg.c ****   * @param  val      change the values of quiet in reg INT_DUR
2603:Drivers/BSP/Components/lis2dw12/lis2dw12_reg.c ****   * @retval          interface status (MANDATORY: return 0 -> no Error)
2604:Drivers/BSP/Components/lis2dw12/lis2dw12_reg.c ****   *
2605:Drivers/BSP/Components/lis2dw12/lis2dw12_reg.c ****   */
2606:Drivers/BSP/Components/lis2dw12/lis2dw12_reg.c **** int32_t lis2dw12_tap_quiet_get(stmdev_ctx_t *ctx, uint8_t *val)
2607:Drivers/BSP/Components/lis2dw12/lis2dw12_reg.c **** {
 6668              		.loc 1 2607 1 is_stmt 1 view -0
 6669              		.cfi_startproc
 6670              		@ args = 0, pretend = 0, frame = 8
 6671              		@ frame_needed = 0, uses_anonymous_args = 0
 6672              		.loc 1 2607 1 is_stmt 0 view .LVU1676
 6673 0000 10B5     		push	{r4, lr}
 6674              	.LCFI282:
 6675              		.cfi_def_cfa_offset 8
 6676              		.cfi_offset 4, -8
 6677              		.cfi_offset 14, -4
 6678 0002 82B0     		sub	sp, sp, #8
 6679              	.LCFI283:
 6680              		.cfi_def_cfa_offset 16
 6681 0004 0C46     		mov	r4, r1
ARM GAS  /tmp/ccEdQILT.s 			page 171


2608:Drivers/BSP/Components/lis2dw12/lis2dw12_reg.c ****   lis2dw12_int_dur_t reg;
 6682              		.loc 1 2608 3 is_stmt 1 view .LVU1677
2609:Drivers/BSP/Components/lis2dw12/lis2dw12_reg.c ****   int32_t ret;
 6683              		.loc 1 2609 3 view .LVU1678
2610:Drivers/BSP/Components/lis2dw12/lis2dw12_reg.c **** 
2611:Drivers/BSP/Components/lis2dw12/lis2dw12_reg.c ****   ret = lis2dw12_read_reg(ctx, LIS2DW12_INT_DUR, (uint8_t *) &reg, 1);
 6684              		.loc 1 2611 3 view .LVU1679
 6685              		.loc 1 2611 9 is_stmt 0 view .LVU1680
 6686 0006 0123     		movs	r3, #1
 6687 0008 01AA     		add	r2, sp, #4
 6688 000a 3321     		movs	r1, #51
 6689              	.LVL462:
 6690              		.loc 1 2611 9 view .LVU1681
 6691 000c FFF7FEFF 		bl	lis2dw12_read_reg
 6692              	.LVL463:
2612:Drivers/BSP/Components/lis2dw12/lis2dw12_reg.c ****   *val = reg.quiet;
 6693              		.loc 1 2612 3 is_stmt 1 view .LVU1682
 6694              		.loc 1 2612 13 is_stmt 0 view .LVU1683
 6695 0010 9DF80430 		ldrb	r3, [sp, #4]	@ zero_extendqisi2
 6696 0014 C3F38103 		ubfx	r3, r3, #2, #2
 6697              		.loc 1 2612 8 view .LVU1684
 6698 0018 2370     		strb	r3, [r4]
2613:Drivers/BSP/Components/lis2dw12/lis2dw12_reg.c **** 
2614:Drivers/BSP/Components/lis2dw12/lis2dw12_reg.c ****   return ret;
 6699              		.loc 1 2614 3 is_stmt 1 view .LVU1685
2615:Drivers/BSP/Components/lis2dw12/lis2dw12_reg.c **** }
 6700              		.loc 1 2615 1 is_stmt 0 view .LVU1686
 6701 001a 02B0     		add	sp, sp, #8
 6702              	.LCFI284:
 6703              		.cfi_def_cfa_offset 8
 6704              		@ sp needed
 6705 001c 10BD     		pop	{r4, pc}
 6706              		.loc 1 2615 1 view .LVU1687
 6707              		.cfi_endproc
 6708              	.LFE94:
 6710              		.section	.text.lis2dw12_tap_dur_set,"ax",%progbits
 6711              		.align	1
 6712              		.global	lis2dw12_tap_dur_set
 6713              		.syntax unified
 6714              		.thumb
 6715              		.thumb_func
 6716              		.fpu fpv4-sp-d16
 6718              	lis2dw12_tap_dur_set:
 6719              	.LVL464:
 6720              	.LFB95:
2616:Drivers/BSP/Components/lis2dw12/lis2dw12_reg.c **** 
2617:Drivers/BSP/Components/lis2dw12/lis2dw12_reg.c **** /**
2618:Drivers/BSP/Components/lis2dw12/lis2dw12_reg.c ****   * @brief  When double tap recognition is enabled, this register expresses
2619:Drivers/BSP/Components/lis2dw12/lis2dw12_reg.c ****   *         the maximum time between two consecutive detected taps to
2620:Drivers/BSP/Components/lis2dw12/lis2dw12_reg.c ****   *         determine a double tap event.
2621:Drivers/BSP/Components/lis2dw12/lis2dw12_reg.c ****   *         The default value of these bits is 0000b which corresponds
2622:Drivers/BSP/Components/lis2dw12/lis2dw12_reg.c ****   *         to 16*ODR_XL time. If the DUR[3:0] bits are set to a different
2623:Drivers/BSP/Components/lis2dw12/lis2dw12_reg.c ****   *         value, 1LSB corresponds to 32*ODR_XL time.[set]
2624:Drivers/BSP/Components/lis2dw12/lis2dw12_reg.c ****   *
2625:Drivers/BSP/Components/lis2dw12/lis2dw12_reg.c ****   * @param  ctx      read / write interface definitions
2626:Drivers/BSP/Components/lis2dw12/lis2dw12_reg.c ****   * @param  val      change the values of latency in reg INT_DUR
2627:Drivers/BSP/Components/lis2dw12/lis2dw12_reg.c ****   * @retval          interface status (MANDATORY: return 0 -> no Error)
ARM GAS  /tmp/ccEdQILT.s 			page 172


2628:Drivers/BSP/Components/lis2dw12/lis2dw12_reg.c ****   *
2629:Drivers/BSP/Components/lis2dw12/lis2dw12_reg.c ****   */
2630:Drivers/BSP/Components/lis2dw12/lis2dw12_reg.c **** int32_t lis2dw12_tap_dur_set(stmdev_ctx_t *ctx, uint8_t val)
2631:Drivers/BSP/Components/lis2dw12/lis2dw12_reg.c **** {
 6721              		.loc 1 2631 1 is_stmt 1 view -0
 6722              		.cfi_startproc
 6723              		@ args = 0, pretend = 0, frame = 8
 6724              		@ frame_needed = 0, uses_anonymous_args = 0
 6725              		.loc 1 2631 1 is_stmt 0 view .LVU1689
 6726 0000 30B5     		push	{r4, r5, lr}
 6727              	.LCFI285:
 6728              		.cfi_def_cfa_offset 12
 6729              		.cfi_offset 4, -12
 6730              		.cfi_offset 5, -8
 6731              		.cfi_offset 14, -4
 6732 0002 83B0     		sub	sp, sp, #12
 6733              	.LCFI286:
 6734              		.cfi_def_cfa_offset 24
 6735 0004 0446     		mov	r4, r0
 6736 0006 0D46     		mov	r5, r1
2632:Drivers/BSP/Components/lis2dw12/lis2dw12_reg.c ****   lis2dw12_int_dur_t reg;
 6737              		.loc 1 2632 3 is_stmt 1 view .LVU1690
2633:Drivers/BSP/Components/lis2dw12/lis2dw12_reg.c ****   int32_t ret;
 6738              		.loc 1 2633 3 view .LVU1691
2634:Drivers/BSP/Components/lis2dw12/lis2dw12_reg.c **** 
2635:Drivers/BSP/Components/lis2dw12/lis2dw12_reg.c ****   ret = lis2dw12_read_reg(ctx, LIS2DW12_INT_DUR, (uint8_t *) &reg, 1);
 6739              		.loc 1 2635 3 view .LVU1692
 6740              		.loc 1 2635 9 is_stmt 0 view .LVU1693
 6741 0008 0123     		movs	r3, #1
 6742 000a 01AA     		add	r2, sp, #4
 6743 000c 3321     		movs	r1, #51
 6744              	.LVL465:
 6745              		.loc 1 2635 9 view .LVU1694
 6746 000e FFF7FEFF 		bl	lis2dw12_read_reg
 6747              	.LVL466:
2636:Drivers/BSP/Components/lis2dw12/lis2dw12_reg.c **** 
2637:Drivers/BSP/Components/lis2dw12/lis2dw12_reg.c ****   if (ret == 0)
 6748              		.loc 1 2637 3 is_stmt 1 view .LVU1695
 6749              		.loc 1 2637 6 is_stmt 0 view .LVU1696
 6750 0012 08B1     		cbz	r0, .L424
 6751              	.LVL467:
 6752              	.L421:
2638:Drivers/BSP/Components/lis2dw12/lis2dw12_reg.c ****   {
2639:Drivers/BSP/Components/lis2dw12/lis2dw12_reg.c ****     reg.latency = val;
2640:Drivers/BSP/Components/lis2dw12/lis2dw12_reg.c ****     ret = lis2dw12_write_reg(ctx, LIS2DW12_INT_DUR, (uint8_t *) &reg, 1);
2641:Drivers/BSP/Components/lis2dw12/lis2dw12_reg.c ****   }
2642:Drivers/BSP/Components/lis2dw12/lis2dw12_reg.c **** 
2643:Drivers/BSP/Components/lis2dw12/lis2dw12_reg.c ****   return ret;
2644:Drivers/BSP/Components/lis2dw12/lis2dw12_reg.c **** }
 6753              		.loc 1 2644 1 view .LVU1697
 6754 0014 03B0     		add	sp, sp, #12
 6755              	.LCFI287:
 6756              		.cfi_remember_state
 6757              		.cfi_def_cfa_offset 12
 6758              		@ sp needed
 6759 0016 30BD     		pop	{r4, r5, pc}
 6760              	.LVL468:
ARM GAS  /tmp/ccEdQILT.s 			page 173


 6761              	.L424:
 6762              	.LCFI288:
 6763              		.cfi_restore_state
2639:Drivers/BSP/Components/lis2dw12/lis2dw12_reg.c ****     ret = lis2dw12_write_reg(ctx, LIS2DW12_INT_DUR, (uint8_t *) &reg, 1);
 6764              		.loc 1 2639 5 is_stmt 1 view .LVU1698
2639:Drivers/BSP/Components/lis2dw12/lis2dw12_reg.c ****     ret = lis2dw12_write_reg(ctx, LIS2DW12_INT_DUR, (uint8_t *) &reg, 1);
 6765              		.loc 1 2639 17 is_stmt 0 view .LVU1699
 6766 0018 9DF80430 		ldrb	r3, [sp, #4]	@ zero_extendqisi2
 6767 001c 65F30713 		bfi	r3, r5, #4, #4
 6768 0020 8DF80430 		strb	r3, [sp, #4]
2640:Drivers/BSP/Components/lis2dw12/lis2dw12_reg.c ****   }
 6769              		.loc 1 2640 5 is_stmt 1 view .LVU1700
2640:Drivers/BSP/Components/lis2dw12/lis2dw12_reg.c ****   }
 6770              		.loc 1 2640 11 is_stmt 0 view .LVU1701
 6771 0024 0123     		movs	r3, #1
 6772              	.LVL469:
2640:Drivers/BSP/Components/lis2dw12/lis2dw12_reg.c ****   }
 6773              		.loc 1 2640 11 view .LVU1702
 6774 0026 01AA     		add	r2, sp, #4
 6775 0028 3321     		movs	r1, #51
 6776 002a 2046     		mov	r0, r4
 6777 002c FFF7FEFF 		bl	lis2dw12_write_reg
 6778              	.LVL470:
2643:Drivers/BSP/Components/lis2dw12/lis2dw12_reg.c **** }
 6779              		.loc 1 2643 3 is_stmt 1 view .LVU1703
2643:Drivers/BSP/Components/lis2dw12/lis2dw12_reg.c **** }
 6780              		.loc 1 2643 10 is_stmt 0 view .LVU1704
 6781 0030 F0E7     		b	.L421
 6782              		.cfi_endproc
 6783              	.LFE95:
 6785              		.section	.text.lis2dw12_tap_dur_get,"ax",%progbits
 6786              		.align	1
 6787              		.global	lis2dw12_tap_dur_get
 6788              		.syntax unified
 6789              		.thumb
 6790              		.thumb_func
 6791              		.fpu fpv4-sp-d16
 6793              	lis2dw12_tap_dur_get:
 6794              	.LVL471:
 6795              	.LFB96:
2645:Drivers/BSP/Components/lis2dw12/lis2dw12_reg.c **** 
2646:Drivers/BSP/Components/lis2dw12/lis2dw12_reg.c **** /**
2647:Drivers/BSP/Components/lis2dw12/lis2dw12_reg.c ****   * @brief  When double tap recognition is enabled, this register expresses
2648:Drivers/BSP/Components/lis2dw12/lis2dw12_reg.c ****   *         the maximum time between two consecutive detected taps to
2649:Drivers/BSP/Components/lis2dw12/lis2dw12_reg.c ****   *         determine a double tap event.
2650:Drivers/BSP/Components/lis2dw12/lis2dw12_reg.c ****   *         The default value of these bits is 0000b which corresponds
2651:Drivers/BSP/Components/lis2dw12/lis2dw12_reg.c ****   *         to 16*ODR_XL time. If the DUR[3:0] bits are set to a different
2652:Drivers/BSP/Components/lis2dw12/lis2dw12_reg.c ****   *         value, 1LSB corresponds to 32*ODR_XL time.[get]
2653:Drivers/BSP/Components/lis2dw12/lis2dw12_reg.c ****   *
2654:Drivers/BSP/Components/lis2dw12/lis2dw12_reg.c ****   * @param  ctx      read / write interface definitions
2655:Drivers/BSP/Components/lis2dw12/lis2dw12_reg.c ****   * @param  val      change the values of latency in reg INT_DUR
2656:Drivers/BSP/Components/lis2dw12/lis2dw12_reg.c ****   * @retval          interface status (MANDATORY: return 0 -> no Error)
2657:Drivers/BSP/Components/lis2dw12/lis2dw12_reg.c ****   *
2658:Drivers/BSP/Components/lis2dw12/lis2dw12_reg.c ****   */
2659:Drivers/BSP/Components/lis2dw12/lis2dw12_reg.c **** int32_t lis2dw12_tap_dur_get(stmdev_ctx_t *ctx, uint8_t *val)
2660:Drivers/BSP/Components/lis2dw12/lis2dw12_reg.c **** {
 6796              		.loc 1 2660 1 is_stmt 1 view -0
ARM GAS  /tmp/ccEdQILT.s 			page 174


 6797              		.cfi_startproc
 6798              		@ args = 0, pretend = 0, frame = 8
 6799              		@ frame_needed = 0, uses_anonymous_args = 0
 6800              		.loc 1 2660 1 is_stmt 0 view .LVU1706
 6801 0000 10B5     		push	{r4, lr}
 6802              	.LCFI289:
 6803              		.cfi_def_cfa_offset 8
 6804              		.cfi_offset 4, -8
 6805              		.cfi_offset 14, -4
 6806 0002 82B0     		sub	sp, sp, #8
 6807              	.LCFI290:
 6808              		.cfi_def_cfa_offset 16
 6809 0004 0C46     		mov	r4, r1
2661:Drivers/BSP/Components/lis2dw12/lis2dw12_reg.c ****   lis2dw12_int_dur_t reg;
 6810              		.loc 1 2661 3 is_stmt 1 view .LVU1707
2662:Drivers/BSP/Components/lis2dw12/lis2dw12_reg.c ****   int32_t ret;
 6811              		.loc 1 2662 3 view .LVU1708
2663:Drivers/BSP/Components/lis2dw12/lis2dw12_reg.c **** 
2664:Drivers/BSP/Components/lis2dw12/lis2dw12_reg.c ****   ret = lis2dw12_read_reg(ctx, LIS2DW12_INT_DUR, (uint8_t *) &reg, 1);
 6812              		.loc 1 2664 3 view .LVU1709
 6813              		.loc 1 2664 9 is_stmt 0 view .LVU1710
 6814 0006 0123     		movs	r3, #1
 6815 0008 01AA     		add	r2, sp, #4
 6816 000a 3321     		movs	r1, #51
 6817              	.LVL472:
 6818              		.loc 1 2664 9 view .LVU1711
 6819 000c FFF7FEFF 		bl	lis2dw12_read_reg
 6820              	.LVL473:
2665:Drivers/BSP/Components/lis2dw12/lis2dw12_reg.c ****   *val = reg.latency;
 6821              		.loc 1 2665 3 is_stmt 1 view .LVU1712
 6822              		.loc 1 2665 13 is_stmt 0 view .LVU1713
 6823 0010 9DF80430 		ldrb	r3, [sp, #4]	@ zero_extendqisi2
 6824 0014 C3F30313 		ubfx	r3, r3, #4, #4
 6825              		.loc 1 2665 8 view .LVU1714
 6826 0018 2370     		strb	r3, [r4]
2666:Drivers/BSP/Components/lis2dw12/lis2dw12_reg.c **** 
2667:Drivers/BSP/Components/lis2dw12/lis2dw12_reg.c ****   return ret;
 6827              		.loc 1 2667 3 is_stmt 1 view .LVU1715
2668:Drivers/BSP/Components/lis2dw12/lis2dw12_reg.c **** }
 6828              		.loc 1 2668 1 is_stmt 0 view .LVU1716
 6829 001a 02B0     		add	sp, sp, #8
 6830              	.LCFI291:
 6831              		.cfi_def_cfa_offset 8
 6832              		@ sp needed
 6833 001c 10BD     		pop	{r4, pc}
 6834              		.loc 1 2668 1 view .LVU1717
 6835              		.cfi_endproc
 6836              	.LFE96:
 6838              		.section	.text.lis2dw12_tap_mode_set,"ax",%progbits
 6839              		.align	1
 6840              		.global	lis2dw12_tap_mode_set
 6841              		.syntax unified
 6842              		.thumb
 6843              		.thumb_func
 6844              		.fpu fpv4-sp-d16
 6846              	lis2dw12_tap_mode_set:
 6847              	.LVL474:
ARM GAS  /tmp/ccEdQILT.s 			page 175


 6848              	.LFB97:
2669:Drivers/BSP/Components/lis2dw12/lis2dw12_reg.c **** 
2670:Drivers/BSP/Components/lis2dw12/lis2dw12_reg.c **** /**
2671:Drivers/BSP/Components/lis2dw12/lis2dw12_reg.c ****   * @brief  Single/double-tap event enable.[set]
2672:Drivers/BSP/Components/lis2dw12/lis2dw12_reg.c ****   *
2673:Drivers/BSP/Components/lis2dw12/lis2dw12_reg.c ****   * @param  ctx      read / write interface definitions
2674:Drivers/BSP/Components/lis2dw12/lis2dw12_reg.c ****   * @param  val      change the values of single_double_tap in reg WAKE_UP_THS
2675:Drivers/BSP/Components/lis2dw12/lis2dw12_reg.c ****   * @retval          interface status (MANDATORY: return 0 -> no Error)
2676:Drivers/BSP/Components/lis2dw12/lis2dw12_reg.c ****   *
2677:Drivers/BSP/Components/lis2dw12/lis2dw12_reg.c ****   */
2678:Drivers/BSP/Components/lis2dw12/lis2dw12_reg.c **** int32_t lis2dw12_tap_mode_set(stmdev_ctx_t *ctx,
2679:Drivers/BSP/Components/lis2dw12/lis2dw12_reg.c ****                               lis2dw12_single_double_tap_t val)
2680:Drivers/BSP/Components/lis2dw12/lis2dw12_reg.c **** {
 6849              		.loc 1 2680 1 is_stmt 1 view -0
 6850              		.cfi_startproc
 6851              		@ args = 0, pretend = 0, frame = 8
 6852              		@ frame_needed = 0, uses_anonymous_args = 0
 6853              		.loc 1 2680 1 is_stmt 0 view .LVU1719
 6854 0000 30B5     		push	{r4, r5, lr}
 6855              	.LCFI292:
 6856              		.cfi_def_cfa_offset 12
 6857              		.cfi_offset 4, -12
 6858              		.cfi_offset 5, -8
 6859              		.cfi_offset 14, -4
 6860 0002 83B0     		sub	sp, sp, #12
 6861              	.LCFI293:
 6862              		.cfi_def_cfa_offset 24
 6863 0004 0446     		mov	r4, r0
 6864 0006 0D46     		mov	r5, r1
2681:Drivers/BSP/Components/lis2dw12/lis2dw12_reg.c ****   lis2dw12_wake_up_ths_t reg;
 6865              		.loc 1 2681 3 is_stmt 1 view .LVU1720
2682:Drivers/BSP/Components/lis2dw12/lis2dw12_reg.c ****   int32_t ret;
 6866              		.loc 1 2682 3 view .LVU1721
2683:Drivers/BSP/Components/lis2dw12/lis2dw12_reg.c **** 
2684:Drivers/BSP/Components/lis2dw12/lis2dw12_reg.c ****   ret = lis2dw12_read_reg(ctx, LIS2DW12_WAKE_UP_THS, (uint8_t *) &reg, 1);
 6867              		.loc 1 2684 3 view .LVU1722
 6868              		.loc 1 2684 9 is_stmt 0 view .LVU1723
 6869 0008 0123     		movs	r3, #1
 6870 000a 01AA     		add	r2, sp, #4
 6871 000c 3421     		movs	r1, #52
 6872              	.LVL475:
 6873              		.loc 1 2684 9 view .LVU1724
 6874 000e FFF7FEFF 		bl	lis2dw12_read_reg
 6875              	.LVL476:
2685:Drivers/BSP/Components/lis2dw12/lis2dw12_reg.c **** 
2686:Drivers/BSP/Components/lis2dw12/lis2dw12_reg.c ****   if (ret == 0)
 6876              		.loc 1 2686 3 is_stmt 1 view .LVU1725
 6877              		.loc 1 2686 6 is_stmt 0 view .LVU1726
 6878 0012 08B1     		cbz	r0, .L430
 6879              	.LVL477:
 6880              	.L427:
2687:Drivers/BSP/Components/lis2dw12/lis2dw12_reg.c ****   {
2688:Drivers/BSP/Components/lis2dw12/lis2dw12_reg.c ****     reg.single_double_tap = (uint8_t) val;
2689:Drivers/BSP/Components/lis2dw12/lis2dw12_reg.c ****     ret = lis2dw12_write_reg(ctx, LIS2DW12_WAKE_UP_THS, (uint8_t *) &reg, 1);
2690:Drivers/BSP/Components/lis2dw12/lis2dw12_reg.c ****   }
2691:Drivers/BSP/Components/lis2dw12/lis2dw12_reg.c **** 
2692:Drivers/BSP/Components/lis2dw12/lis2dw12_reg.c ****   return ret;
ARM GAS  /tmp/ccEdQILT.s 			page 176


2693:Drivers/BSP/Components/lis2dw12/lis2dw12_reg.c **** }
 6881              		.loc 1 2693 1 view .LVU1727
 6882 0014 03B0     		add	sp, sp, #12
 6883              	.LCFI294:
 6884              		.cfi_remember_state
 6885              		.cfi_def_cfa_offset 12
 6886              		@ sp needed
 6887 0016 30BD     		pop	{r4, r5, pc}
 6888              	.LVL478:
 6889              	.L430:
 6890              	.LCFI295:
 6891              		.cfi_restore_state
2688:Drivers/BSP/Components/lis2dw12/lis2dw12_reg.c ****     ret = lis2dw12_write_reg(ctx, LIS2DW12_WAKE_UP_THS, (uint8_t *) &reg, 1);
 6892              		.loc 1 2688 5 is_stmt 1 view .LVU1728
2688:Drivers/BSP/Components/lis2dw12/lis2dw12_reg.c ****     ret = lis2dw12_write_reg(ctx, LIS2DW12_WAKE_UP_THS, (uint8_t *) &reg, 1);
 6893              		.loc 1 2688 27 is_stmt 0 view .LVU1729
 6894 0018 9DF80430 		ldrb	r3, [sp, #4]	@ zero_extendqisi2
 6895 001c 65F3C713 		bfi	r3, r5, #7, #1
 6896 0020 8DF80430 		strb	r3, [sp, #4]
2689:Drivers/BSP/Components/lis2dw12/lis2dw12_reg.c ****   }
 6897              		.loc 1 2689 5 is_stmt 1 view .LVU1730
2689:Drivers/BSP/Components/lis2dw12/lis2dw12_reg.c ****   }
 6898              		.loc 1 2689 11 is_stmt 0 view .LVU1731
 6899 0024 0123     		movs	r3, #1
 6900              	.LVL479:
2689:Drivers/BSP/Components/lis2dw12/lis2dw12_reg.c ****   }
 6901              		.loc 1 2689 11 view .LVU1732
 6902 0026 01AA     		add	r2, sp, #4
 6903 0028 3421     		movs	r1, #52
 6904 002a 2046     		mov	r0, r4
 6905 002c FFF7FEFF 		bl	lis2dw12_write_reg
 6906              	.LVL480:
2692:Drivers/BSP/Components/lis2dw12/lis2dw12_reg.c **** }
 6907              		.loc 1 2692 3 is_stmt 1 view .LVU1733
2692:Drivers/BSP/Components/lis2dw12/lis2dw12_reg.c **** }
 6908              		.loc 1 2692 10 is_stmt 0 view .LVU1734
 6909 0030 F0E7     		b	.L427
 6910              		.cfi_endproc
 6911              	.LFE97:
 6913              		.section	.text.lis2dw12_tap_mode_get,"ax",%progbits
 6914              		.align	1
 6915              		.global	lis2dw12_tap_mode_get
 6916              		.syntax unified
 6917              		.thumb
 6918              		.thumb_func
 6919              		.fpu fpv4-sp-d16
 6921              	lis2dw12_tap_mode_get:
 6922              	.LVL481:
 6923              	.LFB98:
2694:Drivers/BSP/Components/lis2dw12/lis2dw12_reg.c **** 
2695:Drivers/BSP/Components/lis2dw12/lis2dw12_reg.c **** /**
2696:Drivers/BSP/Components/lis2dw12/lis2dw12_reg.c ****   * @brief  Single/double-tap event enable.[get]
2697:Drivers/BSP/Components/lis2dw12/lis2dw12_reg.c ****   *
2698:Drivers/BSP/Components/lis2dw12/lis2dw12_reg.c ****   * @param  ctx      read / write interface definitions
2699:Drivers/BSP/Components/lis2dw12/lis2dw12_reg.c ****   * @param  val      Get the values of single_double_tap in reg WAKE_UP_THS
2700:Drivers/BSP/Components/lis2dw12/lis2dw12_reg.c ****   * @retval          interface status (MANDATORY: return 0 -> no Error)
2701:Drivers/BSP/Components/lis2dw12/lis2dw12_reg.c ****   *
ARM GAS  /tmp/ccEdQILT.s 			page 177


2702:Drivers/BSP/Components/lis2dw12/lis2dw12_reg.c ****   */
2703:Drivers/BSP/Components/lis2dw12/lis2dw12_reg.c **** int32_t lis2dw12_tap_mode_get(stmdev_ctx_t *ctx,
2704:Drivers/BSP/Components/lis2dw12/lis2dw12_reg.c ****                               lis2dw12_single_double_tap_t *val)
2705:Drivers/BSP/Components/lis2dw12/lis2dw12_reg.c **** {
 6924              		.loc 1 2705 1 is_stmt 1 view -0
 6925              		.cfi_startproc
 6926              		@ args = 0, pretend = 0, frame = 8
 6927              		@ frame_needed = 0, uses_anonymous_args = 0
 6928              		.loc 1 2705 1 is_stmt 0 view .LVU1736
 6929 0000 10B5     		push	{r4, lr}
 6930              	.LCFI296:
 6931              		.cfi_def_cfa_offset 8
 6932              		.cfi_offset 4, -8
 6933              		.cfi_offset 14, -4
 6934 0002 82B0     		sub	sp, sp, #8
 6935              	.LCFI297:
 6936              		.cfi_def_cfa_offset 16
 6937 0004 0C46     		mov	r4, r1
2706:Drivers/BSP/Components/lis2dw12/lis2dw12_reg.c ****   lis2dw12_wake_up_ths_t reg;
 6938              		.loc 1 2706 3 is_stmt 1 view .LVU1737
2707:Drivers/BSP/Components/lis2dw12/lis2dw12_reg.c ****   int32_t ret;
 6939              		.loc 1 2707 3 view .LVU1738
2708:Drivers/BSP/Components/lis2dw12/lis2dw12_reg.c **** 
2709:Drivers/BSP/Components/lis2dw12/lis2dw12_reg.c ****   ret = lis2dw12_read_reg(ctx, LIS2DW12_WAKE_UP_THS, (uint8_t *) &reg, 1);
 6940              		.loc 1 2709 3 view .LVU1739
 6941              		.loc 1 2709 9 is_stmt 0 view .LVU1740
 6942 0006 0123     		movs	r3, #1
 6943 0008 01AA     		add	r2, sp, #4
 6944 000a 3421     		movs	r1, #52
 6945              	.LVL482:
 6946              		.loc 1 2709 9 view .LVU1741
 6947 000c FFF7FEFF 		bl	lis2dw12_read_reg
 6948              	.LVL483:
2710:Drivers/BSP/Components/lis2dw12/lis2dw12_reg.c **** 
2711:Drivers/BSP/Components/lis2dw12/lis2dw12_reg.c ****   switch (reg.single_double_tap)
 6949              		.loc 1 2711 3 is_stmt 1 view .LVU1742
 6950              		.loc 1 2711 14 is_stmt 0 view .LVU1743
 6951 0010 9DF80430 		ldrb	r3, [sp, #4]	@ zero_extendqisi2
 6952              		.loc 1 2711 3 view .LVU1744
 6953 0014 DB09     		lsrs	r3, r3, #7
 6954 0016 03D0     		beq	.L432
 6955 0018 33B9     		cbnz	r3, .L433
2712:Drivers/BSP/Components/lis2dw12/lis2dw12_reg.c ****   {
2713:Drivers/BSP/Components/lis2dw12/lis2dw12_reg.c ****     case LIS2DW12_ONLY_SINGLE:
2714:Drivers/BSP/Components/lis2dw12/lis2dw12_reg.c ****       *val = LIS2DW12_ONLY_SINGLE;
2715:Drivers/BSP/Components/lis2dw12/lis2dw12_reg.c ****       break;
2716:Drivers/BSP/Components/lis2dw12/lis2dw12_reg.c **** 
2717:Drivers/BSP/Components/lis2dw12/lis2dw12_reg.c ****     case LIS2DW12_BOTH_SINGLE_DOUBLE:
2718:Drivers/BSP/Components/lis2dw12/lis2dw12_reg.c ****       *val = LIS2DW12_BOTH_SINGLE_DOUBLE;
2719:Drivers/BSP/Components/lis2dw12/lis2dw12_reg.c ****       break;
2720:Drivers/BSP/Components/lis2dw12/lis2dw12_reg.c **** 
2721:Drivers/BSP/Components/lis2dw12/lis2dw12_reg.c ****     default:
2722:Drivers/BSP/Components/lis2dw12/lis2dw12_reg.c ****       *val = LIS2DW12_ONLY_SINGLE;
 6956              		.loc 1 2722 7 is_stmt 1 view .LVU1745
 6957              		.loc 1 2722 12 is_stmt 0 view .LVU1746
 6958 001a 0023     		movs	r3, #0
 6959 001c 2370     		strb	r3, [r4]
ARM GAS  /tmp/ccEdQILT.s 			page 178


2723:Drivers/BSP/Components/lis2dw12/lis2dw12_reg.c ****       break;
 6960              		.loc 1 2723 7 is_stmt 1 view .LVU1747
2724:Drivers/BSP/Components/lis2dw12/lis2dw12_reg.c ****   }
2725:Drivers/BSP/Components/lis2dw12/lis2dw12_reg.c **** 
2726:Drivers/BSP/Components/lis2dw12/lis2dw12_reg.c ****   return ret;
 6961              		.loc 1 2726 3 view .LVU1748
 6962              		.loc 1 2726 10 is_stmt 0 view .LVU1749
 6963 001e 01E0     		b	.L431
 6964              	.L432:
2714:Drivers/BSP/Components/lis2dw12/lis2dw12_reg.c ****       break;
 6965              		.loc 1 2714 7 is_stmt 1 view .LVU1750
2714:Drivers/BSP/Components/lis2dw12/lis2dw12_reg.c ****       break;
 6966              		.loc 1 2714 12 is_stmt 0 view .LVU1751
 6967 0020 0023     		movs	r3, #0
 6968 0022 2370     		strb	r3, [r4]
2715:Drivers/BSP/Components/lis2dw12/lis2dw12_reg.c **** 
 6969              		.loc 1 2715 7 is_stmt 1 view .LVU1752
 6970              	.L431:
2727:Drivers/BSP/Components/lis2dw12/lis2dw12_reg.c **** }
 6971              		.loc 1 2727 1 is_stmt 0 view .LVU1753
 6972 0024 02B0     		add	sp, sp, #8
 6973              	.LCFI298:
 6974              		.cfi_remember_state
 6975              		.cfi_def_cfa_offset 8
 6976              		@ sp needed
 6977 0026 10BD     		pop	{r4, pc}
 6978              	.LVL484:
 6979              	.L433:
 6980              	.LCFI299:
 6981              		.cfi_restore_state
2718:Drivers/BSP/Components/lis2dw12/lis2dw12_reg.c ****       break;
 6982              		.loc 1 2718 7 is_stmt 1 view .LVU1754
2718:Drivers/BSP/Components/lis2dw12/lis2dw12_reg.c ****       break;
 6983              		.loc 1 2718 12 is_stmt 0 view .LVU1755
 6984 0028 0123     		movs	r3, #1
 6985 002a 2370     		strb	r3, [r4]
2719:Drivers/BSP/Components/lis2dw12/lis2dw12_reg.c **** 
 6986              		.loc 1 2719 7 is_stmt 1 view .LVU1756
 6987 002c FAE7     		b	.L431
 6988              		.cfi_endproc
 6989              	.LFE98:
 6991              		.section	.text.lis2dw12_tap_src_get,"ax",%progbits
 6992              		.align	1
 6993              		.global	lis2dw12_tap_src_get
 6994              		.syntax unified
 6995              		.thumb
 6996              		.thumb_func
 6997              		.fpu fpv4-sp-d16
 6999              	lis2dw12_tap_src_get:
 7000              	.LVL485:
 7001              	.LFB99:
2728:Drivers/BSP/Components/lis2dw12/lis2dw12_reg.c **** 
2729:Drivers/BSP/Components/lis2dw12/lis2dw12_reg.c **** /**
2730:Drivers/BSP/Components/lis2dw12/lis2dw12_reg.c ****   * @brief  Read the tap / double tap source register.[get]
2731:Drivers/BSP/Components/lis2dw12/lis2dw12_reg.c ****   *
2732:Drivers/BSP/Components/lis2dw12/lis2dw12_reg.c ****   * @param  ctx      read / write interface definitions
2733:Drivers/BSP/Components/lis2dw12/lis2dw12_reg.c ****   * @param  lis2dw12_tap_src: union of registers from TAP_SRC to
ARM GAS  /tmp/ccEdQILT.s 			page 179


2734:Drivers/BSP/Components/lis2dw12/lis2dw12_reg.c ****   * @retval          interface status (MANDATORY: return 0 -> no Error)
2735:Drivers/BSP/Components/lis2dw12/lis2dw12_reg.c ****   *
2736:Drivers/BSP/Components/lis2dw12/lis2dw12_reg.c ****   */
2737:Drivers/BSP/Components/lis2dw12/lis2dw12_reg.c **** int32_t lis2dw12_tap_src_get(stmdev_ctx_t *ctx,
2738:Drivers/BSP/Components/lis2dw12/lis2dw12_reg.c ****                              lis2dw12_tap_src_t *val)
2739:Drivers/BSP/Components/lis2dw12/lis2dw12_reg.c **** {
 7002              		.loc 1 2739 1 view -0
 7003              		.cfi_startproc
 7004              		@ args = 0, pretend = 0, frame = 0
 7005              		@ frame_needed = 0, uses_anonymous_args = 0
 7006              		.loc 1 2739 1 is_stmt 0 view .LVU1758
 7007 0000 08B5     		push	{r3, lr}
 7008              	.LCFI300:
 7009              		.cfi_def_cfa_offset 8
 7010              		.cfi_offset 3, -8
 7011              		.cfi_offset 14, -4
 7012 0002 0A46     		mov	r2, r1
2740:Drivers/BSP/Components/lis2dw12/lis2dw12_reg.c ****   int32_t ret;
 7013              		.loc 1 2740 3 is_stmt 1 view .LVU1759
2741:Drivers/BSP/Components/lis2dw12/lis2dw12_reg.c **** 
2742:Drivers/BSP/Components/lis2dw12/lis2dw12_reg.c ****   ret = lis2dw12_read_reg(ctx, LIS2DW12_TAP_SRC, (uint8_t *) val, 1);
 7014              		.loc 1 2742 3 view .LVU1760
 7015              		.loc 1 2742 9 is_stmt 0 view .LVU1761
 7016 0004 0123     		movs	r3, #1
 7017 0006 3921     		movs	r1, #57
 7018              	.LVL486:
 7019              		.loc 1 2742 9 view .LVU1762
 7020 0008 FFF7FEFF 		bl	lis2dw12_read_reg
 7021              	.LVL487:
2743:Drivers/BSP/Components/lis2dw12/lis2dw12_reg.c **** 
2744:Drivers/BSP/Components/lis2dw12/lis2dw12_reg.c ****   return ret;
 7022              		.loc 1 2744 3 is_stmt 1 view .LVU1763
2745:Drivers/BSP/Components/lis2dw12/lis2dw12_reg.c **** }
 7023              		.loc 1 2745 1 is_stmt 0 view .LVU1764
 7024 000c 08BD     		pop	{r3, pc}
 7025              		.cfi_endproc
 7026              	.LFE99:
 7028              		.section	.text.lis2dw12_6d_threshold_set,"ax",%progbits
 7029              		.align	1
 7030              		.global	lis2dw12_6d_threshold_set
 7031              		.syntax unified
 7032              		.thumb
 7033              		.thumb_func
 7034              		.fpu fpv4-sp-d16
 7036              	lis2dw12_6d_threshold_set:
 7037              	.LVL488:
 7038              	.LFB100:
2746:Drivers/BSP/Components/lis2dw12/lis2dw12_reg.c **** 
2747:Drivers/BSP/Components/lis2dw12/lis2dw12_reg.c **** /**
2748:Drivers/BSP/Components/lis2dw12/lis2dw12_reg.c ****   * @}
2749:Drivers/BSP/Components/lis2dw12/lis2dw12_reg.c ****   *
2750:Drivers/BSP/Components/lis2dw12/lis2dw12_reg.c ****   */
2751:Drivers/BSP/Components/lis2dw12/lis2dw12_reg.c **** 
2752:Drivers/BSP/Components/lis2dw12/lis2dw12_reg.c **** /**
2753:Drivers/BSP/Components/lis2dw12/lis2dw12_reg.c ****   * @defgroup   LIS2DW12_Six_Position_Detection(6D/4D)
2754:Drivers/BSP/Components/lis2dw12/lis2dw12_reg.c ****   * @brief      This section groups all the functions concerning six
2755:Drivers/BSP/Components/lis2dw12/lis2dw12_reg.c ****   *             position detection (6D).
ARM GAS  /tmp/ccEdQILT.s 			page 180


2756:Drivers/BSP/Components/lis2dw12/lis2dw12_reg.c ****   * @{
2757:Drivers/BSP/Components/lis2dw12/lis2dw12_reg.c ****   *
2758:Drivers/BSP/Components/lis2dw12/lis2dw12_reg.c ****   */
2759:Drivers/BSP/Components/lis2dw12/lis2dw12_reg.c **** 
2760:Drivers/BSP/Components/lis2dw12/lis2dw12_reg.c **** /**
2761:Drivers/BSP/Components/lis2dw12/lis2dw12_reg.c ****   * @brief  Threshold for 4D/6D function.[set]
2762:Drivers/BSP/Components/lis2dw12/lis2dw12_reg.c ****   *
2763:Drivers/BSP/Components/lis2dw12/lis2dw12_reg.c ****   * @param  ctx      read / write interface definitions
2764:Drivers/BSP/Components/lis2dw12/lis2dw12_reg.c ****   * @param  val      change the values of 6d_ths in reg TAP_THS_X
2765:Drivers/BSP/Components/lis2dw12/lis2dw12_reg.c ****   * @retval          interface status (MANDATORY: return 0 -> no Error)
2766:Drivers/BSP/Components/lis2dw12/lis2dw12_reg.c ****   *
2767:Drivers/BSP/Components/lis2dw12/lis2dw12_reg.c ****   */
2768:Drivers/BSP/Components/lis2dw12/lis2dw12_reg.c **** int32_t lis2dw12_6d_threshold_set(stmdev_ctx_t *ctx, uint8_t val)
2769:Drivers/BSP/Components/lis2dw12/lis2dw12_reg.c **** {
 7039              		.loc 1 2769 1 is_stmt 1 view -0
 7040              		.cfi_startproc
 7041              		@ args = 0, pretend = 0, frame = 8
 7042              		@ frame_needed = 0, uses_anonymous_args = 0
 7043              		.loc 1 2769 1 is_stmt 0 view .LVU1766
 7044 0000 30B5     		push	{r4, r5, lr}
 7045              	.LCFI301:
 7046              		.cfi_def_cfa_offset 12
 7047              		.cfi_offset 4, -12
 7048              		.cfi_offset 5, -8
 7049              		.cfi_offset 14, -4
 7050 0002 83B0     		sub	sp, sp, #12
 7051              	.LCFI302:
 7052              		.cfi_def_cfa_offset 24
 7053 0004 0446     		mov	r4, r0
 7054 0006 0D46     		mov	r5, r1
2770:Drivers/BSP/Components/lis2dw12/lis2dw12_reg.c ****   lis2dw12_tap_ths_x_t reg;
 7055              		.loc 1 2770 3 is_stmt 1 view .LVU1767
2771:Drivers/BSP/Components/lis2dw12/lis2dw12_reg.c ****   int32_t ret;
 7056              		.loc 1 2771 3 view .LVU1768
2772:Drivers/BSP/Components/lis2dw12/lis2dw12_reg.c **** 
2773:Drivers/BSP/Components/lis2dw12/lis2dw12_reg.c ****   ret = lis2dw12_read_reg(ctx, LIS2DW12_TAP_THS_X, (uint8_t *) &reg, 1);
 7057              		.loc 1 2773 3 view .LVU1769
 7058              		.loc 1 2773 9 is_stmt 0 view .LVU1770
 7059 0008 0123     		movs	r3, #1
 7060 000a 01AA     		add	r2, sp, #4
 7061 000c 3021     		movs	r1, #48
 7062              	.LVL489:
 7063              		.loc 1 2773 9 view .LVU1771
 7064 000e FFF7FEFF 		bl	lis2dw12_read_reg
 7065              	.LVL490:
2774:Drivers/BSP/Components/lis2dw12/lis2dw12_reg.c **** 
2775:Drivers/BSP/Components/lis2dw12/lis2dw12_reg.c ****   if (ret == 0)
 7066              		.loc 1 2775 3 is_stmt 1 view .LVU1772
 7067              		.loc 1 2775 6 is_stmt 0 view .LVU1773
 7068 0012 08B1     		cbz	r0, .L443
 7069              	.LVL491:
 7070              	.L440:
2776:Drivers/BSP/Components/lis2dw12/lis2dw12_reg.c ****   {
2777:Drivers/BSP/Components/lis2dw12/lis2dw12_reg.c ****     reg._6d_ths = val;
2778:Drivers/BSP/Components/lis2dw12/lis2dw12_reg.c ****     ret = lis2dw12_write_reg(ctx, LIS2DW12_TAP_THS_X, (uint8_t *) &reg, 1);
2779:Drivers/BSP/Components/lis2dw12/lis2dw12_reg.c ****   }
2780:Drivers/BSP/Components/lis2dw12/lis2dw12_reg.c **** 
ARM GAS  /tmp/ccEdQILT.s 			page 181


2781:Drivers/BSP/Components/lis2dw12/lis2dw12_reg.c ****   return ret;
2782:Drivers/BSP/Components/lis2dw12/lis2dw12_reg.c **** }
 7071              		.loc 1 2782 1 view .LVU1774
 7072 0014 03B0     		add	sp, sp, #12
 7073              	.LCFI303:
 7074              		.cfi_remember_state
 7075              		.cfi_def_cfa_offset 12
 7076              		@ sp needed
 7077 0016 30BD     		pop	{r4, r5, pc}
 7078              	.LVL492:
 7079              	.L443:
 7080              	.LCFI304:
 7081              		.cfi_restore_state
2777:Drivers/BSP/Components/lis2dw12/lis2dw12_reg.c ****     ret = lis2dw12_write_reg(ctx, LIS2DW12_TAP_THS_X, (uint8_t *) &reg, 1);
 7082              		.loc 1 2777 5 is_stmt 1 view .LVU1775
2777:Drivers/BSP/Components/lis2dw12/lis2dw12_reg.c ****     ret = lis2dw12_write_reg(ctx, LIS2DW12_TAP_THS_X, (uint8_t *) &reg, 1);
 7083              		.loc 1 2777 17 is_stmt 0 view .LVU1776
 7084 0018 9DF80430 		ldrb	r3, [sp, #4]	@ zero_extendqisi2
 7085 001c 65F34613 		bfi	r3, r5, #5, #2
 7086 0020 8DF80430 		strb	r3, [sp, #4]
2778:Drivers/BSP/Components/lis2dw12/lis2dw12_reg.c ****   }
 7087              		.loc 1 2778 5 is_stmt 1 view .LVU1777
2778:Drivers/BSP/Components/lis2dw12/lis2dw12_reg.c ****   }
 7088              		.loc 1 2778 11 is_stmt 0 view .LVU1778
 7089 0024 0123     		movs	r3, #1
 7090              	.LVL493:
2778:Drivers/BSP/Components/lis2dw12/lis2dw12_reg.c ****   }
 7091              		.loc 1 2778 11 view .LVU1779
 7092 0026 01AA     		add	r2, sp, #4
 7093 0028 3021     		movs	r1, #48
 7094 002a 2046     		mov	r0, r4
 7095 002c FFF7FEFF 		bl	lis2dw12_write_reg
 7096              	.LVL494:
2781:Drivers/BSP/Components/lis2dw12/lis2dw12_reg.c **** }
 7097              		.loc 1 2781 3 is_stmt 1 view .LVU1780
2781:Drivers/BSP/Components/lis2dw12/lis2dw12_reg.c **** }
 7098              		.loc 1 2781 10 is_stmt 0 view .LVU1781
 7099 0030 F0E7     		b	.L440
 7100              		.cfi_endproc
 7101              	.LFE100:
 7103              		.section	.text.lis2dw12_6d_threshold_get,"ax",%progbits
 7104              		.align	1
 7105              		.global	lis2dw12_6d_threshold_get
 7106              		.syntax unified
 7107              		.thumb
 7108              		.thumb_func
 7109              		.fpu fpv4-sp-d16
 7111              	lis2dw12_6d_threshold_get:
 7112              	.LVL495:
 7113              	.LFB101:
2783:Drivers/BSP/Components/lis2dw12/lis2dw12_reg.c **** 
2784:Drivers/BSP/Components/lis2dw12/lis2dw12_reg.c **** /**
2785:Drivers/BSP/Components/lis2dw12/lis2dw12_reg.c ****   * @brief  Threshold for 4D/6D function.[get]
2786:Drivers/BSP/Components/lis2dw12/lis2dw12_reg.c ****   *
2787:Drivers/BSP/Components/lis2dw12/lis2dw12_reg.c ****   * @param  ctx      read / write interface definitions
2788:Drivers/BSP/Components/lis2dw12/lis2dw12_reg.c ****   * @param  val      change the values of 6d_ths in reg TAP_THS_X
2789:Drivers/BSP/Components/lis2dw12/lis2dw12_reg.c ****   * @retval          interface status (MANDATORY: return 0 -> no Error)
ARM GAS  /tmp/ccEdQILT.s 			page 182


2790:Drivers/BSP/Components/lis2dw12/lis2dw12_reg.c ****   *
2791:Drivers/BSP/Components/lis2dw12/lis2dw12_reg.c ****   */
2792:Drivers/BSP/Components/lis2dw12/lis2dw12_reg.c **** int32_t lis2dw12_6d_threshold_get(stmdev_ctx_t *ctx, uint8_t *val)
2793:Drivers/BSP/Components/lis2dw12/lis2dw12_reg.c **** {
 7114              		.loc 1 2793 1 is_stmt 1 view -0
 7115              		.cfi_startproc
 7116              		@ args = 0, pretend = 0, frame = 8
 7117              		@ frame_needed = 0, uses_anonymous_args = 0
 7118              		.loc 1 2793 1 is_stmt 0 view .LVU1783
 7119 0000 10B5     		push	{r4, lr}
 7120              	.LCFI305:
 7121              		.cfi_def_cfa_offset 8
 7122              		.cfi_offset 4, -8
 7123              		.cfi_offset 14, -4
 7124 0002 82B0     		sub	sp, sp, #8
 7125              	.LCFI306:
 7126              		.cfi_def_cfa_offset 16
 7127 0004 0C46     		mov	r4, r1
2794:Drivers/BSP/Components/lis2dw12/lis2dw12_reg.c ****   lis2dw12_tap_ths_x_t reg;
 7128              		.loc 1 2794 3 is_stmt 1 view .LVU1784
2795:Drivers/BSP/Components/lis2dw12/lis2dw12_reg.c ****   int32_t ret;
 7129              		.loc 1 2795 3 view .LVU1785
2796:Drivers/BSP/Components/lis2dw12/lis2dw12_reg.c **** 
2797:Drivers/BSP/Components/lis2dw12/lis2dw12_reg.c ****   ret = lis2dw12_read_reg(ctx, LIS2DW12_TAP_THS_X, (uint8_t *) &reg, 1);
 7130              		.loc 1 2797 3 view .LVU1786
 7131              		.loc 1 2797 9 is_stmt 0 view .LVU1787
 7132 0006 0123     		movs	r3, #1
 7133 0008 01AA     		add	r2, sp, #4
 7134 000a 3021     		movs	r1, #48
 7135              	.LVL496:
 7136              		.loc 1 2797 9 view .LVU1788
 7137 000c FFF7FEFF 		bl	lis2dw12_read_reg
 7138              	.LVL497:
2798:Drivers/BSP/Components/lis2dw12/lis2dw12_reg.c ****   *val = reg._6d_ths;
 7139              		.loc 1 2798 3 is_stmt 1 view .LVU1789
 7140              		.loc 1 2798 13 is_stmt 0 view .LVU1790
 7141 0010 9DF80430 		ldrb	r3, [sp, #4]	@ zero_extendqisi2
 7142 0014 C3F34113 		ubfx	r3, r3, #5, #2
 7143              		.loc 1 2798 8 view .LVU1791
 7144 0018 2370     		strb	r3, [r4]
2799:Drivers/BSP/Components/lis2dw12/lis2dw12_reg.c **** 
2800:Drivers/BSP/Components/lis2dw12/lis2dw12_reg.c ****   return ret;
 7145              		.loc 1 2800 3 is_stmt 1 view .LVU1792
2801:Drivers/BSP/Components/lis2dw12/lis2dw12_reg.c **** }
 7146              		.loc 1 2801 1 is_stmt 0 view .LVU1793
 7147 001a 02B0     		add	sp, sp, #8
 7148              	.LCFI307:
 7149              		.cfi_def_cfa_offset 8
 7150              		@ sp needed
 7151 001c 10BD     		pop	{r4, pc}
 7152              		.loc 1 2801 1 view .LVU1794
 7153              		.cfi_endproc
 7154              	.LFE101:
 7156              		.section	.text.lis2dw12_4d_mode_set,"ax",%progbits
 7157              		.align	1
 7158              		.global	lis2dw12_4d_mode_set
 7159              		.syntax unified
ARM GAS  /tmp/ccEdQILT.s 			page 183


 7160              		.thumb
 7161              		.thumb_func
 7162              		.fpu fpv4-sp-d16
 7164              	lis2dw12_4d_mode_set:
 7165              	.LVL498:
 7166              	.LFB102:
2802:Drivers/BSP/Components/lis2dw12/lis2dw12_reg.c **** 
2803:Drivers/BSP/Components/lis2dw12/lis2dw12_reg.c **** /**
2804:Drivers/BSP/Components/lis2dw12/lis2dw12_reg.c ****   * @brief  4D orientation detection enable.[set]
2805:Drivers/BSP/Components/lis2dw12/lis2dw12_reg.c ****   *
2806:Drivers/BSP/Components/lis2dw12/lis2dw12_reg.c ****   * @param  ctx      read / write interface definitions
2807:Drivers/BSP/Components/lis2dw12/lis2dw12_reg.c ****   * @param  val      change the values of 4d_en in reg TAP_THS_X
2808:Drivers/BSP/Components/lis2dw12/lis2dw12_reg.c ****   * @retval          interface status (MANDATORY: return 0 -> no Error)
2809:Drivers/BSP/Components/lis2dw12/lis2dw12_reg.c ****   *
2810:Drivers/BSP/Components/lis2dw12/lis2dw12_reg.c ****   */
2811:Drivers/BSP/Components/lis2dw12/lis2dw12_reg.c **** int32_t lis2dw12_4d_mode_set(stmdev_ctx_t *ctx, uint8_t val)
2812:Drivers/BSP/Components/lis2dw12/lis2dw12_reg.c **** {
 7167              		.loc 1 2812 1 is_stmt 1 view -0
 7168              		.cfi_startproc
 7169              		@ args = 0, pretend = 0, frame = 8
 7170              		@ frame_needed = 0, uses_anonymous_args = 0
 7171              		.loc 1 2812 1 is_stmt 0 view .LVU1796
 7172 0000 30B5     		push	{r4, r5, lr}
 7173              	.LCFI308:
 7174              		.cfi_def_cfa_offset 12
 7175              		.cfi_offset 4, -12
 7176              		.cfi_offset 5, -8
 7177              		.cfi_offset 14, -4
 7178 0002 83B0     		sub	sp, sp, #12
 7179              	.LCFI309:
 7180              		.cfi_def_cfa_offset 24
 7181 0004 0446     		mov	r4, r0
 7182 0006 0D46     		mov	r5, r1
2813:Drivers/BSP/Components/lis2dw12/lis2dw12_reg.c ****   lis2dw12_tap_ths_x_t reg;
 7183              		.loc 1 2813 3 is_stmt 1 view .LVU1797
2814:Drivers/BSP/Components/lis2dw12/lis2dw12_reg.c ****   int32_t ret;
 7184              		.loc 1 2814 3 view .LVU1798
2815:Drivers/BSP/Components/lis2dw12/lis2dw12_reg.c **** 
2816:Drivers/BSP/Components/lis2dw12/lis2dw12_reg.c ****   ret = lis2dw12_read_reg(ctx, LIS2DW12_TAP_THS_X, (uint8_t *) &reg, 1);
 7185              		.loc 1 2816 3 view .LVU1799
 7186              		.loc 1 2816 9 is_stmt 0 view .LVU1800
 7187 0008 0123     		movs	r3, #1
 7188 000a 01AA     		add	r2, sp, #4
 7189 000c 3021     		movs	r1, #48
 7190              	.LVL499:
 7191              		.loc 1 2816 9 view .LVU1801
 7192 000e FFF7FEFF 		bl	lis2dw12_read_reg
 7193              	.LVL500:
2817:Drivers/BSP/Components/lis2dw12/lis2dw12_reg.c **** 
2818:Drivers/BSP/Components/lis2dw12/lis2dw12_reg.c ****   if (ret == 0)
 7194              		.loc 1 2818 3 is_stmt 1 view .LVU1802
 7195              		.loc 1 2818 6 is_stmt 0 view .LVU1803
 7196 0012 08B1     		cbz	r0, .L449
 7197              	.LVL501:
 7198              	.L446:
2819:Drivers/BSP/Components/lis2dw12/lis2dw12_reg.c ****   {
2820:Drivers/BSP/Components/lis2dw12/lis2dw12_reg.c ****     reg._4d_en = val;
ARM GAS  /tmp/ccEdQILT.s 			page 184


2821:Drivers/BSP/Components/lis2dw12/lis2dw12_reg.c ****     ret = lis2dw12_write_reg(ctx, LIS2DW12_TAP_THS_X, (uint8_t *) &reg, 1);
2822:Drivers/BSP/Components/lis2dw12/lis2dw12_reg.c ****   }
2823:Drivers/BSP/Components/lis2dw12/lis2dw12_reg.c **** 
2824:Drivers/BSP/Components/lis2dw12/lis2dw12_reg.c ****   return ret;
2825:Drivers/BSP/Components/lis2dw12/lis2dw12_reg.c **** }
 7199              		.loc 1 2825 1 view .LVU1804
 7200 0014 03B0     		add	sp, sp, #12
 7201              	.LCFI310:
 7202              		.cfi_remember_state
 7203              		.cfi_def_cfa_offset 12
 7204              		@ sp needed
 7205 0016 30BD     		pop	{r4, r5, pc}
 7206              	.LVL502:
 7207              	.L449:
 7208              	.LCFI311:
 7209              		.cfi_restore_state
2820:Drivers/BSP/Components/lis2dw12/lis2dw12_reg.c ****     ret = lis2dw12_write_reg(ctx, LIS2DW12_TAP_THS_X, (uint8_t *) &reg, 1);
 7210              		.loc 1 2820 5 is_stmt 1 view .LVU1805
2820:Drivers/BSP/Components/lis2dw12/lis2dw12_reg.c ****     ret = lis2dw12_write_reg(ctx, LIS2DW12_TAP_THS_X, (uint8_t *) &reg, 1);
 7211              		.loc 1 2820 16 is_stmt 0 view .LVU1806
 7212 0018 9DF80430 		ldrb	r3, [sp, #4]	@ zero_extendqisi2
 7213 001c 65F3C713 		bfi	r3, r5, #7, #1
 7214 0020 8DF80430 		strb	r3, [sp, #4]
2821:Drivers/BSP/Components/lis2dw12/lis2dw12_reg.c ****   }
 7215              		.loc 1 2821 5 is_stmt 1 view .LVU1807
2821:Drivers/BSP/Components/lis2dw12/lis2dw12_reg.c ****   }
 7216              		.loc 1 2821 11 is_stmt 0 view .LVU1808
 7217 0024 0123     		movs	r3, #1
 7218              	.LVL503:
2821:Drivers/BSP/Components/lis2dw12/lis2dw12_reg.c ****   }
 7219              		.loc 1 2821 11 view .LVU1809
 7220 0026 01AA     		add	r2, sp, #4
 7221 0028 3021     		movs	r1, #48
 7222 002a 2046     		mov	r0, r4
 7223 002c FFF7FEFF 		bl	lis2dw12_write_reg
 7224              	.LVL504:
2824:Drivers/BSP/Components/lis2dw12/lis2dw12_reg.c **** }
 7225              		.loc 1 2824 3 is_stmt 1 view .LVU1810
2824:Drivers/BSP/Components/lis2dw12/lis2dw12_reg.c **** }
 7226              		.loc 1 2824 10 is_stmt 0 view .LVU1811
 7227 0030 F0E7     		b	.L446
 7228              		.cfi_endproc
 7229              	.LFE102:
 7231              		.section	.text.lis2dw12_4d_mode_get,"ax",%progbits
 7232              		.align	1
 7233              		.global	lis2dw12_4d_mode_get
 7234              		.syntax unified
 7235              		.thumb
 7236              		.thumb_func
 7237              		.fpu fpv4-sp-d16
 7239              	lis2dw12_4d_mode_get:
 7240              	.LVL505:
 7241              	.LFB103:
2826:Drivers/BSP/Components/lis2dw12/lis2dw12_reg.c **** 
2827:Drivers/BSP/Components/lis2dw12/lis2dw12_reg.c **** /**
2828:Drivers/BSP/Components/lis2dw12/lis2dw12_reg.c ****   * @brief  4D orientation detection enable.[get]
2829:Drivers/BSP/Components/lis2dw12/lis2dw12_reg.c ****   *
ARM GAS  /tmp/ccEdQILT.s 			page 185


2830:Drivers/BSP/Components/lis2dw12/lis2dw12_reg.c ****   * @param  ctx      read / write interface definitions
2831:Drivers/BSP/Components/lis2dw12/lis2dw12_reg.c ****   * @param  val      change the values of 4d_en in reg TAP_THS_X
2832:Drivers/BSP/Components/lis2dw12/lis2dw12_reg.c ****   * @retval          interface status (MANDATORY: return 0 -> no Error)
2833:Drivers/BSP/Components/lis2dw12/lis2dw12_reg.c ****   *
2834:Drivers/BSP/Components/lis2dw12/lis2dw12_reg.c ****   */
2835:Drivers/BSP/Components/lis2dw12/lis2dw12_reg.c **** int32_t lis2dw12_4d_mode_get(stmdev_ctx_t *ctx, uint8_t *val)
2836:Drivers/BSP/Components/lis2dw12/lis2dw12_reg.c **** {
 7242              		.loc 1 2836 1 is_stmt 1 view -0
 7243              		.cfi_startproc
 7244              		@ args = 0, pretend = 0, frame = 8
 7245              		@ frame_needed = 0, uses_anonymous_args = 0
 7246              		.loc 1 2836 1 is_stmt 0 view .LVU1813
 7247 0000 10B5     		push	{r4, lr}
 7248              	.LCFI312:
 7249              		.cfi_def_cfa_offset 8
 7250              		.cfi_offset 4, -8
 7251              		.cfi_offset 14, -4
 7252 0002 82B0     		sub	sp, sp, #8
 7253              	.LCFI313:
 7254              		.cfi_def_cfa_offset 16
 7255 0004 0C46     		mov	r4, r1
2837:Drivers/BSP/Components/lis2dw12/lis2dw12_reg.c ****   lis2dw12_tap_ths_x_t reg;
 7256              		.loc 1 2837 3 is_stmt 1 view .LVU1814
2838:Drivers/BSP/Components/lis2dw12/lis2dw12_reg.c ****   int32_t ret;
 7257              		.loc 1 2838 3 view .LVU1815
2839:Drivers/BSP/Components/lis2dw12/lis2dw12_reg.c **** 
2840:Drivers/BSP/Components/lis2dw12/lis2dw12_reg.c ****   ret = lis2dw12_read_reg(ctx, LIS2DW12_TAP_THS_X, (uint8_t *) &reg, 1);
 7258              		.loc 1 2840 3 view .LVU1816
 7259              		.loc 1 2840 9 is_stmt 0 view .LVU1817
 7260 0006 0123     		movs	r3, #1
 7261 0008 01AA     		add	r2, sp, #4
 7262 000a 3021     		movs	r1, #48
 7263              	.LVL506:
 7264              		.loc 1 2840 9 view .LVU1818
 7265 000c FFF7FEFF 		bl	lis2dw12_read_reg
 7266              	.LVL507:
2841:Drivers/BSP/Components/lis2dw12/lis2dw12_reg.c ****   *val = reg._4d_en;
 7267              		.loc 1 2841 3 is_stmt 1 view .LVU1819
 7268              		.loc 1 2841 13 is_stmt 0 view .LVU1820
 7269 0010 9DF80430 		ldrb	r3, [sp, #4]	@ zero_extendqisi2
 7270 0014 C3F3C013 		ubfx	r3, r3, #7, #1
 7271              		.loc 1 2841 8 view .LVU1821
 7272 0018 2370     		strb	r3, [r4]
2842:Drivers/BSP/Components/lis2dw12/lis2dw12_reg.c **** 
2843:Drivers/BSP/Components/lis2dw12/lis2dw12_reg.c ****   return ret;
 7273              		.loc 1 2843 3 is_stmt 1 view .LVU1822
2844:Drivers/BSP/Components/lis2dw12/lis2dw12_reg.c **** }
 7274              		.loc 1 2844 1 is_stmt 0 view .LVU1823
 7275 001a 02B0     		add	sp, sp, #8
 7276              	.LCFI314:
 7277              		.cfi_def_cfa_offset 8
 7278              		@ sp needed
 7279 001c 10BD     		pop	{r4, pc}
 7280              		.loc 1 2844 1 view .LVU1824
 7281              		.cfi_endproc
 7282              	.LFE103:
 7284              		.section	.text.lis2dw12_6d_src_get,"ax",%progbits
ARM GAS  /tmp/ccEdQILT.s 			page 186


 7285              		.align	1
 7286              		.global	lis2dw12_6d_src_get
 7287              		.syntax unified
 7288              		.thumb
 7289              		.thumb_func
 7290              		.fpu fpv4-sp-d16
 7292              	lis2dw12_6d_src_get:
 7293              	.LVL508:
 7294              	.LFB104:
2845:Drivers/BSP/Components/lis2dw12/lis2dw12_reg.c **** 
2846:Drivers/BSP/Components/lis2dw12/lis2dw12_reg.c **** /**
2847:Drivers/BSP/Components/lis2dw12/lis2dw12_reg.c ****   * @brief  Read the 6D tap source register.[get]
2848:Drivers/BSP/Components/lis2dw12/lis2dw12_reg.c ****   *
2849:Drivers/BSP/Components/lis2dw12/lis2dw12_reg.c ****   * @param  ctx      read / write interface definitions
2850:Drivers/BSP/Components/lis2dw12/lis2dw12_reg.c ****   * @param  val      union of registers from SIXD_SRC
2851:Drivers/BSP/Components/lis2dw12/lis2dw12_reg.c ****   * @retval          interface status (MANDATORY: return 0 -> no Error)
2852:Drivers/BSP/Components/lis2dw12/lis2dw12_reg.c ****   *
2853:Drivers/BSP/Components/lis2dw12/lis2dw12_reg.c ****   */
2854:Drivers/BSP/Components/lis2dw12/lis2dw12_reg.c **** int32_t lis2dw12_6d_src_get(stmdev_ctx_t *ctx,
2855:Drivers/BSP/Components/lis2dw12/lis2dw12_reg.c ****                             lis2dw12_sixd_src_t *val)
2856:Drivers/BSP/Components/lis2dw12/lis2dw12_reg.c **** {
 7295              		.loc 1 2856 1 is_stmt 1 view -0
 7296              		.cfi_startproc
 7297              		@ args = 0, pretend = 0, frame = 0
 7298              		@ frame_needed = 0, uses_anonymous_args = 0
 7299              		.loc 1 2856 1 is_stmt 0 view .LVU1826
 7300 0000 08B5     		push	{r3, lr}
 7301              	.LCFI315:
 7302              		.cfi_def_cfa_offset 8
 7303              		.cfi_offset 3, -8
 7304              		.cfi_offset 14, -4
 7305 0002 0A46     		mov	r2, r1
2857:Drivers/BSP/Components/lis2dw12/lis2dw12_reg.c ****   int32_t ret;
 7306              		.loc 1 2857 3 is_stmt 1 view .LVU1827
2858:Drivers/BSP/Components/lis2dw12/lis2dw12_reg.c **** 
2859:Drivers/BSP/Components/lis2dw12/lis2dw12_reg.c ****   ret = lis2dw12_read_reg(ctx, LIS2DW12_SIXD_SRC, (uint8_t *) val, 1);
 7307              		.loc 1 2859 3 view .LVU1828
 7308              		.loc 1 2859 9 is_stmt 0 view .LVU1829
 7309 0004 0123     		movs	r3, #1
 7310 0006 3A21     		movs	r1, #58
 7311              	.LVL509:
 7312              		.loc 1 2859 9 view .LVU1830
 7313 0008 FFF7FEFF 		bl	lis2dw12_read_reg
 7314              	.LVL510:
2860:Drivers/BSP/Components/lis2dw12/lis2dw12_reg.c **** 
2861:Drivers/BSP/Components/lis2dw12/lis2dw12_reg.c ****   return ret;
 7315              		.loc 1 2861 3 is_stmt 1 view .LVU1831
2862:Drivers/BSP/Components/lis2dw12/lis2dw12_reg.c **** }
 7316              		.loc 1 2862 1 is_stmt 0 view .LVU1832
 7317 000c 08BD     		pop	{r3, pc}
 7318              		.cfi_endproc
 7319              	.LFE104:
 7321              		.section	.text.lis2dw12_6d_feed_data_set,"ax",%progbits
 7322              		.align	1
 7323              		.global	lis2dw12_6d_feed_data_set
 7324              		.syntax unified
 7325              		.thumb
ARM GAS  /tmp/ccEdQILT.s 			page 187


 7326              		.thumb_func
 7327              		.fpu fpv4-sp-d16
 7329              	lis2dw12_6d_feed_data_set:
 7330              	.LVL511:
 7331              	.LFB105:
2863:Drivers/BSP/Components/lis2dw12/lis2dw12_reg.c **** /**
2864:Drivers/BSP/Components/lis2dw12/lis2dw12_reg.c ****   * @brief  Data sent to 6D interrupt function.[set]
2865:Drivers/BSP/Components/lis2dw12/lis2dw12_reg.c ****   *
2866:Drivers/BSP/Components/lis2dw12/lis2dw12_reg.c ****   * @param  ctx      read / write interface definitions
2867:Drivers/BSP/Components/lis2dw12/lis2dw12_reg.c ****   * @param  val      change the values of lpass_on6d in reg CTRL_REG7
2868:Drivers/BSP/Components/lis2dw12/lis2dw12_reg.c ****   * @retval          interface status (MANDATORY: return 0 -> no Error)
2869:Drivers/BSP/Components/lis2dw12/lis2dw12_reg.c ****   *
2870:Drivers/BSP/Components/lis2dw12/lis2dw12_reg.c ****   */
2871:Drivers/BSP/Components/lis2dw12/lis2dw12_reg.c **** int32_t lis2dw12_6d_feed_data_set(stmdev_ctx_t *ctx,
2872:Drivers/BSP/Components/lis2dw12/lis2dw12_reg.c ****                                   lis2dw12_lpass_on6d_t val)
2873:Drivers/BSP/Components/lis2dw12/lis2dw12_reg.c **** {
 7332              		.loc 1 2873 1 is_stmt 1 view -0
 7333              		.cfi_startproc
 7334              		@ args = 0, pretend = 0, frame = 8
 7335              		@ frame_needed = 0, uses_anonymous_args = 0
 7336              		.loc 1 2873 1 is_stmt 0 view .LVU1834
 7337 0000 30B5     		push	{r4, r5, lr}
 7338              	.LCFI316:
 7339              		.cfi_def_cfa_offset 12
 7340              		.cfi_offset 4, -12
 7341              		.cfi_offset 5, -8
 7342              		.cfi_offset 14, -4
 7343 0002 83B0     		sub	sp, sp, #12
 7344              	.LCFI317:
 7345              		.cfi_def_cfa_offset 24
 7346 0004 0446     		mov	r4, r0
 7347 0006 0D46     		mov	r5, r1
2874:Drivers/BSP/Components/lis2dw12/lis2dw12_reg.c ****   lis2dw12_ctrl_reg7_t reg;
 7348              		.loc 1 2874 3 is_stmt 1 view .LVU1835
2875:Drivers/BSP/Components/lis2dw12/lis2dw12_reg.c ****   int32_t ret;
 7349              		.loc 1 2875 3 view .LVU1836
2876:Drivers/BSP/Components/lis2dw12/lis2dw12_reg.c **** 
2877:Drivers/BSP/Components/lis2dw12/lis2dw12_reg.c ****   ret = lis2dw12_read_reg(ctx, LIS2DW12_CTRL_REG7, (uint8_t *) &reg, 1);
 7350              		.loc 1 2877 3 view .LVU1837
 7351              		.loc 1 2877 9 is_stmt 0 view .LVU1838
 7352 0008 0123     		movs	r3, #1
 7353 000a 01AA     		add	r2, sp, #4
 7354 000c 3F21     		movs	r1, #63
 7355              	.LVL512:
 7356              		.loc 1 2877 9 view .LVU1839
 7357 000e FFF7FEFF 		bl	lis2dw12_read_reg
 7358              	.LVL513:
2878:Drivers/BSP/Components/lis2dw12/lis2dw12_reg.c **** 
2879:Drivers/BSP/Components/lis2dw12/lis2dw12_reg.c ****   if (ret == 0)
 7359              		.loc 1 2879 3 is_stmt 1 view .LVU1840
 7360              		.loc 1 2879 6 is_stmt 0 view .LVU1841
 7361 0012 08B1     		cbz	r0, .L457
 7362              	.LVL514:
 7363              	.L454:
2880:Drivers/BSP/Components/lis2dw12/lis2dw12_reg.c ****   {
2881:Drivers/BSP/Components/lis2dw12/lis2dw12_reg.c ****     reg.lpass_on6d = (uint8_t) val;
2882:Drivers/BSP/Components/lis2dw12/lis2dw12_reg.c ****     ret = lis2dw12_write_reg(ctx, LIS2DW12_CTRL_REG7, (uint8_t *) &reg, 1);
ARM GAS  /tmp/ccEdQILT.s 			page 188


2883:Drivers/BSP/Components/lis2dw12/lis2dw12_reg.c ****   }
2884:Drivers/BSP/Components/lis2dw12/lis2dw12_reg.c **** 
2885:Drivers/BSP/Components/lis2dw12/lis2dw12_reg.c ****   return ret;
2886:Drivers/BSP/Components/lis2dw12/lis2dw12_reg.c **** }
 7364              		.loc 1 2886 1 view .LVU1842
 7365 0014 03B0     		add	sp, sp, #12
 7366              	.LCFI318:
 7367              		.cfi_remember_state
 7368              		.cfi_def_cfa_offset 12
 7369              		@ sp needed
 7370 0016 30BD     		pop	{r4, r5, pc}
 7371              	.LVL515:
 7372              	.L457:
 7373              	.LCFI319:
 7374              		.cfi_restore_state
2881:Drivers/BSP/Components/lis2dw12/lis2dw12_reg.c ****     ret = lis2dw12_write_reg(ctx, LIS2DW12_CTRL_REG7, (uint8_t *) &reg, 1);
 7375              		.loc 1 2881 5 is_stmt 1 view .LVU1843
2881:Drivers/BSP/Components/lis2dw12/lis2dw12_reg.c ****     ret = lis2dw12_write_reg(ctx, LIS2DW12_CTRL_REG7, (uint8_t *) &reg, 1);
 7376              		.loc 1 2881 20 is_stmt 0 view .LVU1844
 7377 0018 9DF80430 		ldrb	r3, [sp, #4]	@ zero_extendqisi2
 7378 001c 65F30003 		bfi	r3, r5, #0, #1
 7379 0020 8DF80430 		strb	r3, [sp, #4]
2882:Drivers/BSP/Components/lis2dw12/lis2dw12_reg.c ****   }
 7380              		.loc 1 2882 5 is_stmt 1 view .LVU1845
2882:Drivers/BSP/Components/lis2dw12/lis2dw12_reg.c ****   }
 7381              		.loc 1 2882 11 is_stmt 0 view .LVU1846
 7382 0024 0123     		movs	r3, #1
 7383              	.LVL516:
2882:Drivers/BSP/Components/lis2dw12/lis2dw12_reg.c ****   }
 7384              		.loc 1 2882 11 view .LVU1847
 7385 0026 01AA     		add	r2, sp, #4
 7386 0028 3F21     		movs	r1, #63
 7387 002a 2046     		mov	r0, r4
 7388 002c FFF7FEFF 		bl	lis2dw12_write_reg
 7389              	.LVL517:
2885:Drivers/BSP/Components/lis2dw12/lis2dw12_reg.c **** }
 7390              		.loc 1 2885 3 is_stmt 1 view .LVU1848
2885:Drivers/BSP/Components/lis2dw12/lis2dw12_reg.c **** }
 7391              		.loc 1 2885 10 is_stmt 0 view .LVU1849
 7392 0030 F0E7     		b	.L454
 7393              		.cfi_endproc
 7394              	.LFE105:
 7396              		.section	.text.lis2dw12_6d_feed_data_get,"ax",%progbits
 7397              		.align	1
 7398              		.global	lis2dw12_6d_feed_data_get
 7399              		.syntax unified
 7400              		.thumb
 7401              		.thumb_func
 7402              		.fpu fpv4-sp-d16
 7404              	lis2dw12_6d_feed_data_get:
 7405              	.LVL518:
 7406              	.LFB106:
2887:Drivers/BSP/Components/lis2dw12/lis2dw12_reg.c **** 
2888:Drivers/BSP/Components/lis2dw12/lis2dw12_reg.c **** /**
2889:Drivers/BSP/Components/lis2dw12/lis2dw12_reg.c ****   * @brief  Data sent to 6D interrupt function.[get]
2890:Drivers/BSP/Components/lis2dw12/lis2dw12_reg.c ****   *
2891:Drivers/BSP/Components/lis2dw12/lis2dw12_reg.c ****   * @param  ctx      read / write interface definitions
ARM GAS  /tmp/ccEdQILT.s 			page 189


2892:Drivers/BSP/Components/lis2dw12/lis2dw12_reg.c ****   * @param  val      Get the values of lpass_on6d in reg CTRL_REG7
2893:Drivers/BSP/Components/lis2dw12/lis2dw12_reg.c ****   * @retval          interface status (MANDATORY: return 0 -> no Error)
2894:Drivers/BSP/Components/lis2dw12/lis2dw12_reg.c ****   *
2895:Drivers/BSP/Components/lis2dw12/lis2dw12_reg.c ****   */
2896:Drivers/BSP/Components/lis2dw12/lis2dw12_reg.c **** int32_t lis2dw12_6d_feed_data_get(stmdev_ctx_t *ctx,
2897:Drivers/BSP/Components/lis2dw12/lis2dw12_reg.c ****                                   lis2dw12_lpass_on6d_t *val)
2898:Drivers/BSP/Components/lis2dw12/lis2dw12_reg.c **** {
 7407              		.loc 1 2898 1 is_stmt 1 view -0
 7408              		.cfi_startproc
 7409              		@ args = 0, pretend = 0, frame = 8
 7410              		@ frame_needed = 0, uses_anonymous_args = 0
 7411              		.loc 1 2898 1 is_stmt 0 view .LVU1851
 7412 0000 10B5     		push	{r4, lr}
 7413              	.LCFI320:
 7414              		.cfi_def_cfa_offset 8
 7415              		.cfi_offset 4, -8
 7416              		.cfi_offset 14, -4
 7417 0002 82B0     		sub	sp, sp, #8
 7418              	.LCFI321:
 7419              		.cfi_def_cfa_offset 16
 7420 0004 0C46     		mov	r4, r1
2899:Drivers/BSP/Components/lis2dw12/lis2dw12_reg.c ****   lis2dw12_ctrl_reg7_t reg;
 7421              		.loc 1 2899 3 is_stmt 1 view .LVU1852
2900:Drivers/BSP/Components/lis2dw12/lis2dw12_reg.c ****   int32_t ret;
 7422              		.loc 1 2900 3 view .LVU1853
2901:Drivers/BSP/Components/lis2dw12/lis2dw12_reg.c **** 
2902:Drivers/BSP/Components/lis2dw12/lis2dw12_reg.c ****   ret = lis2dw12_read_reg(ctx, LIS2DW12_CTRL_REG7, (uint8_t *) &reg, 1);
 7423              		.loc 1 2902 3 view .LVU1854
 7424              		.loc 1 2902 9 is_stmt 0 view .LVU1855
 7425 0006 0123     		movs	r3, #1
 7426 0008 01AA     		add	r2, sp, #4
 7427 000a 3F21     		movs	r1, #63
 7428              	.LVL519:
 7429              		.loc 1 2902 9 view .LVU1856
 7430 000c FFF7FEFF 		bl	lis2dw12_read_reg
 7431              	.LVL520:
2903:Drivers/BSP/Components/lis2dw12/lis2dw12_reg.c **** 
2904:Drivers/BSP/Components/lis2dw12/lis2dw12_reg.c ****   switch (reg.lpass_on6d)
 7432              		.loc 1 2904 3 is_stmt 1 view .LVU1857
 7433              		.loc 1 2904 14 is_stmt 0 view .LVU1858
 7434 0010 9DF80430 		ldrb	r3, [sp, #4]	@ zero_extendqisi2
 7435              		.loc 1 2904 3 view .LVU1859
 7436 0014 13F00103 		ands	r3, r3, #1
 7437 0018 03D0     		beq	.L459
 7438 001a 33B9     		cbnz	r3, .L460
2905:Drivers/BSP/Components/lis2dw12/lis2dw12_reg.c ****   {
2906:Drivers/BSP/Components/lis2dw12/lis2dw12_reg.c ****     case LIS2DW12_ODR_DIV_2_FEED:
2907:Drivers/BSP/Components/lis2dw12/lis2dw12_reg.c ****       *val = LIS2DW12_ODR_DIV_2_FEED;
2908:Drivers/BSP/Components/lis2dw12/lis2dw12_reg.c ****       break;
2909:Drivers/BSP/Components/lis2dw12/lis2dw12_reg.c **** 
2910:Drivers/BSP/Components/lis2dw12/lis2dw12_reg.c ****     case LIS2DW12_LPF2_FEED:
2911:Drivers/BSP/Components/lis2dw12/lis2dw12_reg.c ****       *val = LIS2DW12_LPF2_FEED;
2912:Drivers/BSP/Components/lis2dw12/lis2dw12_reg.c ****       break;
2913:Drivers/BSP/Components/lis2dw12/lis2dw12_reg.c **** 
2914:Drivers/BSP/Components/lis2dw12/lis2dw12_reg.c ****     default:
2915:Drivers/BSP/Components/lis2dw12/lis2dw12_reg.c ****       *val = LIS2DW12_ODR_DIV_2_FEED;
 7439              		.loc 1 2915 7 is_stmt 1 view .LVU1860
ARM GAS  /tmp/ccEdQILT.s 			page 190


 7440              		.loc 1 2915 12 is_stmt 0 view .LVU1861
 7441 001c 0023     		movs	r3, #0
 7442 001e 2370     		strb	r3, [r4]
2916:Drivers/BSP/Components/lis2dw12/lis2dw12_reg.c ****       break;
 7443              		.loc 1 2916 7 is_stmt 1 view .LVU1862
2917:Drivers/BSP/Components/lis2dw12/lis2dw12_reg.c ****   }
2918:Drivers/BSP/Components/lis2dw12/lis2dw12_reg.c **** 
2919:Drivers/BSP/Components/lis2dw12/lis2dw12_reg.c ****   return ret;
 7444              		.loc 1 2919 3 view .LVU1863
 7445              		.loc 1 2919 10 is_stmt 0 view .LVU1864
 7446 0020 01E0     		b	.L458
 7447              	.L459:
2907:Drivers/BSP/Components/lis2dw12/lis2dw12_reg.c ****       break;
 7448              		.loc 1 2907 7 is_stmt 1 view .LVU1865
2907:Drivers/BSP/Components/lis2dw12/lis2dw12_reg.c ****       break;
 7449              		.loc 1 2907 12 is_stmt 0 view .LVU1866
 7450 0022 0023     		movs	r3, #0
 7451 0024 2370     		strb	r3, [r4]
2908:Drivers/BSP/Components/lis2dw12/lis2dw12_reg.c **** 
 7452              		.loc 1 2908 7 is_stmt 1 view .LVU1867
 7453              	.L458:
2920:Drivers/BSP/Components/lis2dw12/lis2dw12_reg.c **** }
 7454              		.loc 1 2920 1 is_stmt 0 view .LVU1868
 7455 0026 02B0     		add	sp, sp, #8
 7456              	.LCFI322:
 7457              		.cfi_remember_state
 7458              		.cfi_def_cfa_offset 8
 7459              		@ sp needed
 7460 0028 10BD     		pop	{r4, pc}
 7461              	.LVL521:
 7462              	.L460:
 7463              	.LCFI323:
 7464              		.cfi_restore_state
2911:Drivers/BSP/Components/lis2dw12/lis2dw12_reg.c ****       break;
 7465              		.loc 1 2911 7 is_stmt 1 view .LVU1869
2911:Drivers/BSP/Components/lis2dw12/lis2dw12_reg.c ****       break;
 7466              		.loc 1 2911 12 is_stmt 0 view .LVU1870
 7467 002a 0123     		movs	r3, #1
 7468 002c 2370     		strb	r3, [r4]
2912:Drivers/BSP/Components/lis2dw12/lis2dw12_reg.c **** 
 7469              		.loc 1 2912 7 is_stmt 1 view .LVU1871
 7470 002e FAE7     		b	.L458
 7471              		.cfi_endproc
 7472              	.LFE106:
 7474              		.section	.text.lis2dw12_ff_dur_set,"ax",%progbits
 7475              		.align	1
 7476              		.global	lis2dw12_ff_dur_set
 7477              		.syntax unified
 7478              		.thumb
 7479              		.thumb_func
 7480              		.fpu fpv4-sp-d16
 7482              	lis2dw12_ff_dur_set:
 7483              	.LVL522:
 7484              	.LFB107:
2921:Drivers/BSP/Components/lis2dw12/lis2dw12_reg.c **** 
2922:Drivers/BSP/Components/lis2dw12/lis2dw12_reg.c **** /**
2923:Drivers/BSP/Components/lis2dw12/lis2dw12_reg.c ****   * @}
ARM GAS  /tmp/ccEdQILT.s 			page 191


2924:Drivers/BSP/Components/lis2dw12/lis2dw12_reg.c ****   *
2925:Drivers/BSP/Components/lis2dw12/lis2dw12_reg.c ****   */
2926:Drivers/BSP/Components/lis2dw12/lis2dw12_reg.c **** 
2927:Drivers/BSP/Components/lis2dw12/lis2dw12_reg.c **** /**
2928:Drivers/BSP/Components/lis2dw12/lis2dw12_reg.c ****   * @defgroup  LIS2DW12_Free_Fall
2929:Drivers/BSP/Components/lis2dw12/lis2dw12_reg.c ****   * @brief     This section group all the functions concerning
2930:Drivers/BSP/Components/lis2dw12/lis2dw12_reg.c ****   *            the free fall detection.
2931:Drivers/BSP/Components/lis2dw12/lis2dw12_reg.c ****   * @{
2932:Drivers/BSP/Components/lis2dw12/lis2dw12_reg.c ****   *
2933:Drivers/BSP/Components/lis2dw12/lis2dw12_reg.c ****   */
2934:Drivers/BSP/Components/lis2dw12/lis2dw12_reg.c **** 
2935:Drivers/BSP/Components/lis2dw12/lis2dw12_reg.c **** /**
2936:Drivers/BSP/Components/lis2dw12/lis2dw12_reg.c ****   * @brief  Wake up duration event(1LSb = 1 / ODR).[set]
2937:Drivers/BSP/Components/lis2dw12/lis2dw12_reg.c ****   *
2938:Drivers/BSP/Components/lis2dw12/lis2dw12_reg.c ****   * @param  ctx      read / write interface definitions
2939:Drivers/BSP/Components/lis2dw12/lis2dw12_reg.c ****   * @param  val      change the values of ff_dur in reg
2940:Drivers/BSP/Components/lis2dw12/lis2dw12_reg.c ****   *                  WAKE_UP_DUR /F REE_FALL
2941:Drivers/BSP/Components/lis2dw12/lis2dw12_reg.c ****   * @retval          interface status (MANDATORY: return 0 -> no Error)
2942:Drivers/BSP/Components/lis2dw12/lis2dw12_reg.c ****   *
2943:Drivers/BSP/Components/lis2dw12/lis2dw12_reg.c ****   */
2944:Drivers/BSP/Components/lis2dw12/lis2dw12_reg.c **** int32_t lis2dw12_ff_dur_set(stmdev_ctx_t *ctx, uint8_t val)
2945:Drivers/BSP/Components/lis2dw12/lis2dw12_reg.c **** {
 7485              		.loc 1 2945 1 view -0
 7486              		.cfi_startproc
 7487              		@ args = 0, pretend = 0, frame = 8
 7488              		@ frame_needed = 0, uses_anonymous_args = 0
 7489              		.loc 1 2945 1 is_stmt 0 view .LVU1873
 7490 0000 30B5     		push	{r4, r5, lr}
 7491              	.LCFI324:
 7492              		.cfi_def_cfa_offset 12
 7493              		.cfi_offset 4, -12
 7494              		.cfi_offset 5, -8
 7495              		.cfi_offset 14, -4
 7496 0002 83B0     		sub	sp, sp, #12
 7497              	.LCFI325:
 7498              		.cfi_def_cfa_offset 24
 7499 0004 0546     		mov	r5, r0
 7500 0006 0C46     		mov	r4, r1
2946:Drivers/BSP/Components/lis2dw12/lis2dw12_reg.c ****   lis2dw12_wake_up_dur_t wake_up_dur;
 7501              		.loc 1 2946 3 is_stmt 1 view .LVU1874
2947:Drivers/BSP/Components/lis2dw12/lis2dw12_reg.c ****   lis2dw12_free_fall_t free_fall;
 7502              		.loc 1 2947 3 view .LVU1875
2948:Drivers/BSP/Components/lis2dw12/lis2dw12_reg.c ****   int32_t ret;
 7503              		.loc 1 2948 3 view .LVU1876
2949:Drivers/BSP/Components/lis2dw12/lis2dw12_reg.c **** 
2950:Drivers/BSP/Components/lis2dw12/lis2dw12_reg.c ****   ret = lis2dw12_read_reg(ctx, LIS2DW12_WAKE_UP_DUR,
 7504              		.loc 1 2950 3 view .LVU1877
 7505              		.loc 1 2950 9 is_stmt 0 view .LVU1878
 7506 0008 0123     		movs	r3, #1
 7507 000a 01AA     		add	r2, sp, #4
 7508 000c 3521     		movs	r1, #53
 7509              	.LVL523:
 7510              		.loc 1 2950 9 view .LVU1879
 7511 000e FFF7FEFF 		bl	lis2dw12_read_reg
 7512              	.LVL524:
2951:Drivers/BSP/Components/lis2dw12/lis2dw12_reg.c ****                           (uint8_t *) &wake_up_dur, 1);
2952:Drivers/BSP/Components/lis2dw12/lis2dw12_reg.c **** 
ARM GAS  /tmp/ccEdQILT.s 			page 192


2953:Drivers/BSP/Components/lis2dw12/lis2dw12_reg.c ****   if (ret == 0)
 7513              		.loc 1 2953 3 is_stmt 1 view .LVU1880
 7514              		.loc 1 2953 6 is_stmt 0 view .LVU1881
 7515 0012 18B1     		cbz	r0, .L470
 7516              	.LVL525:
 7517              	.L466:
2954:Drivers/BSP/Components/lis2dw12/lis2dw12_reg.c ****   {
2955:Drivers/BSP/Components/lis2dw12/lis2dw12_reg.c ****     ret = lis2dw12_read_reg(ctx, LIS2DW12_FREE_FALL,
2956:Drivers/BSP/Components/lis2dw12/lis2dw12_reg.c ****                             (uint8_t *) &free_fall, 1);
2957:Drivers/BSP/Components/lis2dw12/lis2dw12_reg.c ****   }
2958:Drivers/BSP/Components/lis2dw12/lis2dw12_reg.c **** 
2959:Drivers/BSP/Components/lis2dw12/lis2dw12_reg.c ****   if (ret == 0)
 7518              		.loc 1 2959 3 is_stmt 1 view .LVU1882
 7519              		.loc 1 2959 6 is_stmt 0 view .LVU1883
 7520 0014 48B1     		cbz	r0, .L471
 7521              	.L467:
2960:Drivers/BSP/Components/lis2dw12/lis2dw12_reg.c ****   {
2961:Drivers/BSP/Components/lis2dw12/lis2dw12_reg.c ****     wake_up_dur.ff_dur = ((uint8_t) val & 0x20U) >> 5;
2962:Drivers/BSP/Components/lis2dw12/lis2dw12_reg.c ****     free_fall.ff_dur = (uint8_t) val & 0x1FU;
2963:Drivers/BSP/Components/lis2dw12/lis2dw12_reg.c ****     ret = lis2dw12_write_reg(ctx, LIS2DW12_WAKE_UP_DUR,
2964:Drivers/BSP/Components/lis2dw12/lis2dw12_reg.c ****                              (uint8_t *) &wake_up_dur, 1);
2965:Drivers/BSP/Components/lis2dw12/lis2dw12_reg.c ****   }
2966:Drivers/BSP/Components/lis2dw12/lis2dw12_reg.c **** 
2967:Drivers/BSP/Components/lis2dw12/lis2dw12_reg.c ****   if (ret == 0)
 7522              		.loc 1 2967 3 is_stmt 1 view .LVU1884
 7523              		.loc 1 2967 6 is_stmt 0 view .LVU1885
 7524 0016 E8B1     		cbz	r0, .L472
 7525              	.L465:
2968:Drivers/BSP/Components/lis2dw12/lis2dw12_reg.c ****   {
2969:Drivers/BSP/Components/lis2dw12/lis2dw12_reg.c ****     ret = lis2dw12_write_reg(ctx, LIS2DW12_FREE_FALL,
2970:Drivers/BSP/Components/lis2dw12/lis2dw12_reg.c ****                              (uint8_t *) &free_fall, 1);
2971:Drivers/BSP/Components/lis2dw12/lis2dw12_reg.c ****   }
2972:Drivers/BSP/Components/lis2dw12/lis2dw12_reg.c **** 
2973:Drivers/BSP/Components/lis2dw12/lis2dw12_reg.c ****   return ret;
2974:Drivers/BSP/Components/lis2dw12/lis2dw12_reg.c **** }
 7526              		.loc 1 2974 1 view .LVU1886
 7527 0018 03B0     		add	sp, sp, #12
 7528              	.LCFI326:
 7529              		.cfi_remember_state
 7530              		.cfi_def_cfa_offset 12
 7531              		@ sp needed
 7532 001a 30BD     		pop	{r4, r5, pc}
 7533              	.LVL526:
 7534              	.L470:
 7535              	.LCFI327:
 7536              		.cfi_restore_state
2955:Drivers/BSP/Components/lis2dw12/lis2dw12_reg.c ****                             (uint8_t *) &free_fall, 1);
 7537              		.loc 1 2955 5 is_stmt 1 view .LVU1887
2955:Drivers/BSP/Components/lis2dw12/lis2dw12_reg.c ****                             (uint8_t *) &free_fall, 1);
 7538              		.loc 1 2955 11 is_stmt 0 view .LVU1888
 7539 001c 0123     		movs	r3, #1
 7540              	.LVL527:
2955:Drivers/BSP/Components/lis2dw12/lis2dw12_reg.c ****                             (uint8_t *) &free_fall, 1);
 7541              		.loc 1 2955 11 view .LVU1889
 7542 001e 6A46     		mov	r2, sp
 7543 0020 3621     		movs	r1, #54
 7544 0022 2846     		mov	r0, r5
ARM GAS  /tmp/ccEdQILT.s 			page 193


 7545 0024 FFF7FEFF 		bl	lis2dw12_read_reg
 7546              	.LVL528:
2955:Drivers/BSP/Components/lis2dw12/lis2dw12_reg.c ****                             (uint8_t *) &free_fall, 1);
 7547              		.loc 1 2955 11 view .LVU1890
 7548 0028 F4E7     		b	.L466
 7549              	.L471:
2961:Drivers/BSP/Components/lis2dw12/lis2dw12_reg.c ****     free_fall.ff_dur = (uint8_t) val & 0x1FU;
 7550              		.loc 1 2961 5 is_stmt 1 view .LVU1891
2961:Drivers/BSP/Components/lis2dw12/lis2dw12_reg.c ****     free_fall.ff_dur = (uint8_t) val & 0x1FU;
 7551              		.loc 1 2961 50 is_stmt 0 view .LVU1892
 7552 002a C4F34012 		ubfx	r2, r4, #5, #1
2961:Drivers/BSP/Components/lis2dw12/lis2dw12_reg.c ****     free_fall.ff_dur = (uint8_t) val & 0x1FU;
 7553              		.loc 1 2961 24 view .LVU1893
 7554 002e 9DF80430 		ldrb	r3, [sp, #4]	@ zero_extendqisi2
 7555 0032 62F3C713 		bfi	r3, r2, #7, #1
 7556 0036 8DF80430 		strb	r3, [sp, #4]
2962:Drivers/BSP/Components/lis2dw12/lis2dw12_reg.c ****     ret = lis2dw12_write_reg(ctx, LIS2DW12_WAKE_UP_DUR,
 7557              		.loc 1 2962 5 is_stmt 1 view .LVU1894
2962:Drivers/BSP/Components/lis2dw12/lis2dw12_reg.c ****     ret = lis2dw12_write_reg(ctx, LIS2DW12_WAKE_UP_DUR,
 7558              		.loc 1 2962 22 is_stmt 0 view .LVU1895
 7559 003a 9DF80030 		ldrb	r3, [sp]	@ zero_extendqisi2
 7560 003e 64F3C703 		bfi	r3, r4, #3, #5
 7561 0042 8DF80030 		strb	r3, [sp]
2963:Drivers/BSP/Components/lis2dw12/lis2dw12_reg.c ****                              (uint8_t *) &wake_up_dur, 1);
 7562              		.loc 1 2963 5 is_stmt 1 view .LVU1896
2963:Drivers/BSP/Components/lis2dw12/lis2dw12_reg.c ****                              (uint8_t *) &wake_up_dur, 1);
 7563              		.loc 1 2963 11 is_stmt 0 view .LVU1897
 7564 0046 0123     		movs	r3, #1
 7565 0048 01AA     		add	r2, sp, #4
 7566 004a 3521     		movs	r1, #53
 7567 004c 2846     		mov	r0, r5
 7568              	.LVL529:
2963:Drivers/BSP/Components/lis2dw12/lis2dw12_reg.c ****                              (uint8_t *) &wake_up_dur, 1);
 7569              		.loc 1 2963 11 view .LVU1898
 7570 004e FFF7FEFF 		bl	lis2dw12_write_reg
 7571              	.LVL530:
2963:Drivers/BSP/Components/lis2dw12/lis2dw12_reg.c ****                              (uint8_t *) &wake_up_dur, 1);
 7572              		.loc 1 2963 11 view .LVU1899
 7573 0052 E0E7     		b	.L467
 7574              	.L472:
2969:Drivers/BSP/Components/lis2dw12/lis2dw12_reg.c ****                              (uint8_t *) &free_fall, 1);
 7575              		.loc 1 2969 5 is_stmt 1 view .LVU1900
2969:Drivers/BSP/Components/lis2dw12/lis2dw12_reg.c ****                              (uint8_t *) &free_fall, 1);
 7576              		.loc 1 2969 11 is_stmt 0 view .LVU1901
 7577 0054 0123     		movs	r3, #1
 7578 0056 6A46     		mov	r2, sp
 7579 0058 3621     		movs	r1, #54
 7580 005a 2846     		mov	r0, r5
 7581              	.LVL531:
2969:Drivers/BSP/Components/lis2dw12/lis2dw12_reg.c ****                              (uint8_t *) &free_fall, 1);
 7582              		.loc 1 2969 11 view .LVU1902
 7583 005c FFF7FEFF 		bl	lis2dw12_write_reg
 7584              	.LVL532:
2973:Drivers/BSP/Components/lis2dw12/lis2dw12_reg.c **** }
 7585              		.loc 1 2973 3 is_stmt 1 view .LVU1903
2973:Drivers/BSP/Components/lis2dw12/lis2dw12_reg.c **** }
 7586              		.loc 1 2973 10 is_stmt 0 view .LVU1904
ARM GAS  /tmp/ccEdQILT.s 			page 194


 7587 0060 DAE7     		b	.L465
 7588              		.cfi_endproc
 7589              	.LFE107:
 7591              		.section	.text.lis2dw12_ff_dur_get,"ax",%progbits
 7592              		.align	1
 7593              		.global	lis2dw12_ff_dur_get
 7594              		.syntax unified
 7595              		.thumb
 7596              		.thumb_func
 7597              		.fpu fpv4-sp-d16
 7599              	lis2dw12_ff_dur_get:
 7600              	.LVL533:
 7601              	.LFB108:
2975:Drivers/BSP/Components/lis2dw12/lis2dw12_reg.c **** 
2976:Drivers/BSP/Components/lis2dw12/lis2dw12_reg.c **** /**
2977:Drivers/BSP/Components/lis2dw12/lis2dw12_reg.c ****   * @brief  Wake up duration event(1LSb = 1 / ODR).[get]
2978:Drivers/BSP/Components/lis2dw12/lis2dw12_reg.c ****   *
2979:Drivers/BSP/Components/lis2dw12/lis2dw12_reg.c ****   * @param  ctx      read / write interface definitions
2980:Drivers/BSP/Components/lis2dw12/lis2dw12_reg.c ****   * @param  val      change the values of ff_dur in
2981:Drivers/BSP/Components/lis2dw12/lis2dw12_reg.c ****   *                  reg WAKE_UP_DUR /F REE_FALL
2982:Drivers/BSP/Components/lis2dw12/lis2dw12_reg.c ****   * @retval          interface status (MANDATORY: return 0 -> no Error)
2983:Drivers/BSP/Components/lis2dw12/lis2dw12_reg.c ****   *
2984:Drivers/BSP/Components/lis2dw12/lis2dw12_reg.c ****   */
2985:Drivers/BSP/Components/lis2dw12/lis2dw12_reg.c **** int32_t lis2dw12_ff_dur_get(stmdev_ctx_t *ctx, uint8_t *val)
2986:Drivers/BSP/Components/lis2dw12/lis2dw12_reg.c **** {
 7602              		.loc 1 2986 1 is_stmt 1 view -0
 7603              		.cfi_startproc
 7604              		@ args = 0, pretend = 0, frame = 8
 7605              		@ frame_needed = 0, uses_anonymous_args = 0
 7606              		.loc 1 2986 1 is_stmt 0 view .LVU1906
 7607 0000 30B5     		push	{r4, r5, lr}
 7608              	.LCFI328:
 7609              		.cfi_def_cfa_offset 12
 7610              		.cfi_offset 4, -12
 7611              		.cfi_offset 5, -8
 7612              		.cfi_offset 14, -4
 7613 0002 83B0     		sub	sp, sp, #12
 7614              	.LCFI329:
 7615              		.cfi_def_cfa_offset 24
 7616 0004 0446     		mov	r4, r0
 7617 0006 0D46     		mov	r5, r1
2987:Drivers/BSP/Components/lis2dw12/lis2dw12_reg.c ****   lis2dw12_wake_up_dur_t wake_up_dur;
 7618              		.loc 1 2987 3 is_stmt 1 view .LVU1907
2988:Drivers/BSP/Components/lis2dw12/lis2dw12_reg.c ****   lis2dw12_free_fall_t free_fall;
 7619              		.loc 1 2988 3 view .LVU1908
2989:Drivers/BSP/Components/lis2dw12/lis2dw12_reg.c ****   int32_t ret;
 7620              		.loc 1 2989 3 view .LVU1909
2990:Drivers/BSP/Components/lis2dw12/lis2dw12_reg.c **** 
2991:Drivers/BSP/Components/lis2dw12/lis2dw12_reg.c ****   ret = lis2dw12_read_reg(ctx, LIS2DW12_WAKE_UP_DUR,
 7621              		.loc 1 2991 3 view .LVU1910
 7622              		.loc 1 2991 9 is_stmt 0 view .LVU1911
 7623 0008 0123     		movs	r3, #1
 7624 000a 01AA     		add	r2, sp, #4
 7625 000c 3521     		movs	r1, #53
 7626              	.LVL534:
 7627              		.loc 1 2991 9 view .LVU1912
 7628 000e FFF7FEFF 		bl	lis2dw12_read_reg
ARM GAS  /tmp/ccEdQILT.s 			page 195


 7629              	.LVL535:
2992:Drivers/BSP/Components/lis2dw12/lis2dw12_reg.c ****                           (uint8_t *) &wake_up_dur, 1);
2993:Drivers/BSP/Components/lis2dw12/lis2dw12_reg.c **** 
2994:Drivers/BSP/Components/lis2dw12/lis2dw12_reg.c ****   if (ret == 0)
 7630              		.loc 1 2994 3 is_stmt 1 view .LVU1913
 7631              		.loc 1 2994 6 is_stmt 0 view .LVU1914
 7632 0012 08B1     		cbz	r0, .L476
 7633              	.LVL536:
 7634              	.L473:
2995:Drivers/BSP/Components/lis2dw12/lis2dw12_reg.c ****   {
2996:Drivers/BSP/Components/lis2dw12/lis2dw12_reg.c ****     ret = lis2dw12_read_reg(ctx, LIS2DW12_FREE_FALL,
2997:Drivers/BSP/Components/lis2dw12/lis2dw12_reg.c ****                             (uint8_t *) &free_fall, 1);
2998:Drivers/BSP/Components/lis2dw12/lis2dw12_reg.c ****     *val = (wake_up_dur.ff_dur << 5) + free_fall.ff_dur;
2999:Drivers/BSP/Components/lis2dw12/lis2dw12_reg.c ****   }
3000:Drivers/BSP/Components/lis2dw12/lis2dw12_reg.c **** 
3001:Drivers/BSP/Components/lis2dw12/lis2dw12_reg.c ****   return ret;
3002:Drivers/BSP/Components/lis2dw12/lis2dw12_reg.c **** }
 7635              		.loc 1 3002 1 view .LVU1915
 7636 0014 03B0     		add	sp, sp, #12
 7637              	.LCFI330:
 7638              		.cfi_remember_state
 7639              		.cfi_def_cfa_offset 12
 7640              		@ sp needed
 7641 0016 30BD     		pop	{r4, r5, pc}
 7642              	.LVL537:
 7643              	.L476:
 7644              	.LCFI331:
 7645              		.cfi_restore_state
2996:Drivers/BSP/Components/lis2dw12/lis2dw12_reg.c ****                             (uint8_t *) &free_fall, 1);
 7646              		.loc 1 2996 5 is_stmt 1 view .LVU1916
2996:Drivers/BSP/Components/lis2dw12/lis2dw12_reg.c ****                             (uint8_t *) &free_fall, 1);
 7647              		.loc 1 2996 11 is_stmt 0 view .LVU1917
 7648 0018 0123     		movs	r3, #1
 7649              	.LVL538:
2996:Drivers/BSP/Components/lis2dw12/lis2dw12_reg.c ****                             (uint8_t *) &free_fall, 1);
 7650              		.loc 1 2996 11 view .LVU1918
 7651 001a 6A46     		mov	r2, sp
 7652 001c 3621     		movs	r1, #54
 7653 001e 2046     		mov	r0, r4
 7654 0020 FFF7FEFF 		bl	lis2dw12_read_reg
 7655              	.LVL539:
2998:Drivers/BSP/Components/lis2dw12/lis2dw12_reg.c ****   }
 7656              		.loc 1 2998 5 is_stmt 1 view .LVU1919
2998:Drivers/BSP/Components/lis2dw12/lis2dw12_reg.c ****   }
 7657              		.loc 1 2998 24 is_stmt 0 view .LVU1920
 7658 0024 9DF80430 		ldrb	r3, [sp, #4]	@ zero_extendqisi2
 7659 0028 DA09     		lsrs	r2, r3, #7
2998:Drivers/BSP/Components/lis2dw12/lis2dw12_reg.c ****   }
 7660              		.loc 1 2998 49 view .LVU1921
 7661 002a 9DF80030 		ldrb	r3, [sp]	@ zero_extendqisi2
 7662 002e DB08     		lsrs	r3, r3, #3
2998:Drivers/BSP/Components/lis2dw12/lis2dw12_reg.c ****   }
 7663              		.loc 1 2998 38 view .LVU1922
 7664 0030 03EB4213 		add	r3, r3, r2, lsl #5
2998:Drivers/BSP/Components/lis2dw12/lis2dw12_reg.c ****   }
 7665              		.loc 1 2998 10 view .LVU1923
 7666 0034 2B70     		strb	r3, [r5]
ARM GAS  /tmp/ccEdQILT.s 			page 196


3001:Drivers/BSP/Components/lis2dw12/lis2dw12_reg.c **** }
 7667              		.loc 1 3001 3 is_stmt 1 view .LVU1924
3001:Drivers/BSP/Components/lis2dw12/lis2dw12_reg.c **** }
 7668              		.loc 1 3001 10 is_stmt 0 view .LVU1925
 7669 0036 EDE7     		b	.L473
 7670              		.cfi_endproc
 7671              	.LFE108:
 7673              		.section	.text.lis2dw12_ff_threshold_set,"ax",%progbits
 7674              		.align	1
 7675              		.global	lis2dw12_ff_threshold_set
 7676              		.syntax unified
 7677              		.thumb
 7678              		.thumb_func
 7679              		.fpu fpv4-sp-d16
 7681              	lis2dw12_ff_threshold_set:
 7682              	.LVL540:
 7683              	.LFB109:
3003:Drivers/BSP/Components/lis2dw12/lis2dw12_reg.c **** 
3004:Drivers/BSP/Components/lis2dw12/lis2dw12_reg.c **** /**
3005:Drivers/BSP/Components/lis2dw12/lis2dw12_reg.c ****   * @brief  Free fall threshold setting.[set]
3006:Drivers/BSP/Components/lis2dw12/lis2dw12_reg.c ****   *
3007:Drivers/BSP/Components/lis2dw12/lis2dw12_reg.c ****   * @param  ctx      read / write interface definitions
3008:Drivers/BSP/Components/lis2dw12/lis2dw12_reg.c ****   * @param  val      change the values of ff_ths in reg FREE_FALL
3009:Drivers/BSP/Components/lis2dw12/lis2dw12_reg.c ****   * @retval          interface status (MANDATORY: return 0 -> no Error)
3010:Drivers/BSP/Components/lis2dw12/lis2dw12_reg.c ****   *
3011:Drivers/BSP/Components/lis2dw12/lis2dw12_reg.c ****   */
3012:Drivers/BSP/Components/lis2dw12/lis2dw12_reg.c **** int32_t lis2dw12_ff_threshold_set(stmdev_ctx_t *ctx,
3013:Drivers/BSP/Components/lis2dw12/lis2dw12_reg.c ****                                   lis2dw12_ff_ths_t val)
3014:Drivers/BSP/Components/lis2dw12/lis2dw12_reg.c **** {
 7684              		.loc 1 3014 1 is_stmt 1 view -0
 7685              		.cfi_startproc
 7686              		@ args = 0, pretend = 0, frame = 8
 7687              		@ frame_needed = 0, uses_anonymous_args = 0
 7688              		.loc 1 3014 1 is_stmt 0 view .LVU1927
 7689 0000 30B5     		push	{r4, r5, lr}
 7690              	.LCFI332:
 7691              		.cfi_def_cfa_offset 12
 7692              		.cfi_offset 4, -12
 7693              		.cfi_offset 5, -8
 7694              		.cfi_offset 14, -4
 7695 0002 83B0     		sub	sp, sp, #12
 7696              	.LCFI333:
 7697              		.cfi_def_cfa_offset 24
 7698 0004 0446     		mov	r4, r0
 7699 0006 0D46     		mov	r5, r1
3015:Drivers/BSP/Components/lis2dw12/lis2dw12_reg.c ****   lis2dw12_free_fall_t reg;
 7700              		.loc 1 3015 3 is_stmt 1 view .LVU1928
3016:Drivers/BSP/Components/lis2dw12/lis2dw12_reg.c ****   int32_t ret;
 7701              		.loc 1 3016 3 view .LVU1929
3017:Drivers/BSP/Components/lis2dw12/lis2dw12_reg.c **** 
3018:Drivers/BSP/Components/lis2dw12/lis2dw12_reg.c ****   ret = lis2dw12_read_reg(ctx, LIS2DW12_FREE_FALL, (uint8_t *) &reg, 1);
 7702              		.loc 1 3018 3 view .LVU1930
 7703              		.loc 1 3018 9 is_stmt 0 view .LVU1931
 7704 0008 0123     		movs	r3, #1
 7705 000a 01AA     		add	r2, sp, #4
 7706 000c 3621     		movs	r1, #54
 7707              	.LVL541:
ARM GAS  /tmp/ccEdQILT.s 			page 197


 7708              		.loc 1 3018 9 view .LVU1932
 7709 000e FFF7FEFF 		bl	lis2dw12_read_reg
 7710              	.LVL542:
3019:Drivers/BSP/Components/lis2dw12/lis2dw12_reg.c **** 
3020:Drivers/BSP/Components/lis2dw12/lis2dw12_reg.c ****   if (ret == 0)
 7711              		.loc 1 3020 3 is_stmt 1 view .LVU1933
 7712              		.loc 1 3020 6 is_stmt 0 view .LVU1934
 7713 0012 08B1     		cbz	r0, .L480
 7714              	.LVL543:
 7715              	.L477:
3021:Drivers/BSP/Components/lis2dw12/lis2dw12_reg.c ****   {
3022:Drivers/BSP/Components/lis2dw12/lis2dw12_reg.c ****     reg.ff_ths = (uint8_t) val;
3023:Drivers/BSP/Components/lis2dw12/lis2dw12_reg.c ****     ret = lis2dw12_write_reg(ctx, LIS2DW12_FREE_FALL, (uint8_t *) &reg, 1);
3024:Drivers/BSP/Components/lis2dw12/lis2dw12_reg.c ****   }
3025:Drivers/BSP/Components/lis2dw12/lis2dw12_reg.c **** 
3026:Drivers/BSP/Components/lis2dw12/lis2dw12_reg.c ****   return ret;
3027:Drivers/BSP/Components/lis2dw12/lis2dw12_reg.c **** }
 7716              		.loc 1 3027 1 view .LVU1935
 7717 0014 03B0     		add	sp, sp, #12
 7718              	.LCFI334:
 7719              		.cfi_remember_state
 7720              		.cfi_def_cfa_offset 12
 7721              		@ sp needed
 7722 0016 30BD     		pop	{r4, r5, pc}
 7723              	.LVL544:
 7724              	.L480:
 7725              	.LCFI335:
 7726              		.cfi_restore_state
3022:Drivers/BSP/Components/lis2dw12/lis2dw12_reg.c ****     ret = lis2dw12_write_reg(ctx, LIS2DW12_FREE_FALL, (uint8_t *) &reg, 1);
 7727              		.loc 1 3022 5 is_stmt 1 view .LVU1936
3022:Drivers/BSP/Components/lis2dw12/lis2dw12_reg.c ****     ret = lis2dw12_write_reg(ctx, LIS2DW12_FREE_FALL, (uint8_t *) &reg, 1);
 7728              		.loc 1 3022 16 is_stmt 0 view .LVU1937
 7729 0018 9DF80430 		ldrb	r3, [sp, #4]	@ zero_extendqisi2
 7730 001c 65F30203 		bfi	r3, r5, #0, #3
 7731 0020 8DF80430 		strb	r3, [sp, #4]
3023:Drivers/BSP/Components/lis2dw12/lis2dw12_reg.c ****   }
 7732              		.loc 1 3023 5 is_stmt 1 view .LVU1938
3023:Drivers/BSP/Components/lis2dw12/lis2dw12_reg.c ****   }
 7733              		.loc 1 3023 11 is_stmt 0 view .LVU1939
 7734 0024 0123     		movs	r3, #1
 7735              	.LVL545:
3023:Drivers/BSP/Components/lis2dw12/lis2dw12_reg.c ****   }
 7736              		.loc 1 3023 11 view .LVU1940
 7737 0026 01AA     		add	r2, sp, #4
 7738 0028 3621     		movs	r1, #54
 7739 002a 2046     		mov	r0, r4
 7740 002c FFF7FEFF 		bl	lis2dw12_write_reg
 7741              	.LVL546:
3026:Drivers/BSP/Components/lis2dw12/lis2dw12_reg.c **** }
 7742              		.loc 1 3026 3 is_stmt 1 view .LVU1941
3026:Drivers/BSP/Components/lis2dw12/lis2dw12_reg.c **** }
 7743              		.loc 1 3026 10 is_stmt 0 view .LVU1942
 7744 0030 F0E7     		b	.L477
 7745              		.cfi_endproc
 7746              	.LFE109:
 7748              		.section	.text.lis2dw12_ff_threshold_get,"ax",%progbits
 7749              		.align	1
ARM GAS  /tmp/ccEdQILT.s 			page 198


 7750              		.global	lis2dw12_ff_threshold_get
 7751              		.syntax unified
 7752              		.thumb
 7753              		.thumb_func
 7754              		.fpu fpv4-sp-d16
 7756              	lis2dw12_ff_threshold_get:
 7757              	.LVL547:
 7758              	.LFB110:
3028:Drivers/BSP/Components/lis2dw12/lis2dw12_reg.c **** 
3029:Drivers/BSP/Components/lis2dw12/lis2dw12_reg.c **** /**
3030:Drivers/BSP/Components/lis2dw12/lis2dw12_reg.c ****   * @brief  Free fall threshold setting.[get]
3031:Drivers/BSP/Components/lis2dw12/lis2dw12_reg.c ****   *
3032:Drivers/BSP/Components/lis2dw12/lis2dw12_reg.c ****   * @param  ctx      read / write interface definitions
3033:Drivers/BSP/Components/lis2dw12/lis2dw12_reg.c ****   * @param  val      Get the values of ff_ths in reg FREE_FALL
3034:Drivers/BSP/Components/lis2dw12/lis2dw12_reg.c ****   * @retval          interface status (MANDATORY: return 0 -> no Error)
3035:Drivers/BSP/Components/lis2dw12/lis2dw12_reg.c ****   *
3036:Drivers/BSP/Components/lis2dw12/lis2dw12_reg.c ****   */
3037:Drivers/BSP/Components/lis2dw12/lis2dw12_reg.c **** int32_t lis2dw12_ff_threshold_get(stmdev_ctx_t *ctx,
3038:Drivers/BSP/Components/lis2dw12/lis2dw12_reg.c ****                                   lis2dw12_ff_ths_t *val)
3039:Drivers/BSP/Components/lis2dw12/lis2dw12_reg.c **** {
 7759              		.loc 1 3039 1 is_stmt 1 view -0
 7760              		.cfi_startproc
 7761              		@ args = 0, pretend = 0, frame = 8
 7762              		@ frame_needed = 0, uses_anonymous_args = 0
 7763              		.loc 1 3039 1 is_stmt 0 view .LVU1944
 7764 0000 10B5     		push	{r4, lr}
 7765              	.LCFI336:
 7766              		.cfi_def_cfa_offset 8
 7767              		.cfi_offset 4, -8
 7768              		.cfi_offset 14, -4
 7769 0002 82B0     		sub	sp, sp, #8
 7770              	.LCFI337:
 7771              		.cfi_def_cfa_offset 16
 7772 0004 0C46     		mov	r4, r1
3040:Drivers/BSP/Components/lis2dw12/lis2dw12_reg.c ****   lis2dw12_free_fall_t reg;
 7773              		.loc 1 3040 3 is_stmt 1 view .LVU1945
3041:Drivers/BSP/Components/lis2dw12/lis2dw12_reg.c ****   int32_t ret;
 7774              		.loc 1 3041 3 view .LVU1946
3042:Drivers/BSP/Components/lis2dw12/lis2dw12_reg.c **** 
3043:Drivers/BSP/Components/lis2dw12/lis2dw12_reg.c ****   ret = lis2dw12_read_reg(ctx, LIS2DW12_FREE_FALL, (uint8_t *) &reg, 1);
 7775              		.loc 1 3043 3 view .LVU1947
 7776              		.loc 1 3043 9 is_stmt 0 view .LVU1948
 7777 0006 0123     		movs	r3, #1
 7778 0008 01AA     		add	r2, sp, #4
 7779 000a 3621     		movs	r1, #54
 7780              	.LVL548:
 7781              		.loc 1 3043 9 view .LVU1949
 7782 000c FFF7FEFF 		bl	lis2dw12_read_reg
 7783              	.LVL549:
3044:Drivers/BSP/Components/lis2dw12/lis2dw12_reg.c **** 
3045:Drivers/BSP/Components/lis2dw12/lis2dw12_reg.c ****   switch (reg.ff_ths)
 7784              		.loc 1 3045 3 is_stmt 1 view .LVU1950
 7785              		.loc 1 3045 14 is_stmt 0 view .LVU1951
 7786 0010 9DF80430 		ldrb	r3, [sp, #4]	@ zero_extendqisi2
 7787 0014 03F00703 		and	r3, r3, #7
 7788              		.loc 1 3045 3 view .LVU1952
 7789 0018 072B     		cmp	r3, #7
ARM GAS  /tmp/ccEdQILT.s 			page 199


 7790 001a 1ED8     		bhi	.L482
 7791 001c DFE803F0 		tbb	[pc, r3]
 7792              	.L484:
 7793 0020 04       		.byte	(.L491-.L484)/2
 7794 0021 08       		.byte	(.L490-.L484)/2
 7795 0022 0B       		.byte	(.L489-.L484)/2
 7796 0023 0E       		.byte	(.L488-.L484)/2
 7797 0024 11       		.byte	(.L487-.L484)/2
 7798 0025 14       		.byte	(.L486-.L484)/2
 7799 0026 17       		.byte	(.L485-.L484)/2
 7800 0027 1A       		.byte	(.L483-.L484)/2
 7801              		.p2align 1
 7802              	.L491:
3046:Drivers/BSP/Components/lis2dw12/lis2dw12_reg.c ****   {
3047:Drivers/BSP/Components/lis2dw12/lis2dw12_reg.c ****     case LIS2DW12_FF_TSH_5LSb_FS2g:
3048:Drivers/BSP/Components/lis2dw12/lis2dw12_reg.c ****       *val = LIS2DW12_FF_TSH_5LSb_FS2g;
 7803              		.loc 1 3048 7 is_stmt 1 view .LVU1953
 7804              		.loc 1 3048 12 is_stmt 0 view .LVU1954
 7805 0028 0023     		movs	r3, #0
 7806 002a 2370     		strb	r3, [r4]
3049:Drivers/BSP/Components/lis2dw12/lis2dw12_reg.c ****       break;
 7807              		.loc 1 3049 7 is_stmt 1 view .LVU1955
 7808              	.L481:
3050:Drivers/BSP/Components/lis2dw12/lis2dw12_reg.c **** 
3051:Drivers/BSP/Components/lis2dw12/lis2dw12_reg.c ****     case LIS2DW12_FF_TSH_7LSb_FS2g:
3052:Drivers/BSP/Components/lis2dw12/lis2dw12_reg.c ****       *val = LIS2DW12_FF_TSH_7LSb_FS2g;
3053:Drivers/BSP/Components/lis2dw12/lis2dw12_reg.c ****       break;
3054:Drivers/BSP/Components/lis2dw12/lis2dw12_reg.c **** 
3055:Drivers/BSP/Components/lis2dw12/lis2dw12_reg.c ****     case LIS2DW12_FF_TSH_8LSb_FS2g:
3056:Drivers/BSP/Components/lis2dw12/lis2dw12_reg.c ****       *val = LIS2DW12_FF_TSH_8LSb_FS2g;
3057:Drivers/BSP/Components/lis2dw12/lis2dw12_reg.c ****       break;
3058:Drivers/BSP/Components/lis2dw12/lis2dw12_reg.c **** 
3059:Drivers/BSP/Components/lis2dw12/lis2dw12_reg.c ****     case LIS2DW12_FF_TSH_10LSb_FS2g:
3060:Drivers/BSP/Components/lis2dw12/lis2dw12_reg.c ****       *val = LIS2DW12_FF_TSH_10LSb_FS2g;
3061:Drivers/BSP/Components/lis2dw12/lis2dw12_reg.c ****       break;
3062:Drivers/BSP/Components/lis2dw12/lis2dw12_reg.c **** 
3063:Drivers/BSP/Components/lis2dw12/lis2dw12_reg.c ****     case LIS2DW12_FF_TSH_11LSb_FS2g:
3064:Drivers/BSP/Components/lis2dw12/lis2dw12_reg.c ****       *val = LIS2DW12_FF_TSH_11LSb_FS2g;
3065:Drivers/BSP/Components/lis2dw12/lis2dw12_reg.c ****       break;
3066:Drivers/BSP/Components/lis2dw12/lis2dw12_reg.c **** 
3067:Drivers/BSP/Components/lis2dw12/lis2dw12_reg.c ****     case LIS2DW12_FF_TSH_13LSb_FS2g:
3068:Drivers/BSP/Components/lis2dw12/lis2dw12_reg.c ****       *val = LIS2DW12_FF_TSH_13LSb_FS2g;
3069:Drivers/BSP/Components/lis2dw12/lis2dw12_reg.c ****       break;
3070:Drivers/BSP/Components/lis2dw12/lis2dw12_reg.c **** 
3071:Drivers/BSP/Components/lis2dw12/lis2dw12_reg.c ****     case LIS2DW12_FF_TSH_15LSb_FS2g:
3072:Drivers/BSP/Components/lis2dw12/lis2dw12_reg.c ****       *val = LIS2DW12_FF_TSH_15LSb_FS2g;
3073:Drivers/BSP/Components/lis2dw12/lis2dw12_reg.c ****       break;
3074:Drivers/BSP/Components/lis2dw12/lis2dw12_reg.c **** 
3075:Drivers/BSP/Components/lis2dw12/lis2dw12_reg.c ****     case LIS2DW12_FF_TSH_16LSb_FS2g:
3076:Drivers/BSP/Components/lis2dw12/lis2dw12_reg.c ****       *val = LIS2DW12_FF_TSH_16LSb_FS2g;
3077:Drivers/BSP/Components/lis2dw12/lis2dw12_reg.c ****       break;
3078:Drivers/BSP/Components/lis2dw12/lis2dw12_reg.c **** 
3079:Drivers/BSP/Components/lis2dw12/lis2dw12_reg.c ****     default:
3080:Drivers/BSP/Components/lis2dw12/lis2dw12_reg.c ****       *val = LIS2DW12_FF_TSH_5LSb_FS2g;
3081:Drivers/BSP/Components/lis2dw12/lis2dw12_reg.c ****       break;
3082:Drivers/BSP/Components/lis2dw12/lis2dw12_reg.c ****   }
3083:Drivers/BSP/Components/lis2dw12/lis2dw12_reg.c **** 
ARM GAS  /tmp/ccEdQILT.s 			page 200


3084:Drivers/BSP/Components/lis2dw12/lis2dw12_reg.c ****   return ret;
3085:Drivers/BSP/Components/lis2dw12/lis2dw12_reg.c **** }
 7809              		.loc 1 3085 1 is_stmt 0 view .LVU1956
 7810 002c 02B0     		add	sp, sp, #8
 7811              	.LCFI338:
 7812              		.cfi_remember_state
 7813              		.cfi_def_cfa_offset 8
 7814              		@ sp needed
 7815 002e 10BD     		pop	{r4, pc}
 7816              	.LVL550:
 7817              	.L490:
 7818              	.LCFI339:
 7819              		.cfi_restore_state
3052:Drivers/BSP/Components/lis2dw12/lis2dw12_reg.c ****       break;
 7820              		.loc 1 3052 7 is_stmt 1 view .LVU1957
3052:Drivers/BSP/Components/lis2dw12/lis2dw12_reg.c ****       break;
 7821              		.loc 1 3052 12 is_stmt 0 view .LVU1958
 7822 0030 0123     		movs	r3, #1
 7823 0032 2370     		strb	r3, [r4]
3053:Drivers/BSP/Components/lis2dw12/lis2dw12_reg.c **** 
 7824              		.loc 1 3053 7 is_stmt 1 view .LVU1959
 7825 0034 FAE7     		b	.L481
 7826              	.L489:
3056:Drivers/BSP/Components/lis2dw12/lis2dw12_reg.c ****       break;
 7827              		.loc 1 3056 7 view .LVU1960
3056:Drivers/BSP/Components/lis2dw12/lis2dw12_reg.c ****       break;
 7828              		.loc 1 3056 12 is_stmt 0 view .LVU1961
 7829 0036 0223     		movs	r3, #2
 7830 0038 2370     		strb	r3, [r4]
3057:Drivers/BSP/Components/lis2dw12/lis2dw12_reg.c **** 
 7831              		.loc 1 3057 7 is_stmt 1 view .LVU1962
 7832 003a F7E7     		b	.L481
 7833              	.L488:
3060:Drivers/BSP/Components/lis2dw12/lis2dw12_reg.c ****       break;
 7834              		.loc 1 3060 7 view .LVU1963
3060:Drivers/BSP/Components/lis2dw12/lis2dw12_reg.c ****       break;
 7835              		.loc 1 3060 12 is_stmt 0 view .LVU1964
 7836 003c 0323     		movs	r3, #3
 7837 003e 2370     		strb	r3, [r4]
3061:Drivers/BSP/Components/lis2dw12/lis2dw12_reg.c **** 
 7838              		.loc 1 3061 7 is_stmt 1 view .LVU1965
 7839 0040 F4E7     		b	.L481
 7840              	.L487:
3064:Drivers/BSP/Components/lis2dw12/lis2dw12_reg.c ****       break;
 7841              		.loc 1 3064 7 view .LVU1966
3064:Drivers/BSP/Components/lis2dw12/lis2dw12_reg.c ****       break;
 7842              		.loc 1 3064 12 is_stmt 0 view .LVU1967
 7843 0042 0423     		movs	r3, #4
 7844 0044 2370     		strb	r3, [r4]
3065:Drivers/BSP/Components/lis2dw12/lis2dw12_reg.c **** 
 7845              		.loc 1 3065 7 is_stmt 1 view .LVU1968
 7846 0046 F1E7     		b	.L481
 7847              	.L486:
3068:Drivers/BSP/Components/lis2dw12/lis2dw12_reg.c ****       break;
 7848              		.loc 1 3068 7 view .LVU1969
3068:Drivers/BSP/Components/lis2dw12/lis2dw12_reg.c ****       break;
 7849              		.loc 1 3068 12 is_stmt 0 view .LVU1970
ARM GAS  /tmp/ccEdQILT.s 			page 201


 7850 0048 0523     		movs	r3, #5
 7851 004a 2370     		strb	r3, [r4]
3069:Drivers/BSP/Components/lis2dw12/lis2dw12_reg.c **** 
 7852              		.loc 1 3069 7 is_stmt 1 view .LVU1971
 7853 004c EEE7     		b	.L481
 7854              	.L485:
3072:Drivers/BSP/Components/lis2dw12/lis2dw12_reg.c ****       break;
 7855              		.loc 1 3072 7 view .LVU1972
3072:Drivers/BSP/Components/lis2dw12/lis2dw12_reg.c ****       break;
 7856              		.loc 1 3072 12 is_stmt 0 view .LVU1973
 7857 004e 0623     		movs	r3, #6
 7858 0050 2370     		strb	r3, [r4]
3073:Drivers/BSP/Components/lis2dw12/lis2dw12_reg.c **** 
 7859              		.loc 1 3073 7 is_stmt 1 view .LVU1974
 7860 0052 EBE7     		b	.L481
 7861              	.L483:
3076:Drivers/BSP/Components/lis2dw12/lis2dw12_reg.c ****       break;
 7862              		.loc 1 3076 7 view .LVU1975
3076:Drivers/BSP/Components/lis2dw12/lis2dw12_reg.c ****       break;
 7863              		.loc 1 3076 12 is_stmt 0 view .LVU1976
 7864 0054 0723     		movs	r3, #7
 7865 0056 2370     		strb	r3, [r4]
3077:Drivers/BSP/Components/lis2dw12/lis2dw12_reg.c **** 
 7866              		.loc 1 3077 7 is_stmt 1 view .LVU1977
 7867 0058 E8E7     		b	.L481
 7868              	.L482:
3080:Drivers/BSP/Components/lis2dw12/lis2dw12_reg.c ****       break;
 7869              		.loc 1 3080 7 view .LVU1978
3080:Drivers/BSP/Components/lis2dw12/lis2dw12_reg.c ****       break;
 7870              		.loc 1 3080 12 is_stmt 0 view .LVU1979
 7871 005a 0023     		movs	r3, #0
 7872 005c 2370     		strb	r3, [r4]
3081:Drivers/BSP/Components/lis2dw12/lis2dw12_reg.c ****   }
 7873              		.loc 1 3081 7 is_stmt 1 view .LVU1980
3084:Drivers/BSP/Components/lis2dw12/lis2dw12_reg.c **** }
 7874              		.loc 1 3084 3 view .LVU1981
3084:Drivers/BSP/Components/lis2dw12/lis2dw12_reg.c **** }
 7875              		.loc 1 3084 10 is_stmt 0 view .LVU1982
 7876 005e E5E7     		b	.L481
 7877              		.cfi_endproc
 7878              	.LFE110:
 7880              		.section	.text.lis2dw12_fifo_watermark_set,"ax",%progbits
 7881              		.align	1
 7882              		.global	lis2dw12_fifo_watermark_set
 7883              		.syntax unified
 7884              		.thumb
 7885              		.thumb_func
 7886              		.fpu fpv4-sp-d16
 7888              	lis2dw12_fifo_watermark_set:
 7889              	.LVL551:
 7890              	.LFB111:
3086:Drivers/BSP/Components/lis2dw12/lis2dw12_reg.c **** 
3087:Drivers/BSP/Components/lis2dw12/lis2dw12_reg.c **** /**
3088:Drivers/BSP/Components/lis2dw12/lis2dw12_reg.c ****   * @}
3089:Drivers/BSP/Components/lis2dw12/lis2dw12_reg.c ****   *
3090:Drivers/BSP/Components/lis2dw12/lis2dw12_reg.c ****   */
3091:Drivers/BSP/Components/lis2dw12/lis2dw12_reg.c **** 
ARM GAS  /tmp/ccEdQILT.s 			page 202


3092:Drivers/BSP/Components/lis2dw12/lis2dw12_reg.c **** /**
3093:Drivers/BSP/Components/lis2dw12/lis2dw12_reg.c ****   * @defgroup  LIS2DW12_Fifo
3094:Drivers/BSP/Components/lis2dw12/lis2dw12_reg.c ****   * @brief     This section group all the functions concerning the fifo usage
3095:Drivers/BSP/Components/lis2dw12/lis2dw12_reg.c ****   * @{
3096:Drivers/BSP/Components/lis2dw12/lis2dw12_reg.c ****   *
3097:Drivers/BSP/Components/lis2dw12/lis2dw12_reg.c ****   */
3098:Drivers/BSP/Components/lis2dw12/lis2dw12_reg.c **** 
3099:Drivers/BSP/Components/lis2dw12/lis2dw12_reg.c **** /**
3100:Drivers/BSP/Components/lis2dw12/lis2dw12_reg.c ****   * @brief  FIFO watermark level selection.[set]
3101:Drivers/BSP/Components/lis2dw12/lis2dw12_reg.c ****   *
3102:Drivers/BSP/Components/lis2dw12/lis2dw12_reg.c ****   * @param  ctx      read / write interface definitions
3103:Drivers/BSP/Components/lis2dw12/lis2dw12_reg.c ****   * @param  val      change the values of fth in reg FIFO_CTRL
3104:Drivers/BSP/Components/lis2dw12/lis2dw12_reg.c ****   * @retval          interface status (MANDATORY: return 0 -> no Error)
3105:Drivers/BSP/Components/lis2dw12/lis2dw12_reg.c ****   *
3106:Drivers/BSP/Components/lis2dw12/lis2dw12_reg.c ****   */
3107:Drivers/BSP/Components/lis2dw12/lis2dw12_reg.c **** int32_t lis2dw12_fifo_watermark_set(stmdev_ctx_t *ctx, uint8_t val)
3108:Drivers/BSP/Components/lis2dw12/lis2dw12_reg.c **** {
 7891              		.loc 1 3108 1 is_stmt 1 view -0
 7892              		.cfi_startproc
 7893              		@ args = 0, pretend = 0, frame = 8
 7894              		@ frame_needed = 0, uses_anonymous_args = 0
 7895              		.loc 1 3108 1 is_stmt 0 view .LVU1984
 7896 0000 30B5     		push	{r4, r5, lr}
 7897              	.LCFI340:
 7898              		.cfi_def_cfa_offset 12
 7899              		.cfi_offset 4, -12
 7900              		.cfi_offset 5, -8
 7901              		.cfi_offset 14, -4
 7902 0002 83B0     		sub	sp, sp, #12
 7903              	.LCFI341:
 7904              		.cfi_def_cfa_offset 24
 7905 0004 0446     		mov	r4, r0
 7906 0006 0D46     		mov	r5, r1
3109:Drivers/BSP/Components/lis2dw12/lis2dw12_reg.c ****   lis2dw12_fifo_ctrl_t reg;
 7907              		.loc 1 3109 3 is_stmt 1 view .LVU1985
3110:Drivers/BSP/Components/lis2dw12/lis2dw12_reg.c ****   int32_t ret;
 7908              		.loc 1 3110 3 view .LVU1986
3111:Drivers/BSP/Components/lis2dw12/lis2dw12_reg.c **** 
3112:Drivers/BSP/Components/lis2dw12/lis2dw12_reg.c ****   ret = lis2dw12_read_reg(ctx, LIS2DW12_FIFO_CTRL, (uint8_t *) &reg, 1);
 7909              		.loc 1 3112 3 view .LVU1987
 7910              		.loc 1 3112 9 is_stmt 0 view .LVU1988
 7911 0008 0123     		movs	r3, #1
 7912 000a 01AA     		add	r2, sp, #4
 7913 000c 2E21     		movs	r1, #46
 7914              	.LVL552:
 7915              		.loc 1 3112 9 view .LVU1989
 7916 000e FFF7FEFF 		bl	lis2dw12_read_reg
 7917              	.LVL553:
3113:Drivers/BSP/Components/lis2dw12/lis2dw12_reg.c **** 
3114:Drivers/BSP/Components/lis2dw12/lis2dw12_reg.c ****   if (ret == 0)
 7918              		.loc 1 3114 3 is_stmt 1 view .LVU1990
 7919              		.loc 1 3114 6 is_stmt 0 view .LVU1991
 7920 0012 08B1     		cbz	r0, .L497
 7921              	.LVL554:
 7922              	.L494:
3115:Drivers/BSP/Components/lis2dw12/lis2dw12_reg.c ****   {
3116:Drivers/BSP/Components/lis2dw12/lis2dw12_reg.c ****     reg.fth = val;
ARM GAS  /tmp/ccEdQILT.s 			page 203


3117:Drivers/BSP/Components/lis2dw12/lis2dw12_reg.c ****     ret = lis2dw12_write_reg(ctx, LIS2DW12_FIFO_CTRL, (uint8_t *) &reg, 1);
3118:Drivers/BSP/Components/lis2dw12/lis2dw12_reg.c ****   }
3119:Drivers/BSP/Components/lis2dw12/lis2dw12_reg.c **** 
3120:Drivers/BSP/Components/lis2dw12/lis2dw12_reg.c ****   return ret;
3121:Drivers/BSP/Components/lis2dw12/lis2dw12_reg.c **** }
 7923              		.loc 1 3121 1 view .LVU1992
 7924 0014 03B0     		add	sp, sp, #12
 7925              	.LCFI342:
 7926              		.cfi_remember_state
 7927              		.cfi_def_cfa_offset 12
 7928              		@ sp needed
 7929 0016 30BD     		pop	{r4, r5, pc}
 7930              	.LVL555:
 7931              	.L497:
 7932              	.LCFI343:
 7933              		.cfi_restore_state
3116:Drivers/BSP/Components/lis2dw12/lis2dw12_reg.c ****     ret = lis2dw12_write_reg(ctx, LIS2DW12_FIFO_CTRL, (uint8_t *) &reg, 1);
 7934              		.loc 1 3116 5 is_stmt 1 view .LVU1993
3116:Drivers/BSP/Components/lis2dw12/lis2dw12_reg.c ****     ret = lis2dw12_write_reg(ctx, LIS2DW12_FIFO_CTRL, (uint8_t *) &reg, 1);
 7935              		.loc 1 3116 13 is_stmt 0 view .LVU1994
 7936 0018 9DF80430 		ldrb	r3, [sp, #4]	@ zero_extendqisi2
 7937 001c 65F30403 		bfi	r3, r5, #0, #5
 7938 0020 8DF80430 		strb	r3, [sp, #4]
3117:Drivers/BSP/Components/lis2dw12/lis2dw12_reg.c ****   }
 7939              		.loc 1 3117 5 is_stmt 1 view .LVU1995
3117:Drivers/BSP/Components/lis2dw12/lis2dw12_reg.c ****   }
 7940              		.loc 1 3117 11 is_stmt 0 view .LVU1996
 7941 0024 0123     		movs	r3, #1
 7942              	.LVL556:
3117:Drivers/BSP/Components/lis2dw12/lis2dw12_reg.c ****   }
 7943              		.loc 1 3117 11 view .LVU1997
 7944 0026 01AA     		add	r2, sp, #4
 7945 0028 2E21     		movs	r1, #46
 7946 002a 2046     		mov	r0, r4
 7947 002c FFF7FEFF 		bl	lis2dw12_write_reg
 7948              	.LVL557:
3120:Drivers/BSP/Components/lis2dw12/lis2dw12_reg.c **** }
 7949              		.loc 1 3120 3 is_stmt 1 view .LVU1998
3120:Drivers/BSP/Components/lis2dw12/lis2dw12_reg.c **** }
 7950              		.loc 1 3120 10 is_stmt 0 view .LVU1999
 7951 0030 F0E7     		b	.L494
 7952              		.cfi_endproc
 7953              	.LFE111:
 7955              		.section	.text.lis2dw12_fifo_watermark_get,"ax",%progbits
 7956              		.align	1
 7957              		.global	lis2dw12_fifo_watermark_get
 7958              		.syntax unified
 7959              		.thumb
 7960              		.thumb_func
 7961              		.fpu fpv4-sp-d16
 7963              	lis2dw12_fifo_watermark_get:
 7964              	.LVL558:
 7965              	.LFB112:
3122:Drivers/BSP/Components/lis2dw12/lis2dw12_reg.c **** 
3123:Drivers/BSP/Components/lis2dw12/lis2dw12_reg.c **** /**
3124:Drivers/BSP/Components/lis2dw12/lis2dw12_reg.c ****   * @brief  FIFO watermark level selection.[get]
3125:Drivers/BSP/Components/lis2dw12/lis2dw12_reg.c ****   *
ARM GAS  /tmp/ccEdQILT.s 			page 204


3126:Drivers/BSP/Components/lis2dw12/lis2dw12_reg.c ****   * @param  ctx      read / write interface definitions
3127:Drivers/BSP/Components/lis2dw12/lis2dw12_reg.c ****   * @param  val      change the values of fth in reg FIFO_CTRL
3128:Drivers/BSP/Components/lis2dw12/lis2dw12_reg.c ****   * @retval          interface status (MANDATORY: return 0 -> no Error)
3129:Drivers/BSP/Components/lis2dw12/lis2dw12_reg.c ****   *
3130:Drivers/BSP/Components/lis2dw12/lis2dw12_reg.c ****   */
3131:Drivers/BSP/Components/lis2dw12/lis2dw12_reg.c **** int32_t lis2dw12_fifo_watermark_get(stmdev_ctx_t *ctx, uint8_t *val)
3132:Drivers/BSP/Components/lis2dw12/lis2dw12_reg.c **** {
 7966              		.loc 1 3132 1 is_stmt 1 view -0
 7967              		.cfi_startproc
 7968              		@ args = 0, pretend = 0, frame = 8
 7969              		@ frame_needed = 0, uses_anonymous_args = 0
 7970              		.loc 1 3132 1 is_stmt 0 view .LVU2001
 7971 0000 10B5     		push	{r4, lr}
 7972              	.LCFI344:
 7973              		.cfi_def_cfa_offset 8
 7974              		.cfi_offset 4, -8
 7975              		.cfi_offset 14, -4
 7976 0002 82B0     		sub	sp, sp, #8
 7977              	.LCFI345:
 7978              		.cfi_def_cfa_offset 16
 7979 0004 0C46     		mov	r4, r1
3133:Drivers/BSP/Components/lis2dw12/lis2dw12_reg.c ****   lis2dw12_fifo_ctrl_t reg;
 7980              		.loc 1 3133 3 is_stmt 1 view .LVU2002
3134:Drivers/BSP/Components/lis2dw12/lis2dw12_reg.c ****   int32_t ret;
 7981              		.loc 1 3134 3 view .LVU2003
3135:Drivers/BSP/Components/lis2dw12/lis2dw12_reg.c **** 
3136:Drivers/BSP/Components/lis2dw12/lis2dw12_reg.c ****   ret = lis2dw12_read_reg(ctx, LIS2DW12_FIFO_CTRL, (uint8_t *) &reg, 1);
 7982              		.loc 1 3136 3 view .LVU2004
 7983              		.loc 1 3136 9 is_stmt 0 view .LVU2005
 7984 0006 0123     		movs	r3, #1
 7985 0008 01AA     		add	r2, sp, #4
 7986 000a 2E21     		movs	r1, #46
 7987              	.LVL559:
 7988              		.loc 1 3136 9 view .LVU2006
 7989 000c FFF7FEFF 		bl	lis2dw12_read_reg
 7990              	.LVL560:
3137:Drivers/BSP/Components/lis2dw12/lis2dw12_reg.c ****   *val = reg.fth;
 7991              		.loc 1 3137 3 is_stmt 1 view .LVU2007
 7992              		.loc 1 3137 13 is_stmt 0 view .LVU2008
 7993 0010 9DF80430 		ldrb	r3, [sp, #4]	@ zero_extendqisi2
 7994 0014 C3F30403 		ubfx	r3, r3, #0, #5
 7995              		.loc 1 3137 8 view .LVU2009
 7996 0018 2370     		strb	r3, [r4]
3138:Drivers/BSP/Components/lis2dw12/lis2dw12_reg.c **** 
3139:Drivers/BSP/Components/lis2dw12/lis2dw12_reg.c ****   return ret;
 7997              		.loc 1 3139 3 is_stmt 1 view .LVU2010
3140:Drivers/BSP/Components/lis2dw12/lis2dw12_reg.c **** }
 7998              		.loc 1 3140 1 is_stmt 0 view .LVU2011
 7999 001a 02B0     		add	sp, sp, #8
 8000              	.LCFI346:
 8001              		.cfi_def_cfa_offset 8
 8002              		@ sp needed
 8003 001c 10BD     		pop	{r4, pc}
 8004              		.loc 1 3140 1 view .LVU2012
 8005              		.cfi_endproc
 8006              	.LFE112:
 8008              		.section	.text.lis2dw12_fifo_mode_set,"ax",%progbits
ARM GAS  /tmp/ccEdQILT.s 			page 205


 8009              		.align	1
 8010              		.global	lis2dw12_fifo_mode_set
 8011              		.syntax unified
 8012              		.thumb
 8013              		.thumb_func
 8014              		.fpu fpv4-sp-d16
 8016              	lis2dw12_fifo_mode_set:
 8017              	.LVL561:
 8018              	.LFB113:
3141:Drivers/BSP/Components/lis2dw12/lis2dw12_reg.c **** 
3142:Drivers/BSP/Components/lis2dw12/lis2dw12_reg.c **** /**
3143:Drivers/BSP/Components/lis2dw12/lis2dw12_reg.c ****   * @brief  FIFO mode selection.[set]
3144:Drivers/BSP/Components/lis2dw12/lis2dw12_reg.c ****   *
3145:Drivers/BSP/Components/lis2dw12/lis2dw12_reg.c ****   * @param  ctx      read / write interface definitions
3146:Drivers/BSP/Components/lis2dw12/lis2dw12_reg.c ****   * @param  val      change the values of fmode in reg FIFO_CTRL
3147:Drivers/BSP/Components/lis2dw12/lis2dw12_reg.c ****   * @retval          interface status (MANDATORY: return 0 -> no Error)
3148:Drivers/BSP/Components/lis2dw12/lis2dw12_reg.c ****   *
3149:Drivers/BSP/Components/lis2dw12/lis2dw12_reg.c ****   */
3150:Drivers/BSP/Components/lis2dw12/lis2dw12_reg.c **** int32_t lis2dw12_fifo_mode_set(stmdev_ctx_t *ctx,
3151:Drivers/BSP/Components/lis2dw12/lis2dw12_reg.c ****                                lis2dw12_fmode_t val)
3152:Drivers/BSP/Components/lis2dw12/lis2dw12_reg.c **** {
 8019              		.loc 1 3152 1 is_stmt 1 view -0
 8020              		.cfi_startproc
 8021              		@ args = 0, pretend = 0, frame = 8
 8022              		@ frame_needed = 0, uses_anonymous_args = 0
 8023              		.loc 1 3152 1 is_stmt 0 view .LVU2014
 8024 0000 30B5     		push	{r4, r5, lr}
 8025              	.LCFI347:
 8026              		.cfi_def_cfa_offset 12
 8027              		.cfi_offset 4, -12
 8028              		.cfi_offset 5, -8
 8029              		.cfi_offset 14, -4
 8030 0002 83B0     		sub	sp, sp, #12
 8031              	.LCFI348:
 8032              		.cfi_def_cfa_offset 24
 8033 0004 0446     		mov	r4, r0
 8034 0006 0D46     		mov	r5, r1
3153:Drivers/BSP/Components/lis2dw12/lis2dw12_reg.c ****   lis2dw12_fifo_ctrl_t reg;
 8035              		.loc 1 3153 3 is_stmt 1 view .LVU2015
3154:Drivers/BSP/Components/lis2dw12/lis2dw12_reg.c ****   int32_t ret;
 8036              		.loc 1 3154 3 view .LVU2016
3155:Drivers/BSP/Components/lis2dw12/lis2dw12_reg.c **** 
3156:Drivers/BSP/Components/lis2dw12/lis2dw12_reg.c ****   ret = lis2dw12_read_reg(ctx, LIS2DW12_FIFO_CTRL, (uint8_t *) &reg, 1);
 8037              		.loc 1 3156 3 view .LVU2017
 8038              		.loc 1 3156 9 is_stmt 0 view .LVU2018
 8039 0008 0123     		movs	r3, #1
 8040 000a 01AA     		add	r2, sp, #4
 8041 000c 2E21     		movs	r1, #46
 8042              	.LVL562:
 8043              		.loc 1 3156 9 view .LVU2019
 8044 000e FFF7FEFF 		bl	lis2dw12_read_reg
 8045              	.LVL563:
3157:Drivers/BSP/Components/lis2dw12/lis2dw12_reg.c **** 
3158:Drivers/BSP/Components/lis2dw12/lis2dw12_reg.c ****   if (ret == 0)
 8046              		.loc 1 3158 3 is_stmt 1 view .LVU2020
 8047              		.loc 1 3158 6 is_stmt 0 view .LVU2021
 8048 0012 08B1     		cbz	r0, .L503
ARM GAS  /tmp/ccEdQILT.s 			page 206


 8049              	.LVL564:
 8050              	.L500:
3159:Drivers/BSP/Components/lis2dw12/lis2dw12_reg.c ****   {
3160:Drivers/BSP/Components/lis2dw12/lis2dw12_reg.c ****     reg.fmode = (uint8_t) val;
3161:Drivers/BSP/Components/lis2dw12/lis2dw12_reg.c ****     ret = lis2dw12_write_reg(ctx, LIS2DW12_FIFO_CTRL, (uint8_t *) &reg, 1);
3162:Drivers/BSP/Components/lis2dw12/lis2dw12_reg.c ****   }
3163:Drivers/BSP/Components/lis2dw12/lis2dw12_reg.c **** 
3164:Drivers/BSP/Components/lis2dw12/lis2dw12_reg.c ****   return ret;
3165:Drivers/BSP/Components/lis2dw12/lis2dw12_reg.c **** }
 8051              		.loc 1 3165 1 view .LVU2022
 8052 0014 03B0     		add	sp, sp, #12
 8053              	.LCFI349:
 8054              		.cfi_remember_state
 8055              		.cfi_def_cfa_offset 12
 8056              		@ sp needed
 8057 0016 30BD     		pop	{r4, r5, pc}
 8058              	.LVL565:
 8059              	.L503:
 8060              	.LCFI350:
 8061              		.cfi_restore_state
3160:Drivers/BSP/Components/lis2dw12/lis2dw12_reg.c ****     ret = lis2dw12_write_reg(ctx, LIS2DW12_FIFO_CTRL, (uint8_t *) &reg, 1);
 8062              		.loc 1 3160 5 is_stmt 1 view .LVU2023
3160:Drivers/BSP/Components/lis2dw12/lis2dw12_reg.c ****     ret = lis2dw12_write_reg(ctx, LIS2DW12_FIFO_CTRL, (uint8_t *) &reg, 1);
 8063              		.loc 1 3160 15 is_stmt 0 view .LVU2024
 8064 0018 9DF80430 		ldrb	r3, [sp, #4]	@ zero_extendqisi2
 8065 001c 65F34713 		bfi	r3, r5, #5, #3
 8066 0020 8DF80430 		strb	r3, [sp, #4]
3161:Drivers/BSP/Components/lis2dw12/lis2dw12_reg.c ****   }
 8067              		.loc 1 3161 5 is_stmt 1 view .LVU2025
3161:Drivers/BSP/Components/lis2dw12/lis2dw12_reg.c ****   }
 8068              		.loc 1 3161 11 is_stmt 0 view .LVU2026
 8069 0024 0123     		movs	r3, #1
 8070              	.LVL566:
3161:Drivers/BSP/Components/lis2dw12/lis2dw12_reg.c ****   }
 8071              		.loc 1 3161 11 view .LVU2027
 8072 0026 01AA     		add	r2, sp, #4
 8073 0028 2E21     		movs	r1, #46
 8074 002a 2046     		mov	r0, r4
 8075 002c FFF7FEFF 		bl	lis2dw12_write_reg
 8076              	.LVL567:
3164:Drivers/BSP/Components/lis2dw12/lis2dw12_reg.c **** }
 8077              		.loc 1 3164 3 is_stmt 1 view .LVU2028
3164:Drivers/BSP/Components/lis2dw12/lis2dw12_reg.c **** }
 8078              		.loc 1 3164 10 is_stmt 0 view .LVU2029
 8079 0030 F0E7     		b	.L500
 8080              		.cfi_endproc
 8081              	.LFE113:
 8083              		.section	.text.lis2dw12_fifo_mode_get,"ax",%progbits
 8084              		.align	1
 8085              		.global	lis2dw12_fifo_mode_get
 8086              		.syntax unified
 8087              		.thumb
 8088              		.thumb_func
 8089              		.fpu fpv4-sp-d16
 8091              	lis2dw12_fifo_mode_get:
 8092              	.LVL568:
 8093              	.LFB114:
ARM GAS  /tmp/ccEdQILT.s 			page 207


3166:Drivers/BSP/Components/lis2dw12/lis2dw12_reg.c **** 
3167:Drivers/BSP/Components/lis2dw12/lis2dw12_reg.c **** /**
3168:Drivers/BSP/Components/lis2dw12/lis2dw12_reg.c ****   * @brief  FIFO mode selection.[get]
3169:Drivers/BSP/Components/lis2dw12/lis2dw12_reg.c ****   *
3170:Drivers/BSP/Components/lis2dw12/lis2dw12_reg.c ****   * @param  ctx      read / write interface definitions
3171:Drivers/BSP/Components/lis2dw12/lis2dw12_reg.c ****   * @param  val      Get the values of fmode in reg FIFO_CTRL
3172:Drivers/BSP/Components/lis2dw12/lis2dw12_reg.c ****   * @retval          interface status (MANDATORY: return 0 -> no Error)
3173:Drivers/BSP/Components/lis2dw12/lis2dw12_reg.c ****   *
3174:Drivers/BSP/Components/lis2dw12/lis2dw12_reg.c ****   */
3175:Drivers/BSP/Components/lis2dw12/lis2dw12_reg.c **** int32_t lis2dw12_fifo_mode_get(stmdev_ctx_t *ctx,
3176:Drivers/BSP/Components/lis2dw12/lis2dw12_reg.c ****                                lis2dw12_fmode_t *val)
3177:Drivers/BSP/Components/lis2dw12/lis2dw12_reg.c **** {
 8094              		.loc 1 3177 1 is_stmt 1 view -0
 8095              		.cfi_startproc
 8096              		@ args = 0, pretend = 0, frame = 8
 8097              		@ frame_needed = 0, uses_anonymous_args = 0
 8098              		.loc 1 3177 1 is_stmt 0 view .LVU2031
 8099 0000 10B5     		push	{r4, lr}
 8100              	.LCFI351:
 8101              		.cfi_def_cfa_offset 8
 8102              		.cfi_offset 4, -8
 8103              		.cfi_offset 14, -4
 8104 0002 82B0     		sub	sp, sp, #8
 8105              	.LCFI352:
 8106              		.cfi_def_cfa_offset 16
 8107 0004 0C46     		mov	r4, r1
3178:Drivers/BSP/Components/lis2dw12/lis2dw12_reg.c ****   lis2dw12_fifo_ctrl_t reg;
 8108              		.loc 1 3178 3 is_stmt 1 view .LVU2032
3179:Drivers/BSP/Components/lis2dw12/lis2dw12_reg.c ****   int32_t ret;
 8109              		.loc 1 3179 3 view .LVU2033
3180:Drivers/BSP/Components/lis2dw12/lis2dw12_reg.c **** 
3181:Drivers/BSP/Components/lis2dw12/lis2dw12_reg.c ****   ret = lis2dw12_read_reg(ctx, LIS2DW12_FIFO_CTRL, (uint8_t *) &reg, 1);
 8110              		.loc 1 3181 3 view .LVU2034
 8111              		.loc 1 3181 9 is_stmt 0 view .LVU2035
 8112 0006 0123     		movs	r3, #1
 8113 0008 01AA     		add	r2, sp, #4
 8114 000a 2E21     		movs	r1, #46
 8115              	.LVL569:
 8116              		.loc 1 3181 9 view .LVU2036
 8117 000c FFF7FEFF 		bl	lis2dw12_read_reg
 8118              	.LVL570:
3182:Drivers/BSP/Components/lis2dw12/lis2dw12_reg.c **** 
3183:Drivers/BSP/Components/lis2dw12/lis2dw12_reg.c ****   switch (reg.fmode)
 8119              		.loc 1 3183 3 is_stmt 1 view .LVU2037
 8120              		.loc 1 3183 14 is_stmt 0 view .LVU2038
 8121 0010 9DF80430 		ldrb	r3, [sp, #4]	@ zero_extendqisi2
 8122 0014 5B09     		lsrs	r3, r3, #5
 8123              		.loc 1 3183 3 view .LVU2039
 8124 0016 062B     		cmp	r3, #6
 8125 0018 15D8     		bhi	.L505
 8126 001a DFE803F0 		tbb	[pc, r3]
 8127              	.L507:
 8128 001e 04       		.byte	(.L511-.L507)/2
 8129 001f 08       		.byte	(.L510-.L507)/2
 8130 0020 14       		.byte	(.L505-.L507)/2
 8131 0021 0B       		.byte	(.L509-.L507)/2
 8132 0022 0E       		.byte	(.L508-.L507)/2
ARM GAS  /tmp/ccEdQILT.s 			page 208


 8133 0023 14       		.byte	(.L505-.L507)/2
 8134 0024 11       		.byte	(.L506-.L507)/2
 8135 0025 00       		.p2align 1
 8136              	.L511:
3184:Drivers/BSP/Components/lis2dw12/lis2dw12_reg.c ****   {
3185:Drivers/BSP/Components/lis2dw12/lis2dw12_reg.c ****     case LIS2DW12_BYPASS_MODE:
3186:Drivers/BSP/Components/lis2dw12/lis2dw12_reg.c ****       *val = LIS2DW12_BYPASS_MODE;
 8137              		.loc 1 3186 7 is_stmt 1 view .LVU2040
 8138              		.loc 1 3186 12 is_stmt 0 view .LVU2041
 8139 0026 0023     		movs	r3, #0
 8140 0028 2370     		strb	r3, [r4]
3187:Drivers/BSP/Components/lis2dw12/lis2dw12_reg.c ****       break;
 8141              		.loc 1 3187 7 is_stmt 1 view .LVU2042
 8142              	.L504:
3188:Drivers/BSP/Components/lis2dw12/lis2dw12_reg.c **** 
3189:Drivers/BSP/Components/lis2dw12/lis2dw12_reg.c ****     case LIS2DW12_FIFO_MODE:
3190:Drivers/BSP/Components/lis2dw12/lis2dw12_reg.c ****       *val = LIS2DW12_FIFO_MODE;
3191:Drivers/BSP/Components/lis2dw12/lis2dw12_reg.c ****       break;
3192:Drivers/BSP/Components/lis2dw12/lis2dw12_reg.c **** 
3193:Drivers/BSP/Components/lis2dw12/lis2dw12_reg.c ****     case LIS2DW12_STREAM_TO_FIFO_MODE:
3194:Drivers/BSP/Components/lis2dw12/lis2dw12_reg.c ****       *val = LIS2DW12_STREAM_TO_FIFO_MODE;
3195:Drivers/BSP/Components/lis2dw12/lis2dw12_reg.c ****       break;
3196:Drivers/BSP/Components/lis2dw12/lis2dw12_reg.c **** 
3197:Drivers/BSP/Components/lis2dw12/lis2dw12_reg.c ****     case LIS2DW12_BYPASS_TO_STREAM_MODE:
3198:Drivers/BSP/Components/lis2dw12/lis2dw12_reg.c ****       *val = LIS2DW12_BYPASS_TO_STREAM_MODE;
3199:Drivers/BSP/Components/lis2dw12/lis2dw12_reg.c ****       break;
3200:Drivers/BSP/Components/lis2dw12/lis2dw12_reg.c **** 
3201:Drivers/BSP/Components/lis2dw12/lis2dw12_reg.c ****     case LIS2DW12_STREAM_MODE:
3202:Drivers/BSP/Components/lis2dw12/lis2dw12_reg.c ****       *val = LIS2DW12_STREAM_MODE;
3203:Drivers/BSP/Components/lis2dw12/lis2dw12_reg.c ****       break;
3204:Drivers/BSP/Components/lis2dw12/lis2dw12_reg.c **** 
3205:Drivers/BSP/Components/lis2dw12/lis2dw12_reg.c ****     default:
3206:Drivers/BSP/Components/lis2dw12/lis2dw12_reg.c ****       *val = LIS2DW12_BYPASS_MODE;
3207:Drivers/BSP/Components/lis2dw12/lis2dw12_reg.c ****       break;
3208:Drivers/BSP/Components/lis2dw12/lis2dw12_reg.c ****   }
3209:Drivers/BSP/Components/lis2dw12/lis2dw12_reg.c **** 
3210:Drivers/BSP/Components/lis2dw12/lis2dw12_reg.c ****   return ret;
3211:Drivers/BSP/Components/lis2dw12/lis2dw12_reg.c **** }
 8143              		.loc 1 3211 1 is_stmt 0 view .LVU2043
 8144 002a 02B0     		add	sp, sp, #8
 8145              	.LCFI353:
 8146              		.cfi_remember_state
 8147              		.cfi_def_cfa_offset 8
 8148              		@ sp needed
 8149 002c 10BD     		pop	{r4, pc}
 8150              	.LVL571:
 8151              	.L510:
 8152              	.LCFI354:
 8153              		.cfi_restore_state
3190:Drivers/BSP/Components/lis2dw12/lis2dw12_reg.c ****       break;
 8154              		.loc 1 3190 7 is_stmt 1 view .LVU2044
3190:Drivers/BSP/Components/lis2dw12/lis2dw12_reg.c ****       break;
 8155              		.loc 1 3190 12 is_stmt 0 view .LVU2045
 8156 002e 0123     		movs	r3, #1
 8157 0030 2370     		strb	r3, [r4]
3191:Drivers/BSP/Components/lis2dw12/lis2dw12_reg.c **** 
 8158              		.loc 1 3191 7 is_stmt 1 view .LVU2046
ARM GAS  /tmp/ccEdQILT.s 			page 209


 8159 0032 FAE7     		b	.L504
 8160              	.L509:
3194:Drivers/BSP/Components/lis2dw12/lis2dw12_reg.c ****       break;
 8161              		.loc 1 3194 7 view .LVU2047
3194:Drivers/BSP/Components/lis2dw12/lis2dw12_reg.c ****       break;
 8162              		.loc 1 3194 12 is_stmt 0 view .LVU2048
 8163 0034 0323     		movs	r3, #3
 8164 0036 2370     		strb	r3, [r4]
3195:Drivers/BSP/Components/lis2dw12/lis2dw12_reg.c **** 
 8165              		.loc 1 3195 7 is_stmt 1 view .LVU2049
 8166 0038 F7E7     		b	.L504
 8167              	.L508:
3198:Drivers/BSP/Components/lis2dw12/lis2dw12_reg.c ****       break;
 8168              		.loc 1 3198 7 view .LVU2050
3198:Drivers/BSP/Components/lis2dw12/lis2dw12_reg.c ****       break;
 8169              		.loc 1 3198 12 is_stmt 0 view .LVU2051
 8170 003a 0423     		movs	r3, #4
 8171 003c 2370     		strb	r3, [r4]
3199:Drivers/BSP/Components/lis2dw12/lis2dw12_reg.c **** 
 8172              		.loc 1 3199 7 is_stmt 1 view .LVU2052
 8173 003e F4E7     		b	.L504
 8174              	.L506:
3202:Drivers/BSP/Components/lis2dw12/lis2dw12_reg.c ****       break;
 8175              		.loc 1 3202 7 view .LVU2053
3202:Drivers/BSP/Components/lis2dw12/lis2dw12_reg.c ****       break;
 8176              		.loc 1 3202 12 is_stmt 0 view .LVU2054
 8177 0040 0623     		movs	r3, #6
 8178 0042 2370     		strb	r3, [r4]
3203:Drivers/BSP/Components/lis2dw12/lis2dw12_reg.c **** 
 8179              		.loc 1 3203 7 is_stmt 1 view .LVU2055
 8180 0044 F1E7     		b	.L504
 8181              	.L505:
3206:Drivers/BSP/Components/lis2dw12/lis2dw12_reg.c ****       break;
 8182              		.loc 1 3206 7 view .LVU2056
3206:Drivers/BSP/Components/lis2dw12/lis2dw12_reg.c ****       break;
 8183              		.loc 1 3206 12 is_stmt 0 view .LVU2057
 8184 0046 0023     		movs	r3, #0
 8185 0048 2370     		strb	r3, [r4]
3207:Drivers/BSP/Components/lis2dw12/lis2dw12_reg.c ****   }
 8186              		.loc 1 3207 7 is_stmt 1 view .LVU2058
3210:Drivers/BSP/Components/lis2dw12/lis2dw12_reg.c **** }
 8187              		.loc 1 3210 3 view .LVU2059
3210:Drivers/BSP/Components/lis2dw12/lis2dw12_reg.c **** }
 8188              		.loc 1 3210 10 is_stmt 0 view .LVU2060
 8189 004a EEE7     		b	.L504
 8190              		.cfi_endproc
 8191              	.LFE114:
 8193              		.section	.text.lis2dw12_fifo_data_level_get,"ax",%progbits
 8194              		.align	1
 8195              		.global	lis2dw12_fifo_data_level_get
 8196              		.syntax unified
 8197              		.thumb
 8198              		.thumb_func
 8199              		.fpu fpv4-sp-d16
 8201              	lis2dw12_fifo_data_level_get:
 8202              	.LVL572:
 8203              	.LFB115:
ARM GAS  /tmp/ccEdQILT.s 			page 210


3212:Drivers/BSP/Components/lis2dw12/lis2dw12_reg.c **** 
3213:Drivers/BSP/Components/lis2dw12/lis2dw12_reg.c **** /**
3214:Drivers/BSP/Components/lis2dw12/lis2dw12_reg.c ****   * @brief  Number of unread samples stored in FIFO.[get]
3215:Drivers/BSP/Components/lis2dw12/lis2dw12_reg.c ****   *
3216:Drivers/BSP/Components/lis2dw12/lis2dw12_reg.c ****   * @param  ctx      read / write interface definitions
3217:Drivers/BSP/Components/lis2dw12/lis2dw12_reg.c ****   * @param  val      change the values of diff in reg FIFO_SAMPLES
3218:Drivers/BSP/Components/lis2dw12/lis2dw12_reg.c ****   * @retval          interface status (MANDATORY: return 0 -> no Error)
3219:Drivers/BSP/Components/lis2dw12/lis2dw12_reg.c ****   *
3220:Drivers/BSP/Components/lis2dw12/lis2dw12_reg.c ****   */
3221:Drivers/BSP/Components/lis2dw12/lis2dw12_reg.c **** int32_t lis2dw12_fifo_data_level_get(stmdev_ctx_t *ctx, uint8_t *val)
3222:Drivers/BSP/Components/lis2dw12/lis2dw12_reg.c **** {
 8204              		.loc 1 3222 1 is_stmt 1 view -0
 8205              		.cfi_startproc
 8206              		@ args = 0, pretend = 0, frame = 8
 8207              		@ frame_needed = 0, uses_anonymous_args = 0
 8208              		.loc 1 3222 1 is_stmt 0 view .LVU2062
 8209 0000 10B5     		push	{r4, lr}
 8210              	.LCFI355:
 8211              		.cfi_def_cfa_offset 8
 8212              		.cfi_offset 4, -8
 8213              		.cfi_offset 14, -4
 8214 0002 82B0     		sub	sp, sp, #8
 8215              	.LCFI356:
 8216              		.cfi_def_cfa_offset 16
 8217 0004 0C46     		mov	r4, r1
3223:Drivers/BSP/Components/lis2dw12/lis2dw12_reg.c ****   lis2dw12_fifo_samples_t reg;
 8218              		.loc 1 3223 3 is_stmt 1 view .LVU2063
3224:Drivers/BSP/Components/lis2dw12/lis2dw12_reg.c ****   int32_t ret;
 8219              		.loc 1 3224 3 view .LVU2064
3225:Drivers/BSP/Components/lis2dw12/lis2dw12_reg.c **** 
3226:Drivers/BSP/Components/lis2dw12/lis2dw12_reg.c ****   ret = lis2dw12_read_reg(ctx, LIS2DW12_FIFO_SAMPLES, (uint8_t *) &reg, 1);
 8220              		.loc 1 3226 3 view .LVU2065
 8221              		.loc 1 3226 9 is_stmt 0 view .LVU2066
 8222 0006 0123     		movs	r3, #1
 8223 0008 01AA     		add	r2, sp, #4
 8224 000a 2F21     		movs	r1, #47
 8225              	.LVL573:
 8226              		.loc 1 3226 9 view .LVU2067
 8227 000c FFF7FEFF 		bl	lis2dw12_read_reg
 8228              	.LVL574:
3227:Drivers/BSP/Components/lis2dw12/lis2dw12_reg.c ****   *val = reg.diff;
 8229              		.loc 1 3227 3 is_stmt 1 view .LVU2068
 8230              		.loc 1 3227 13 is_stmt 0 view .LVU2069
 8231 0010 9DF80430 		ldrb	r3, [sp, #4]	@ zero_extendqisi2
 8232 0014 C3F30503 		ubfx	r3, r3, #0, #6
 8233              		.loc 1 3227 8 view .LVU2070
 8234 0018 2370     		strb	r3, [r4]
3228:Drivers/BSP/Components/lis2dw12/lis2dw12_reg.c **** 
3229:Drivers/BSP/Components/lis2dw12/lis2dw12_reg.c ****   return ret;
 8235              		.loc 1 3229 3 is_stmt 1 view .LVU2071
3230:Drivers/BSP/Components/lis2dw12/lis2dw12_reg.c **** }
 8236              		.loc 1 3230 1 is_stmt 0 view .LVU2072
 8237 001a 02B0     		add	sp, sp, #8
 8238              	.LCFI357:
 8239              		.cfi_def_cfa_offset 8
 8240              		@ sp needed
 8241 001c 10BD     		pop	{r4, pc}
ARM GAS  /tmp/ccEdQILT.s 			page 211


 8242              		.loc 1 3230 1 view .LVU2073
 8243              		.cfi_endproc
 8244              	.LFE115:
 8246              		.section	.text.lis2dw12_fifo_ovr_flag_get,"ax",%progbits
 8247              		.align	1
 8248              		.global	lis2dw12_fifo_ovr_flag_get
 8249              		.syntax unified
 8250              		.thumb
 8251              		.thumb_func
 8252              		.fpu fpv4-sp-d16
 8254              	lis2dw12_fifo_ovr_flag_get:
 8255              	.LVL575:
 8256              	.LFB116:
3231:Drivers/BSP/Components/lis2dw12/lis2dw12_reg.c **** /**
3232:Drivers/BSP/Components/lis2dw12/lis2dw12_reg.c ****   * @brief  FIFO overrun status.[get]
3233:Drivers/BSP/Components/lis2dw12/lis2dw12_reg.c ****   *
3234:Drivers/BSP/Components/lis2dw12/lis2dw12_reg.c ****   * @param  ctx      read / write interface definitions
3235:Drivers/BSP/Components/lis2dw12/lis2dw12_reg.c ****   * @param  val      change the values of fifo_ovr in reg FIFO_SAMPLES
3236:Drivers/BSP/Components/lis2dw12/lis2dw12_reg.c ****   * @retval          interface status (MANDATORY: return 0 -> no Error)
3237:Drivers/BSP/Components/lis2dw12/lis2dw12_reg.c ****   *
3238:Drivers/BSP/Components/lis2dw12/lis2dw12_reg.c ****   */
3239:Drivers/BSP/Components/lis2dw12/lis2dw12_reg.c **** int32_t lis2dw12_fifo_ovr_flag_get(stmdev_ctx_t *ctx, uint8_t *val)
3240:Drivers/BSP/Components/lis2dw12/lis2dw12_reg.c **** {
 8257              		.loc 1 3240 1 is_stmt 1 view -0
 8258              		.cfi_startproc
 8259              		@ args = 0, pretend = 0, frame = 8
 8260              		@ frame_needed = 0, uses_anonymous_args = 0
 8261              		.loc 1 3240 1 is_stmt 0 view .LVU2075
 8262 0000 10B5     		push	{r4, lr}
 8263              	.LCFI358:
 8264              		.cfi_def_cfa_offset 8
 8265              		.cfi_offset 4, -8
 8266              		.cfi_offset 14, -4
 8267 0002 82B0     		sub	sp, sp, #8
 8268              	.LCFI359:
 8269              		.cfi_def_cfa_offset 16
 8270 0004 0C46     		mov	r4, r1
3241:Drivers/BSP/Components/lis2dw12/lis2dw12_reg.c ****   lis2dw12_fifo_samples_t reg;
 8271              		.loc 1 3241 3 is_stmt 1 view .LVU2076
3242:Drivers/BSP/Components/lis2dw12/lis2dw12_reg.c ****   int32_t ret;
 8272              		.loc 1 3242 3 view .LVU2077
3243:Drivers/BSP/Components/lis2dw12/lis2dw12_reg.c **** 
3244:Drivers/BSP/Components/lis2dw12/lis2dw12_reg.c ****   ret = lis2dw12_read_reg(ctx, LIS2DW12_FIFO_SAMPLES, (uint8_t *) &reg, 1);
 8273              		.loc 1 3244 3 view .LVU2078
 8274              		.loc 1 3244 9 is_stmt 0 view .LVU2079
 8275 0006 0123     		movs	r3, #1
 8276 0008 01AA     		add	r2, sp, #4
 8277 000a 2F21     		movs	r1, #47
 8278              	.LVL576:
 8279              		.loc 1 3244 9 view .LVU2080
 8280 000c FFF7FEFF 		bl	lis2dw12_read_reg
 8281              	.LVL577:
3245:Drivers/BSP/Components/lis2dw12/lis2dw12_reg.c ****   *val = reg.fifo_ovr;
 8282              		.loc 1 3245 3 is_stmt 1 view .LVU2081
 8283              		.loc 1 3245 13 is_stmt 0 view .LVU2082
 8284 0010 9DF80430 		ldrb	r3, [sp, #4]	@ zero_extendqisi2
 8285 0014 C3F38013 		ubfx	r3, r3, #6, #1
ARM GAS  /tmp/ccEdQILT.s 			page 212


 8286              		.loc 1 3245 8 view .LVU2083
 8287 0018 2370     		strb	r3, [r4]
3246:Drivers/BSP/Components/lis2dw12/lis2dw12_reg.c **** 
3247:Drivers/BSP/Components/lis2dw12/lis2dw12_reg.c ****   return ret;
 8288              		.loc 1 3247 3 is_stmt 1 view .LVU2084
3248:Drivers/BSP/Components/lis2dw12/lis2dw12_reg.c **** }
 8289              		.loc 1 3248 1 is_stmt 0 view .LVU2085
 8290 001a 02B0     		add	sp, sp, #8
 8291              	.LCFI360:
 8292              		.cfi_def_cfa_offset 8
 8293              		@ sp needed
 8294 001c 10BD     		pop	{r4, pc}
 8295              		.loc 1 3248 1 view .LVU2086
 8296              		.cfi_endproc
 8297              	.LFE116:
 8299              		.section	.text.lis2dw12_fifo_wtm_flag_get,"ax",%progbits
 8300              		.align	1
 8301              		.global	lis2dw12_fifo_wtm_flag_get
 8302              		.syntax unified
 8303              		.thumb
 8304              		.thumb_func
 8305              		.fpu fpv4-sp-d16
 8307              	lis2dw12_fifo_wtm_flag_get:
 8308              	.LVL578:
 8309              	.LFB117:
3249:Drivers/BSP/Components/lis2dw12/lis2dw12_reg.c **** /**
3250:Drivers/BSP/Components/lis2dw12/lis2dw12_reg.c ****   * @brief  FIFO threshold status flag.[get]
3251:Drivers/BSP/Components/lis2dw12/lis2dw12_reg.c ****   *
3252:Drivers/BSP/Components/lis2dw12/lis2dw12_reg.c ****   * @param  ctx      read / write interface definitions
3253:Drivers/BSP/Components/lis2dw12/lis2dw12_reg.c ****   * @param  val      change the values of fifo_fth in reg FIFO_SAMPLES
3254:Drivers/BSP/Components/lis2dw12/lis2dw12_reg.c ****   * @retval          interface status (MANDATORY: return 0 -> no Error)
3255:Drivers/BSP/Components/lis2dw12/lis2dw12_reg.c ****   *
3256:Drivers/BSP/Components/lis2dw12/lis2dw12_reg.c ****   */
3257:Drivers/BSP/Components/lis2dw12/lis2dw12_reg.c **** int32_t lis2dw12_fifo_wtm_flag_get(stmdev_ctx_t *ctx, uint8_t *val)
3258:Drivers/BSP/Components/lis2dw12/lis2dw12_reg.c **** {
 8310              		.loc 1 3258 1 is_stmt 1 view -0
 8311              		.cfi_startproc
 8312              		@ args = 0, pretend = 0, frame = 8
 8313              		@ frame_needed = 0, uses_anonymous_args = 0
 8314              		.loc 1 3258 1 is_stmt 0 view .LVU2088
 8315 0000 10B5     		push	{r4, lr}
 8316              	.LCFI361:
 8317              		.cfi_def_cfa_offset 8
 8318              		.cfi_offset 4, -8
 8319              		.cfi_offset 14, -4
 8320 0002 82B0     		sub	sp, sp, #8
 8321              	.LCFI362:
 8322              		.cfi_def_cfa_offset 16
 8323 0004 0C46     		mov	r4, r1
3259:Drivers/BSP/Components/lis2dw12/lis2dw12_reg.c ****   lis2dw12_fifo_samples_t reg;
 8324              		.loc 1 3259 3 is_stmt 1 view .LVU2089
3260:Drivers/BSP/Components/lis2dw12/lis2dw12_reg.c ****   int32_t ret;
 8325              		.loc 1 3260 3 view .LVU2090
3261:Drivers/BSP/Components/lis2dw12/lis2dw12_reg.c **** 
3262:Drivers/BSP/Components/lis2dw12/lis2dw12_reg.c ****   ret = lis2dw12_read_reg(ctx, LIS2DW12_FIFO_SAMPLES, (uint8_t *) &reg, 1);
 8326              		.loc 1 3262 3 view .LVU2091
 8327              		.loc 1 3262 9 is_stmt 0 view .LVU2092
ARM GAS  /tmp/ccEdQILT.s 			page 213


 8328 0006 0123     		movs	r3, #1
 8329 0008 01AA     		add	r2, sp, #4
 8330 000a 2F21     		movs	r1, #47
 8331              	.LVL579:
 8332              		.loc 1 3262 9 view .LVU2093
 8333 000c FFF7FEFF 		bl	lis2dw12_read_reg
 8334              	.LVL580:
3263:Drivers/BSP/Components/lis2dw12/lis2dw12_reg.c ****   *val = reg.fifo_fth;
 8335              		.loc 1 3263 3 is_stmt 1 view .LVU2094
 8336              		.loc 1 3263 13 is_stmt 0 view .LVU2095
 8337 0010 9DF80430 		ldrb	r3, [sp, #4]	@ zero_extendqisi2
 8338 0014 C3F3C013 		ubfx	r3, r3, #7, #1
 8339              		.loc 1 3263 8 view .LVU2096
 8340 0018 2370     		strb	r3, [r4]
3264:Drivers/BSP/Components/lis2dw12/lis2dw12_reg.c **** 
3265:Drivers/BSP/Components/lis2dw12/lis2dw12_reg.c ****   return ret;
 8341              		.loc 1 3265 3 is_stmt 1 view .LVU2097
3266:Drivers/BSP/Components/lis2dw12/lis2dw12_reg.c **** }
 8342              		.loc 1 3266 1 is_stmt 0 view .LVU2098
 8343 001a 02B0     		add	sp, sp, #8
 8344              	.LCFI363:
 8345              		.cfi_def_cfa_offset 8
 8346              		@ sp needed
 8347 001c 10BD     		pop	{r4, pc}
 8348              		.loc 1 3266 1 view .LVU2099
 8349              		.cfi_endproc
 8350              	.LFE117:
 8352              		.text
 8353              	.Letext0:
 8354              		.file 2 "/usr/lib/gcc/arm-none-eabi/10.3.1/include/stdint.h"
 8355              		.file 3 "/usr/include/newlib/math.h"
 8356              		.file 4 "Drivers/BSP/Components/lis2dw12/lis2dw12_reg.h"
ARM GAS  /tmp/ccEdQILT.s 			page 214


DEFINED SYMBOLS
                            *ABS*:0000000000000000 lis2dw12_reg.c
     /tmp/ccEdQILT.s:18     .text.lis2dw12_read_reg:0000000000000000 $t
     /tmp/ccEdQILT.s:26     .text.lis2dw12_read_reg:0000000000000000 lis2dw12_read_reg
     /tmp/ccEdQILT.s:57     .text.lis2dw12_write_reg:0000000000000000 $t
     /tmp/ccEdQILT.s:64     .text.lis2dw12_write_reg:0000000000000000 lis2dw12_write_reg
     /tmp/ccEdQILT.s:94     .text.lis2dw12_from_fs2_to_mg:0000000000000000 $t
     /tmp/ccEdQILT.s:101    .text.lis2dw12_from_fs2_to_mg:0000000000000000 lis2dw12_from_fs2_to_mg
     /tmp/ccEdQILT.s:121    .text.lis2dw12_from_fs2_to_mg:0000000000000014 $d
     /tmp/ccEdQILT.s:126    .text.lis2dw12_from_fs4_to_mg:0000000000000000 $t
     /tmp/ccEdQILT.s:133    .text.lis2dw12_from_fs4_to_mg:0000000000000000 lis2dw12_from_fs4_to_mg
     /tmp/ccEdQILT.s:153    .text.lis2dw12_from_fs4_to_mg:0000000000000014 $d
     /tmp/ccEdQILT.s:158    .text.lis2dw12_from_fs8_to_mg:0000000000000000 $t
     /tmp/ccEdQILT.s:165    .text.lis2dw12_from_fs8_to_mg:0000000000000000 lis2dw12_from_fs8_to_mg
     /tmp/ccEdQILT.s:185    .text.lis2dw12_from_fs8_to_mg:0000000000000014 $d
     /tmp/ccEdQILT.s:190    .text.lis2dw12_from_fs16_to_mg:0000000000000000 $t
     /tmp/ccEdQILT.s:197    .text.lis2dw12_from_fs16_to_mg:0000000000000000 lis2dw12_from_fs16_to_mg
     /tmp/ccEdQILT.s:217    .text.lis2dw12_from_fs16_to_mg:0000000000000014 $d
     /tmp/ccEdQILT.s:222    .text.lis2dw12_from_fs2_lp1_to_mg:0000000000000000 $t
     /tmp/ccEdQILT.s:229    .text.lis2dw12_from_fs2_lp1_to_mg:0000000000000000 lis2dw12_from_fs2_lp1_to_mg
     /tmp/ccEdQILT.s:249    .text.lis2dw12_from_fs2_lp1_to_mg:0000000000000014 $d
     /tmp/ccEdQILT.s:254    .text.lis2dw12_from_fs4_lp1_to_mg:0000000000000000 $t
     /tmp/ccEdQILT.s:261    .text.lis2dw12_from_fs4_lp1_to_mg:0000000000000000 lis2dw12_from_fs4_lp1_to_mg
     /tmp/ccEdQILT.s:281    .text.lis2dw12_from_fs4_lp1_to_mg:0000000000000014 $d
     /tmp/ccEdQILT.s:286    .text.lis2dw12_from_fs8_lp1_to_mg:0000000000000000 $t
     /tmp/ccEdQILT.s:293    .text.lis2dw12_from_fs8_lp1_to_mg:0000000000000000 lis2dw12_from_fs8_lp1_to_mg
     /tmp/ccEdQILT.s:313    .text.lis2dw12_from_fs8_lp1_to_mg:0000000000000014 $d
     /tmp/ccEdQILT.s:318    .text.lis2dw12_from_fs16_lp1_to_mg:0000000000000000 $t
     /tmp/ccEdQILT.s:325    .text.lis2dw12_from_fs16_lp1_to_mg:0000000000000000 lis2dw12_from_fs16_lp1_to_mg
     /tmp/ccEdQILT.s:345    .text.lis2dw12_from_fs16_lp1_to_mg:0000000000000014 $d
     /tmp/ccEdQILT.s:350    .text.lis2dw12_from_lsb_to_celsius:0000000000000000 $t
     /tmp/ccEdQILT.s:357    .text.lis2dw12_from_lsb_to_celsius:0000000000000000 lis2dw12_from_lsb_to_celsius
     /tmp/ccEdQILT.s:380    .text.lis2dw12_from_lsb_to_celsius:000000000000001c $d
     /tmp/ccEdQILT.s:385    .text.lis2dw12_power_mode_set:0000000000000000 $t
     /tmp/ccEdQILT.s:392    .text.lis2dw12_power_mode_set:0000000000000000 lis2dw12_power_mode_set
     /tmp/ccEdQILT.s:509    .text.lis2dw12_power_mode_get:0000000000000000 $t
     /tmp/ccEdQILT.s:516    .text.lis2dw12_power_mode_get:0000000000000000 lis2dw12_power_mode_get
     /tmp/ccEdQILT.s:592    .text.lis2dw12_power_mode_get:0000000000000046 $d
     /tmp/ccEdQILT.s:620    .text.lis2dw12_power_mode_get:0000000000000062 $t
     /tmp/ccEdQILT.s:760    .text.lis2dw12_data_rate_set:0000000000000000 $t
     /tmp/ccEdQILT.s:767    .text.lis2dw12_data_rate_set:0000000000000000 lis2dw12_data_rate_set
     /tmp/ccEdQILT.s:877    .text.lis2dw12_data_rate_get:0000000000000000 $t
     /tmp/ccEdQILT.s:884    .text.lis2dw12_data_rate_get:0000000000000000 lis2dw12_data_rate_get
     /tmp/ccEdQILT.s:955    .text.lis2dw12_data_rate_get:000000000000003e $d
     /tmp/ccEdQILT.s:1104   .text.lis2dw12_block_data_update_set:0000000000000000 $t
     /tmp/ccEdQILT.s:1111   .text.lis2dw12_block_data_update_set:0000000000000000 lis2dw12_block_data_update_set
     /tmp/ccEdQILT.s:1179   .text.lis2dw12_block_data_update_get:0000000000000000 $t
     /tmp/ccEdQILT.s:1186   .text.lis2dw12_block_data_update_get:0000000000000000 lis2dw12_block_data_update_get
     /tmp/ccEdQILT.s:1232   .text.lis2dw12_full_scale_set:0000000000000000 $t
     /tmp/ccEdQILT.s:1239   .text.lis2dw12_full_scale_set:0000000000000000 lis2dw12_full_scale_set
     /tmp/ccEdQILT.s:1307   .text.lis2dw12_full_scale_get:0000000000000000 $t
     /tmp/ccEdQILT.s:1314   .text.lis2dw12_full_scale_get:0000000000000000 lis2dw12_full_scale_get
     /tmp/ccEdQILT.s:1351   .text.lis2dw12_full_scale_get:0000000000000020 $d
     /tmp/ccEdQILT.s:1355   .text.lis2dw12_full_scale_get:0000000000000024 $t
     /tmp/ccEdQILT.s:1407   .text.lis2dw12_status_reg_get:0000000000000000 $t
     /tmp/ccEdQILT.s:1414   .text.lis2dw12_status_reg_get:0000000000000000 lis2dw12_status_reg_get
     /tmp/ccEdQILT.s:1444   .text.lis2dw12_flag_data_ready_get:0000000000000000 $t
ARM GAS  /tmp/ccEdQILT.s 			page 215


     /tmp/ccEdQILT.s:1451   .text.lis2dw12_flag_data_ready_get:0000000000000000 lis2dw12_flag_data_ready_get
     /tmp/ccEdQILT.s:1497   .text.lis2dw12_all_sources_get:0000000000000000 $t
     /tmp/ccEdQILT.s:1504   .text.lis2dw12_all_sources_get:0000000000000000 lis2dw12_all_sources_get
     /tmp/ccEdQILT.s:1534   .text.lis2dw12_usr_offset_x_set:0000000000000000 $t
     /tmp/ccEdQILT.s:1541   .text.lis2dw12_usr_offset_x_set:0000000000000000 lis2dw12_usr_offset_x_set
     /tmp/ccEdQILT.s:1571   .text.lis2dw12_usr_offset_x_get:0000000000000000 $t
     /tmp/ccEdQILT.s:1578   .text.lis2dw12_usr_offset_x_get:0000000000000000 lis2dw12_usr_offset_x_get
     /tmp/ccEdQILT.s:1608   .text.lis2dw12_usr_offset_y_set:0000000000000000 $t
     /tmp/ccEdQILT.s:1615   .text.lis2dw12_usr_offset_y_set:0000000000000000 lis2dw12_usr_offset_y_set
     /tmp/ccEdQILT.s:1645   .text.lis2dw12_usr_offset_y_get:0000000000000000 $t
     /tmp/ccEdQILT.s:1652   .text.lis2dw12_usr_offset_y_get:0000000000000000 lis2dw12_usr_offset_y_get
     /tmp/ccEdQILT.s:1682   .text.lis2dw12_usr_offset_z_set:0000000000000000 $t
     /tmp/ccEdQILT.s:1689   .text.lis2dw12_usr_offset_z_set:0000000000000000 lis2dw12_usr_offset_z_set
     /tmp/ccEdQILT.s:1719   .text.lis2dw12_usr_offset_z_get:0000000000000000 $t
     /tmp/ccEdQILT.s:1726   .text.lis2dw12_usr_offset_z_get:0000000000000000 lis2dw12_usr_offset_z_get
     /tmp/ccEdQILT.s:1756   .text.lis2dw12_offset_weight_set:0000000000000000 $t
     /tmp/ccEdQILT.s:1763   .text.lis2dw12_offset_weight_set:0000000000000000 lis2dw12_offset_weight_set
     /tmp/ccEdQILT.s:1831   .text.lis2dw12_offset_weight_get:0000000000000000 $t
     /tmp/ccEdQILT.s:1838   .text.lis2dw12_offset_weight_get:0000000000000000 lis2dw12_offset_weight_get
     /tmp/ccEdQILT.s:1910   .text.lis2dw12_temperature_raw_get:0000000000000000 $t
     /tmp/ccEdQILT.s:1917   .text.lis2dw12_temperature_raw_get:0000000000000000 lis2dw12_temperature_raw_get
     /tmp/ccEdQILT.s:1969   .text.lis2dw12_acceleration_raw_get:0000000000000000 $t
     /tmp/ccEdQILT.s:1976   .text.lis2dw12_acceleration_raw_get:0000000000000000 lis2dw12_acceleration_raw_get
     /tmp/ccEdQILT.s:2052   .text.lis2dw12_device_id_get:0000000000000000 $t
     /tmp/ccEdQILT.s:2059   .text.lis2dw12_device_id_get:0000000000000000 lis2dw12_device_id_get
     /tmp/ccEdQILT.s:2089   .text.lis2dw12_auto_increment_set:0000000000000000 $t
     /tmp/ccEdQILT.s:2096   .text.lis2dw12_auto_increment_set:0000000000000000 lis2dw12_auto_increment_set
     /tmp/ccEdQILT.s:2164   .text.lis2dw12_auto_increment_get:0000000000000000 $t
     /tmp/ccEdQILT.s:2171   .text.lis2dw12_auto_increment_get:0000000000000000 lis2dw12_auto_increment_get
     /tmp/ccEdQILT.s:2217   .text.lis2dw12_reset_set:0000000000000000 $t
     /tmp/ccEdQILT.s:2224   .text.lis2dw12_reset_set:0000000000000000 lis2dw12_reset_set
     /tmp/ccEdQILT.s:2292   .text.lis2dw12_reset_get:0000000000000000 $t
     /tmp/ccEdQILT.s:2299   .text.lis2dw12_reset_get:0000000000000000 lis2dw12_reset_get
     /tmp/ccEdQILT.s:2345   .text.lis2dw12_boot_set:0000000000000000 $t
     /tmp/ccEdQILT.s:2352   .text.lis2dw12_boot_set:0000000000000000 lis2dw12_boot_set
     /tmp/ccEdQILT.s:2420   .text.lis2dw12_boot_get:0000000000000000 $t
     /tmp/ccEdQILT.s:2427   .text.lis2dw12_boot_get:0000000000000000 lis2dw12_boot_get
     /tmp/ccEdQILT.s:2473   .text.lis2dw12_self_test_set:0000000000000000 $t
     /tmp/ccEdQILT.s:2480   .text.lis2dw12_self_test_set:0000000000000000 lis2dw12_self_test_set
     /tmp/ccEdQILT.s:2548   .text.lis2dw12_self_test_get:0000000000000000 $t
     /tmp/ccEdQILT.s:2555   .text.lis2dw12_self_test_get:0000000000000000 lis2dw12_self_test_get
     /tmp/ccEdQILT.s:2635   .text.lis2dw12_data_ready_mode_set:0000000000000000 $t
     /tmp/ccEdQILT.s:2642   .text.lis2dw12_data_ready_mode_set:0000000000000000 lis2dw12_data_ready_mode_set
     /tmp/ccEdQILT.s:2710   .text.lis2dw12_data_ready_mode_get:0000000000000000 $t
     /tmp/ccEdQILT.s:2717   .text.lis2dw12_data_ready_mode_get:0000000000000000 lis2dw12_data_ready_mode_get
     /tmp/ccEdQILT.s:2788   .text.lis2dw12_filter_path_set:0000000000000000 $t
     /tmp/ccEdQILT.s:2795   .text.lis2dw12_filter_path_set:0000000000000000 lis2dw12_filter_path_set
     /tmp/ccEdQILT.s:2905   .text.lis2dw12_filter_path_get:0000000000000000 $t
     /tmp/ccEdQILT.s:2912   .text.lis2dw12_filter_path_get:0000000000000000 lis2dw12_filter_path_get
     /tmp/ccEdQILT.s:3016   .text.lis2dw12_filter_bandwidth_set:0000000000000000 $t
     /tmp/ccEdQILT.s:3023   .text.lis2dw12_filter_bandwidth_set:0000000000000000 lis2dw12_filter_bandwidth_set
     /tmp/ccEdQILT.s:3091   .text.lis2dw12_filter_bandwidth_get:0000000000000000 $t
     /tmp/ccEdQILT.s:3098   .text.lis2dw12_filter_bandwidth_get:0000000000000000 lis2dw12_filter_bandwidth_get
     /tmp/ccEdQILT.s:3135   .text.lis2dw12_filter_bandwidth_get:000000000000001e $d
     /tmp/ccEdQILT.s:3139   .text.lis2dw12_filter_bandwidth_get:0000000000000022 $t
     /tmp/ccEdQILT.s:3191   .text.lis2dw12_reference_mode_set:0000000000000000 $t
     /tmp/ccEdQILT.s:3198   .text.lis2dw12_reference_mode_set:0000000000000000 lis2dw12_reference_mode_set
ARM GAS  /tmp/ccEdQILT.s 			page 216


     /tmp/ccEdQILT.s:3266   .text.lis2dw12_reference_mode_get:0000000000000000 $t
     /tmp/ccEdQILT.s:3273   .text.lis2dw12_reference_mode_get:0000000000000000 lis2dw12_reference_mode_get
     /tmp/ccEdQILT.s:3319   .text.lis2dw12_spi_mode_set:0000000000000000 $t
     /tmp/ccEdQILT.s:3326   .text.lis2dw12_spi_mode_set:0000000000000000 lis2dw12_spi_mode_set
     /tmp/ccEdQILT.s:3394   .text.lis2dw12_spi_mode_get:0000000000000000 $t
     /tmp/ccEdQILT.s:3401   .text.lis2dw12_spi_mode_get:0000000000000000 lis2dw12_spi_mode_get
     /tmp/ccEdQILT.s:3472   .text.lis2dw12_i2c_interface_set:0000000000000000 $t
     /tmp/ccEdQILT.s:3479   .text.lis2dw12_i2c_interface_set:0000000000000000 lis2dw12_i2c_interface_set
     /tmp/ccEdQILT.s:3547   .text.lis2dw12_i2c_interface_get:0000000000000000 $t
     /tmp/ccEdQILT.s:3554   .text.lis2dw12_i2c_interface_get:0000000000000000 lis2dw12_i2c_interface_get
     /tmp/ccEdQILT.s:3626   .text.lis2dw12_cs_mode_set:0000000000000000 $t
     /tmp/ccEdQILT.s:3633   .text.lis2dw12_cs_mode_set:0000000000000000 lis2dw12_cs_mode_set
     /tmp/ccEdQILT.s:3701   .text.lis2dw12_cs_mode_get:0000000000000000 $t
     /tmp/ccEdQILT.s:3708   .text.lis2dw12_cs_mode_get:0000000000000000 lis2dw12_cs_mode_get
     /tmp/ccEdQILT.s:3780   .text.lis2dw12_pin_polarity_set:0000000000000000 $t
     /tmp/ccEdQILT.s:3787   .text.lis2dw12_pin_polarity_set:0000000000000000 lis2dw12_pin_polarity_set
     /tmp/ccEdQILT.s:3855   .text.lis2dw12_pin_polarity_get:0000000000000000 $t
     /tmp/ccEdQILT.s:3862   .text.lis2dw12_pin_polarity_get:0000000000000000 lis2dw12_pin_polarity_get
     /tmp/ccEdQILT.s:3934   .text.lis2dw12_int_notification_set:0000000000000000 $t
     /tmp/ccEdQILT.s:3941   .text.lis2dw12_int_notification_set:0000000000000000 lis2dw12_int_notification_set
     /tmp/ccEdQILT.s:4009   .text.lis2dw12_int_notification_get:0000000000000000 $t
     /tmp/ccEdQILT.s:4016   .text.lis2dw12_int_notification_get:0000000000000000 lis2dw12_int_notification_get
     /tmp/ccEdQILT.s:4088   .text.lis2dw12_pin_mode_set:0000000000000000 $t
     /tmp/ccEdQILT.s:4095   .text.lis2dw12_pin_mode_set:0000000000000000 lis2dw12_pin_mode_set
     /tmp/ccEdQILT.s:4163   .text.lis2dw12_pin_mode_get:0000000000000000 $t
     /tmp/ccEdQILT.s:4170   .text.lis2dw12_pin_mode_get:0000000000000000 lis2dw12_pin_mode_get
     /tmp/ccEdQILT.s:4242   .text.lis2dw12_pin_int1_route_set:0000000000000000 $t
     /tmp/ccEdQILT.s:4249   .text.lis2dw12_pin_int1_route_set:0000000000000000 lis2dw12_pin_int1_route_set
     /tmp/ccEdQILT.s:4384   .text.lis2dw12_pin_int1_route_get:0000000000000000 $t
     /tmp/ccEdQILT.s:4391   .text.lis2dw12_pin_int1_route_get:0000000000000000 lis2dw12_pin_int1_route_get
     /tmp/ccEdQILT.s:4421   .text.lis2dw12_pin_int2_route_set:0000000000000000 $t
     /tmp/ccEdQILT.s:4428   .text.lis2dw12_pin_int2_route_set:0000000000000000 lis2dw12_pin_int2_route_set
     /tmp/ccEdQILT.s:4563   .text.lis2dw12_pin_int2_route_get:0000000000000000 $t
     /tmp/ccEdQILT.s:4570   .text.lis2dw12_pin_int2_route_get:0000000000000000 lis2dw12_pin_int2_route_get
     /tmp/ccEdQILT.s:4600   .text.lis2dw12_all_on_int1_set:0000000000000000 $t
     /tmp/ccEdQILT.s:4607   .text.lis2dw12_all_on_int1_set:0000000000000000 lis2dw12_all_on_int1_set
     /tmp/ccEdQILT.s:4675   .text.lis2dw12_all_on_int1_get:0000000000000000 $t
     /tmp/ccEdQILT.s:4682   .text.lis2dw12_all_on_int1_get:0000000000000000 lis2dw12_all_on_int1_get
     /tmp/ccEdQILT.s:4728   .text.lis2dw12_wkup_threshold_set:0000000000000000 $t
     /tmp/ccEdQILT.s:4735   .text.lis2dw12_wkup_threshold_set:0000000000000000 lis2dw12_wkup_threshold_set
     /tmp/ccEdQILT.s:4803   .text.lis2dw12_wkup_threshold_get:0000000000000000 $t
     /tmp/ccEdQILT.s:4810   .text.lis2dw12_wkup_threshold_get:0000000000000000 lis2dw12_wkup_threshold_get
     /tmp/ccEdQILT.s:4856   .text.lis2dw12_wkup_dur_set:0000000000000000 $t
     /tmp/ccEdQILT.s:4863   .text.lis2dw12_wkup_dur_set:0000000000000000 lis2dw12_wkup_dur_set
     /tmp/ccEdQILT.s:4931   .text.lis2dw12_wkup_dur_get:0000000000000000 $t
     /tmp/ccEdQILT.s:4938   .text.lis2dw12_wkup_dur_get:0000000000000000 lis2dw12_wkup_dur_get
     /tmp/ccEdQILT.s:4984   .text.lis2dw12_wkup_feed_data_set:0000000000000000 $t
     /tmp/ccEdQILT.s:4991   .text.lis2dw12_wkup_feed_data_set:0000000000000000 lis2dw12_wkup_feed_data_set
     /tmp/ccEdQILT.s:5059   .text.lis2dw12_wkup_feed_data_get:0000000000000000 $t
     /tmp/ccEdQILT.s:5066   .text.lis2dw12_wkup_feed_data_get:0000000000000000 lis2dw12_wkup_feed_data_get
     /tmp/ccEdQILT.s:5138   .text.lis2dw12_act_mode_set:0000000000000000 $t
     /tmp/ccEdQILT.s:5145   .text.lis2dw12_act_mode_set:0000000000000000 lis2dw12_act_mode_set
     /tmp/ccEdQILT.s:5255   .text.lis2dw12_act_mode_get:0000000000000000 $t
     /tmp/ccEdQILT.s:5262   .text.lis2dw12_act_mode_get:0000000000000000 lis2dw12_act_mode_get
     /tmp/ccEdQILT.s:5367   .text.lis2dw12_act_sleep_dur_set:0000000000000000 $t
     /tmp/ccEdQILT.s:5374   .text.lis2dw12_act_sleep_dur_set:0000000000000000 lis2dw12_act_sleep_dur_set
     /tmp/ccEdQILT.s:5442   .text.lis2dw12_act_sleep_dur_get:0000000000000000 $t
ARM GAS  /tmp/ccEdQILT.s 			page 217


     /tmp/ccEdQILT.s:5449   .text.lis2dw12_act_sleep_dur_get:0000000000000000 lis2dw12_act_sleep_dur_get
     /tmp/ccEdQILT.s:5495   .text.lis2dw12_tap_threshold_x_set:0000000000000000 $t
     /tmp/ccEdQILT.s:5502   .text.lis2dw12_tap_threshold_x_set:0000000000000000 lis2dw12_tap_threshold_x_set
     /tmp/ccEdQILT.s:5570   .text.lis2dw12_tap_threshold_x_get:0000000000000000 $t
     /tmp/ccEdQILT.s:5577   .text.lis2dw12_tap_threshold_x_get:0000000000000000 lis2dw12_tap_threshold_x_get
     /tmp/ccEdQILT.s:5623   .text.lis2dw12_tap_threshold_y_set:0000000000000000 $t
     /tmp/ccEdQILT.s:5630   .text.lis2dw12_tap_threshold_y_set:0000000000000000 lis2dw12_tap_threshold_y_set
     /tmp/ccEdQILT.s:5698   .text.lis2dw12_tap_threshold_y_get:0000000000000000 $t
     /tmp/ccEdQILT.s:5705   .text.lis2dw12_tap_threshold_y_get:0000000000000000 lis2dw12_tap_threshold_y_get
     /tmp/ccEdQILT.s:5751   .text.lis2dw12_tap_axis_priority_set:0000000000000000 $t
     /tmp/ccEdQILT.s:5758   .text.lis2dw12_tap_axis_priority_set:0000000000000000 lis2dw12_tap_axis_priority_set
     /tmp/ccEdQILT.s:5826   .text.lis2dw12_tap_axis_priority_get:0000000000000000 $t
     /tmp/ccEdQILT.s:5833   .text.lis2dw12_tap_axis_priority_get:0000000000000000 lis2dw12_tap_axis_priority_get
     /tmp/ccEdQILT.s:5870   .text.lis2dw12_tap_axis_priority_get:000000000000001e $d
     /tmp/ccEdQILT.s:5943   .text.lis2dw12_tap_threshold_z_set:0000000000000000 $t
     /tmp/ccEdQILT.s:5950   .text.lis2dw12_tap_threshold_z_set:0000000000000000 lis2dw12_tap_threshold_z_set
     /tmp/ccEdQILT.s:6018   .text.lis2dw12_tap_threshold_z_get:0000000000000000 $t
     /tmp/ccEdQILT.s:6025   .text.lis2dw12_tap_threshold_z_get:0000000000000000 lis2dw12_tap_threshold_z_get
     /tmp/ccEdQILT.s:6071   .text.lis2dw12_tap_detection_on_z_set:0000000000000000 $t
     /tmp/ccEdQILT.s:6078   .text.lis2dw12_tap_detection_on_z_set:0000000000000000 lis2dw12_tap_detection_on_z_set
     /tmp/ccEdQILT.s:6146   .text.lis2dw12_tap_detection_on_z_get:0000000000000000 $t
     /tmp/ccEdQILT.s:6153   .text.lis2dw12_tap_detection_on_z_get:0000000000000000 lis2dw12_tap_detection_on_z_get
     /tmp/ccEdQILT.s:6199   .text.lis2dw12_tap_detection_on_y_set:0000000000000000 $t
     /tmp/ccEdQILT.s:6206   .text.lis2dw12_tap_detection_on_y_set:0000000000000000 lis2dw12_tap_detection_on_y_set
     /tmp/ccEdQILT.s:6274   .text.lis2dw12_tap_detection_on_y_get:0000000000000000 $t
     /tmp/ccEdQILT.s:6281   .text.lis2dw12_tap_detection_on_y_get:0000000000000000 lis2dw12_tap_detection_on_y_get
     /tmp/ccEdQILT.s:6327   .text.lis2dw12_tap_detection_on_x_set:0000000000000000 $t
     /tmp/ccEdQILT.s:6334   .text.lis2dw12_tap_detection_on_x_set:0000000000000000 lis2dw12_tap_detection_on_x_set
     /tmp/ccEdQILT.s:6402   .text.lis2dw12_tap_detection_on_x_get:0000000000000000 $t
     /tmp/ccEdQILT.s:6409   .text.lis2dw12_tap_detection_on_x_get:0000000000000000 lis2dw12_tap_detection_on_x_get
     /tmp/ccEdQILT.s:6455   .text.lis2dw12_tap_shock_set:0000000000000000 $t
     /tmp/ccEdQILT.s:6462   .text.lis2dw12_tap_shock_set:0000000000000000 lis2dw12_tap_shock_set
     /tmp/ccEdQILT.s:6530   .text.lis2dw12_tap_shock_get:0000000000000000 $t
     /tmp/ccEdQILT.s:6537   .text.lis2dw12_tap_shock_get:0000000000000000 lis2dw12_tap_shock_get
     /tmp/ccEdQILT.s:6583   .text.lis2dw12_tap_quiet_set:0000000000000000 $t
     /tmp/ccEdQILT.s:6590   .text.lis2dw12_tap_quiet_set:0000000000000000 lis2dw12_tap_quiet_set
     /tmp/ccEdQILT.s:6658   .text.lis2dw12_tap_quiet_get:0000000000000000 $t
     /tmp/ccEdQILT.s:6665   .text.lis2dw12_tap_quiet_get:0000000000000000 lis2dw12_tap_quiet_get
     /tmp/ccEdQILT.s:6711   .text.lis2dw12_tap_dur_set:0000000000000000 $t
     /tmp/ccEdQILT.s:6718   .text.lis2dw12_tap_dur_set:0000000000000000 lis2dw12_tap_dur_set
     /tmp/ccEdQILT.s:6786   .text.lis2dw12_tap_dur_get:0000000000000000 $t
     /tmp/ccEdQILT.s:6793   .text.lis2dw12_tap_dur_get:0000000000000000 lis2dw12_tap_dur_get
     /tmp/ccEdQILT.s:6839   .text.lis2dw12_tap_mode_set:0000000000000000 $t
     /tmp/ccEdQILT.s:6846   .text.lis2dw12_tap_mode_set:0000000000000000 lis2dw12_tap_mode_set
     /tmp/ccEdQILT.s:6914   .text.lis2dw12_tap_mode_get:0000000000000000 $t
     /tmp/ccEdQILT.s:6921   .text.lis2dw12_tap_mode_get:0000000000000000 lis2dw12_tap_mode_get
     /tmp/ccEdQILT.s:6992   .text.lis2dw12_tap_src_get:0000000000000000 $t
     /tmp/ccEdQILT.s:6999   .text.lis2dw12_tap_src_get:0000000000000000 lis2dw12_tap_src_get
     /tmp/ccEdQILT.s:7029   .text.lis2dw12_6d_threshold_set:0000000000000000 $t
     /tmp/ccEdQILT.s:7036   .text.lis2dw12_6d_threshold_set:0000000000000000 lis2dw12_6d_threshold_set
     /tmp/ccEdQILT.s:7104   .text.lis2dw12_6d_threshold_get:0000000000000000 $t
     /tmp/ccEdQILT.s:7111   .text.lis2dw12_6d_threshold_get:0000000000000000 lis2dw12_6d_threshold_get
     /tmp/ccEdQILT.s:7157   .text.lis2dw12_4d_mode_set:0000000000000000 $t
     /tmp/ccEdQILT.s:7164   .text.lis2dw12_4d_mode_set:0000000000000000 lis2dw12_4d_mode_set
     /tmp/ccEdQILT.s:7232   .text.lis2dw12_4d_mode_get:0000000000000000 $t
     /tmp/ccEdQILT.s:7239   .text.lis2dw12_4d_mode_get:0000000000000000 lis2dw12_4d_mode_get
     /tmp/ccEdQILT.s:7285   .text.lis2dw12_6d_src_get:0000000000000000 $t
ARM GAS  /tmp/ccEdQILT.s 			page 218


     /tmp/ccEdQILT.s:7292   .text.lis2dw12_6d_src_get:0000000000000000 lis2dw12_6d_src_get
     /tmp/ccEdQILT.s:7322   .text.lis2dw12_6d_feed_data_set:0000000000000000 $t
     /tmp/ccEdQILT.s:7329   .text.lis2dw12_6d_feed_data_set:0000000000000000 lis2dw12_6d_feed_data_set
     /tmp/ccEdQILT.s:7397   .text.lis2dw12_6d_feed_data_get:0000000000000000 $t
     /tmp/ccEdQILT.s:7404   .text.lis2dw12_6d_feed_data_get:0000000000000000 lis2dw12_6d_feed_data_get
     /tmp/ccEdQILT.s:7475   .text.lis2dw12_ff_dur_set:0000000000000000 $t
     /tmp/ccEdQILT.s:7482   .text.lis2dw12_ff_dur_set:0000000000000000 lis2dw12_ff_dur_set
     /tmp/ccEdQILT.s:7592   .text.lis2dw12_ff_dur_get:0000000000000000 $t
     /tmp/ccEdQILT.s:7599   .text.lis2dw12_ff_dur_get:0000000000000000 lis2dw12_ff_dur_get
     /tmp/ccEdQILT.s:7674   .text.lis2dw12_ff_threshold_set:0000000000000000 $t
     /tmp/ccEdQILT.s:7681   .text.lis2dw12_ff_threshold_set:0000000000000000 lis2dw12_ff_threshold_set
     /tmp/ccEdQILT.s:7749   .text.lis2dw12_ff_threshold_get:0000000000000000 $t
     /tmp/ccEdQILT.s:7756   .text.lis2dw12_ff_threshold_get:0000000000000000 lis2dw12_ff_threshold_get
     /tmp/ccEdQILT.s:7793   .text.lis2dw12_ff_threshold_get:0000000000000020 $d
     /tmp/ccEdQILT.s:7801   .text.lis2dw12_ff_threshold_get:0000000000000028 $t
     /tmp/ccEdQILT.s:7881   .text.lis2dw12_fifo_watermark_set:0000000000000000 $t
     /tmp/ccEdQILT.s:7888   .text.lis2dw12_fifo_watermark_set:0000000000000000 lis2dw12_fifo_watermark_set
     /tmp/ccEdQILT.s:7956   .text.lis2dw12_fifo_watermark_get:0000000000000000 $t
     /tmp/ccEdQILT.s:7963   .text.lis2dw12_fifo_watermark_get:0000000000000000 lis2dw12_fifo_watermark_get
     /tmp/ccEdQILT.s:8009   .text.lis2dw12_fifo_mode_set:0000000000000000 $t
     /tmp/ccEdQILT.s:8016   .text.lis2dw12_fifo_mode_set:0000000000000000 lis2dw12_fifo_mode_set
     /tmp/ccEdQILT.s:8084   .text.lis2dw12_fifo_mode_get:0000000000000000 $t
     /tmp/ccEdQILT.s:8091   .text.lis2dw12_fifo_mode_get:0000000000000000 lis2dw12_fifo_mode_get
     /tmp/ccEdQILT.s:8128   .text.lis2dw12_fifo_mode_get:000000000000001e $d
     /tmp/ccEdQILT.s:8194   .text.lis2dw12_fifo_data_level_get:0000000000000000 $t
     /tmp/ccEdQILT.s:8201   .text.lis2dw12_fifo_data_level_get:0000000000000000 lis2dw12_fifo_data_level_get
     /tmp/ccEdQILT.s:8247   .text.lis2dw12_fifo_ovr_flag_get:0000000000000000 $t
     /tmp/ccEdQILT.s:8254   .text.lis2dw12_fifo_ovr_flag_get:0000000000000000 lis2dw12_fifo_ovr_flag_get
     /tmp/ccEdQILT.s:8300   .text.lis2dw12_fifo_wtm_flag_get:0000000000000000 $t
     /tmp/ccEdQILT.s:8307   .text.lis2dw12_fifo_wtm_flag_get:0000000000000000 lis2dw12_fifo_wtm_flag_get
     /tmp/ccEdQILT.s:1006   .text.lis2dw12_data_rate_get:0000000000000071 $d
     /tmp/ccEdQILT.s:1006   .text.lis2dw12_data_rate_get:0000000000000072 $t
     /tmp/ccEdQILT.s:5877   .text.lis2dw12_tap_axis_priority_get:0000000000000025 $d
     /tmp/ccEdQILT.s:5877   .text.lis2dw12_tap_axis_priority_get:0000000000000026 $t
     /tmp/ccEdQILT.s:8135   .text.lis2dw12_fifo_mode_get:0000000000000025 $d
     /tmp/ccEdQILT.s:8135   .text.lis2dw12_fifo_mode_get:0000000000000026 $t

NO UNDEFINED SYMBOLS
