ARM GAS  /tmp/cczxRHIw.s 			page 1


   1              		.cpu cortex-m4
   2              		.eabi_attribute 27, 1
   3              		.eabi_attribute 28, 1
   4              		.eabi_attribute 20, 1
   5              		.eabi_attribute 21, 1
   6              		.eabi_attribute 23, 3
   7              		.eabi_attribute 24, 1
   8              		.eabi_attribute 25, 1
   9              		.eabi_attribute 26, 1
  10              		.eabi_attribute 30, 1
  11              		.eabi_attribute 34, 1
  12              		.eabi_attribute 18, 4
  13              		.file	"nfc_handlers.c"
  14              		.text
  15              	.Ltext0:
  16              		.cfi_sections	.debug_frame
  17              		.section	.rodata.NFC_ST25DVInit.str1.4,"aMS",%progbits,1
  18              		.align	2
  19              	.LC0:
  20 0000 53543235 		.ascii	"ST25DV RegisterBusIO Error: %ld\012\000"
  20      44562052 
  20      65676973 
  20      74657242 
  20      7573494F 
  21 0021 000000   		.align	2
  22              	.LC1:
  23 0024 53543235 		.ascii	"ST25DV Driver Init Error: %ld\012\000"
  23      44562044 
  23      72697665 
  23      7220496E 
  23      69742045 
  24              		.section	.text.NFC_ST25DVInit,"ax",%progbits
  25              		.align	1
  26              		.global	NFC_ST25DVInit
  27              		.arch armv7e-m
  28              		.syntax unified
  29              		.thumb
  30              		.thumb_func
  31              		.fpu fpv4-sp-d16
  33              	NFC_ST25DVInit:
  34              	.LVL0:
  35              	.LFB139:
  36              		.file 1 "app/tasks/nfc/nfc_handlers.c"
   1:app/tasks/nfc/nfc_handlers.c **** #include "nfc_handlers.h"
   2:app/tasks/nfc/nfc_handlers.c **** 
   3:app/tasks/nfc/nfc_handlers.c **** int32_t NFC_ST25DVInit(ST25DV_Object_t *pObj) {
  37              		.loc 1 3 47 view -0
  38              		.cfi_startproc
  39              		@ args = 0, pretend = 0, frame = 24
  40              		@ frame_needed = 0, uses_anonymous_args = 0
  41              		.loc 1 3 47 is_stmt 0 view .LVU1
  42 0000 10B5     		push	{r4, lr}
  43              	.LCFI0:
  44              		.cfi_def_cfa_offset 8
  45              		.cfi_offset 4, -8
  46              		.cfi_offset 14, -4
  47 0002 86B0     		sub	sp, sp, #24
ARM GAS  /tmp/cczxRHIw.s 			page 2


  48              	.LCFI1:
  49              		.cfi_def_cfa_offset 32
  50 0004 0446     		mov	r4, r0
   4:app/tasks/nfc/nfc_handlers.c ****   ST25DV_IO_t IO;
  51              		.loc 1 4 3 is_stmt 1 view .LVU2
   5:app/tasks/nfc/nfc_handlers.c **** 
   6:app/tasks/nfc/nfc_handlers.c ****   IO.Init = BSP_I2C1_Init;
  52              		.loc 1 6 3 view .LVU3
  53              		.loc 1 6 11 is_stmt 0 view .LVU4
  54 0006 154B     		ldr	r3, .L7
  55 0008 0093     		str	r3, [sp]
   7:app/tasks/nfc/nfc_handlers.c ****   IO.DeInit = BSP_I2C1_DeInit;
  56              		.loc 1 7 3 is_stmt 1 view .LVU5
  57              		.loc 1 7 13 is_stmt 0 view .LVU6
  58 000a 154B     		ldr	r3, .L7+4
  59 000c 0193     		str	r3, [sp, #4]
   8:app/tasks/nfc/nfc_handlers.c ****   IO.IsReady = BSP_I2C1_IsReady;
  60              		.loc 1 8 3 is_stmt 1 view .LVU7
  61              		.loc 1 8 14 is_stmt 0 view .LVU8
  62 000e 154B     		ldr	r3, .L7+8
  63 0010 0293     		str	r3, [sp, #8]
   9:app/tasks/nfc/nfc_handlers.c ****   IO.Read = BSP_I2C1_ReadReg16;
  64              		.loc 1 9 3 is_stmt 1 view .LVU9
  65              		.loc 1 9 11 is_stmt 0 view .LVU10
  66 0012 154B     		ldr	r3, .L7+12
  67 0014 0493     		str	r3, [sp, #16]
  10:app/tasks/nfc/nfc_handlers.c ****   IO.Write = (ST25DV_Write_Func) BSP_I2C1_WriteReg16;
  68              		.loc 1 10 3 is_stmt 1 view .LVU11
  69              		.loc 1 10 12 is_stmt 0 view .LVU12
  70 0016 154B     		ldr	r3, .L7+16
  71 0018 0393     		str	r3, [sp, #12]
  11:app/tasks/nfc/nfc_handlers.c ****   IO.GetTick = HAL_GetTick;
  72              		.loc 1 11 3 is_stmt 1 view .LVU13
  73              		.loc 1 11 14 is_stmt 0 view .LVU14
  74 001a 154B     		ldr	r3, .L7+20
  75 001c 0593     		str	r3, [sp, #20]
  12:app/tasks/nfc/nfc_handlers.c **** 
  13:app/tasks/nfc/nfc_handlers.c ****   int32_t status = ST25DV_RegisterBusIO(pObj, &IO);
  76              		.loc 1 13 3 is_stmt 1 view .LVU15
  77              		.loc 1 13 20 is_stmt 0 view .LVU16
  78 001e 6946     		mov	r1, sp
  79 0020 FFF7FEFF 		bl	ST25DV_RegisterBusIO
  80              	.LVL1:
  14:app/tasks/nfc/nfc_handlers.c ****   if (status != NFCTAG_OK) {
  81              		.loc 1 14 3 is_stmt 1 view .LVU17
  82              		.loc 1 14 6 is_stmt 0 view .LVU18
  83 0024 30B9     		cbnz	r0, .L5
  15:app/tasks/nfc/nfc_handlers.c ****     #ifdef DEBUG
  16:app/tasks/nfc/nfc_handlers.c ****       fprintf(stderr, "ST25DV RegisterBusIO Error: %ld\n", status);
  17:app/tasks/nfc/nfc_handlers.c ****     #endif
  18:app/tasks/nfc/nfc_handlers.c **** 
  19:app/tasks/nfc/nfc_handlers.c ****     return NFCTAG_ERROR;
  20:app/tasks/nfc/nfc_handlers.c ****   }
  21:app/tasks/nfc/nfc_handlers.c **** 
  22:app/tasks/nfc/nfc_handlers.c ****   status = St25Dv_Drv.Init(pObj);
  84              		.loc 1 22 3 is_stmt 1 view .LVU19
  85              		.loc 1 22 22 is_stmt 0 view .LVU20
ARM GAS  /tmp/cczxRHIw.s 			page 3


  86 0026 134B     		ldr	r3, .L7+24
  87 0028 1B68     		ldr	r3, [r3]
  88              		.loc 1 22 12 view .LVU21
  89 002a 2046     		mov	r0, r4
  90              	.LVL2:
  91              		.loc 1 22 12 view .LVU22
  92 002c 9847     		blx	r3
  93              	.LVL3:
  23:app/tasks/nfc/nfc_handlers.c ****   if (status != NFCTAG_OK) {
  94              		.loc 1 23 3 is_stmt 1 view .LVU23
  95              		.loc 1 23 6 is_stmt 0 view .LVU24
  96 002e 58B9     		cbnz	r0, .L6
  97              	.LVL4:
  98              	.L1:
  24:app/tasks/nfc/nfc_handlers.c ****     #ifdef DEBUG
  25:app/tasks/nfc/nfc_handlers.c ****       fprintf(stderr, "ST25DV Driver Init Error: %ld\n", status);
  26:app/tasks/nfc/nfc_handlers.c ****     #endif
  27:app/tasks/nfc/nfc_handlers.c **** 
  28:app/tasks/nfc/nfc_handlers.c ****     return NFCTAG_ERROR;
  29:app/tasks/nfc/nfc_handlers.c ****   }
  30:app/tasks/nfc/nfc_handlers.c **** 
  31:app/tasks/nfc/nfc_handlers.c ****   return NFCTAG_OK;
  32:app/tasks/nfc/nfc_handlers.c **** }
  99              		.loc 1 32 1 view .LVU25
 100 0030 06B0     		add	sp, sp, #24
 101              	.LCFI2:
 102              		.cfi_remember_state
 103              		.cfi_def_cfa_offset 8
 104              		@ sp needed
 105 0032 10BD     		pop	{r4, pc}
 106              	.LVL5:
 107              	.L5:
 108              	.LCFI3:
 109              		.cfi_restore_state
 110              		.loc 1 32 1 view .LVU26
 111 0034 0246     		mov	r2, r0
  16:app/tasks/nfc/nfc_handlers.c ****     #endif
 112              		.loc 1 16 7 is_stmt 1 view .LVU27
  16:app/tasks/nfc/nfc_handlers.c ****     #endif
 113              		.loc 1 16 15 is_stmt 0 view .LVU28
 114 0036 104B     		ldr	r3, .L7+28
 115 0038 1B68     		ldr	r3, [r3]
  16:app/tasks/nfc/nfc_handlers.c ****     #endif
 116              		.loc 1 16 7 view .LVU29
 117 003a 1049     		ldr	r1, .L7+32
 118 003c D868     		ldr	r0, [r3, #12]
 119              	.LVL6:
  16:app/tasks/nfc/nfc_handlers.c ****     #endif
 120              		.loc 1 16 7 view .LVU30
 121 003e FFF7FEFF 		bl	fprintf
 122              	.LVL7:
  19:app/tasks/nfc/nfc_handlers.c ****   }
 123              		.loc 1 19 5 is_stmt 1 view .LVU31
  19:app/tasks/nfc/nfc_handlers.c ****   }
 124              		.loc 1 19 12 is_stmt 0 view .LVU32
 125 0042 4FF0FF30 		mov	r0, #-1
 126 0046 F3E7     		b	.L1
ARM GAS  /tmp/cczxRHIw.s 			page 4


 127              	.LVL8:
 128              	.L6:
  25:app/tasks/nfc/nfc_handlers.c ****     #endif
 129              		.loc 1 25 7 is_stmt 1 view .LVU33
  25:app/tasks/nfc/nfc_handlers.c ****     #endif
 130              		.loc 1 25 15 is_stmt 0 view .LVU34
 131 0048 0B4B     		ldr	r3, .L7+28
 132 004a 1B68     		ldr	r3, [r3]
  25:app/tasks/nfc/nfc_handlers.c ****     #endif
 133              		.loc 1 25 7 view .LVU35
 134 004c 0246     		mov	r2, r0
 135 004e 0C49     		ldr	r1, .L7+36
 136 0050 D868     		ldr	r0, [r3, #12]
 137              	.LVL9:
  25:app/tasks/nfc/nfc_handlers.c ****     #endif
 138              		.loc 1 25 7 view .LVU36
 139 0052 FFF7FEFF 		bl	fprintf
 140              	.LVL10:
  28:app/tasks/nfc/nfc_handlers.c ****   }
 141              		.loc 1 28 5 is_stmt 1 view .LVU37
  28:app/tasks/nfc/nfc_handlers.c ****   }
 142              		.loc 1 28 12 is_stmt 0 view .LVU38
 143 0056 4FF0FF30 		mov	r0, #-1
 144 005a E9E7     		b	.L1
 145              	.L8:
 146              		.align	2
 147              	.L7:
 148 005c 00000000 		.word	BSP_I2C1_Init
 149 0060 00000000 		.word	BSP_I2C1_DeInit
 150 0064 00000000 		.word	BSP_I2C1_IsReady
 151 0068 00000000 		.word	BSP_I2C1_ReadReg16
 152 006c 00000000 		.word	BSP_I2C1_WriteReg16
 153 0070 00000000 		.word	HAL_GetTick
 154 0074 00000000 		.word	St25Dv_Drv
 155 0078 00000000 		.word	_impure_ptr
 156 007c 00000000 		.word	.LC0
 157 0080 24000000 		.word	.LC1
 158              		.cfi_endproc
 159              	.LFE139:
 161              		.section	.text.NFC_LowPowerMode,"ax",%progbits
 162              		.align	1
 163              		.global	NFC_LowPowerMode
 164              		.syntax unified
 165              		.thumb
 166              		.thumb_func
 167              		.fpu fpv4-sp-d16
 169              	NFC_LowPowerMode:
 170              	.LVL11:
 171              	.LFB140:
  33:app/tasks/nfc/nfc_handlers.c **** 
  34:app/tasks/nfc/nfc_handlers.c **** int32_t NFC_LowPowerMode(ST25DV_Object_t *pObj) {
 172              		.loc 1 34 49 is_stmt 1 view -0
 173              		.cfi_startproc
 174              		@ args = 0, pretend = 0, frame = 0
 175              		@ frame_needed = 0, uses_anonymous_args = 0
 176              		@ link register save eliminated.
  35:app/tasks/nfc/nfc_handlers.c **** 
ARM GAS  /tmp/cczxRHIw.s 			page 5


  36:app/tasks/nfc/nfc_handlers.c ****   return NFCTAG_OK;
 177              		.loc 1 36 3 view .LVU40
  37:app/tasks/nfc/nfc_handlers.c **** }
 178              		.loc 1 37 1 is_stmt 0 view .LVU41
 179 0000 0020     		movs	r0, #0
 180              	.LVL12:
 181              		.loc 1 37 1 view .LVU42
 182 0002 7047     		bx	lr
 183              		.cfi_endproc
 184              	.LFE140:
 186              		.section	.rodata.NFC_HandleGPOInterrupt.str1.4,"aMS",%progbits,1
 187              		.align	2
 188              	.LC2:
 189 0000 4E464320 		.ascii	"NFC ITStatus: 0x%x\012\000"
 189      49545374 
 189      61747573 
 189      3A203078 
 189      25780A00 
 190              		.section	.text.NFC_HandleGPOInterrupt,"ax",%progbits
 191              		.align	1
 192              		.global	NFC_HandleGPOInterrupt
 193              		.syntax unified
 194              		.thumb
 195              		.thumb_func
 196              		.fpu fpv4-sp-d16
 198              	NFC_HandleGPOInterrupt:
 199              	.LVL13:
 200              	.LFB141:
  38:app/tasks/nfc/nfc_handlers.c **** 
  39:app/tasks/nfc/nfc_handlers.c **** void NFC_HandleGPOInterrupt(ST25DV_Object_t *pObj) {
 201              		.loc 1 39 52 is_stmt 1 view -0
 202              		.cfi_startproc
 203              		@ args = 0, pretend = 0, frame = 16
 204              		@ frame_needed = 0, uses_anonymous_args = 0
 205              		.loc 1 39 52 is_stmt 0 view .LVU44
 206 0000 00B5     		push	{lr}
 207              	.LCFI4:
 208              		.cfi_def_cfa_offset 4
 209              		.cfi_offset 14, -4
 210 0002 85B0     		sub	sp, sp, #20
 211              	.LCFI5:
 212              		.cfi_def_cfa_offset 24
  40:app/tasks/nfc/nfc_handlers.c ****   uint8_t ITStatus;
 213              		.loc 1 40 3 is_stmt 1 view .LVU45
  41:app/tasks/nfc/nfc_handlers.c ****   ST25DV_ReadITSTStatus_Dyn(pObj, &ITStatus);
 214              		.loc 1 41 3 view .LVU46
 215 0004 0DF10301 		add	r1, sp, #3
 216 0008 FFF7FEFF 		bl	ST25DV_ReadITSTStatus_Dyn
 217              	.LVL14:
  42:app/tasks/nfc/nfc_handlers.c ****   if (ITStatus & ST25DV_ITSTS_DYN_RFPUTMSG_MASK) {
 218              		.loc 1 42 3 view .LVU47
 219              		.loc 1 42 16 is_stmt 0 view .LVU48
 220 000c 9DF80330 		ldrb	r3, [sp, #3]	@ zero_extendqisi2
 221              		.loc 1 42 6 view .LVU49
 222 0010 13F0200F 		tst	r3, #32
 223 0014 02D1     		bne	.L13
 224              	.L10:
ARM GAS  /tmp/cczxRHIw.s 			page 6


  43:app/tasks/nfc/nfc_handlers.c ****     osMessageQueuePut(NFC_Actor.super.osMessageQueueId, &(message_t){NFC_MAILBOX_HAS_NEW_MESSAGE}, 
  44:app/tasks/nfc/nfc_handlers.c **** 
  45:app/tasks/nfc/nfc_handlers.c ****     #ifdef DEBUG
  46:app/tasks/nfc/nfc_handlers.c ****       fprintf(stdout, "NFC ITStatus: 0x%x\n", ITStatus);
  47:app/tasks/nfc/nfc_handlers.c ****     #endif
  48:app/tasks/nfc/nfc_handlers.c ****   }
  49:app/tasks/nfc/nfc_handlers.c **** }
 225              		.loc 1 49 1 view .LVU50
 226 0016 05B0     		add	sp, sp, #20
 227              	.LCFI6:
 228              		.cfi_remember_state
 229              		.cfi_def_cfa_offset 4
 230              		@ sp needed
 231 0018 5DF804FB 		ldr	pc, [sp], #4
 232              	.L13:
 233              	.LCFI7:
 234              		.cfi_restore_state
 235              	.LBB2:
  43:app/tasks/nfc/nfc_handlers.c ****     osMessageQueuePut(NFC_Actor.super.osMessageQueueId, &(message_t){NFC_MAILBOX_HAS_NEW_MESSAGE}, 
 236              		.loc 1 43 5 is_stmt 1 view .LVU51
  43:app/tasks/nfc/nfc_handlers.c ****     osMessageQueuePut(NFC_Actor.super.osMessageQueueId, &(message_t){NFC_MAILBOX_HAS_NEW_MESSAGE}, 
 237              		.loc 1 43 69 is_stmt 0 view .LVU52
 238 001c 0022     		movs	r2, #0
 239 001e 0192     		str	r2, [sp, #4]
 240 0020 0292     		str	r2, [sp, #8]
 241 0022 0392     		str	r2, [sp, #12]
 242 0024 1023     		movs	r3, #16
 243 0026 8DF80430 		strb	r3, [sp, #4]
  43:app/tasks/nfc/nfc_handlers.c ****     osMessageQueuePut(NFC_Actor.super.osMessageQueueId, &(message_t){NFC_MAILBOX_HAS_NEW_MESSAGE}, 
 244              		.loc 1 43 5 view .LVU53
 245 002a 1346     		mov	r3, r2
 246 002c 01A9     		add	r1, sp, #4
 247 002e 0648     		ldr	r0, .L14
 248 0030 8068     		ldr	r0, [r0, #8]
 249 0032 FFF7FEFF 		bl	osMessageQueuePut
 250              	.LVL15:
  46:app/tasks/nfc/nfc_handlers.c ****     #endif
 251              		.loc 1 46 7 is_stmt 1 view .LVU54
  46:app/tasks/nfc/nfc_handlers.c ****     #endif
 252              		.loc 1 46 15 is_stmt 0 view .LVU55
 253 0036 054B     		ldr	r3, .L14+4
 254 0038 1B68     		ldr	r3, [r3]
  46:app/tasks/nfc/nfc_handlers.c ****     #endif
 255              		.loc 1 46 7 view .LVU56
 256 003a 9DF80320 		ldrb	r2, [sp, #3]	@ zero_extendqisi2
 257 003e 0449     		ldr	r1, .L14+8
 258 0040 9868     		ldr	r0, [r3, #8]
 259 0042 FFF7FEFF 		bl	fprintf
 260              	.LVL16:
 261              	.LBE2:
 262              		.loc 1 49 1 view .LVU57
 263 0046 E6E7     		b	.L10
 264              	.L15:
 265              		.align	2
 266              	.L14:
 267 0048 00000000 		.word	NFC_Actor
 268 004c 00000000 		.word	_impure_ptr
ARM GAS  /tmp/cczxRHIw.s 			page 7


 269 0050 00000000 		.word	.LC2
 270              		.cfi_endproc
 271              	.LFE141:
 273              		.section	.rodata.NFC_ReadMailboxTo.str1.4,"aMS",%progbits,1
 274              		.align	2
 275              	.LC3:
 276 0000 53543235 		.ascii	"ST25DV ST25DV_ReadMBLength_Dyn Error\012\000"
 276      44562053 
 276      54323544 
 276      565F5265 
 276      61644D42 
 277 0026 0000     		.align	2
 278              	.LC4:
 279 0028 4D61696C 		.ascii	"Mailbox length: %d\012\000"
 279      626F7820 
 279      6C656E67 
 279      74683A20 
 279      25640A00 
 280              		.align	2
 281              	.LC5:
 282 003c 53543235 		.ascii	"ST25DV ST25DV_ReadMailboxData Error\012\000"
 282      44562053 
 282      54323544 
 282      565F5265 
 282      61644D61 
 283              		.section	.text.NFC_ReadMailboxTo,"ax",%progbits
 284              		.align	1
 285              		.global	NFC_ReadMailboxTo
 286              		.syntax unified
 287              		.thumb
 288              		.thumb_func
 289              		.fpu fpv4-sp-d16
 291              	NFC_ReadMailboxTo:
 292              	.LVL17:
 293              	.LFB142:
  50:app/tasks/nfc/nfc_handlers.c **** 
  51:app/tasks/nfc/nfc_handlers.c **** int32_t NFC_ReadMailboxTo(ST25DV_Object_t *pObj, uint8_t pMailboxBuffer[ST25DV_MAX_MAILBOX_LENGTH])
 294              		.loc 1 51 101 is_stmt 1 view -0
 295              		.cfi_startproc
 296              		@ args = 0, pretend = 0, frame = 8
 297              		@ frame_needed = 0, uses_anonymous_args = 0
 298              		.loc 1 51 101 is_stmt 0 view .LVU59
 299 0000 30B5     		push	{r4, r5, lr}
 300              	.LCFI8:
 301              		.cfi_def_cfa_offset 12
 302              		.cfi_offset 4, -12
 303              		.cfi_offset 5, -8
 304              		.cfi_offset 14, -4
 305 0002 83B0     		sub	sp, sp, #12
 306              	.LCFI9:
 307              		.cfi_def_cfa_offset 24
 308 0004 0446     		mov	r4, r0
 309 0006 0D46     		mov	r5, r1
  52:app/tasks/nfc/nfc_handlers.c ****   uint8_t mailboxLength;
 310              		.loc 1 52 3 is_stmt 1 view .LVU60
  53:app/tasks/nfc/nfc_handlers.c ****   int32_t status = ST25DV_ReadMBLength_Dyn(pObj, &mailboxLength);
 311              		.loc 1 53 3 view .LVU61
ARM GAS  /tmp/cczxRHIw.s 			page 8


 312              		.loc 1 53 20 is_stmt 0 view .LVU62
 313 0008 0DF10701 		add	r1, sp, #7
 314              	.LVL18:
 315              		.loc 1 53 20 view .LVU63
 316 000c FFF7FEFF 		bl	ST25DV_ReadMBLength_Dyn
 317              	.LVL19:
  54:app/tasks/nfc/nfc_handlers.c **** 
  55:app/tasks/nfc/nfc_handlers.c ****   if (status != NFCTAG_OK) {
 318              		.loc 1 55 3 is_stmt 1 view .LVU64
 319              		.loc 1 55 6 is_stmt 0 view .LVU65
 320 0010 88B9     		cbnz	r0, .L20
  56:app/tasks/nfc/nfc_handlers.c ****     #ifdef DEBUG
  57:app/tasks/nfc/nfc_handlers.c ****         fprintf(stdout, "ST25DV ST25DV_ReadMBLength_Dyn Error\n");
  58:app/tasks/nfc/nfc_handlers.c ****     #endif
  59:app/tasks/nfc/nfc_handlers.c **** 
  60:app/tasks/nfc/nfc_handlers.c ****     return NFCTAG_ERROR;
  61:app/tasks/nfc/nfc_handlers.c ****   }
  62:app/tasks/nfc/nfc_handlers.c **** 
  63:app/tasks/nfc/nfc_handlers.c ****   #ifdef DEBUG
  64:app/tasks/nfc/nfc_handlers.c ****     fprintf(stdout, "Mailbox length: %d\n", mailboxLength);
 321              		.loc 1 64 5 is_stmt 1 view .LVU66
 322              		.loc 1 64 13 is_stmt 0 view .LVU67
 323 0012 144B     		ldr	r3, .L22
 324 0014 1B68     		ldr	r3, [r3]
 325              		.loc 1 64 5 view .LVU68
 326 0016 9DF80720 		ldrb	r2, [sp, #7]	@ zero_extendqisi2
 327 001a 1349     		ldr	r1, .L22+4
 328 001c 9868     		ldr	r0, [r3, #8]
 329              	.LVL20:
 330              		.loc 1 64 5 view .LVU69
 331 001e FFF7FEFF 		bl	fprintf
 332              	.LVL21:
  65:app/tasks/nfc/nfc_handlers.c ****   #endif
  66:app/tasks/nfc/nfc_handlers.c **** 
  67:app/tasks/nfc/nfc_handlers.c ****   status = ST25DV_ReadMailboxData(pObj, pMailboxBuffer, MAILBOX_START_OFFSET, ST25DV_MAX_MAILBOX_LE
 333              		.loc 1 67 3 is_stmt 1 view .LVU70
 334              		.loc 1 67 12 is_stmt 0 view .LVU71
 335 0022 4FF48073 		mov	r3, #256
 336 0026 0022     		movs	r2, #0
 337 0028 2946     		mov	r1, r5
 338 002a 2046     		mov	r0, r4
 339 002c FFF7FEFF 		bl	ST25DV_ReadMailboxData
 340              	.LVL22:
  68:app/tasks/nfc/nfc_handlers.c **** 
  69:app/tasks/nfc/nfc_handlers.c ****   if (status != NFCTAG_OK) {
 341              		.loc 1 69 3 is_stmt 1 view .LVU72
 342              		.loc 1 69 6 is_stmt 0 view .LVU73
 343 0030 60B9     		cbnz	r0, .L21
 344              	.LVL23:
 345              	.L16:
  70:app/tasks/nfc/nfc_handlers.c ****     #ifdef DEBUG
  71:app/tasks/nfc/nfc_handlers.c ****       fprintf(stdout, "ST25DV ST25DV_ReadMailboxData Error\n");
  72:app/tasks/nfc/nfc_handlers.c ****     #endif
  73:app/tasks/nfc/nfc_handlers.c **** 
  74:app/tasks/nfc/nfc_handlers.c ****     return NFCTAG_ERROR;
  75:app/tasks/nfc/nfc_handlers.c ****   }
  76:app/tasks/nfc/nfc_handlers.c **** 
ARM GAS  /tmp/cczxRHIw.s 			page 9


  77:app/tasks/nfc/nfc_handlers.c ****   return NFCTAG_OK;
  78:app/tasks/nfc/nfc_handlers.c **** }...
 346              		.loc 1 78 1 view .LVU74
 347 0032 03B0     		add	sp, sp, #12
 348              	.LCFI10:
 349              		.cfi_remember_state
 350              		.cfi_def_cfa_offset 12
 351              		@ sp needed
 352 0034 30BD     		pop	{r4, r5, pc}
 353              	.LVL24:
 354              	.L20:
 355              	.LCFI11:
 356              		.cfi_restore_state
  57:app/tasks/nfc/nfc_handlers.c ****         fprintf(stdout, "ST25DV ST25DV_ReadMBLength_Dyn Error\n");
 357              		.loc 1 57 9 is_stmt 1 view .LVU75
  57:app/tasks/nfc/nfc_handlers.c ****         fprintf(stdout, "ST25DV ST25DV_ReadMBLength_Dyn Error\n");
 358              		.loc 1 57 17 is_stmt 0 view .LVU76
 359 0036 0B4B     		ldr	r3, .L22
 360 0038 1B68     		ldr	r3, [r3]
  57:app/tasks/nfc/nfc_handlers.c ****         fprintf(stdout, "ST25DV ST25DV_ReadMBLength_Dyn Error\n");
 361              		.loc 1 57 9 view .LVU77
 362 003a 9B68     		ldr	r3, [r3, #8]
 363 003c 2522     		movs	r2, #37
 364 003e 0121     		movs	r1, #1
 365 0040 0A48     		ldr	r0, .L22+8
 366              	.LVL25:
  57:app/tasks/nfc/nfc_handlers.c ****         fprintf(stdout, "ST25DV ST25DV_ReadMBLength_Dyn Error\n");
 367              		.loc 1 57 9 view .LVU78
 368 0042 FFF7FEFF 		bl	fwrite
 369              	.LVL26:
  60:app/tasks/nfc/nfc_handlers.c ****     return NFCTAG_ERROR;
 370              		.loc 1 60 5 is_stmt 1 view .LVU79
  60:app/tasks/nfc/nfc_handlers.c ****     return NFCTAG_ERROR;
 371              		.loc 1 60 12 is_stmt 0 view .LVU80
 372 0046 4FF0FF30 		mov	r0, #-1
 373 004a F2E7     		b	.L16
 374              	.LVL27:
 375              	.L21:
  71:app/tasks/nfc/nfc_handlers.c ****       fprintf(stdout, "ST25DV ST25DV_ReadMailboxData Error\n");
 376              		.loc 1 71 7 is_stmt 1 view .LVU81
  71:app/tasks/nfc/nfc_handlers.c ****       fprintf(stdout, "ST25DV ST25DV_ReadMailboxData Error\n");
 377              		.loc 1 71 15 is_stmt 0 view .LVU82
 378 004c 054B     		ldr	r3, .L22
 379 004e 1B68     		ldr	r3, [r3]
  71:app/tasks/nfc/nfc_handlers.c ****       fprintf(stdout, "ST25DV ST25DV_ReadMailboxData Error\n");
 380              		.loc 1 71 7 view .LVU83
 381 0050 9B68     		ldr	r3, [r3, #8]
 382 0052 2422     		movs	r2, #36
 383 0054 0121     		movs	r1, #1
 384 0056 0648     		ldr	r0, .L22+12
 385              	.LVL28:
  71:app/tasks/nfc/nfc_handlers.c ****       fprintf(stdout, "ST25DV ST25DV_ReadMailboxData Error\n");
 386              		.loc 1 71 7 view .LVU84
 387 0058 FFF7FEFF 		bl	fwrite
 388              	.LVL29:
  74:app/tasks/nfc/nfc_handlers.c ****     return NFCTAG_ERROR;
 389              		.loc 1 74 5 is_stmt 1 view .LVU85
ARM GAS  /tmp/cczxRHIw.s 			page 10


  74:app/tasks/nfc/nfc_handlers.c ****     return NFCTAG_ERROR;
 390              		.loc 1 74 12 is_stmt 0 view .LVU86
 391 005c 4FF0FF30 		mov	r0, #-1
 392 0060 E7E7     		b	.L16
 393              	.L23:
 394 0062 00BF     		.align	2
 395              	.L22:
 396 0064 00000000 		.word	_impure_ptr
 397 0068 28000000 		.word	.LC4
 398 006c 00000000 		.word	.LC3
 399 0070 3C000000 		.word	.LC5
 400              		.cfi_endproc
 401              	.LFE142:
 403              		.text
 404              	.Letext0:
 405              		.file 2 "/usr/include/newlib/machine/_default_types.h"
 406              		.file 3 "/usr/lib/gcc/arm-none-eabi/10.3.1/include/stddef.h"
 407              		.file 4 "/usr/include/newlib/sys/_types.h"
 408              		.file 5 "/usr/include/newlib/sys/reent.h"
 409              		.file 6 "/usr/include/newlib/sys/lock.h"
 410              		.file 7 "/usr/include/newlib/sys/_stdint.h"
 411              		.file 8 "/usr/include/newlib/sys/types.h"
 412              		.file 9 "Middlewares/Third_Party/FreeRTOS/Source/CMSIS_RTOS_V2/cmsis_os2.h"
 413              		.file 10 "app/core/actor/../../config/events_list/events_list.h"
 414              		.file 11 "app/core/actor/actor.h"
 415              		.file 12 "Drivers/BSP/Components/ST25DV/st25dv_reg.h"
 416              		.file 13 "Drivers/BSP/Components/ST25DV/st25dv.h"
 417              		.file 14 "app/tasks/nfc/nfc.h"
 418              		.file 15 "/usr/include/newlib/stdio.h"
 419              		.file 16 "<built-in>"
ARM GAS  /tmp/cczxRHIw.s 			page 11

