ARM GAS  /tmp/ccQu0WuY.s 			page 1


   1              		.cpu cortex-m4
   2              		.eabi_attribute 27, 1
   3              		.eabi_attribute 28, 1
   4              		.eabi_attribute 20, 1
   5              		.eabi_attribute 21, 1
   6              		.eabi_attribute 23, 3
   7              		.eabi_attribute 24, 1
   8              		.eabi_attribute 25, 1
   9              		.eabi_attribute 26, 1
  10              		.eabi_attribute 30, 1
  11              		.eabi_attribute 34, 1
  12              		.eabi_attribute 18, 4
  13              		.file	"nfc_handlers.c"
  14              		.text
  15              	.Ltext0:
  16              		.cfi_sections	.debug_frame
  17              		.section	.rodata.NFC_ST25DVInit.str1.4,"aMS",%progbits,1
  18              		.align	2
  19              	.LC0:
  20 0000 53543235 		.ascii	"ST25DV RegisterBusIO Error: %ld\012\000"
  20      44562052 
  20      65676973 
  20      74657242 
  20      7573494F 
  21 0021 000000   		.align	2
  22              	.LC1:
  23 0024 53543235 		.ascii	"ST25DV Driver Init Error: %ld\012\000"
  23      44562044 
  23      72697665 
  23      7220496E 
  23      69742045 
  24              		.section	.text.NFC_ST25DVInit,"ax",%progbits
  25              		.align	1
  26              		.global	NFC_ST25DVInit
  27              		.arch armv7e-m
  28              		.syntax unified
  29              		.thumb
  30              		.thumb_func
  31              		.fpu fpv4-sp-d16
  33              	NFC_ST25DVInit:
  34              	.LVL0:
  35              	.LFB139:
  36              		.file 1 "app/tasks/nfc/nfc_handlers.c"
   1:app/tasks/nfc/nfc_handlers.c **** #include "nfc_handlers.h"
   2:app/tasks/nfc/nfc_handlers.c **** 
   3:app/tasks/nfc/nfc_handlers.c **** int32_t NFC_ST25DVInit(ST25DV_Object_t *pObj) {
  37              		.loc 1 3 47 view -0
  38              		.cfi_startproc
  39              		@ args = 0, pretend = 0, frame = 24
  40              		@ frame_needed = 0, uses_anonymous_args = 0
  41              		.loc 1 3 47 is_stmt 0 view .LVU1
  42 0000 10B5     		push	{r4, lr}
  43              	.LCFI0:
  44              		.cfi_def_cfa_offset 8
  45              		.cfi_offset 4, -8
  46              		.cfi_offset 14, -4
  47 0002 86B0     		sub	sp, sp, #24
ARM GAS  /tmp/ccQu0WuY.s 			page 2


  48              	.LCFI1:
  49              		.cfi_def_cfa_offset 32
  50 0004 0446     		mov	r4, r0
   4:app/tasks/nfc/nfc_handlers.c ****   ST25DV_IO_t IO;
  51              		.loc 1 4 3 is_stmt 1 view .LVU2
   5:app/tasks/nfc/nfc_handlers.c **** 
   6:app/tasks/nfc/nfc_handlers.c ****   IO.Init = BSP_I2C1_Init;
  52              		.loc 1 6 3 view .LVU3
  53              		.loc 1 6 11 is_stmt 0 view .LVU4
  54 0006 154B     		ldr	r3, .L7
  55 0008 0093     		str	r3, [sp]
   7:app/tasks/nfc/nfc_handlers.c ****   IO.DeInit = BSP_I2C1_DeInit;
  56              		.loc 1 7 3 is_stmt 1 view .LVU5
  57              		.loc 1 7 13 is_stmt 0 view .LVU6
  58 000a 154B     		ldr	r3, .L7+4
  59 000c 0193     		str	r3, [sp, #4]
   8:app/tasks/nfc/nfc_handlers.c ****   IO.IsReady = BSP_I2C1_IsReady;
  60              		.loc 1 8 3 is_stmt 1 view .LVU7
  61              		.loc 1 8 14 is_stmt 0 view .LVU8
  62 000e 154B     		ldr	r3, .L7+8
  63 0010 0293     		str	r3, [sp, #8]
   9:app/tasks/nfc/nfc_handlers.c ****   IO.Read = BSP_I2C1_ReadReg16;
  64              		.loc 1 9 3 is_stmt 1 view .LVU9
  65              		.loc 1 9 11 is_stmt 0 view .LVU10
  66 0012 154B     		ldr	r3, .L7+12
  67 0014 0493     		str	r3, [sp, #16]
  10:app/tasks/nfc/nfc_handlers.c ****   IO.Write = (ST25DV_Write_Func) BSP_I2C1_WriteReg16;
  68              		.loc 1 10 3 is_stmt 1 view .LVU11
  69              		.loc 1 10 12 is_stmt 0 view .LVU12
  70 0016 154B     		ldr	r3, .L7+16
  71 0018 0393     		str	r3, [sp, #12]
  11:app/tasks/nfc/nfc_handlers.c ****   IO.GetTick = HAL_GetTick;
  72              		.loc 1 11 3 is_stmt 1 view .LVU13
  73              		.loc 1 11 14 is_stmt 0 view .LVU14
  74 001a 154B     		ldr	r3, .L7+20
  75 001c 0593     		str	r3, [sp, #20]
  12:app/tasks/nfc/nfc_handlers.c **** 
  13:app/tasks/nfc/nfc_handlers.c ****   int32_t status = ST25DV_RegisterBusIO(pObj, &IO);
  76              		.loc 1 13 3 is_stmt 1 view .LVU15
  77              		.loc 1 13 20 is_stmt 0 view .LVU16
  78 001e 6946     		mov	r1, sp
  79 0020 FFF7FEFF 		bl	ST25DV_RegisterBusIO
  80              	.LVL1:
  14:app/tasks/nfc/nfc_handlers.c ****   if (status != NFCTAG_OK) {
  81              		.loc 1 14 3 is_stmt 1 view .LVU17
  82              		.loc 1 14 6 is_stmt 0 view .LVU18
  83 0024 30B9     		cbnz	r0, .L5
  15:app/tasks/nfc/nfc_handlers.c ****     #ifdef DEBUG
  16:app/tasks/nfc/nfc_handlers.c ****       fprintf(stderr,  "ST25DV RegisterBusIO Error: %ld\n", status);
  17:app/tasks/nfc/nfc_handlers.c ****     #endif
  18:app/tasks/nfc/nfc_handlers.c **** 
  19:app/tasks/nfc/nfc_handlers.c ****     return NFCTAG_ERROR;
  20:app/tasks/nfc/nfc_handlers.c ****   }
  21:app/tasks/nfc/nfc_handlers.c **** 
  22:app/tasks/nfc/nfc_handlers.c ****   status = St25Dv_Drv.Init(pObj);
  84              		.loc 1 22 3 is_stmt 1 view .LVU19
  85              		.loc 1 22 22 is_stmt 0 view .LVU20
ARM GAS  /tmp/ccQu0WuY.s 			page 3


  86 0026 134B     		ldr	r3, .L7+24
  87 0028 1B68     		ldr	r3, [r3]
  88              		.loc 1 22 12 view .LVU21
  89 002a 2046     		mov	r0, r4
  90              	.LVL2:
  91              		.loc 1 22 12 view .LVU22
  92 002c 9847     		blx	r3
  93              	.LVL3:
  23:app/tasks/nfc/nfc_handlers.c ****   if (status != NFCTAG_OK) {
  94              		.loc 1 23 3 is_stmt 1 view .LVU23
  95              		.loc 1 23 6 is_stmt 0 view .LVU24
  96 002e 58B9     		cbnz	r0, .L6
  97              	.LVL4:
  98              	.L1:
  24:app/tasks/nfc/nfc_handlers.c ****     #ifdef DEBUG
  25:app/tasks/nfc/nfc_handlers.c ****       fprintf(stderr,  "ST25DV Driver Init Error: %ld\n", status);
  26:app/tasks/nfc/nfc_handlers.c ****     #endif
  27:app/tasks/nfc/nfc_handlers.c **** 
  28:app/tasks/nfc/nfc_handlers.c ****     return NFCTAG_ERROR;
  29:app/tasks/nfc/nfc_handlers.c ****   }
  30:app/tasks/nfc/nfc_handlers.c **** 
  31:app/tasks/nfc/nfc_handlers.c ****   return NFCTAG_OK;
  32:app/tasks/nfc/nfc_handlers.c **** }
  99              		.loc 1 32 1 view .LVU25
 100 0030 06B0     		add	sp, sp, #24
 101              	.LCFI2:
 102              		.cfi_remember_state
 103              		.cfi_def_cfa_offset 8
 104              		@ sp needed
 105 0032 10BD     		pop	{r4, pc}
 106              	.LVL5:
 107              	.L5:
 108              	.LCFI3:
 109              		.cfi_restore_state
 110              		.loc 1 32 1 view .LVU26
 111 0034 0246     		mov	r2, r0
  16:app/tasks/nfc/nfc_handlers.c ****     #endif
 112              		.loc 1 16 7 is_stmt 1 view .LVU27
  16:app/tasks/nfc/nfc_handlers.c ****     #endif
 113              		.loc 1 16 15 is_stmt 0 view .LVU28
 114 0036 104B     		ldr	r3, .L7+28
 115 0038 1B68     		ldr	r3, [r3]
  16:app/tasks/nfc/nfc_handlers.c ****     #endif
 116              		.loc 1 16 7 view .LVU29
 117 003a 1049     		ldr	r1, .L7+32
 118 003c D868     		ldr	r0, [r3, #12]
 119              	.LVL6:
  16:app/tasks/nfc/nfc_handlers.c ****     #endif
 120              		.loc 1 16 7 view .LVU30
 121 003e FFF7FEFF 		bl	fprintf
 122              	.LVL7:
  19:app/tasks/nfc/nfc_handlers.c ****   }
 123              		.loc 1 19 5 is_stmt 1 view .LVU31
  19:app/tasks/nfc/nfc_handlers.c ****   }
 124              		.loc 1 19 12 is_stmt 0 view .LVU32
 125 0042 4FF0FF30 		mov	r0, #-1
 126 0046 F3E7     		b	.L1
ARM GAS  /tmp/ccQu0WuY.s 			page 4


 127              	.LVL8:
 128              	.L6:
  25:app/tasks/nfc/nfc_handlers.c ****     #endif
 129              		.loc 1 25 7 is_stmt 1 view .LVU33
  25:app/tasks/nfc/nfc_handlers.c ****     #endif
 130              		.loc 1 25 15 is_stmt 0 view .LVU34
 131 0048 0B4B     		ldr	r3, .L7+28
 132 004a 1B68     		ldr	r3, [r3]
  25:app/tasks/nfc/nfc_handlers.c ****     #endif
 133              		.loc 1 25 7 view .LVU35
 134 004c 0246     		mov	r2, r0
 135 004e 0C49     		ldr	r1, .L7+36
 136 0050 D868     		ldr	r0, [r3, #12]
 137              	.LVL9:
  25:app/tasks/nfc/nfc_handlers.c ****     #endif
 138              		.loc 1 25 7 view .LVU36
 139 0052 FFF7FEFF 		bl	fprintf
 140              	.LVL10:
  28:app/tasks/nfc/nfc_handlers.c ****   }
 141              		.loc 1 28 5 is_stmt 1 view .LVU37
  28:app/tasks/nfc/nfc_handlers.c ****   }
 142              		.loc 1 28 12 is_stmt 0 view .LVU38
 143 0056 4FF0FF30 		mov	r0, #-1
 144 005a E9E7     		b	.L1
 145              	.L8:
 146              		.align	2
 147              	.L7:
 148 005c 00000000 		.word	BSP_I2C1_Init
 149 0060 00000000 		.word	BSP_I2C1_DeInit
 150 0064 00000000 		.word	BSP_I2C1_IsReady
 151 0068 00000000 		.word	BSP_I2C1_ReadReg16
 152 006c 00000000 		.word	BSP_I2C1_WriteReg16
 153 0070 00000000 		.word	HAL_GetTick
 154 0074 00000000 		.word	St25Dv_Drv
 155 0078 00000000 		.word	_impure_ptr
 156 007c 00000000 		.word	.LC0
 157 0080 24000000 		.word	.LC1
 158              		.cfi_endproc
 159              	.LFE139:
 161              		.section	.rodata.NFC_HandleGPOInterrupt.str1.4,"aMS",%progbits,1
 162              		.align	2
 163              	.LC2:
 164 0000 4E464320 		.ascii	"NFC ITStatus: 0x%x\012\000"
 164      49545374 
 164      61747573 
 164      3A203078 
 164      25780A00 
 165              		.section	.text.NFC_HandleGPOInterrupt,"ax",%progbits
 166              		.align	1
 167              		.global	NFC_HandleGPOInterrupt
 168              		.syntax unified
 169              		.thumb
 170              		.thumb_func
 171              		.fpu fpv4-sp-d16
 173              	NFC_HandleGPOInterrupt:
 174              	.LVL11:
 175              	.LFB140:
ARM GAS  /tmp/ccQu0WuY.s 			page 5


  33:app/tasks/nfc/nfc_handlers.c **** 
  34:app/tasks/nfc/nfc_handlers.c **** void NFC_HandleGPOInterrupt(ST25DV_Object_t *pObj) {
 176              		.loc 1 34 52 is_stmt 1 view -0
 177              		.cfi_startproc
 178              		@ args = 0, pretend = 0, frame = 16
 179              		@ frame_needed = 0, uses_anonymous_args = 0
 180              		.loc 1 34 52 is_stmt 0 view .LVU40
 181 0000 00B5     		push	{lr}
 182              	.LCFI4:
 183              		.cfi_def_cfa_offset 4
 184              		.cfi_offset 14, -4
 185 0002 85B0     		sub	sp, sp, #20
 186              	.LCFI5:
 187              		.cfi_def_cfa_offset 24
  35:app/tasks/nfc/nfc_handlers.c ****   uint8_t ITStatus;
 188              		.loc 1 35 3 is_stmt 1 view .LVU41
  36:app/tasks/nfc/nfc_handlers.c ****   ST25DV_ReadITSTStatus_Dyn(pObj, &ITStatus);
 189              		.loc 1 36 3 view .LVU42
 190 0004 0DF10301 		add	r1, sp, #3
 191 0008 FFF7FEFF 		bl	ST25DV_ReadITSTStatus_Dyn
 192              	.LVL12:
  37:app/tasks/nfc/nfc_handlers.c ****   if (ITStatus & ST25DV_ITSTS_DYN_RFPUTMSG_MASK) {
 193              		.loc 1 37 3 view .LVU43
 194              		.loc 1 37 16 is_stmt 0 view .LVU44
 195 000c 9DF80330 		ldrb	r3, [sp, #3]	@ zero_extendqisi2
 196              		.loc 1 37 6 view .LVU45
 197 0010 13F0200F 		tst	r3, #32
 198 0014 02D1     		bne	.L12
 199              	.L9:
  38:app/tasks/nfc/nfc_handlers.c ****     osMessageQueuePut(NFC_Actor.super.osMessageQueueId, &(message_t){NFC_MAILBOX_HAS_NEW_MESSAGE}, 
  39:app/tasks/nfc/nfc_handlers.c **** 
  40:app/tasks/nfc/nfc_handlers.c ****     #ifdef DEBUG
  41:app/tasks/nfc/nfc_handlers.c ****       fprintf(stdout, "NFC ITStatus: 0x%x\n", ITStatus);
  42:app/tasks/nfc/nfc_handlers.c ****     #endif
  43:app/tasks/nfc/nfc_handlers.c ****   }
  44:app/tasks/nfc/nfc_handlers.c **** }
 200              		.loc 1 44 1 view .LVU46
 201 0016 05B0     		add	sp, sp, #20
 202              	.LCFI6:
 203              		.cfi_remember_state
 204              		.cfi_def_cfa_offset 4
 205              		@ sp needed
 206 0018 5DF804FB 		ldr	pc, [sp], #4
 207              	.L12:
 208              	.LCFI7:
 209              		.cfi_restore_state
 210              	.LBB2:
  38:app/tasks/nfc/nfc_handlers.c ****     osMessageQueuePut(NFC_Actor.super.osMessageQueueId, &(message_t){NFC_MAILBOX_HAS_NEW_MESSAGE}, 
 211              		.loc 1 38 5 is_stmt 1 view .LVU47
  38:app/tasks/nfc/nfc_handlers.c ****     osMessageQueuePut(NFC_Actor.super.osMessageQueueId, &(message_t){NFC_MAILBOX_HAS_NEW_MESSAGE}, 
 212              		.loc 1 38 69 is_stmt 0 view .LVU48
 213 001c 0022     		movs	r2, #0
 214 001e 0192     		str	r2, [sp, #4]
 215 0020 0292     		str	r2, [sp, #8]
 216 0022 0392     		str	r2, [sp, #12]
 217 0024 1123     		movs	r3, #17
 218 0026 8DF80430 		strb	r3, [sp, #4]
ARM GAS  /tmp/ccQu0WuY.s 			page 6


  38:app/tasks/nfc/nfc_handlers.c ****     osMessageQueuePut(NFC_Actor.super.osMessageQueueId, &(message_t){NFC_MAILBOX_HAS_NEW_MESSAGE}, 
 219              		.loc 1 38 5 view .LVU49
 220 002a 1346     		mov	r3, r2
 221 002c 01A9     		add	r1, sp, #4
 222 002e 0648     		ldr	r0, .L13
 223 0030 8068     		ldr	r0, [r0, #8]
 224 0032 FFF7FEFF 		bl	osMessageQueuePut
 225              	.LVL13:
  41:app/tasks/nfc/nfc_handlers.c ****     #endif
 226              		.loc 1 41 7 is_stmt 1 view .LVU50
  41:app/tasks/nfc/nfc_handlers.c ****     #endif
 227              		.loc 1 41 15 is_stmt 0 view .LVU51
 228 0036 054B     		ldr	r3, .L13+4
 229 0038 1B68     		ldr	r3, [r3]
  41:app/tasks/nfc/nfc_handlers.c ****     #endif
 230              		.loc 1 41 7 view .LVU52
 231 003a 9DF80320 		ldrb	r2, [sp, #3]	@ zero_extendqisi2
 232 003e 0449     		ldr	r1, .L13+8
 233 0040 9868     		ldr	r0, [r3, #8]
 234 0042 FFF7FEFF 		bl	fprintf
 235              	.LVL14:
 236              	.LBE2:
 237              		.loc 1 44 1 view .LVU53
 238 0046 E6E7     		b	.L9
 239              	.L14:
 240              		.align	2
 241              	.L13:
 242 0048 00000000 		.word	NFC_Actor
 243 004c 00000000 		.word	_impure_ptr
 244 0050 00000000 		.word	.LC2
 245              		.cfi_endproc
 246              	.LFE140:
 248              		.section	.rodata.NFC_ReadMailboxTo.str1.4,"aMS",%progbits,1
 249              		.align	2
 250              	.LC3:
 251 0000 53543235 		.ascii	"ST25DV ST25DV_ReadMBLength_Dyn Error\012\000"
 251      44562053 
 251      54323544 
 251      565F5265 
 251      61644D42 
 252 0026 0000     		.align	2
 253              	.LC4:
 254 0028 4D61696C 		.ascii	"Mailbox length: %d\012\000"
 254      626F7820 
 254      6C656E67 
 254      74683A20 
 254      25640A00 
 255              		.align	2
 256              	.LC5:
 257 003c 53543235 		.ascii	"ST25DV ST25DV_ReadMailboxData Error\012\000"
 257      44562053 
 257      54323544 
 257      565F5265 
 257      61644D61 
 258              		.section	.text.NFC_ReadMailboxTo,"ax",%progbits
 259              		.align	1
 260              		.global	NFC_ReadMailboxTo
ARM GAS  /tmp/ccQu0WuY.s 			page 7


 261              		.syntax unified
 262              		.thumb
 263              		.thumb_func
 264              		.fpu fpv4-sp-d16
 266              	NFC_ReadMailboxTo:
 267              	.LVL15:
 268              	.LFB141:
  45:app/tasks/nfc/nfc_handlers.c **** 
  46:app/tasks/nfc/nfc_handlers.c **** int32_t NFC_ReadMailboxTo(ST25DV_Object_t *pObj, uint8_t pMailboxBuffer[ST25DV_MAX_MAILBOX_LENGTH])
 269              		.loc 1 46 101 is_stmt 1 view -0
 270              		.cfi_startproc
 271              		@ args = 0, pretend = 0, frame = 8
 272              		@ frame_needed = 0, uses_anonymous_args = 0
 273              		.loc 1 46 101 is_stmt 0 view .LVU55
 274 0000 30B5     		push	{r4, r5, lr}
 275              	.LCFI8:
 276              		.cfi_def_cfa_offset 12
 277              		.cfi_offset 4, -12
 278              		.cfi_offset 5, -8
 279              		.cfi_offset 14, -4
 280 0002 83B0     		sub	sp, sp, #12
 281              	.LCFI9:
 282              		.cfi_def_cfa_offset 24
 283 0004 0446     		mov	r4, r0
 284 0006 0D46     		mov	r5, r1
  47:app/tasks/nfc/nfc_handlers.c ****   uint8_t mailboxLength;
 285              		.loc 1 47 3 is_stmt 1 view .LVU56
  48:app/tasks/nfc/nfc_handlers.c ****   int32_t status = ST25DV_ReadMBLength_Dyn(pObj, &mailboxLength);
 286              		.loc 1 48 3 view .LVU57
 287              		.loc 1 48 20 is_stmt 0 view .LVU58
 288 0008 0DF10701 		add	r1, sp, #7
 289              	.LVL16:
 290              		.loc 1 48 20 view .LVU59
 291 000c FFF7FEFF 		bl	ST25DV_ReadMBLength_Dyn
 292              	.LVL17:
  49:app/tasks/nfc/nfc_handlers.c **** 
  50:app/tasks/nfc/nfc_handlers.c ****   if (status != NFCTAG_OK) {
 293              		.loc 1 50 3 is_stmt 1 view .LVU60
 294              		.loc 1 50 6 is_stmt 0 view .LVU61
 295 0010 88B9     		cbnz	r0, .L19
  51:app/tasks/nfc/nfc_handlers.c ****     #ifdef DEBUG
  52:app/tasks/nfc/nfc_handlers.c ****         fprintf(stdout, "ST25DV ST25DV_ReadMBLength_Dyn Error\n");
  53:app/tasks/nfc/nfc_handlers.c ****     #endif
  54:app/tasks/nfc/nfc_handlers.c **** 
  55:app/tasks/nfc/nfc_handlers.c ****     return NFCTAG_ERROR;
  56:app/tasks/nfc/nfc_handlers.c ****   }
  57:app/tasks/nfc/nfc_handlers.c **** 
  58:app/tasks/nfc/nfc_handlers.c ****   #ifdef DEBUG
  59:app/tasks/nfc/nfc_handlers.c ****     fprintf(stdout, "Mailbox length: %d\n", mailboxLength);
 296              		.loc 1 59 5 is_stmt 1 view .LVU62
 297              		.loc 1 59 13 is_stmt 0 view .LVU63
 298 0012 144B     		ldr	r3, .L21
 299 0014 1B68     		ldr	r3, [r3]
 300              		.loc 1 59 5 view .LVU64
 301 0016 9DF80720 		ldrb	r2, [sp, #7]	@ zero_extendqisi2
 302 001a 1349     		ldr	r1, .L21+4
 303 001c 9868     		ldr	r0, [r3, #8]
ARM GAS  /tmp/ccQu0WuY.s 			page 8


 304              	.LVL18:
 305              		.loc 1 59 5 view .LVU65
 306 001e FFF7FEFF 		bl	fprintf
 307              	.LVL19:
  60:app/tasks/nfc/nfc_handlers.c ****   #endif
  61:app/tasks/nfc/nfc_handlers.c **** 
  62:app/tasks/nfc/nfc_handlers.c ****   status = ST25DV_ReadMailboxData(pObj, pMailboxBuffer, MAILBOX_START_OFFSET, ST25DV_MAX_MAILBOX_LE
 308              		.loc 1 62 3 is_stmt 1 view .LVU66
 309              		.loc 1 62 12 is_stmt 0 view .LVU67
 310 0022 4FF48073 		mov	r3, #256
 311 0026 0022     		movs	r2, #0
 312 0028 2946     		mov	r1, r5
 313 002a 2046     		mov	r0, r4
 314 002c FFF7FEFF 		bl	ST25DV_ReadMailboxData
 315              	.LVL20:
  63:app/tasks/nfc/nfc_handlers.c **** 
  64:app/tasks/nfc/nfc_handlers.c ****   if (status != NFCTAG_OK) {
 316              		.loc 1 64 3 is_stmt 1 view .LVU68
 317              		.loc 1 64 6 is_stmt 0 view .LVU69
 318 0030 60B9     		cbnz	r0, .L20
 319              	.LVL21:
 320              	.L15:
  65:app/tasks/nfc/nfc_handlers.c ****     #ifdef DEBUG
  66:app/tasks/nfc/nfc_handlers.c ****       fprintf(stdout, "ST25DV ST25DV_ReadMailboxData Error\n");
  67:app/tasks/nfc/nfc_handlers.c ****     #endif
  68:app/tasks/nfc/nfc_handlers.c **** 
  69:app/tasks/nfc/nfc_handlers.c ****     return NFCTAG_ERROR;
  70:app/tasks/nfc/nfc_handlers.c ****   }
  71:app/tasks/nfc/nfc_handlers.c **** 
  72:app/tasks/nfc/nfc_handlers.c ****   return NFCTAG_OK;
  73:app/tasks/nfc/nfc_handlers.c **** }...
 321              		.loc 1 73 1 view .LVU70
 322 0032 03B0     		add	sp, sp, #12
 323              	.LCFI10:
 324              		.cfi_remember_state
 325              		.cfi_def_cfa_offset 12
 326              		@ sp needed
 327 0034 30BD     		pop	{r4, r5, pc}
 328              	.LVL22:
 329              	.L19:
 330              	.LCFI11:
 331              		.cfi_restore_state
  52:app/tasks/nfc/nfc_handlers.c ****         fprintf(stdout, "ST25DV ST25DV_ReadMBLength_Dyn Error\n");
 332              		.loc 1 52 9 is_stmt 1 view .LVU71
  52:app/tasks/nfc/nfc_handlers.c ****         fprintf(stdout, "ST25DV ST25DV_ReadMBLength_Dyn Error\n");
 333              		.loc 1 52 17 is_stmt 0 view .LVU72
 334 0036 0B4B     		ldr	r3, .L21
 335 0038 1B68     		ldr	r3, [r3]
  52:app/tasks/nfc/nfc_handlers.c ****         fprintf(stdout, "ST25DV ST25DV_ReadMBLength_Dyn Error\n");
 336              		.loc 1 52 9 view .LVU73
 337 003a 9B68     		ldr	r3, [r3, #8]
 338 003c 2522     		movs	r2, #37
 339 003e 0121     		movs	r1, #1
 340 0040 0A48     		ldr	r0, .L21+8
 341              	.LVL23:
  52:app/tasks/nfc/nfc_handlers.c ****         fprintf(stdout, "ST25DV ST25DV_ReadMBLength_Dyn Error\n");
 342              		.loc 1 52 9 view .LVU74
ARM GAS  /tmp/ccQu0WuY.s 			page 9


 343 0042 FFF7FEFF 		bl	fwrite
 344              	.LVL24:
  55:app/tasks/nfc/nfc_handlers.c ****     return NFCTAG_ERROR;
 345              		.loc 1 55 5 is_stmt 1 view .LVU75
  55:app/tasks/nfc/nfc_handlers.c ****     return NFCTAG_ERROR;
 346              		.loc 1 55 12 is_stmt 0 view .LVU76
 347 0046 4FF0FF30 		mov	r0, #-1
 348 004a F2E7     		b	.L15
 349              	.LVL25:
 350              	.L20:
  66:app/tasks/nfc/nfc_handlers.c ****       fprintf(stdout, "ST25DV ST25DV_ReadMailboxData Error\n");
 351              		.loc 1 66 7 is_stmt 1 view .LVU77
  66:app/tasks/nfc/nfc_handlers.c ****       fprintf(stdout, "ST25DV ST25DV_ReadMailboxData Error\n");
 352              		.loc 1 66 15 is_stmt 0 view .LVU78
 353 004c 054B     		ldr	r3, .L21
 354 004e 1B68     		ldr	r3, [r3]
  66:app/tasks/nfc/nfc_handlers.c ****       fprintf(stdout, "ST25DV ST25DV_ReadMailboxData Error\n");
 355              		.loc 1 66 7 view .LVU79
 356 0050 9B68     		ldr	r3, [r3, #8]
 357 0052 2422     		movs	r2, #36
 358 0054 0121     		movs	r1, #1
 359 0056 0648     		ldr	r0, .L21+12
 360              	.LVL26:
  66:app/tasks/nfc/nfc_handlers.c ****       fprintf(stdout, "ST25DV ST25DV_ReadMailboxData Error\n");
 361              		.loc 1 66 7 view .LVU80
 362 0058 FFF7FEFF 		bl	fwrite
 363              	.LVL27:
  69:app/tasks/nfc/nfc_handlers.c ****     return NFCTAG_ERROR;
 364              		.loc 1 69 5 is_stmt 1 view .LVU81
  69:app/tasks/nfc/nfc_handlers.c ****     return NFCTAG_ERROR;
 365              		.loc 1 69 12 is_stmt 0 view .LVU82
 366 005c 4FF0FF30 		mov	r0, #-1
 367 0060 E7E7     		b	.L15
 368              	.L22:
 369 0062 00BF     		.align	2
 370              	.L21:
 371 0064 00000000 		.word	_impure_ptr
 372 0068 28000000 		.word	.LC4
 373 006c 00000000 		.word	.LC3
 374 0070 3C000000 		.word	.LC5
 375              		.cfi_endproc
 376              	.LFE141:
 378              		.text
 379              	.Letext0:
 380              		.file 2 "/usr/include/newlib/machine/_default_types.h"
 381              		.file 3 "/usr/lib/gcc/arm-none-eabi/10.3.1/include/stddef.h"
 382              		.file 4 "/usr/include/newlib/sys/_types.h"
 383              		.file 5 "/usr/include/newlib/sys/reent.h"
 384              		.file 6 "/usr/include/newlib/sys/lock.h"
 385              		.file 7 "/usr/include/newlib/sys/_stdint.h"
 386              		.file 8 "/usr/include/newlib/sys/types.h"
 387              		.file 9 "Middlewares/Third_Party/FreeRTOS/Source/CMSIS_RTOS_V2/cmsis_os2.h"
 388              		.file 10 "app/core/actor/../../config/events_list/events_list.h"
 389              		.file 11 "app/core/actor/actor.h"
 390              		.file 12 "Drivers/BSP/Components/ST25DV/st25dv_reg.h"
 391              		.file 13 "Drivers/BSP/Components/ST25DV/st25dv.h"
 392              		.file 14 "app/tasks/nfc/nfc.h"
ARM GAS  /tmp/ccQu0WuY.s 			page 10


 393              		.file 15 "/usr/include/newlib/stdio.h"
 394              		.file 16 "<built-in>"
ARM GAS  /tmp/ccQu0WuY.s 			page 11


DEFINED SYMBOLS
                            *ABS*:0000000000000000 nfc_handlers.c
     /tmp/ccQu0WuY.s:18     .rodata.NFC_ST25DVInit.str1.4:0000000000000000 $d
     /tmp/ccQu0WuY.s:25     .text.NFC_ST25DVInit:0000000000000000 $t
     /tmp/ccQu0WuY.s:33     .text.NFC_ST25DVInit:0000000000000000 NFC_ST25DVInit
     /tmp/ccQu0WuY.s:148    .text.NFC_ST25DVInit:000000000000005c $d
     /tmp/ccQu0WuY.s:162    .rodata.NFC_HandleGPOInterrupt.str1.4:0000000000000000 $d
     /tmp/ccQu0WuY.s:166    .text.NFC_HandleGPOInterrupt:0000000000000000 $t
     /tmp/ccQu0WuY.s:173    .text.NFC_HandleGPOInterrupt:0000000000000000 NFC_HandleGPOInterrupt
     /tmp/ccQu0WuY.s:242    .text.NFC_HandleGPOInterrupt:0000000000000048 $d
     /tmp/ccQu0WuY.s:249    .rodata.NFC_ReadMailboxTo.str1.4:0000000000000000 $d
     /tmp/ccQu0WuY.s:259    .text.NFC_ReadMailboxTo:0000000000000000 $t
     /tmp/ccQu0WuY.s:266    .text.NFC_ReadMailboxTo:0000000000000000 NFC_ReadMailboxTo
     /tmp/ccQu0WuY.s:371    .text.NFC_ReadMailboxTo:0000000000000064 $d

UNDEFINED SYMBOLS
ST25DV_RegisterBusIO
fprintf
BSP_I2C1_Init
BSP_I2C1_DeInit
BSP_I2C1_IsReady
BSP_I2C1_ReadReg16
BSP_I2C1_WriteReg16
HAL_GetTick
St25Dv_Drv
_impure_ptr
ST25DV_ReadITSTStatus_Dyn
osMessageQueuePut
NFC_Actor
ST25DV_ReadMBLength_Dyn
ST25DV_ReadMailboxData
fwrite
