ARM GAS  /tmp/ccaBOv9h.s 			page 1


   1              		.cpu cortex-m4
   2              		.eabi_attribute 27, 1
   3              		.eabi_attribute 28, 1
   4              		.eabi_attribute 20, 1
   5              		.eabi_attribute 21, 1
   6              		.eabi_attribute 23, 3
   7              		.eabi_attribute 24, 1
   8              		.eabi_attribute 25, 1
   9              		.eabi_attribute 26, 1
  10              		.eabi_attribute 30, 1
  11              		.eabi_attribute 34, 1
  12              		.eabi_attribute 18, 4
  13              		.file	"power_mode_manager.c"
  14              		.text
  15              	.Ltext0:
  16              		.cfi_sections	.debug_frame
  17              		.section	.text.handlePwrModeManagerMessage,"ax",%progbits
  18              		.align	1
  19              		.arch armv7e-m
  20              		.syntax unified
  21              		.thumb
  22              		.thumb_func
  23              		.fpu fpv4-sp-d16
  25              	handlePwrModeManagerMessage:
  26              	.LVL0:
  27              	.LFB142:
  28              		.file 1 "app/core/power_mode_manager/power_mode_manager.c"
   1:app/core/power_mode_manager/power_mode_manager.c **** /*!
   2:app/core/power_mode_manager/power_mode_manager.c ****  * @file sleep.c
   3:app/core/power_mode_manager/power_mode_manager.c ****  * @brief implementation of power mode manager
   4:app/core/power_mode_manager/power_mode_manager.c ****  *
   5:app/core/power_mode_manager/power_mode_manager.c ****  * Detailed description of the implementation file.
   6:app/core/power_mode_manager/power_mode_manager.c ****  *
   7:app/core/power_mode_manager/power_mode_manager.c ****  * @date 14/08/2024
   8:app/core/power_mode_manager/power_mode_manager.c ****  * @author artempolisskyi
   9:app/core/power_mode_manager/power_mode_manager.c ****  */
  10:app/core/power_mode_manager/power_mode_manager.c **** 
  11:app/core/power_mode_manager/power_mode_manager.c **** #include "power_mode_manager.h"
  12:app/core/power_mode_manager/power_mode_manager.c **** 
  13:app/core/power_mode_manager/power_mode_manager.c **** extern void SystemClock_Config(void);
  14:app/core/power_mode_manager/power_mode_manager.c **** 
  15:app/core/power_mode_manager/power_mode_manager.c **** static osStatus_t handlePwrModeManagerMessage(PWRM_MANAGER_Actor_t *this, message_t *message);
  16:app/core/power_mode_manager/power_mode_manager.c **** 
  17:app/core/power_mode_manager/power_mode_manager.c **** PWRM_MANAGER_Actor_t PWRM_MANAGER_Actor = {
  18:app/core/power_mode_manager/power_mode_manager.c ****         .super = {
  19:app/core/power_mode_manager/power_mode_manager.c ****                 .actorId = PWRM_MANAGER_ACTOR_ID,
  20:app/core/power_mode_manager/power_mode_manager.c ****                 .messageHandler = (messageHandler_t) handlePwrModeManagerMessage,
  21:app/core/power_mode_manager/power_mode_manager.c ****                 .osMessageQueueId = NULL,
  22:app/core/power_mode_manager/power_mode_manager.c ****                 .osThreadId = NULL,
  23:app/core/power_mode_manager/power_mode_manager.c ****         },
  24:app/core/power_mode_manager/power_mode_manager.c ****         .state = PWRM_NO_STATE
  25:app/core/power_mode_manager/power_mode_manager.c **** };
  26:app/core/power_mode_manager/power_mode_manager.c **** 
  27:app/core/power_mode_manager/power_mode_manager.c **** void PreSleepProcessing(uint32_t ulExpectedIdleTime)
  28:app/core/power_mode_manager/power_mode_manager.c **** {
  29:app/core/power_mode_manager/power_mode_manager.c ****   // Disable SysTick Interrupt
  30:app/core/power_mode_manager/power_mode_manager.c ****   SysTick->CTRL &= ~SysTick_CTRL_TICKINT_Msk;
ARM GAS  /tmp/ccaBOv9h.s 			page 2


  31:app/core/power_mode_manager/power_mode_manager.c **** 
  32:app/core/power_mode_manager/power_mode_manager.c ****   // Suspend the HAL tick
  33:app/core/power_mode_manager/power_mode_manager.c ****   HAL_SuspendTick();
  34:app/core/power_mode_manager/power_mode_manager.c **** 
  35:app/core/power_mode_manager/power_mode_manager.c ****   switch (PWRM_MANAGER_Actor.state) {
  36:app/core/power_mode_manager/power_mode_manager.c ****     case PWRM_STANDBY:
  37:app/core/power_mode_manager/power_mode_manager.c ****       #ifdef DEBUG
  38:app/core/power_mode_manager/power_mode_manager.c ****         fprintf(stdout, "Entering STANDBY Mode...\n");
  39:app/core/power_mode_manager/power_mode_manager.c ****       #endif
  40:app/core/power_mode_manager/power_mode_manager.c **** 
  41:app/core/power_mode_manager/power_mode_manager.c ****       HAL_PWR_EnterSTANDBYMode();
  42:app/core/power_mode_manager/power_mode_manager.c ****       break;
  43:app/core/power_mode_manager/power_mode_manager.c ****     case PWRM_STOP2:
  44:app/core/power_mode_manager/power_mode_manager.c ****       #ifdef DEBUG
  45:app/core/power_mode_manager/power_mode_manager.c ****         fprintf(stdout, "Entering STOP2 Mode...\n");
  46:app/core/power_mode_manager/power_mode_manager.c ****       #endif
  47:app/core/power_mode_manager/power_mode_manager.c **** 
  48:app/core/power_mode_manager/power_mode_manager.c ****       HAL_PWREx_EnterSTOP2Mode(PWR_STOPENTRY_WFI);
  49:app/core/power_mode_manager/power_mode_manager.c ****       break;
  50:app/core/power_mode_manager/power_mode_manager.c ****   }
  51:app/core/power_mode_manager/power_mode_manager.c **** 
  52:app/core/power_mode_manager/power_mode_manager.c ****   // TODO handle non sleep modes
  53:app/core/power_mode_manager/power_mode_manager.c **** }
  54:app/core/power_mode_manager/power_mode_manager.c **** 
  55:app/core/power_mode_manager/power_mode_manager.c **** void PostSleepProcessing(uint32_t ulExpectedIdleTime)
  56:app/core/power_mode_manager/power_mode_manager.c **** {
  57:app/core/power_mode_manager/power_mode_manager.c ****   // Restore the system clock after waking up
  58:app/core/power_mode_manager/power_mode_manager.c ****   SystemClock_Config();
  59:app/core/power_mode_manager/power_mode_manager.c **** 
  60:app/core/power_mode_manager/power_mode_manager.c ****   // Enable SysTick Interrupt
  61:app/core/power_mode_manager/power_mode_manager.c ****   SysTick->CTRL  |= SysTick_CTRL_TICKINT_Msk;
  62:app/core/power_mode_manager/power_mode_manager.c **** 
  63:app/core/power_mode_manager/power_mode_manager.c ****   // Resume the HAL tick (if using SysTick)
  64:app/core/power_mode_manager/power_mode_manager.c ****   HAL_ResumeTick();
  65:app/core/power_mode_manager/power_mode_manager.c **** 
  66:app/core/power_mode_manager/power_mode_manager.c ****   #ifdef DEBUG
  67:app/core/power_mode_manager/power_mode_manager.c ****     fprintf(stdout, "Exited Sleep Mode...\n");
  68:app/core/power_mode_manager/power_mode_manager.c ****   #endif
  69:app/core/power_mode_manager/power_mode_manager.c **** }
  70:app/core/power_mode_manager/power_mode_manager.c **** 
  71:app/core/power_mode_manager/power_mode_manager.c **** actor_t* PWRM_MANAGER_ActorInit(void) {
  72:app/core/power_mode_manager/power_mode_manager.c ****   PWRM_MANAGER_Actor.state = PWRM_STOP2;
  73:app/core/power_mode_manager/power_mode_manager.c **** 
  74:app/core/power_mode_manager/power_mode_manager.c ****   fprintf(stdout, "Power Mode Manager initialized\n");
  75:app/core/power_mode_manager/power_mode_manager.c **** 
  76:app/core/power_mode_manager/power_mode_manager.c ****   return &PWRM_MANAGER_Actor.super;
  77:app/core/power_mode_manager/power_mode_manager.c **** }
  78:app/core/power_mode_manager/power_mode_manager.c **** 
  79:app/core/power_mode_manager/power_mode_manager.c **** static osStatus_t handlePwrModeManagerMessage(PWRM_MANAGER_Actor_t *this, message_t *message) {
  29              		.loc 1 79 95 view -0
  30              		.cfi_startproc
  31              		@ args = 0, pretend = 0, frame = 0
  32              		@ frame_needed = 0, uses_anonymous_args = 0
  33              		@ link register save eliminated.
  80:app/core/power_mode_manager/power_mode_manager.c ****   switch (message->event) {
  34              		.loc 1 80 3 view .LVU1
  81:app/core/power_mode_manager/power_mode_manager.c ****     // TODO handle sleep manager messages
ARM GAS  /tmp/ccaBOv9h.s 			page 3


  82:app/core/power_mode_manager/power_mode_manager.c ****     default:
  83:app/core/power_mode_manager/power_mode_manager.c ****       return osOK;
  35              		.loc 1 83 7 view .LVU2
  84:app/core/power_mode_manager/power_mode_manager.c ****   }
  85:app/core/power_mode_manager/power_mode_manager.c **** 
  86:app/core/power_mode_manager/power_mode_manager.c ****   return osOK;
  87:app/core/power_mode_manager/power_mode_manager.c **** }...
  36              		.loc 1 87 1 is_stmt 0 view .LVU3
  37 0000 0020     		movs	r0, #0
  38              	.LVL1:
  39              		.loc 1 87 1 view .LVU4
  40 0002 7047     		bx	lr
  41              		.cfi_endproc
  42              	.LFE142:
  44              		.section	.rodata.PreSleepProcessing.str1.4,"aMS",%progbits,1
  45              		.align	2
  46              	.LC0:
  47 0000 456E7465 		.ascii	"Entering STANDBY Mode...\012\000"
  47      72696E67 
  47      20535441 
  47      4E444259 
  47      204D6F64 
  48 001a 0000     		.align	2
  49              	.LC1:
  50 001c 456E7465 		.ascii	"Entering STOP2 Mode...\012\000"
  50      72696E67 
  50      2053544F 
  50      5032204D 
  50      6F64652E 
  51              		.section	.text.PreSleepProcessing,"ax",%progbits
  52              		.align	1
  53              		.global	PreSleepProcessing
  54              		.syntax unified
  55              		.thumb
  56              		.thumb_func
  57              		.fpu fpv4-sp-d16
  59              	PreSleepProcessing:
  60              	.LVL2:
  61              	.LFB139:
  28:app/core/power_mode_manager/power_mode_manager.c **** {
  62              		.loc 1 28 1 is_stmt 1 view -0
  63              		.cfi_startproc
  64              		@ args = 0, pretend = 0, frame = 0
  65              		@ frame_needed = 0, uses_anonymous_args = 0
  28:app/core/power_mode_manager/power_mode_manager.c **** {
  66              		.loc 1 28 1 is_stmt 0 view .LVU6
  67 0000 08B5     		push	{r3, lr}
  68              	.LCFI0:
  69              		.cfi_def_cfa_offset 8
  70              		.cfi_offset 3, -8
  71              		.cfi_offset 14, -4
  30:app/core/power_mode_manager/power_mode_manager.c ****   SysTick->CTRL &= ~SysTick_CTRL_TICKINT_Msk;
  72              		.loc 1 30 3 is_stmt 1 view .LVU7
  30:app/core/power_mode_manager/power_mode_manager.c ****   SysTick->CTRL &= ~SysTick_CTRL_TICKINT_Msk;
  73              		.loc 1 30 17 is_stmt 0 view .LVU8
  74 0002 4FF0E022 		mov	r2, #-536813568
  75 0006 1369     		ldr	r3, [r2, #16]
ARM GAS  /tmp/ccaBOv9h.s 			page 4


  76 0008 23F00203 		bic	r3, r3, #2
  77 000c 1361     		str	r3, [r2, #16]
  33:app/core/power_mode_manager/power_mode_manager.c ****   HAL_SuspendTick();
  78              		.loc 1 33 3 is_stmt 1 view .LVU9
  79 000e FFF7FEFF 		bl	HAL_SuspendTick
  80              	.LVL3:
  35:app/core/power_mode_manager/power_mode_manager.c ****   switch (PWRM_MANAGER_Actor.state) {
  81              		.loc 1 35 3 view .LVU10
  35:app/core/power_mode_manager/power_mode_manager.c ****   switch (PWRM_MANAGER_Actor.state) {
  82              		.loc 1 35 29 is_stmt 0 view .LVU11
  83 0012 0F4B     		ldr	r3, .L7
  84 0014 1B7C     		ldrb	r3, [r3, #16]	@ zero_extendqisi2
  35:app/core/power_mode_manager/power_mode_manager.c ****   switch (PWRM_MANAGER_Actor.state) {
  85              		.loc 1 35 3 view .LVU12
  86 0016 012B     		cmp	r3, #1
  87 0018 02D0     		beq	.L3
  88 001a 022B     		cmp	r3, #2
  89 001c 0BD0     		beq	.L4
  90              	.L2:
  53:app/core/power_mode_manager/power_mode_manager.c **** }
  91              		.loc 1 53 1 view .LVU13
  92 001e 08BD     		pop	{r3, pc}
  93              	.L3:
  38:app/core/power_mode_manager/power_mode_manager.c ****         fprintf(stdout, "Entering STANDBY Mode...\n");
  94              		.loc 1 38 9 is_stmt 1 view .LVU14
  38:app/core/power_mode_manager/power_mode_manager.c ****         fprintf(stdout, "Entering STANDBY Mode...\n");
  95              		.loc 1 38 17 is_stmt 0 view .LVU15
  96 0020 0C4B     		ldr	r3, .L7+4
  97 0022 1B68     		ldr	r3, [r3]
  38:app/core/power_mode_manager/power_mode_manager.c ****         fprintf(stdout, "Entering STANDBY Mode...\n");
  98              		.loc 1 38 9 view .LVU16
  99 0024 9B68     		ldr	r3, [r3, #8]
 100 0026 1922     		movs	r2, #25
 101 0028 0121     		movs	r1, #1
 102 002a 0B48     		ldr	r0, .L7+8
 103 002c FFF7FEFF 		bl	fwrite
 104              	.LVL4:
  41:app/core/power_mode_manager/power_mode_manager.c ****       HAL_PWR_EnterSTANDBYMode();
 105              		.loc 1 41 7 is_stmt 1 view .LVU17
 106 0030 FFF7FEFF 		bl	HAL_PWR_EnterSTANDBYMode
 107              	.LVL5:
  42:app/core/power_mode_manager/power_mode_manager.c ****       break;
 108              		.loc 1 42 7 view .LVU18
 109 0034 F3E7     		b	.L2
 110              	.L4:
  45:app/core/power_mode_manager/power_mode_manager.c ****         fprintf(stdout, "Entering STOP2 Mode...\n");
 111              		.loc 1 45 9 view .LVU19
  45:app/core/power_mode_manager/power_mode_manager.c ****         fprintf(stdout, "Entering STOP2 Mode...\n");
 112              		.loc 1 45 17 is_stmt 0 view .LVU20
 113 0036 074B     		ldr	r3, .L7+4
 114 0038 1B68     		ldr	r3, [r3]
  45:app/core/power_mode_manager/power_mode_manager.c ****         fprintf(stdout, "Entering STOP2 Mode...\n");
 115              		.loc 1 45 9 view .LVU21
 116 003a 9B68     		ldr	r3, [r3, #8]
 117 003c 1722     		movs	r2, #23
 118 003e 0121     		movs	r1, #1
 119 0040 0648     		ldr	r0, .L7+12
ARM GAS  /tmp/ccaBOv9h.s 			page 5


 120 0042 FFF7FEFF 		bl	fwrite
 121              	.LVL6:
  48:app/core/power_mode_manager/power_mode_manager.c ****       HAL_PWREx_EnterSTOP2Mode(PWR_STOPENTRY_WFI);
 122              		.loc 1 48 7 is_stmt 1 view .LVU22
 123 0046 0120     		movs	r0, #1
 124 0048 FFF7FEFF 		bl	HAL_PWREx_EnterSTOP2Mode
 125              	.LVL7:
  49:app/core/power_mode_manager/power_mode_manager.c ****       break;
 126              		.loc 1 49 7 view .LVU23
  53:app/core/power_mode_manager/power_mode_manager.c **** }
 127              		.loc 1 53 1 is_stmt 0 view .LVU24
 128 004c E7E7     		b	.L2
 129              	.L8:
 130 004e 00BF     		.align	2
 131              	.L7:
 132 0050 00000000 		.word	.LANCHOR0
 133 0054 00000000 		.word	_impure_ptr
 134 0058 00000000 		.word	.LC0
 135 005c 1C000000 		.word	.LC1
 136              		.cfi_endproc
 137              	.LFE139:
 139              		.section	.rodata.PostSleepProcessing.str1.4,"aMS",%progbits,1
 140              		.align	2
 141              	.LC2:
 142 0000 45786974 		.ascii	"Exited Sleep Mode...\012\000"
 142      65642053 
 142      6C656570 
 142      204D6F64 
 142      652E2E2E 
 143              		.section	.text.PostSleepProcessing,"ax",%progbits
 144              		.align	1
 145              		.global	PostSleepProcessing
 146              		.syntax unified
 147              		.thumb
 148              		.thumb_func
 149              		.fpu fpv4-sp-d16
 151              	PostSleepProcessing:
 152              	.LVL8:
 153              	.LFB140:
  56:app/core/power_mode_manager/power_mode_manager.c **** {
 154              		.loc 1 56 1 is_stmt 1 view -0
 155              		.cfi_startproc
 156              		@ args = 0, pretend = 0, frame = 0
 157              		@ frame_needed = 0, uses_anonymous_args = 0
  56:app/core/power_mode_manager/power_mode_manager.c **** {
 158              		.loc 1 56 1 is_stmt 0 view .LVU26
 159 0000 08B5     		push	{r3, lr}
 160              	.LCFI1:
 161              		.cfi_def_cfa_offset 8
 162              		.cfi_offset 3, -8
 163              		.cfi_offset 14, -4
  58:app/core/power_mode_manager/power_mode_manager.c ****   SystemClock_Config();
 164              		.loc 1 58 3 is_stmt 1 view .LVU27
 165 0002 FFF7FEFF 		bl	SystemClock_Config
 166              	.LVL9:
  61:app/core/power_mode_manager/power_mode_manager.c ****   SysTick->CTRL  |= SysTick_CTRL_TICKINT_Msk;
 167              		.loc 1 61 3 view .LVU28
ARM GAS  /tmp/ccaBOv9h.s 			page 6


  61:app/core/power_mode_manager/power_mode_manager.c ****   SysTick->CTRL  |= SysTick_CTRL_TICKINT_Msk;
 168              		.loc 1 61 18 is_stmt 0 view .LVU29
 169 0006 4FF0E022 		mov	r2, #-536813568
 170 000a 1369     		ldr	r3, [r2, #16]
 171 000c 43F00203 		orr	r3, r3, #2
 172 0010 1361     		str	r3, [r2, #16]
  64:app/core/power_mode_manager/power_mode_manager.c ****   HAL_ResumeTick();
 173              		.loc 1 64 3 is_stmt 1 view .LVU30
 174 0012 FFF7FEFF 		bl	HAL_ResumeTick
 175              	.LVL10:
  67:app/core/power_mode_manager/power_mode_manager.c ****     fprintf(stdout, "Exited Sleep Mode...\n");
 176              		.loc 1 67 5 view .LVU31
  67:app/core/power_mode_manager/power_mode_manager.c ****     fprintf(stdout, "Exited Sleep Mode...\n");
 177              		.loc 1 67 13 is_stmt 0 view .LVU32
 178 0016 044B     		ldr	r3, .L11
 179 0018 1B68     		ldr	r3, [r3]
  67:app/core/power_mode_manager/power_mode_manager.c ****     fprintf(stdout, "Exited Sleep Mode...\n");
 180              		.loc 1 67 5 view .LVU33
 181 001a 9B68     		ldr	r3, [r3, #8]
 182 001c 1522     		movs	r2, #21
 183 001e 0121     		movs	r1, #1
 184 0020 0248     		ldr	r0, .L11+4
 185 0022 FFF7FEFF 		bl	fwrite
 186              	.LVL11:
  69:app/core/power_mode_manager/power_mode_manager.c **** }
 187              		.loc 1 69 1 view .LVU34
 188 0026 08BD     		pop	{r3, pc}
 189              	.L12:
 190              		.align	2
 191              	.L11:
 192 0028 00000000 		.word	_impure_ptr
 193 002c 00000000 		.word	.LC2
 194              		.cfi_endproc
 195              	.LFE140:
 197              		.section	.rodata.PWRM_MANAGER_ActorInit.str1.4,"aMS",%progbits,1
 198              		.align	2
 199              	.LC3:
 200 0000 506F7765 		.ascii	"Power Mode Manager initialized\012\000"
 200      72204D6F 
 200      6465204D 
 200      616E6167 
 200      65722069 
 201              		.section	.text.PWRM_MANAGER_ActorInit,"ax",%progbits
 202              		.align	1
 203              		.global	PWRM_MANAGER_ActorInit
 204              		.syntax unified
 205              		.thumb
 206              		.thumb_func
 207              		.fpu fpv4-sp-d16
 209              	PWRM_MANAGER_ActorInit:
 210              	.LFB141:
  71:app/core/power_mode_manager/power_mode_manager.c **** actor_t* PWRM_MANAGER_ActorInit(void) {
 211              		.loc 1 71 39 is_stmt 1 view -0
 212              		.cfi_startproc
 213              		@ args = 0, pretend = 0, frame = 0
 214              		@ frame_needed = 0, uses_anonymous_args = 0
 215 0000 10B5     		push	{r4, lr}
ARM GAS  /tmp/ccaBOv9h.s 			page 7


 216              	.LCFI2:
 217              		.cfi_def_cfa_offset 8
 218              		.cfi_offset 4, -8
 219              		.cfi_offset 14, -4
  72:app/core/power_mode_manager/power_mode_manager.c ****   PWRM_MANAGER_Actor.state = PWRM_STOP2;
 220              		.loc 1 72 3 view .LVU36
  72:app/core/power_mode_manager/power_mode_manager.c ****   PWRM_MANAGER_Actor.state = PWRM_STOP2;
 221              		.loc 1 72 28 is_stmt 0 view .LVU37
 222 0002 064C     		ldr	r4, .L15
 223 0004 0223     		movs	r3, #2
 224 0006 2374     		strb	r3, [r4, #16]
  74:app/core/power_mode_manager/power_mode_manager.c ****   fprintf(stdout, "Power Mode Manager initialized\n");
 225              		.loc 1 74 3 is_stmt 1 view .LVU38
  74:app/core/power_mode_manager/power_mode_manager.c ****   fprintf(stdout, "Power Mode Manager initialized\n");
 226              		.loc 1 74 11 is_stmt 0 view .LVU39
 227 0008 054B     		ldr	r3, .L15+4
 228 000a 1B68     		ldr	r3, [r3]
  74:app/core/power_mode_manager/power_mode_manager.c ****   fprintf(stdout, "Power Mode Manager initialized\n");
 229              		.loc 1 74 3 view .LVU40
 230 000c 9B68     		ldr	r3, [r3, #8]
 231 000e 1F22     		movs	r2, #31
 232 0010 0121     		movs	r1, #1
 233 0012 0448     		ldr	r0, .L15+8
 234 0014 FFF7FEFF 		bl	fwrite
 235              	.LVL12:
  76:app/core/power_mode_manager/power_mode_manager.c ****   return &PWRM_MANAGER_Actor.super;
 236              		.loc 1 76 3 is_stmt 1 view .LVU41
  77:app/core/power_mode_manager/power_mode_manager.c **** }
 237              		.loc 1 77 1 is_stmt 0 view .LVU42
 238 0018 2046     		mov	r0, r4
 239 001a 10BD     		pop	{r4, pc}
 240              	.L16:
 241              		.align	2
 242              	.L15:
 243 001c 00000000 		.word	.LANCHOR0
 244 0020 00000000 		.word	_impure_ptr
 245 0024 00000000 		.word	.LC3
 246              		.cfi_endproc
 247              	.LFE141:
 249              		.global	PWRM_MANAGER_Actor
 250              		.section	.data.PWRM_MANAGER_Actor,"aw"
 251              		.align	2
 252              		.set	.LANCHOR0,. + 0
 255              	PWRM_MANAGER_Actor:
 256 0000 03000000 		.word	3
 257 0004 00000000 		.word	0
 258 0008 00000000 		.word	0
 259 000c 00000000 		.word	handlePwrModeManagerMessage
 260 0010 00       		.byte	0
 261 0011 000000   		.space	3
 262              		.text
 263              	.Letext0:
 264              		.file 2 "/usr/include/newlib/machine/_default_types.h"
 265              		.file 3 "/usr/lib/gcc/arm-none-eabi/10.3.1/include/stddef.h"
 266              		.file 4 "/usr/include/newlib/sys/_types.h"
 267              		.file 5 "/usr/include/newlib/sys/reent.h"
 268              		.file 6 "/usr/include/newlib/sys/lock.h"
ARM GAS  /tmp/ccaBOv9h.s 			page 8


 269              		.file 7 "/usr/include/newlib/sys/_stdint.h"
 270              		.file 8 "/usr/include/newlib/sys/types.h"
 271              		.file 9 "Drivers/CMSIS/Include/core_cm4.h"
 272              		.file 10 "Middlewares/Third_Party/FreeRTOS/Source/CMSIS_RTOS_V2/cmsis_os2.h"
 273              		.file 11 "app/core/actor/../../config/events_list/events_list.h"
 274              		.file 12 "app/core/actor/../../config/actors_list/actors_list.h"
 275              		.file 13 "app/core/actor/actor.h"
 276              		.file 14 "app/core/power_mode_manager/power_mode_manager.h"
 277              		.file 15 "Drivers/STM32L4xx_HAL_Driver/Inc/stm32l4xx_hal.h"
 278              		.file 16 "Drivers/STM32L4xx_HAL_Driver/Inc/stm32l4xx_hal_pwr.h"
 279              		.file 17 "Drivers/STM32L4xx_HAL_Driver/Inc/stm32l4xx_hal_pwr_ex.h"
 280              		.file 18 "<built-in>"
ARM GAS  /tmp/ccaBOv9h.s 			page 9

