ARM GAS  /tmp/ccyEpLlu.s 			page 1


   1              		.cpu cortex-m4
   2              		.eabi_attribute 27, 1
   3              		.eabi_attribute 28, 1
   4              		.eabi_attribute 20, 1
   5              		.eabi_attribute 21, 1
   6              		.eabi_attribute 23, 3
   7              		.eabi_attribute 24, 1
   8              		.eabi_attribute 25, 1
   9              		.eabi_attribute 26, 1
  10              		.eabi_attribute 30, 1
  11              		.eabi_attribute 34, 1
  12              		.eabi_attribute 18, 4
  13              		.file	"SEGGER_SYSVIEW.c"
  14              		.text
  15              	.Ltext0:
  16              		.cfi_sections	.debug_frame
  17              		.section	.text._EncodeData,"ax",%progbits
  18              		.align	1
  19              		.arch armv7e-m
  20              		.syntax unified
  21              		.thumb
  22              		.thumb_func
  23              		.fpu fpv4-sp-d16
  25              	_EncodeData:
  26              	.LVL0:
  27              	.LFB0:
  28              		.file 1 "libraries/SystemView/SYSVIEW/SEGGER_SYSVIEW.c"
   1:libraries/SystemView/SYSVIEW/SEGGER_SYSVIEW.c **** /*********************************************************************
   2:libraries/SystemView/SYSVIEW/SEGGER_SYSVIEW.c **** *                    SEGGER Microcontroller GmbH                     *
   3:libraries/SystemView/SYSVIEW/SEGGER_SYSVIEW.c **** *                        The Embedded Experts                        *
   4:libraries/SystemView/SYSVIEW/SEGGER_SYSVIEW.c **** **********************************************************************
   5:libraries/SystemView/SYSVIEW/SEGGER_SYSVIEW.c **** *                                                                    *
   6:libraries/SystemView/SYSVIEW/SEGGER_SYSVIEW.c **** *            (c) 1995 - 2021 SEGGER Microcontroller GmbH             *
   7:libraries/SystemView/SYSVIEW/SEGGER_SYSVIEW.c **** *                                                                    *
   8:libraries/SystemView/SYSVIEW/SEGGER_SYSVIEW.c **** *       www.segger.com     Support: support@segger.com               *
   9:libraries/SystemView/SYSVIEW/SEGGER_SYSVIEW.c **** *                                                                    *
  10:libraries/SystemView/SYSVIEW/SEGGER_SYSVIEW.c **** **********************************************************************
  11:libraries/SystemView/SYSVIEW/SEGGER_SYSVIEW.c **** *                                                                    *
  12:libraries/SystemView/SYSVIEW/SEGGER_SYSVIEW.c **** *       SEGGER SystemView * Real-time application analysis           *
  13:libraries/SystemView/SYSVIEW/SEGGER_SYSVIEW.c **** *                                                                    *
  14:libraries/SystemView/SYSVIEW/SEGGER_SYSVIEW.c **** **********************************************************************
  15:libraries/SystemView/SYSVIEW/SEGGER_SYSVIEW.c **** *                                                                    *
  16:libraries/SystemView/SYSVIEW/SEGGER_SYSVIEW.c **** * All rights reserved.                                               *
  17:libraries/SystemView/SYSVIEW/SEGGER_SYSVIEW.c **** *                                                                    *
  18:libraries/SystemView/SYSVIEW/SEGGER_SYSVIEW.c **** * SEGGER strongly recommends to not make any changes                 *
  19:libraries/SystemView/SYSVIEW/SEGGER_SYSVIEW.c **** * to or modify the source code of this software in order to stay     *
  20:libraries/SystemView/SYSVIEW/SEGGER_SYSVIEW.c **** * compatible with the SystemView and RTT protocol, and J-Link.       *
  21:libraries/SystemView/SYSVIEW/SEGGER_SYSVIEW.c **** *                                                                    *
  22:libraries/SystemView/SYSVIEW/SEGGER_SYSVIEW.c **** * Redistribution and use in source and binary forms, with or         *
  23:libraries/SystemView/SYSVIEW/SEGGER_SYSVIEW.c **** * without modification, are permitted provided that the following    *
  24:libraries/SystemView/SYSVIEW/SEGGER_SYSVIEW.c **** * condition is met:                                                  *
  25:libraries/SystemView/SYSVIEW/SEGGER_SYSVIEW.c **** *                                                                    *
  26:libraries/SystemView/SYSVIEW/SEGGER_SYSVIEW.c **** * o Redistributions of source code must retain the above copyright   *
  27:libraries/SystemView/SYSVIEW/SEGGER_SYSVIEW.c **** *   notice, this condition and the following disclaimer.             *
  28:libraries/SystemView/SYSVIEW/SEGGER_SYSVIEW.c **** *                                                                    *
  29:libraries/SystemView/SYSVIEW/SEGGER_SYSVIEW.c **** * THIS SOFTWARE IS PROVIDED BY THE COPYRIGHT HOLDERS AND             *
  30:libraries/SystemView/SYSVIEW/SEGGER_SYSVIEW.c **** * CONTRIBUTORS "AS IS" AND ANY EXPRESS OR IMPLIED WARRANTIES,        *
ARM GAS  /tmp/ccyEpLlu.s 			page 2


  31:libraries/SystemView/SYSVIEW/SEGGER_SYSVIEW.c **** * INCLUDING, BUT NOT LIMITED TO, THE IMPLIED WARRANTIES OF           *
  32:libraries/SystemView/SYSVIEW/SEGGER_SYSVIEW.c **** * MERCHANTABILITY AND FITNESS FOR A PARTICULAR PURPOSE ARE           *
  33:libraries/SystemView/SYSVIEW/SEGGER_SYSVIEW.c **** * DISCLAIMED. IN NO EVENT SHALL SEGGER Microcontroller BE LIABLE FOR *
  34:libraries/SystemView/SYSVIEW/SEGGER_SYSVIEW.c **** * ANY DIRECT, INDIRECT, INCIDENTAL, SPECIAL, EXEMPLARY, OR           *
  35:libraries/SystemView/SYSVIEW/SEGGER_SYSVIEW.c **** * CONSEQUENTIAL DAMAGES (INCLUDING, BUT NOT LIMITED TO, PROCUREMENT  *
  36:libraries/SystemView/SYSVIEW/SEGGER_SYSVIEW.c **** * OF SUBSTITUTE GOODS OR SERVICES; LOSS OF USE, DATA, OR PROFITS;    *
  37:libraries/SystemView/SYSVIEW/SEGGER_SYSVIEW.c **** * OR BUSINESS INTERRUPTION) HOWEVER CAUSED AND ON ANY THEORY OF      *
  38:libraries/SystemView/SYSVIEW/SEGGER_SYSVIEW.c **** * LIABILITY, WHETHER IN CONTRACT, STRICT LIABILITY, OR TORT          *
  39:libraries/SystemView/SYSVIEW/SEGGER_SYSVIEW.c **** * (INCLUDING NEGLIGENCE OR OTHERWISE) ARISING IN ANY WAY OUT OF THE  *
  40:libraries/SystemView/SYSVIEW/SEGGER_SYSVIEW.c **** * USE OF THIS SOFTWARE, EVEN IF ADVISED OF THE POSSIBILITY OF SUCH   *
  41:libraries/SystemView/SYSVIEW/SEGGER_SYSVIEW.c **** * DAMAGE.                                                            *
  42:libraries/SystemView/SYSVIEW/SEGGER_SYSVIEW.c **** *                                                                    *
  43:libraries/SystemView/SYSVIEW/SEGGER_SYSVIEW.c **** **********************************************************************
  44:libraries/SystemView/SYSVIEW/SEGGER_SYSVIEW.c **** *                                                                    *
  45:libraries/SystemView/SYSVIEW/SEGGER_SYSVIEW.c **** *       SystemView version: 3.32                                    *
  46:libraries/SystemView/SYSVIEW/SEGGER_SYSVIEW.c **** *                                                                    *
  47:libraries/SystemView/SYSVIEW/SEGGER_SYSVIEW.c **** **********************************************************************
  48:libraries/SystemView/SYSVIEW/SEGGER_SYSVIEW.c **** -------------------------- END-OF-HEADER -----------------------------
  49:libraries/SystemView/SYSVIEW/SEGGER_SYSVIEW.c **** 
  50:libraries/SystemView/SYSVIEW/SEGGER_SYSVIEW.c **** File    : SEGGER_SYSVIEW.c
  51:libraries/SystemView/SYSVIEW/SEGGER_SYSVIEW.c **** Purpose : System visualization API implementation.
  52:libraries/SystemView/SYSVIEW/SEGGER_SYSVIEW.c **** Revision: $Rev: 26232 $
  53:libraries/SystemView/SYSVIEW/SEGGER_SYSVIEW.c **** 
  54:libraries/SystemView/SYSVIEW/SEGGER_SYSVIEW.c **** Additional information:
  55:libraries/SystemView/SYSVIEW/SEGGER_SYSVIEW.c ****   Packet format:
  56:libraries/SystemView/SYSVIEW/SEGGER_SYSVIEW.c ****     Packets with IDs 0..23 are standard packets with known structure.
  57:libraries/SystemView/SYSVIEW/SEGGER_SYSVIEW.c ****     For efficiency, they do *NOT* contain a length field.
  58:libraries/SystemView/SYSVIEW/SEGGER_SYSVIEW.c ****     <ID><Data><TimeStampDelta>
  59:libraries/SystemView/SYSVIEW/SEGGER_SYSVIEW.c **** 
  60:libraries/SystemView/SYSVIEW/SEGGER_SYSVIEW.c ****     Packets with IDs 24..31 are standard packets with extendible
  61:libraries/SystemView/SYSVIEW/SEGGER_SYSVIEW.c ****     structure and contain a length field.
  62:libraries/SystemView/SYSVIEW/SEGGER_SYSVIEW.c ****     <ID><Lenght><Data><TimeStampDelta>
  63:libraries/SystemView/SYSVIEW/SEGGER_SYSVIEW.c **** 
  64:libraries/SystemView/SYSVIEW/SEGGER_SYSVIEW.c ****     Packet ID 31 is used for SystemView extended events.
  65:libraries/SystemView/SYSVIEW/SEGGER_SYSVIEW.c ****     <ID><Lenght><ID_EX><Data><TimeStampDelta>
  66:libraries/SystemView/SYSVIEW/SEGGER_SYSVIEW.c **** 
  67:libraries/SystemView/SYSVIEW/SEGGER_SYSVIEW.c ****     Packets with IDs >= 32 always contain a length field.
  68:libraries/SystemView/SYSVIEW/SEGGER_SYSVIEW.c ****     <ID><Length><Data><TimeStampDelta>
  69:libraries/SystemView/SYSVIEW/SEGGER_SYSVIEW.c **** 
  70:libraries/SystemView/SYSVIEW/SEGGER_SYSVIEW.c ****   Packet IDs:
  71:libraries/SystemView/SYSVIEW/SEGGER_SYSVIEW.c ****        0..  31 : Standard packets, known by SystemView.
  72:libraries/SystemView/SYSVIEW/SEGGER_SYSVIEW.c ****       32..1023 : OS-definable packets, described in a SystemView description file.
  73:libraries/SystemView/SYSVIEW/SEGGER_SYSVIEW.c ****     1024..2047 : User-definable packets, described in a SystemView description file.
  74:libraries/SystemView/SYSVIEW/SEGGER_SYSVIEW.c ****     2048..32767: Undefined.
  75:libraries/SystemView/SYSVIEW/SEGGER_SYSVIEW.c **** 
  76:libraries/SystemView/SYSVIEW/SEGGER_SYSVIEW.c ****   Data encoding:
  77:libraries/SystemView/SYSVIEW/SEGGER_SYSVIEW.c ****     Basic types (int, short, char, ...):
  78:libraries/SystemView/SYSVIEW/SEGGER_SYSVIEW.c ****       Basic types are encoded little endian with most-significant bit variant
  79:libraries/SystemView/SYSVIEW/SEGGER_SYSVIEW.c ****       encoding.
  80:libraries/SystemView/SYSVIEW/SEGGER_SYSVIEW.c ****       Each encoded byte contains 7 data bits [6:0] and the MSB continuation bit.
  81:libraries/SystemView/SYSVIEW/SEGGER_SYSVIEW.c ****       The continuation bit indicates whether the next byte belongs to the data
  82:libraries/SystemView/SYSVIEW/SEGGER_SYSVIEW.c ****       (bit set) or this is the last byte (bit clear).
  83:libraries/SystemView/SYSVIEW/SEGGER_SYSVIEW.c ****       The most significant bits of data are encoded first, proceeding to the
  84:libraries/SystemView/SYSVIEW/SEGGER_SYSVIEW.c ****       least significant bits in the final byte (little endian).
  85:libraries/SystemView/SYSVIEW/SEGGER_SYSVIEW.c **** 
  86:libraries/SystemView/SYSVIEW/SEGGER_SYSVIEW.c ****       Example encoding:
  87:libraries/SystemView/SYSVIEW/SEGGER_SYSVIEW.c ****         Data: 0x1F4 (500)
ARM GAS  /tmp/ccyEpLlu.s 			page 3


  88:libraries/SystemView/SYSVIEW/SEGGER_SYSVIEW.c ****         Encoded: 0xF4 (First 7 data bits 74 | Continuation bit)
  89:libraries/SystemView/SYSVIEW/SEGGER_SYSVIEW.c ****                  0x03 (Second 7 data bits 03, no continuation)
  90:libraries/SystemView/SYSVIEW/SEGGER_SYSVIEW.c **** 
  91:libraries/SystemView/SYSVIEW/SEGGER_SYSVIEW.c ****         Data: 0xFFFFFFFF
  92:libraries/SystemView/SYSVIEW/SEGGER_SYSVIEW.c ****         Encoded: 0xFF 0xFF 0xFF 0xFF 0x0F
  93:libraries/SystemView/SYSVIEW/SEGGER_SYSVIEW.c **** 
  94:libraries/SystemView/SYSVIEW/SEGGER_SYSVIEW.c ****         Data: 0xA2 (162),   0x03 (3), 0x7000
  95:libraries/SystemView/SYSVIEW/SEGGER_SYSVIEW.c ****         Encoded: 0xA2 0x01  0x03      0x80 0xE0 0x01
  96:libraries/SystemView/SYSVIEW/SEGGER_SYSVIEW.c **** 
  97:libraries/SystemView/SYSVIEW/SEGGER_SYSVIEW.c ****     Byte arrays and strings:
  98:libraries/SystemView/SYSVIEW/SEGGER_SYSVIEW.c ****       Byte arrays and strings are encoded as <NumBytes> followed by the raw data.
  99:libraries/SystemView/SYSVIEW/SEGGER_SYSVIEW.c ****       NumBytes is encoded as a basic type with a theoretical maximum of 4G.
 100:libraries/SystemView/SYSVIEW/SEGGER_SYSVIEW.c **** 
 101:libraries/SystemView/SYSVIEW/SEGGER_SYSVIEW.c ****       Example encoding:
 102:libraries/SystemView/SYSVIEW/SEGGER_SYSVIEW.c ****         Data: "Hello World\0" (0x48 0x65 0x6C 0x6C 0x6F 0x20 0x57 0x6F 0x72 0x6C 0x64 0x00)
 103:libraries/SystemView/SYSVIEW/SEGGER_SYSVIEW.c ****         Encoded: 0x0B 0x48 0x65 0x6C 0x6C 0x6F 0x20 0x57 0x6F 0x72 0x6C 0x64
 104:libraries/SystemView/SYSVIEW/SEGGER_SYSVIEW.c **** 
 105:libraries/SystemView/SYSVIEW/SEGGER_SYSVIEW.c ****   Examples packets:
 106:libraries/SystemView/SYSVIEW/SEGGER_SYSVIEW.c ****   01 F4 03 80 80 10 // Overflow packet. Data is a single U32.
 107:libraries/SystemView/SYSVIEW/SEGGER_SYSVIEW.c ****                        This packet means: 500 packets lost, Timestamp is 0x40000
 108:libraries/SystemView/SYSVIEW/SEGGER_SYSVIEW.c **** 
 109:libraries/SystemView/SYSVIEW/SEGGER_SYSVIEW.c ****   02 0F 50          // ISR(15) Enter. Timestamp 80 (0x50)
 110:libraries/SystemView/SYSVIEW/SEGGER_SYSVIEW.c **** 
 111:libraries/SystemView/SYSVIEW/SEGGER_SYSVIEW.c ****   03 20             // ISR Exit. Timestamp 32 (0x20) (Shortest possible packet.)
 112:libraries/SystemView/SYSVIEW/SEGGER_SYSVIEW.c **** 
 113:libraries/SystemView/SYSVIEW/SEGGER_SYSVIEW.c ****   Sample code for user defined Packets:
 114:libraries/SystemView/SYSVIEW/SEGGER_SYSVIEW.c ****     #define MY_ID   0x400                // Any value between 0x400 and 0x7FF
 115:libraries/SystemView/SYSVIEW/SEGGER_SYSVIEW.c ****     void SendMyPacket(unsigned Para0, unsigned Para1, const char* s) {
 116:libraries/SystemView/SYSVIEW/SEGGER_SYSVIEW.c ****       U8  aPacket[SEGGER_SYSVIEW_INFO_SIZE + 2 * SEGGER_SYSVIEW_QUANTA_U32 + MAX_STR_LEN + 1];
 117:libraries/SystemView/SYSVIEW/SEGGER_SYSVIEW.c ****       U8* pPayload;
 118:libraries/SystemView/SYSVIEW/SEGGER_SYSVIEW.c ****       //
 119:libraries/SystemView/SYSVIEW/SEGGER_SYSVIEW.c ****       pPayload = SEGGER_SYSVIEW_PPREPARE_PACKET(aPacket);               // Prepare the packet for S
 120:libraries/SystemView/SYSVIEW/SEGGER_SYSVIEW.c ****       pPayload = SEGGER_SYSVIEW_EncodeU32(pPayload, Para0);             // Add the first parameter 
 121:libraries/SystemView/SYSVIEW/SEGGER_SYSVIEW.c ****       pPayload = SEGGER_SYSVIEW_EncodeU32(pPayload, Para1);             // Add the second parameter
 122:libraries/SystemView/SYSVIEW/SEGGER_SYSVIEW.c ****       pPayload = SEGGER_SYSVIEW_EncodeString(pPayload, s, MAX_STR_LEN); // Add the string to the pa
 123:libraries/SystemView/SYSVIEW/SEGGER_SYSVIEW.c ****       //
 124:libraries/SystemView/SYSVIEW/SEGGER_SYSVIEW.c ****       SEGGER_SYSVIEW_SendPacket(&aPacket[0], pPayload, MY_ID);          // Send the packet with Eve
 125:libraries/SystemView/SYSVIEW/SEGGER_SYSVIEW.c ****     }
 126:libraries/SystemView/SYSVIEW/SEGGER_SYSVIEW.c **** 
 127:libraries/SystemView/SYSVIEW/SEGGER_SYSVIEW.c ****     #define MY_ID_1 0x401
 128:libraries/SystemView/SYSVIEW/SEGGER_SYSVIEW.c ****     void SendOnePara(unsigned Para0) {
 129:libraries/SystemView/SYSVIEW/SEGGER_SYSVIEW.c ****       SEGGER_SYSVIEW_RecordU32(MY_ID_1, Para0);
 130:libraries/SystemView/SYSVIEW/SEGGER_SYSVIEW.c ****     }
 131:libraries/SystemView/SYSVIEW/SEGGER_SYSVIEW.c **** 
 132:libraries/SystemView/SYSVIEW/SEGGER_SYSVIEW.c **** */
 133:libraries/SystemView/SYSVIEW/SEGGER_SYSVIEW.c **** 
 134:libraries/SystemView/SYSVIEW/SEGGER_SYSVIEW.c **** /*********************************************************************
 135:libraries/SystemView/SYSVIEW/SEGGER_SYSVIEW.c **** *
 136:libraries/SystemView/SYSVIEW/SEGGER_SYSVIEW.c **** *       #include section
 137:libraries/SystemView/SYSVIEW/SEGGER_SYSVIEW.c **** *
 138:libraries/SystemView/SYSVIEW/SEGGER_SYSVIEW.c **** **********************************************************************
 139:libraries/SystemView/SYSVIEW/SEGGER_SYSVIEW.c **** */
 140:libraries/SystemView/SYSVIEW/SEGGER_SYSVIEW.c **** 
 141:libraries/SystemView/SYSVIEW/SEGGER_SYSVIEW.c **** #define SEGGER_SYSVIEW_C  // For EXTERN statements in SEGGER_SYSVIEW.h
 142:libraries/SystemView/SYSVIEW/SEGGER_SYSVIEW.c **** 
 143:libraries/SystemView/SYSVIEW/SEGGER_SYSVIEW.c **** #include <string.h>
 144:libraries/SystemView/SYSVIEW/SEGGER_SYSVIEW.c **** #include <stdlib.h>
ARM GAS  /tmp/ccyEpLlu.s 			page 4


 145:libraries/SystemView/SYSVIEW/SEGGER_SYSVIEW.c **** #include <stdarg.h>
 146:libraries/SystemView/SYSVIEW/SEGGER_SYSVIEW.c **** #include "SEGGER_SYSVIEW_Int.h"
 147:libraries/SystemView/SYSVIEW/SEGGER_SYSVIEW.c **** #include "SEGGER_RTT.h"
 148:libraries/SystemView/SYSVIEW/SEGGER_SYSVIEW.c **** 
 149:libraries/SystemView/SYSVIEW/SEGGER_SYSVIEW.c **** /*********************************************************************
 150:libraries/SystemView/SYSVIEW/SEGGER_SYSVIEW.c **** *
 151:libraries/SystemView/SYSVIEW/SEGGER_SYSVIEW.c **** *       Defines, fixed
 152:libraries/SystemView/SYSVIEW/SEGGER_SYSVIEW.c **** *
 153:libraries/SystemView/SYSVIEW/SEGGER_SYSVIEW.c **** **********************************************************************
 154:libraries/SystemView/SYSVIEW/SEGGER_SYSVIEW.c **** */
 155:libraries/SystemView/SYSVIEW/SEGGER_SYSVIEW.c **** #if SEGGER_SYSVIEW_ID_SHIFT
 156:libraries/SystemView/SYSVIEW/SEGGER_SYSVIEW.c ****   #define SHRINK_ID(Id)   (((Id) - _SYSVIEW_Globals.RAMBaseAddress) >> SEGGER_SYSVIEW_ID_SHIFT)
 157:libraries/SystemView/SYSVIEW/SEGGER_SYSVIEW.c **** #else
 158:libraries/SystemView/SYSVIEW/SEGGER_SYSVIEW.c ****   #define SHRINK_ID(Id)   ((Id) - _SYSVIEW_Globals.RAMBaseAddress)
 159:libraries/SystemView/SYSVIEW/SEGGER_SYSVIEW.c **** #endif
 160:libraries/SystemView/SYSVIEW/SEGGER_SYSVIEW.c **** 
 161:libraries/SystemView/SYSVIEW/SEGGER_SYSVIEW.c **** #if SEGGER_SYSVIEW_RTT_CHANNEL > 0
 162:libraries/SystemView/SYSVIEW/SEGGER_SYSVIEW.c ****   #define CHANNEL_ID_UP   SEGGER_SYSVIEW_RTT_CHANNEL
 163:libraries/SystemView/SYSVIEW/SEGGER_SYSVIEW.c ****   #define CHANNEL_ID_DOWN SEGGER_SYSVIEW_RTT_CHANNEL
 164:libraries/SystemView/SYSVIEW/SEGGER_SYSVIEW.c **** #else
 165:libraries/SystemView/SYSVIEW/SEGGER_SYSVIEW.c ****   #define CHANNEL_ID_UP   _SYSVIEW_Globals.UpChannel
 166:libraries/SystemView/SYSVIEW/SEGGER_SYSVIEW.c ****   #define CHANNEL_ID_DOWN _SYSVIEW_Globals.DownChannel
 167:libraries/SystemView/SYSVIEW/SEGGER_SYSVIEW.c **** #endif
 168:libraries/SystemView/SYSVIEW/SEGGER_SYSVIEW.c **** 
 169:libraries/SystemView/SYSVIEW/SEGGER_SYSVIEW.c **** #if SEGGER_SYSVIEW_CPU_CACHE_LINE_SIZE
 170:libraries/SystemView/SYSVIEW/SEGGER_SYSVIEW.c ****   #if (SEGGER_SYSVIEW_RTT_BUFFER_SIZE % SEGGER_SYSVIEW_CPU_CACHE_LINE_SIZE)
 171:libraries/SystemView/SYSVIEW/SEGGER_SYSVIEW.c ****     #error "SEGGER_SYSVIEW_RTT_BUFFER_SIZE must be a multiple of SEGGER_SYSVIEW_CPU_CACHE_LINE_SIZE
 172:libraries/SystemView/SYSVIEW/SEGGER_SYSVIEW.c ****   #endif
 173:libraries/SystemView/SYSVIEW/SEGGER_SYSVIEW.c **** #endif
 174:libraries/SystemView/SYSVIEW/SEGGER_SYSVIEW.c **** 
 175:libraries/SystemView/SYSVIEW/SEGGER_SYSVIEW.c **** /*********************************************************************
 176:libraries/SystemView/SYSVIEW/SEGGER_SYSVIEW.c **** *
 177:libraries/SystemView/SYSVIEW/SEGGER_SYSVIEW.c **** *       Defines, configurable
 178:libraries/SystemView/SYSVIEW/SEGGER_SYSVIEW.c **** *
 179:libraries/SystemView/SYSVIEW/SEGGER_SYSVIEW.c **** **********************************************************************
 180:libraries/SystemView/SYSVIEW/SEGGER_SYSVIEW.c **** */
 181:libraries/SystemView/SYSVIEW/SEGGER_SYSVIEW.c **** // Timestamps may be less than full 32-bits, in which case we need to zero
 182:libraries/SystemView/SYSVIEW/SEGGER_SYSVIEW.c **** // the unused bits to properly handle overflows.
 183:libraries/SystemView/SYSVIEW/SEGGER_SYSVIEW.c **** // Note that this is a quite common scenario, as a 32-bit time such as
 184:libraries/SystemView/SYSVIEW/SEGGER_SYSVIEW.c **** // SysTick might be scaled down to reduce bandwith
 185:libraries/SystemView/SYSVIEW/SEGGER_SYSVIEW.c **** // or a 16-bit hardware time might be used.
 186:libraries/SystemView/SYSVIEW/SEGGER_SYSVIEW.c **** #if SEGGER_SYSVIEW_TIMESTAMP_BITS < 32  // Eliminate unused bits in case hardware timestamps are le
 187:libraries/SystemView/SYSVIEW/SEGGER_SYSVIEW.c ****   #define MAKE_DELTA_32BIT(Delta) Delta <<= 32 - SEGGER_SYSVIEW_TIMESTAMP_BITS; \
 188:libraries/SystemView/SYSVIEW/SEGGER_SYSVIEW.c ****                                   Delta >>= 32 - SEGGER_SYSVIEW_TIMESTAMP_BITS;
 189:libraries/SystemView/SYSVIEW/SEGGER_SYSVIEW.c **** #else
 190:libraries/SystemView/SYSVIEW/SEGGER_SYSVIEW.c ****   #define MAKE_DELTA_32BIT(Delta)
 191:libraries/SystemView/SYSVIEW/SEGGER_SYSVIEW.c **** #endif
 192:libraries/SystemView/SYSVIEW/SEGGER_SYSVIEW.c **** 
 193:libraries/SystemView/SYSVIEW/SEGGER_SYSVIEW.c **** #if SEGGER_SYSVIEW_SUPPORT_LONG_ID
 194:libraries/SystemView/SYSVIEW/SEGGER_SYSVIEW.c ****   #define _MAX_ID_BYTES       5u
 195:libraries/SystemView/SYSVIEW/SEGGER_SYSVIEW.c **** #else
 196:libraries/SystemView/SYSVIEW/SEGGER_SYSVIEW.c ****   #define _MAX_ID_BYTES       2u
 197:libraries/SystemView/SYSVIEW/SEGGER_SYSVIEW.c **** #endif
 198:libraries/SystemView/SYSVIEW/SEGGER_SYSVIEW.c **** 
 199:libraries/SystemView/SYSVIEW/SEGGER_SYSVIEW.c **** #if SEGGER_SYSVIEW_SUPPORT_LONG_DATA
 200:libraries/SystemView/SYSVIEW/SEGGER_SYSVIEW.c ****   #define _MAX_DATA_BYTES     5u
 201:libraries/SystemView/SYSVIEW/SEGGER_SYSVIEW.c **** #else
ARM GAS  /tmp/ccyEpLlu.s 			page 5


 202:libraries/SystemView/SYSVIEW/SEGGER_SYSVIEW.c ****   #define _MAX_DATA_BYTES     2u
 203:libraries/SystemView/SYSVIEW/SEGGER_SYSVIEW.c **** #endif
 204:libraries/SystemView/SYSVIEW/SEGGER_SYSVIEW.c **** 
 205:libraries/SystemView/SYSVIEW/SEGGER_SYSVIEW.c **** /*********************************************************************
 206:libraries/SystemView/SYSVIEW/SEGGER_SYSVIEW.c **** *
 207:libraries/SystemView/SYSVIEW/SEGGER_SYSVIEW.c **** *       Defines, fixed
 208:libraries/SystemView/SYSVIEW/SEGGER_SYSVIEW.c **** *
 209:libraries/SystemView/SYSVIEW/SEGGER_SYSVIEW.c **** **********************************************************************
 210:libraries/SystemView/SYSVIEW/SEGGER_SYSVIEW.c **** */
 211:libraries/SystemView/SYSVIEW/SEGGER_SYSVIEW.c **** #define ENABLE_STATE_OFF        0
 212:libraries/SystemView/SYSVIEW/SEGGER_SYSVIEW.c **** #define ENABLE_STATE_ON         1
 213:libraries/SystemView/SYSVIEW/SEGGER_SYSVIEW.c **** #define ENABLE_STATE_DROPPING   2
 214:libraries/SystemView/SYSVIEW/SEGGER_SYSVIEW.c **** 
 215:libraries/SystemView/SYSVIEW/SEGGER_SYSVIEW.c **** #define FORMAT_FLAG_LEFT_JUSTIFY   (1u << 0)
 216:libraries/SystemView/SYSVIEW/SEGGER_SYSVIEW.c **** #define FORMAT_FLAG_PAD_ZERO       (1u << 1)
 217:libraries/SystemView/SYSVIEW/SEGGER_SYSVIEW.c **** #define FORMAT_FLAG_PRINT_SIGN     (1u << 2)
 218:libraries/SystemView/SYSVIEW/SEGGER_SYSVIEW.c **** #define FORMAT_FLAG_ALTERNATE      (1u << 3)
 219:libraries/SystemView/SYSVIEW/SEGGER_SYSVIEW.c **** 
 220:libraries/SystemView/SYSVIEW/SEGGER_SYSVIEW.c **** #define MODULE_EVENT_OFFSET        (512)
 221:libraries/SystemView/SYSVIEW/SEGGER_SYSVIEW.c **** 
 222:libraries/SystemView/SYSVIEW/SEGGER_SYSVIEW.c **** /*********************************************************************
 223:libraries/SystemView/SYSVIEW/SEGGER_SYSVIEW.c **** *
 224:libraries/SystemView/SYSVIEW/SEGGER_SYSVIEW.c **** *       Types, local
 225:libraries/SystemView/SYSVIEW/SEGGER_SYSVIEW.c **** *
 226:libraries/SystemView/SYSVIEW/SEGGER_SYSVIEW.c **** **********************************************************************
 227:libraries/SystemView/SYSVIEW/SEGGER_SYSVIEW.c **** */
 228:libraries/SystemView/SYSVIEW/SEGGER_SYSVIEW.c **** typedef struct {
 229:libraries/SystemView/SYSVIEW/SEGGER_SYSVIEW.c ****   U8*       pBuffer;
 230:libraries/SystemView/SYSVIEW/SEGGER_SYSVIEW.c ****   U8*       pPayload;
 231:libraries/SystemView/SYSVIEW/SEGGER_SYSVIEW.c ****   U8*       pPayloadStart;
 232:libraries/SystemView/SYSVIEW/SEGGER_SYSVIEW.c ****   U32       Options;
 233:libraries/SystemView/SYSVIEW/SEGGER_SYSVIEW.c ****   unsigned  Cnt;
 234:libraries/SystemView/SYSVIEW/SEGGER_SYSVIEW.c **** } SEGGER_SYSVIEW_PRINTF_DESC;
 235:libraries/SystemView/SYSVIEW/SEGGER_SYSVIEW.c **** 
 236:libraries/SystemView/SYSVIEW/SEGGER_SYSVIEW.c **** typedef struct {
 237:libraries/SystemView/SYSVIEW/SEGGER_SYSVIEW.c ****         U8                      EnableState;   // 0: Disabled, 1: Enabled, (2: Dropping)
 238:libraries/SystemView/SYSVIEW/SEGGER_SYSVIEW.c ****         U8                      UpChannel;
 239:libraries/SystemView/SYSVIEW/SEGGER_SYSVIEW.c ****         U8                      RecursionCnt;
 240:libraries/SystemView/SYSVIEW/SEGGER_SYSVIEW.c ****         U32                     SysFreq;
 241:libraries/SystemView/SYSVIEW/SEGGER_SYSVIEW.c ****         U32                     CPUFreq;
 242:libraries/SystemView/SYSVIEW/SEGGER_SYSVIEW.c ****         U32                     LastTxTimeStamp;
 243:libraries/SystemView/SYSVIEW/SEGGER_SYSVIEW.c ****         U32                     RAMBaseAddress;
 244:libraries/SystemView/SYSVIEW/SEGGER_SYSVIEW.c **** #if (SEGGER_SYSVIEW_POST_MORTEM_MODE == 1)
 245:libraries/SystemView/SYSVIEW/SEGGER_SYSVIEW.c ****         U32                     PacketCount;
 246:libraries/SystemView/SYSVIEW/SEGGER_SYSVIEW.c **** #else
 247:libraries/SystemView/SYSVIEW/SEGGER_SYSVIEW.c ****         U32                     DropCount;
 248:libraries/SystemView/SYSVIEW/SEGGER_SYSVIEW.c ****         U8                      DownChannel;
 249:libraries/SystemView/SYSVIEW/SEGGER_SYSVIEW.c **** #endif
 250:libraries/SystemView/SYSVIEW/SEGGER_SYSVIEW.c ****         U32                     DisabledEvents;
 251:libraries/SystemView/SYSVIEW/SEGGER_SYSVIEW.c ****   const SEGGER_SYSVIEW_OS_API*  pOSAPI;
 252:libraries/SystemView/SYSVIEW/SEGGER_SYSVIEW.c ****         SEGGER_SYSVIEW_SEND_SYS_DESC_FUNC*   pfSendSysDesc;
 253:libraries/SystemView/SYSVIEW/SEGGER_SYSVIEW.c **** } SEGGER_SYSVIEW_GLOBALS;
 254:libraries/SystemView/SYSVIEW/SEGGER_SYSVIEW.c **** 
 255:libraries/SystemView/SYSVIEW/SEGGER_SYSVIEW.c **** /*********************************************************************
 256:libraries/SystemView/SYSVIEW/SEGGER_SYSVIEW.c **** *
 257:libraries/SystemView/SYSVIEW/SEGGER_SYSVIEW.c **** *       Function prototypes, required
 258:libraries/SystemView/SYSVIEW/SEGGER_SYSVIEW.c **** *
ARM GAS  /tmp/ccyEpLlu.s 			page 6


 259:libraries/SystemView/SYSVIEW/SEGGER_SYSVIEW.c **** **********************************************************************
 260:libraries/SystemView/SYSVIEW/SEGGER_SYSVIEW.c **** */
 261:libraries/SystemView/SYSVIEW/SEGGER_SYSVIEW.c **** static void _SendPacket(U8* pStartPacket, U8* pEndPacket, unsigned int EventId);
 262:libraries/SystemView/SYSVIEW/SEGGER_SYSVIEW.c **** 
 263:libraries/SystemView/SYSVIEW/SEGGER_SYSVIEW.c **** /*********************************************************************
 264:libraries/SystemView/SYSVIEW/SEGGER_SYSVIEW.c **** *
 265:libraries/SystemView/SYSVIEW/SEGGER_SYSVIEW.c **** *       Static data
 266:libraries/SystemView/SYSVIEW/SEGGER_SYSVIEW.c **** *
 267:libraries/SystemView/SYSVIEW/SEGGER_SYSVIEW.c **** **********************************************************************
 268:libraries/SystemView/SYSVIEW/SEGGER_SYSVIEW.c **** */
 269:libraries/SystemView/SYSVIEW/SEGGER_SYSVIEW.c **** static const U8 _abSync[10] = { 0x00, 0x00, 0x00, 0x00, 0x00, 0x00, 0x00, 0x00, 0x00, 0x00};
 270:libraries/SystemView/SYSVIEW/SEGGER_SYSVIEW.c **** 
 271:libraries/SystemView/SYSVIEW/SEGGER_SYSVIEW.c **** #if SEGGER_SYSVIEW_CPU_CACHE_LINE_SIZE
 272:libraries/SystemView/SYSVIEW/SEGGER_SYSVIEW.c ****   #ifdef SEGGER_SYSVIEW_SECTION
 273:libraries/SystemView/SYSVIEW/SEGGER_SYSVIEW.c ****     //
 274:libraries/SystemView/SYSVIEW/SEGGER_SYSVIEW.c ****     // Alignment + special section required
 275:libraries/SystemView/SYSVIEW/SEGGER_SYSVIEW.c ****     //
 276:libraries/SystemView/SYSVIEW/SEGGER_SYSVIEW.c ****     #if (defined __GNUC__)
 277:libraries/SystemView/SYSVIEW/SEGGER_SYSVIEW.c ****       __attribute__ ((section (SEGGER_SYSVIEW_SECTION), aligned (SEGGER_SYSVIEW_CPU_CACHE_LINE_SIZE
 278:libraries/SystemView/SYSVIEW/SEGGER_SYSVIEW.c ****       #if (SEGGER_SYSVIEW_POST_MORTEM_MODE != 1)
 279:libraries/SystemView/SYSVIEW/SEGGER_SYSVIEW.c ****         __attribute__ ((section (SEGGER_SYSVIEW_SECTION), aligned (SEGGER_SYSVIEW_CPU_CACHE_LINE_SI
 280:libraries/SystemView/SYSVIEW/SEGGER_SYSVIEW.c ****       #endif
 281:libraries/SystemView/SYSVIEW/SEGGER_SYSVIEW.c ****     #elif (defined __ICCARM__) || (defined __ICCRX__)
 282:libraries/SystemView/SYSVIEW/SEGGER_SYSVIEW.c ****       #pragma location=SEGGER_SYSVIEW_SECTION
 283:libraries/SystemView/SYSVIEW/SEGGER_SYSVIEW.c ****       #pragma data_alignment=SEGGER_RTT_CPU_CACHE_LINE_SIZE
 284:libraries/SystemView/SYSVIEW/SEGGER_SYSVIEW.c ****       static char _UpBuffer  [SEGGER_SYSVIEW_RTT_BUFFER_SIZE];
 285:libraries/SystemView/SYSVIEW/SEGGER_SYSVIEW.c ****       #if (SEGGER_SYSVIEW_POST_MORTEM_MODE != 1)
 286:libraries/SystemView/SYSVIEW/SEGGER_SYSVIEW.c ****         #pragma location=SEGGER_SYSVIEW_SECTION
 287:libraries/SystemView/SYSVIEW/SEGGER_SYSVIEW.c ****         #pragma data_alignment=SEGGER_RTT_CPU_CACHE_LINE_SIZE
 288:libraries/SystemView/SYSVIEW/SEGGER_SYSVIEW.c ****         static char _DownBuffer[8];  // Small, fixed-size buffer, for back-channel comms
 289:libraries/SystemView/SYSVIEW/SEGGER_SYSVIEW.c ****       #endif
 290:libraries/SystemView/SYSVIEW/SEGGER_SYSVIEW.c ****     #elif (defined __CC_ARM)
 291:libraries/SystemView/SYSVIEW/SEGGER_SYSVIEW.c ****       __attribute__ ((section (SEGGER_SYSVIEW_SECTION), aligned (SEGGER_SYSVIEW_CPU_CACHE_LINE_SIZE
 292:libraries/SystemView/SYSVIEW/SEGGER_SYSVIEW.c ****       #if (SEGGER_SYSVIEW_POST_MORTEM_MODE != 1)
 293:libraries/SystemView/SYSVIEW/SEGGER_SYSVIEW.c ****         __attribute__ ((section (SEGGER_SYSVIEW_SECTION), aligned (SEGGER_SYSVIEW_CPU_CACHE_LINE_SI
 294:libraries/SystemView/SYSVIEW/SEGGER_SYSVIEW.c ****       #endif
 295:libraries/SystemView/SYSVIEW/SEGGER_SYSVIEW.c ****     #else
 296:libraries/SystemView/SYSVIEW/SEGGER_SYSVIEW.c ****       #error "Do not know how to place SystemView buffers in specific section"
 297:libraries/SystemView/SYSVIEW/SEGGER_SYSVIEW.c ****     #endif
 298:libraries/SystemView/SYSVIEW/SEGGER_SYSVIEW.c ****   #else
 299:libraries/SystemView/SYSVIEW/SEGGER_SYSVIEW.c ****     //
 300:libraries/SystemView/SYSVIEW/SEGGER_SYSVIEW.c ****     // Only alignment required
 301:libraries/SystemView/SYSVIEW/SEGGER_SYSVIEW.c ****     //
 302:libraries/SystemView/SYSVIEW/SEGGER_SYSVIEW.c ****     #if (defined __GNUC__)
 303:libraries/SystemView/SYSVIEW/SEGGER_SYSVIEW.c ****       __attribute__ ((aligned (SEGGER_SYSVIEW_CPU_CACHE_LINE_SIZE))) static char _UpBuffer  [SEGGER
 304:libraries/SystemView/SYSVIEW/SEGGER_SYSVIEW.c ****       #if (SEGGER_SYSVIEW_POST_MORTEM_MODE != 1)
 305:libraries/SystemView/SYSVIEW/SEGGER_SYSVIEW.c ****         __attribute__ ((aligned (SEGGER_SYSVIEW_CPU_CACHE_LINE_SIZE))) static char _DownBuffer[8]; 
 306:libraries/SystemView/SYSVIEW/SEGGER_SYSVIEW.c ****       #endif
 307:libraries/SystemView/SYSVIEW/SEGGER_SYSVIEW.c ****     #elif (defined __ICCARM__) || (defined __ICCRX__)
 308:libraries/SystemView/SYSVIEW/SEGGER_SYSVIEW.c ****       #pragma data_alignment=SEGGER_RTT_CPU_CACHE_LINE_SIZE
 309:libraries/SystemView/SYSVIEW/SEGGER_SYSVIEW.c ****       static char _UpBuffer  [SEGGER_SYSVIEW_RTT_BUFFER_SIZE];
 310:libraries/SystemView/SYSVIEW/SEGGER_SYSVIEW.c ****       #if (SEGGER_SYSVIEW_POST_MORTEM_MODE != 1)
 311:libraries/SystemView/SYSVIEW/SEGGER_SYSVIEW.c ****         #pragma data_alignment=SEGGER_RTT_CPU_CACHE_LINE_SIZE
 312:libraries/SystemView/SYSVIEW/SEGGER_SYSVIEW.c ****         static char _DownBuffer[8];  // Small, fixed-size buffer, for back-channel comms
 313:libraries/SystemView/SYSVIEW/SEGGER_SYSVIEW.c ****       #endif
 314:libraries/SystemView/SYSVIEW/SEGGER_SYSVIEW.c ****     #elif (defined __CC_ARM)
 315:libraries/SystemView/SYSVIEW/SEGGER_SYSVIEW.c ****       __attribute__ ((aligned (SEGGER_SYSVIEW_CPU_CACHE_LINE_SIZE), zero_init)) static char _UpBuff
ARM GAS  /tmp/ccyEpLlu.s 			page 7


 316:libraries/SystemView/SYSVIEW/SEGGER_SYSVIEW.c ****       #if (SEGGER_SYSVIEW_POST_MORTEM_MODE != 1)
 317:libraries/SystemView/SYSVIEW/SEGGER_SYSVIEW.c ****         __attribute__ ((aligned (SEGGER_SYSVIEW_CPU_CACHE_LINE_SIZE), zero_init)) static char _Down
 318:libraries/SystemView/SYSVIEW/SEGGER_SYSVIEW.c ****       #endif
 319:libraries/SystemView/SYSVIEW/SEGGER_SYSVIEW.c ****     #else
 320:libraries/SystemView/SYSVIEW/SEGGER_SYSVIEW.c ****       #error "Do not know how to align SystemView buffers to cache line size"
 321:libraries/SystemView/SYSVIEW/SEGGER_SYSVIEW.c ****     #endif
 322:libraries/SystemView/SYSVIEW/SEGGER_SYSVIEW.c ****   #endif
 323:libraries/SystemView/SYSVIEW/SEGGER_SYSVIEW.c **** #else
 324:libraries/SystemView/SYSVIEW/SEGGER_SYSVIEW.c ****   #ifdef SEGGER_SYSVIEW_SECTION
 325:libraries/SystemView/SYSVIEW/SEGGER_SYSVIEW.c ****     //
 326:libraries/SystemView/SYSVIEW/SEGGER_SYSVIEW.c ****     // Only special section required
 327:libraries/SystemView/SYSVIEW/SEGGER_SYSVIEW.c ****     //
 328:libraries/SystemView/SYSVIEW/SEGGER_SYSVIEW.c ****     #if (defined __GNUC__)
 329:libraries/SystemView/SYSVIEW/SEGGER_SYSVIEW.c ****       __attribute__ ((section (SEGGER_SYSVIEW_SECTION))) static char _UpBuffer  [SEGGER_SYSVIEW_RTT
 330:libraries/SystemView/SYSVIEW/SEGGER_SYSVIEW.c ****       #if (SEGGER_SYSVIEW_POST_MORTEM_MODE != 1)
 331:libraries/SystemView/SYSVIEW/SEGGER_SYSVIEW.c ****         __attribute__ ((section (SEGGER_SYSVIEW_SECTION))) static char _DownBuffer[8];  // Small, f
 332:libraries/SystemView/SYSVIEW/SEGGER_SYSVIEW.c ****       #endif
 333:libraries/SystemView/SYSVIEW/SEGGER_SYSVIEW.c ****     #elif (defined __ICCARM__) || (defined __ICCRX__)
 334:libraries/SystemView/SYSVIEW/SEGGER_SYSVIEW.c ****       #pragma location=SEGGER_SYSVIEW_SECTION
 335:libraries/SystemView/SYSVIEW/SEGGER_SYSVIEW.c ****       static char _UpBuffer  [SEGGER_SYSVIEW_RTT_BUFFER_SIZE];
 336:libraries/SystemView/SYSVIEW/SEGGER_SYSVIEW.c ****       #if (SEGGER_SYSVIEW_POST_MORTEM_MODE != 1)
 337:libraries/SystemView/SYSVIEW/SEGGER_SYSVIEW.c ****         #pragma location=SEGGER_SYSVIEW_SECTION
 338:libraries/SystemView/SYSVIEW/SEGGER_SYSVIEW.c ****         static char _DownBuffer[8];  // Small, fixed-size buffer, for back-channel comms
 339:libraries/SystemView/SYSVIEW/SEGGER_SYSVIEW.c ****       #endif
 340:libraries/SystemView/SYSVIEW/SEGGER_SYSVIEW.c ****     #elif (defined __CC_ARM)
 341:libraries/SystemView/SYSVIEW/SEGGER_SYSVIEW.c ****       __attribute__ ((section (SEGGER_SYSVIEW_SECTION), zero_init)) static char _UpBuffer  [SEGGER_
 342:libraries/SystemView/SYSVIEW/SEGGER_SYSVIEW.c ****       #if (SEGGER_SYSVIEW_POST_MORTEM_MODE != 1)
 343:libraries/SystemView/SYSVIEW/SEGGER_SYSVIEW.c ****         __attribute__ ((section (SEGGER_SYSVIEW_SECTION), zero_init)) static char _DownBuffer[8];  
 344:libraries/SystemView/SYSVIEW/SEGGER_SYSVIEW.c ****       #endif
 345:libraries/SystemView/SYSVIEW/SEGGER_SYSVIEW.c ****     #else
 346:libraries/SystemView/SYSVIEW/SEGGER_SYSVIEW.c ****       #error "Do not know how to place SystemView buffers in specific section"
 347:libraries/SystemView/SYSVIEW/SEGGER_SYSVIEW.c ****     #endif
 348:libraries/SystemView/SYSVIEW/SEGGER_SYSVIEW.c ****   #else
 349:libraries/SystemView/SYSVIEW/SEGGER_SYSVIEW.c ****     //
 350:libraries/SystemView/SYSVIEW/SEGGER_SYSVIEW.c ****     // Neither special section nor alignment required
 351:libraries/SystemView/SYSVIEW/SEGGER_SYSVIEW.c ****     //
 352:libraries/SystemView/SYSVIEW/SEGGER_SYSVIEW.c ****     static char _UpBuffer  [SEGGER_SYSVIEW_RTT_BUFFER_SIZE];
 353:libraries/SystemView/SYSVIEW/SEGGER_SYSVIEW.c ****     #if (SEGGER_SYSVIEW_POST_MORTEM_MODE != 1)
 354:libraries/SystemView/SYSVIEW/SEGGER_SYSVIEW.c ****       static char _DownBuffer[8];  // Small, fixed-size buffer, for back-channel comms
 355:libraries/SystemView/SYSVIEW/SEGGER_SYSVIEW.c ****     #endif
 356:libraries/SystemView/SYSVIEW/SEGGER_SYSVIEW.c ****   #endif
 357:libraries/SystemView/SYSVIEW/SEGGER_SYSVIEW.c **** #endif
 358:libraries/SystemView/SYSVIEW/SEGGER_SYSVIEW.c **** 
 359:libraries/SystemView/SYSVIEW/SEGGER_SYSVIEW.c **** static SEGGER_SYSVIEW_GLOBALS _SYSVIEW_Globals;
 360:libraries/SystemView/SYSVIEW/SEGGER_SYSVIEW.c **** 
 361:libraries/SystemView/SYSVIEW/SEGGER_SYSVIEW.c **** static SEGGER_SYSVIEW_MODULE* _pFirstModule;
 362:libraries/SystemView/SYSVIEW/SEGGER_SYSVIEW.c **** static U8                     _NumModules;
 363:libraries/SystemView/SYSVIEW/SEGGER_SYSVIEW.c **** 
 364:libraries/SystemView/SYSVIEW/SEGGER_SYSVIEW.c **** /*********************************************************************
 365:libraries/SystemView/SYSVIEW/SEGGER_SYSVIEW.c **** *
 366:libraries/SystemView/SYSVIEW/SEGGER_SYSVIEW.c **** *       Static code
 367:libraries/SystemView/SYSVIEW/SEGGER_SYSVIEW.c **** *
 368:libraries/SystemView/SYSVIEW/SEGGER_SYSVIEW.c **** **********************************************************************
 369:libraries/SystemView/SYSVIEW/SEGGER_SYSVIEW.c **** */
 370:libraries/SystemView/SYSVIEW/SEGGER_SYSVIEW.c **** 
 371:libraries/SystemView/SYSVIEW/SEGGER_SYSVIEW.c **** #define ENCODE_U32(pDest, Value) {                                                  \
 372:libraries/SystemView/SYSVIEW/SEGGER_SYSVIEW.c ****                                    U8* pSysviewPointer;                             \
ARM GAS  /tmp/ccyEpLlu.s 			page 8


 373:libraries/SystemView/SYSVIEW/SEGGER_SYSVIEW.c ****                                    U32 SysViewData;                                 \
 374:libraries/SystemView/SYSVIEW/SEGGER_SYSVIEW.c ****                                    pSysviewPointer = pDest;                         \
 375:libraries/SystemView/SYSVIEW/SEGGER_SYSVIEW.c ****                                    SysViewData = Value;                             \
 376:libraries/SystemView/SYSVIEW/SEGGER_SYSVIEW.c ****                                    while(SysViewData > 0x7F) {                      \
 377:libraries/SystemView/SYSVIEW/SEGGER_SYSVIEW.c ****                                      *pSysviewPointer++ = (U8)(SysViewData | 0x80); \
 378:libraries/SystemView/SYSVIEW/SEGGER_SYSVIEW.c ****                                      SysViewData >>= 7;                             \
 379:libraries/SystemView/SYSVIEW/SEGGER_SYSVIEW.c ****                                    };                                               \
 380:libraries/SystemView/SYSVIEW/SEGGER_SYSVIEW.c ****                                    *pSysviewPointer++ = (U8)SysViewData;            \
 381:libraries/SystemView/SYSVIEW/SEGGER_SYSVIEW.c ****                                    pDest = pSysviewPointer;                         \
 382:libraries/SystemView/SYSVIEW/SEGGER_SYSVIEW.c ****                                  };
 383:libraries/SystemView/SYSVIEW/SEGGER_SYSVIEW.c **** 
 384:libraries/SystemView/SYSVIEW/SEGGER_SYSVIEW.c **** 
 385:libraries/SystemView/SYSVIEW/SEGGER_SYSVIEW.c **** 
 386:libraries/SystemView/SYSVIEW/SEGGER_SYSVIEW.c **** #if (SEGGER_SYSVIEW_USE_STATIC_BUFFER == 1)
 387:libraries/SystemView/SYSVIEW/SEGGER_SYSVIEW.c **** static U8 _aPacket[SEGGER_SYSVIEW_MAX_PACKET_SIZE];
 388:libraries/SystemView/SYSVIEW/SEGGER_SYSVIEW.c **** 
 389:libraries/SystemView/SYSVIEW/SEGGER_SYSVIEW.c **** #define RECORD_START(PacketSize)  SEGGER_SYSVIEW_LOCK();                            \
 390:libraries/SystemView/SYSVIEW/SEGGER_SYSVIEW.c ****                                   pPayloadStart = _PreparePacket(_aPacket);
 391:libraries/SystemView/SYSVIEW/SEGGER_SYSVIEW.c **** 
 392:libraries/SystemView/SYSVIEW/SEGGER_SYSVIEW.c **** #define RECORD_END()              SEGGER_SYSVIEW_UNLOCK()
 393:libraries/SystemView/SYSVIEW/SEGGER_SYSVIEW.c **** 
 394:libraries/SystemView/SYSVIEW/SEGGER_SYSVIEW.c **** #else
 395:libraries/SystemView/SYSVIEW/SEGGER_SYSVIEW.c **** 
 396:libraries/SystemView/SYSVIEW/SEGGER_SYSVIEW.c **** #define RECORD_START(PacketSize)  U8 aPacket[(PacketSize)];                         \
 397:libraries/SystemView/SYSVIEW/SEGGER_SYSVIEW.c ****                                   pPayloadStart = _PreparePacket(aPacket);          \
 398:libraries/SystemView/SYSVIEW/SEGGER_SYSVIEW.c **** 
 399:libraries/SystemView/SYSVIEW/SEGGER_SYSVIEW.c **** #define RECORD_END()
 400:libraries/SystemView/SYSVIEW/SEGGER_SYSVIEW.c **** 
 401:libraries/SystemView/SYSVIEW/SEGGER_SYSVIEW.c **** #endif
 402:libraries/SystemView/SYSVIEW/SEGGER_SYSVIEW.c **** 
 403:libraries/SystemView/SYSVIEW/SEGGER_SYSVIEW.c **** /*********************************************************************
 404:libraries/SystemView/SYSVIEW/SEGGER_SYSVIEW.c **** *
 405:libraries/SystemView/SYSVIEW/SEGGER_SYSVIEW.c **** *       _EncodeData()
 406:libraries/SystemView/SYSVIEW/SEGGER_SYSVIEW.c **** *
 407:libraries/SystemView/SYSVIEW/SEGGER_SYSVIEW.c **** *  Function description
 408:libraries/SystemView/SYSVIEW/SEGGER_SYSVIEW.c **** *    Encode a byte buffer in variable-length format.
 409:libraries/SystemView/SYSVIEW/SEGGER_SYSVIEW.c **** *
 410:libraries/SystemView/SYSVIEW/SEGGER_SYSVIEW.c **** *  Parameters
 411:libraries/SystemView/SYSVIEW/SEGGER_SYSVIEW.c **** *    pPayload - Pointer to where string will be encoded.
 412:libraries/SystemView/SYSVIEW/SEGGER_SYSVIEW.c **** *    pSrc     - Pointer to data buffer to be encoded.
 413:libraries/SystemView/SYSVIEW/SEGGER_SYSVIEW.c **** *    NumBytes - Number of bytes in the buffer to be encoded.
 414:libraries/SystemView/SYSVIEW/SEGGER_SYSVIEW.c **** *
 415:libraries/SystemView/SYSVIEW/SEGGER_SYSVIEW.c **** *  Return value
 416:libraries/SystemView/SYSVIEW/SEGGER_SYSVIEW.c **** *    Pointer to the byte following the value, i.e. the first free
 417:libraries/SystemView/SYSVIEW/SEGGER_SYSVIEW.c **** *    byte in the payload and the next position to store payload
 418:libraries/SystemView/SYSVIEW/SEGGER_SYSVIEW.c **** *    content.
 419:libraries/SystemView/SYSVIEW/SEGGER_SYSVIEW.c **** *
 420:libraries/SystemView/SYSVIEW/SEGGER_SYSVIEW.c **** *  Additional information
 421:libraries/SystemView/SYSVIEW/SEGGER_SYSVIEW.c **** *    The data is encoded as a count byte followed by the contents
 422:libraries/SystemView/SYSVIEW/SEGGER_SYSVIEW.c **** *    of the data buffer.
 423:libraries/SystemView/SYSVIEW/SEGGER_SYSVIEW.c **** *    Make sure NumBytes + 1 bytes are free for the payload.
 424:libraries/SystemView/SYSVIEW/SEGGER_SYSVIEW.c **** */
 425:libraries/SystemView/SYSVIEW/SEGGER_SYSVIEW.c **** static U8* _EncodeData(U8* pPayload, const char* pSrc, unsigned int NumBytes) {
  29              		.loc 1 425 79 view -0
  30              		.cfi_startproc
  31              		@ args = 0, pretend = 0, frame = 0
  32              		@ frame_needed = 0, uses_anonymous_args = 0
ARM GAS  /tmp/ccyEpLlu.s 			page 9


  33              		@ link register save eliminated.
  34              		.loc 1 425 79 is_stmt 0 view .LVU1
  35 0000 0346     		mov	r3, r0
 426:libraries/SystemView/SYSVIEW/SEGGER_SYSVIEW.c ****   unsigned int  n;
  36              		.loc 1 426 3 is_stmt 1 view .LVU2
 427:libraries/SystemView/SYSVIEW/SEGGER_SYSVIEW.c ****   const U8*     p;
  37              		.loc 1 427 3 view .LVU3
 428:libraries/SystemView/SYSVIEW/SEGGER_SYSVIEW.c ****   //
 429:libraries/SystemView/SYSVIEW/SEGGER_SYSVIEW.c ****   n = 0;
  38              		.loc 1 429 3 view .LVU4
  39              	.LVL1:
 430:libraries/SystemView/SYSVIEW/SEGGER_SYSVIEW.c ****   p = (const U8*)pSrc;
  40              		.loc 1 430 3 view .LVU5
 431:libraries/SystemView/SYSVIEW/SEGGER_SYSVIEW.c ****   //
 432:libraries/SystemView/SYSVIEW/SEGGER_SYSVIEW.c ****   // Write Len
 433:libraries/SystemView/SYSVIEW/SEGGER_SYSVIEW.c ****   //
 434:libraries/SystemView/SYSVIEW/SEGGER_SYSVIEW.c ****   if (NumBytes < 255)  {
  41              		.loc 1 434 3 view .LVU6
  42              		.loc 1 434 6 is_stmt 0 view .LVU7
  43 0002 FE2A     		cmp	r2, #254
  44 0004 03D8     		bhi	.L2
 435:libraries/SystemView/SYSVIEW/SEGGER_SYSVIEW.c ****     *pPayload++ = (U8)NumBytes;
  45              		.loc 1 435 5 is_stmt 1 view .LVU8
  46              	.LVL2:
  47              		.loc 1 435 17 is_stmt 0 view .LVU9
  48 0006 00F8012B 		strb	r2, [r0], #1
  49              	.LVL3:
  50              	.L3:
 425:libraries/SystemView/SYSVIEW/SEGGER_SYSVIEW.c ****   unsigned int  n;
  51              		.loc 1 425 79 view .LVU10
  52 000a 0023     		movs	r3, #0
  53 000c 0DE0     		b	.L4
  54              	.L2:
 436:libraries/SystemView/SYSVIEW/SEGGER_SYSVIEW.c ****   } else {
 437:libraries/SystemView/SYSVIEW/SEGGER_SYSVIEW.c ****     *pPayload++ = 255;
  55              		.loc 1 437 5 is_stmt 1 view .LVU11
  56              	.LVL4:
  57              		.loc 1 437 17 is_stmt 0 view .LVU12
  58 000e FF20     		movs	r0, #255
  59              	.LVL5:
  60              		.loc 1 437 17 view .LVU13
  61 0010 1870     		strb	r0, [r3]
 438:libraries/SystemView/SYSVIEW/SEGGER_SYSVIEW.c ****     *pPayload++ = (NumBytes & 255);
  62              		.loc 1 438 5 is_stmt 1 view .LVU14
  63              	.LVL6:
  64              		.loc 1 438 17 is_stmt 0 view .LVU15
  65 0012 5A70     		strb	r2, [r3, #1]
 439:libraries/SystemView/SYSVIEW/SEGGER_SYSVIEW.c ****     *pPayload++ = ((NumBytes >> 8) & 255);
  66              		.loc 1 439 5 is_stmt 1 view .LVU16
  67              		.loc 1 439 30 is_stmt 0 view .LVU17
  68 0014 4FEA122C 		lsr	ip, r2, #8
  69              		.loc 1 439 14 view .LVU18
  70 0018 D81C     		adds	r0, r3, #3
  71              	.LVL7:
  72              		.loc 1 439 17 view .LVU19
  73 001a 83F802C0 		strb	ip, [r3, #2]
  74 001e F4E7     		b	.L3
ARM GAS  /tmp/ccyEpLlu.s 			page 10


  75              	.LVL8:
  76              	.L5:
 440:libraries/SystemView/SYSVIEW/SEGGER_SYSVIEW.c ****   }
 441:libraries/SystemView/SYSVIEW/SEGGER_SYSVIEW.c ****   while (n < NumBytes) {
 442:libraries/SystemView/SYSVIEW/SEGGER_SYSVIEW.c ****     *pPayload++ = *p++;
  77              		.loc 1 442 5 is_stmt 1 view .LVU20
  78              		.loc 1 442 19 is_stmt 0 view .LVU21
  79 0020 11F801CB 		ldrb	ip, [r1], #1	@ zero_extendqisi2
  80              	.LVL9:
  81              		.loc 1 442 17 view .LVU22
  82 0024 00F801CB 		strb	ip, [r0], #1
  83              	.LVL10:
 443:libraries/SystemView/SYSVIEW/SEGGER_SYSVIEW.c ****     n++;
  84              		.loc 1 443 5 is_stmt 1 view .LVU23
  85              		.loc 1 443 6 is_stmt 0 view .LVU24
  86 0028 0133     		adds	r3, r3, #1
  87              	.LVL11:
  88              	.L4:
 441:libraries/SystemView/SYSVIEW/SEGGER_SYSVIEW.c ****     *pPayload++ = *p++;
  89              		.loc 1 441 9 is_stmt 1 view .LVU25
  90 002a 9342     		cmp	r3, r2
  91 002c F8D3     		bcc	.L5
 444:libraries/SystemView/SYSVIEW/SEGGER_SYSVIEW.c ****   }
 445:libraries/SystemView/SYSVIEW/SEGGER_SYSVIEW.c ****   return pPayload;
  92              		.loc 1 445 3 view .LVU26
 446:libraries/SystemView/SYSVIEW/SEGGER_SYSVIEW.c **** }
  93              		.loc 1 446 1 is_stmt 0 view .LVU27
  94 002e 7047     		bx	lr
  95              		.cfi_endproc
  96              	.LFE0:
  98              		.section	.text._EncodeStr,"ax",%progbits
  99              		.align	1
 100              		.syntax unified
 101              		.thumb
 102              		.thumb_func
 103              		.fpu fpv4-sp-d16
 105              	_EncodeStr:
 106              	.LVL12:
 107              	.LFB1:
 447:libraries/SystemView/SYSVIEW/SEGGER_SYSVIEW.c **** 
 448:libraries/SystemView/SYSVIEW/SEGGER_SYSVIEW.c **** /*********************************************************************
 449:libraries/SystemView/SYSVIEW/SEGGER_SYSVIEW.c **** *
 450:libraries/SystemView/SYSVIEW/SEGGER_SYSVIEW.c **** *       _EncodeStr()
 451:libraries/SystemView/SYSVIEW/SEGGER_SYSVIEW.c **** *
 452:libraries/SystemView/SYSVIEW/SEGGER_SYSVIEW.c **** *  Function description
 453:libraries/SystemView/SYSVIEW/SEGGER_SYSVIEW.c **** *    Encode a string in variable-length format.
 454:libraries/SystemView/SYSVIEW/SEGGER_SYSVIEW.c **** *
 455:libraries/SystemView/SYSVIEW/SEGGER_SYSVIEW.c **** *  Parameters
 456:libraries/SystemView/SYSVIEW/SEGGER_SYSVIEW.c **** *    pPayload - Pointer to where string will be encoded.
 457:libraries/SystemView/SYSVIEW/SEGGER_SYSVIEW.c **** *    pText    - String to encode.
 458:libraries/SystemView/SYSVIEW/SEGGER_SYSVIEW.c **** *    Limit    - Maximum number of characters to encode from string.
 459:libraries/SystemView/SYSVIEW/SEGGER_SYSVIEW.c **** *
 460:libraries/SystemView/SYSVIEW/SEGGER_SYSVIEW.c **** *  Return value
 461:libraries/SystemView/SYSVIEW/SEGGER_SYSVIEW.c **** *    Pointer to the byte following the value, i.e. the first free
 462:libraries/SystemView/SYSVIEW/SEGGER_SYSVIEW.c **** *    byte in the payload and the next position to store payload
 463:libraries/SystemView/SYSVIEW/SEGGER_SYSVIEW.c **** *    content.
 464:libraries/SystemView/SYSVIEW/SEGGER_SYSVIEW.c **** *
ARM GAS  /tmp/ccyEpLlu.s 			page 11


 465:libraries/SystemView/SYSVIEW/SEGGER_SYSVIEW.c **** *  Additional information
 466:libraries/SystemView/SYSVIEW/SEGGER_SYSVIEW.c **** *    The string is encoded as a count byte followed by the contents
 467:libraries/SystemView/SYSVIEW/SEGGER_SYSVIEW.c **** *    of the string.
 468:libraries/SystemView/SYSVIEW/SEGGER_SYSVIEW.c **** *    No more than 1 + Limit bytes will be encoded to the payload.
 469:libraries/SystemView/SYSVIEW/SEGGER_SYSVIEW.c **** */
 470:libraries/SystemView/SYSVIEW/SEGGER_SYSVIEW.c **** static U8 *_EncodeStr(U8 *pPayload, const char *pText, unsigned int Limit) {
 108              		.loc 1 470 76 is_stmt 1 view -0
 109              		.cfi_startproc
 110              		@ args = 0, pretend = 0, frame = 0
 111              		@ frame_needed = 0, uses_anonymous_args = 0
 112              		@ link register save eliminated.
 113              		.loc 1 470 76 is_stmt 0 view .LVU29
 114 0000 8446     		mov	ip, r0
 471:libraries/SystemView/SYSVIEW/SEGGER_SYSVIEW.c ****   unsigned int n;
 115              		.loc 1 471 3 is_stmt 1 view .LVU30
 472:libraries/SystemView/SYSVIEW/SEGGER_SYSVIEW.c ****   unsigned int Len;
 116              		.loc 1 472 3 view .LVU31
 473:libraries/SystemView/SYSVIEW/SEGGER_SYSVIEW.c ****   //
 474:libraries/SystemView/SYSVIEW/SEGGER_SYSVIEW.c ****   // Compute string len
 475:libraries/SystemView/SYSVIEW/SEGGER_SYSVIEW.c ****   //
 476:libraries/SystemView/SYSVIEW/SEGGER_SYSVIEW.c ****   Len = 0;
 117              		.loc 1 476 3 view .LVU32
 118              	.LVL13:
 477:libraries/SystemView/SYSVIEW/SEGGER_SYSVIEW.c ****   if (pText != NULL) {
 119              		.loc 1 477 3 view .LVU33
 120              		.loc 1 477 6 is_stmt 0 view .LVU34
 121 0002 0B46     		mov	r3, r1
 122 0004 29B3     		cbz	r1, .L23
 470:libraries/SystemView/SYSVIEW/SEGGER_SYSVIEW.c ****   unsigned int n;
 123              		.loc 1 470 76 view .LVU35
 124 0006 10B4     		push	{r4}
 125              	.LCFI0:
 126              		.cfi_def_cfa_offset 4
 127              		.cfi_offset 4, -4
 476:libraries/SystemView/SYSVIEW/SEGGER_SYSVIEW.c ****   if (pText != NULL) {
 128              		.loc 1 476 7 view .LVU36
 129 0008 0021     		movs	r1, #0
 130              	.LVL14:
 476:libraries/SystemView/SYSVIEW/SEGGER_SYSVIEW.c ****   if (pText != NULL) {
 131              		.loc 1 476 7 view .LVU37
 132 000a 00E0     		b	.L7
 133              	.LVL15:
 134              	.L9:
 478:libraries/SystemView/SYSVIEW/SEGGER_SYSVIEW.c ****     while(*(pText + Len) != 0) {
 479:libraries/SystemView/SYSVIEW/SEGGER_SYSVIEW.c ****       Len++;
 135              		.loc 1 479 7 is_stmt 1 view .LVU38
 136              		.loc 1 479 10 is_stmt 0 view .LVU39
 137 000c 0131     		adds	r1, r1, #1
 138              	.LVL16:
 139              	.L7:
 478:libraries/SystemView/SYSVIEW/SEGGER_SYSVIEW.c ****     while(*(pText + Len) != 0) {
 140              		.loc 1 478 10 is_stmt 1 view .LVU40
 478:libraries/SystemView/SYSVIEW/SEGGER_SYSVIEW.c ****     while(*(pText + Len) != 0) {
 141              		.loc 1 478 11 is_stmt 0 view .LVU41
 142 000e 5C5C     		ldrb	r4, [r3, r1]	@ zero_extendqisi2
 478:libraries/SystemView/SYSVIEW/SEGGER_SYSVIEW.c ****     while(*(pText + Len) != 0) {
 143              		.loc 1 478 10 view .LVU42
ARM GAS  /tmp/ccyEpLlu.s 			page 12


 144 0010 002C     		cmp	r4, #0
 145 0012 FBD1     		bne	.L9
 480:libraries/SystemView/SYSVIEW/SEGGER_SYSVIEW.c ****     }
 481:libraries/SystemView/SYSVIEW/SEGGER_SYSVIEW.c ****     if (Len > Limit) {
 146              		.loc 1 481 5 is_stmt 1 view .LVU43
 147              		.loc 1 481 8 is_stmt 0 view .LVU44
 148 0014 9142     		cmp	r1, r2
 149 0016 00D8     		bhi	.L10
 150 0018 0A46     		mov	r2, r1
 151              	.LVL17:
 152              	.L10:
 482:libraries/SystemView/SYSVIEW/SEGGER_SYSVIEW.c ****       Len = Limit;
 483:libraries/SystemView/SYSVIEW/SEGGER_SYSVIEW.c ****     }
 484:libraries/SystemView/SYSVIEW/SEGGER_SYSVIEW.c ****   }
 485:libraries/SystemView/SYSVIEW/SEGGER_SYSVIEW.c ****   //
 486:libraries/SystemView/SYSVIEW/SEGGER_SYSVIEW.c ****   // Write Len
 487:libraries/SystemView/SYSVIEW/SEGGER_SYSVIEW.c ****   //
 488:libraries/SystemView/SYSVIEW/SEGGER_SYSVIEW.c ****   if (Len < 255)  {
 153              		.loc 1 488 3 is_stmt 1 view .LVU45
 154              		.loc 1 488 6 is_stmt 0 view .LVU46
 155 001a FE2A     		cmp	r2, #254
 156 001c 04D8     		bhi	.L11
 157              	.LVL18:
 489:libraries/SystemView/SYSVIEW/SEGGER_SYSVIEW.c ****     *pPayload++ = (U8)Len;
 158              		.loc 1 489 5 is_stmt 1 view .LVU47
 159              		.loc 1 489 14 is_stmt 0 view .LVU48
 160 001e 6046     		mov	r0, ip
 161              	.LVL19:
 162              		.loc 1 489 17 view .LVU49
 163 0020 00F8012B 		strb	r2, [r0], #1
 164              	.LVL20:
 165              	.L12:
 490:libraries/SystemView/SYSVIEW/SEGGER_SYSVIEW.c ****   } else {
 491:libraries/SystemView/SYSVIEW/SEGGER_SYSVIEW.c ****     *pPayload++ = 255;
 492:libraries/SystemView/SYSVIEW/SEGGER_SYSVIEW.c ****     *pPayload++ = (Len & 255);
 493:libraries/SystemView/SYSVIEW/SEGGER_SYSVIEW.c ****     *pPayload++ = ((Len >> 8) & 255);
 494:libraries/SystemView/SYSVIEW/SEGGER_SYSVIEW.c ****   }
 495:libraries/SystemView/SYSVIEW/SEGGER_SYSVIEW.c ****   //
 496:libraries/SystemView/SYSVIEW/SEGGER_SYSVIEW.c ****   // copy string
 497:libraries/SystemView/SYSVIEW/SEGGER_SYSVIEW.c ****   //
 498:libraries/SystemView/SYSVIEW/SEGGER_SYSVIEW.c ****   n = 0;
 166              		.loc 1 498 3 is_stmt 1 view .LVU50
 499:libraries/SystemView/SYSVIEW/SEGGER_SYSVIEW.c ****   while (n < Len) {
 167              		.loc 1 499 3 view .LVU51
 498:libraries/SystemView/SYSVIEW/SEGGER_SYSVIEW.c ****   while (n < Len) {
 168              		.loc 1 498 5 is_stmt 0 view .LVU52
 169 0024 0021     		movs	r1, #0
 170              		.loc 1 499 9 view .LVU53
 171 0026 0FE0     		b	.L13
 172              	.LVL21:
 173              	.L11:
 491:libraries/SystemView/SYSVIEW/SEGGER_SYSVIEW.c ****     *pPayload++ = (Len & 255);
 174              		.loc 1 491 5 is_stmt 1 view .LVU54
 491:libraries/SystemView/SYSVIEW/SEGGER_SYSVIEW.c ****     *pPayload++ = (Len & 255);
 175              		.loc 1 491 17 is_stmt 0 view .LVU55
 176 0028 FF21     		movs	r1, #255
 177 002a 8CF80010 		strb	r1, [ip]
ARM GAS  /tmp/ccyEpLlu.s 			page 13


 492:libraries/SystemView/SYSVIEW/SEGGER_SYSVIEW.c ****     *pPayload++ = ((Len >> 8) & 255);
 178              		.loc 1 492 5 is_stmt 1 view .LVU56
 179              	.LVL22:
 492:libraries/SystemView/SYSVIEW/SEGGER_SYSVIEW.c ****     *pPayload++ = ((Len >> 8) & 255);
 180              		.loc 1 492 17 is_stmt 0 view .LVU57
 181 002e 8CF80120 		strb	r2, [ip, #1]
 493:libraries/SystemView/SYSVIEW/SEGGER_SYSVIEW.c ****   }
 182              		.loc 1 493 5 is_stmt 1 view .LVU58
 493:libraries/SystemView/SYSVIEW/SEGGER_SYSVIEW.c ****   }
 183              		.loc 1 493 25 is_stmt 0 view .LVU59
 184 0032 110A     		lsrs	r1, r2, #8
 493:libraries/SystemView/SYSVIEW/SEGGER_SYSVIEW.c ****   }
 185              		.loc 1 493 14 view .LVU60
 186 0034 0CF10300 		add	r0, ip, #3
 187              	.LVL23:
 493:libraries/SystemView/SYSVIEW/SEGGER_SYSVIEW.c ****   }
 188              		.loc 1 493 17 view .LVU61
 189 0038 8CF80210 		strb	r1, [ip, #2]
 190 003c F2E7     		b	.L12
 191              	.LVL24:
 192              	.L14:
 500:libraries/SystemView/SYSVIEW/SEGGER_SYSVIEW.c ****     *pPayload++ = *pText++;
 193              		.loc 1 500 5 is_stmt 1 view .LVU62
 194              		.loc 1 500 19 is_stmt 0 view .LVU63
 195 003e 13F801CB 		ldrb	ip, [r3], #1	@ zero_extendqisi2
 196              	.LVL25:
 197              		.loc 1 500 17 view .LVU64
 198 0042 00F801CB 		strb	ip, [r0], #1
 199              	.LVL26:
 501:libraries/SystemView/SYSVIEW/SEGGER_SYSVIEW.c ****     n++;
 200              		.loc 1 501 5 is_stmt 1 view .LVU65
 201              		.loc 1 501 6 is_stmt 0 view .LVU66
 202 0046 0131     		adds	r1, r1, #1
 203              	.LVL27:
 204              	.L13:
 499:libraries/SystemView/SYSVIEW/SEGGER_SYSVIEW.c ****     *pPayload++ = *pText++;
 205              		.loc 1 499 9 is_stmt 1 view .LVU67
 206 0048 9142     		cmp	r1, r2
 207 004a F8D3     		bcc	.L14
 502:libraries/SystemView/SYSVIEW/SEGGER_SYSVIEW.c ****   }
 503:libraries/SystemView/SYSVIEW/SEGGER_SYSVIEW.c ****   return pPayload;
 208              		.loc 1 503 3 view .LVU68
 504:libraries/SystemView/SYSVIEW/SEGGER_SYSVIEW.c **** }
 209              		.loc 1 504 1 is_stmt 0 view .LVU69
 210 004c 5DF8044B 		ldr	r4, [sp], #4
 211              	.LCFI1:
 212              		.cfi_restore 4
 213              		.cfi_def_cfa_offset 0
 214 0050 7047     		bx	lr
 215              	.LVL28:
 216              	.L23:
 476:libraries/SystemView/SYSVIEW/SEGGER_SYSVIEW.c ****   if (pText != NULL) {
 217              		.loc 1 476 7 view .LVU70
 218 0052 0022     		movs	r2, #0
 219              	.LVL29:
 489:libraries/SystemView/SYSVIEW/SEGGER_SYSVIEW.c ****   } else {
 220              		.loc 1 489 5 is_stmt 1 view .LVU71
ARM GAS  /tmp/ccyEpLlu.s 			page 14


 489:libraries/SystemView/SYSVIEW/SEGGER_SYSVIEW.c ****   } else {
 221              		.loc 1 489 17 is_stmt 0 view .LVU72
 222 0054 00F8012B 		strb	r2, [r0], #1
 223              	.LVL30:
 498:libraries/SystemView/SYSVIEW/SEGGER_SYSVIEW.c ****   while (n < Len) {
 224              		.loc 1 498 3 is_stmt 1 view .LVU73
 499:libraries/SystemView/SYSVIEW/SEGGER_SYSVIEW.c ****     *pPayload++ = *pText++;
 225              		.loc 1 499 3 view .LVU74
 498:libraries/SystemView/SYSVIEW/SEGGER_SYSVIEW.c ****   while (n < Len) {
 226              		.loc 1 498 5 is_stmt 0 view .LVU75
 227 0058 0021     		movs	r1, #0
 228              	.LVL31:
 498:libraries/SystemView/SYSVIEW/SEGGER_SYSVIEW.c ****   while (n < Len) {
 229              		.loc 1 498 5 view .LVU76
 230 005a 04E0     		b	.L18
 231              	.LVL32:
 232              	.L19:
 500:libraries/SystemView/SYSVIEW/SEGGER_SYSVIEW.c ****     n++;
 233              		.loc 1 500 5 is_stmt 1 view .LVU77
 500:libraries/SystemView/SYSVIEW/SEGGER_SYSVIEW.c ****     n++;
 234              		.loc 1 500 19 is_stmt 0 view .LVU78
 235 005c 13F801CB 		ldrb	ip, [r3], #1	@ zero_extendqisi2
 236              	.LVL33:
 500:libraries/SystemView/SYSVIEW/SEGGER_SYSVIEW.c ****     n++;
 237              		.loc 1 500 17 view .LVU79
 238 0060 00F801CB 		strb	ip, [r0], #1
 239              	.LVL34:
 501:libraries/SystemView/SYSVIEW/SEGGER_SYSVIEW.c ****   }
 240              		.loc 1 501 5 is_stmt 1 view .LVU80
 501:libraries/SystemView/SYSVIEW/SEGGER_SYSVIEW.c ****   }
 241              		.loc 1 501 6 is_stmt 0 view .LVU81
 242 0064 0131     		adds	r1, r1, #1
 243              	.LVL35:
 244              	.L18:
 499:libraries/SystemView/SYSVIEW/SEGGER_SYSVIEW.c ****     *pPayload++ = *pText++;
 245              		.loc 1 499 9 is_stmt 1 view .LVU82
 246 0066 9142     		cmp	r1, r2
 247 0068 F8D3     		bcc	.L19
 499:libraries/SystemView/SYSVIEW/SEGGER_SYSVIEW.c ****     *pPayload++ = *pText++;
 248              		.loc 1 499 9 is_stmt 0 view .LVU83
 249 006a 7047     		bx	lr
 250              		.cfi_endproc
 251              	.LFE1:
 253              		.section	.text._PreparePacket,"ax",%progbits
 254              		.align	1
 255              		.syntax unified
 256              		.thumb
 257              		.thumb_func
 258              		.fpu fpv4-sp-d16
 260              	_PreparePacket:
 261              	.LVL36:
 262              	.LFB2:
 505:libraries/SystemView/SYSVIEW/SEGGER_SYSVIEW.c **** 
 506:libraries/SystemView/SYSVIEW/SEGGER_SYSVIEW.c **** /*********************************************************************
 507:libraries/SystemView/SYSVIEW/SEGGER_SYSVIEW.c **** *
 508:libraries/SystemView/SYSVIEW/SEGGER_SYSVIEW.c **** *       _PreparePacket()
 509:libraries/SystemView/SYSVIEW/SEGGER_SYSVIEW.c **** *
ARM GAS  /tmp/ccyEpLlu.s 			page 15


 510:libraries/SystemView/SYSVIEW/SEGGER_SYSVIEW.c **** *  Function description
 511:libraries/SystemView/SYSVIEW/SEGGER_SYSVIEW.c **** *    Prepare a SystemView event packet header.
 512:libraries/SystemView/SYSVIEW/SEGGER_SYSVIEW.c **** *
 513:libraries/SystemView/SYSVIEW/SEGGER_SYSVIEW.c **** *  Parameters
 514:libraries/SystemView/SYSVIEW/SEGGER_SYSVIEW.c **** *    pPacket - Pointer to start of packet to initialize.
 515:libraries/SystemView/SYSVIEW/SEGGER_SYSVIEW.c **** *
 516:libraries/SystemView/SYSVIEW/SEGGER_SYSVIEW.c **** *  Return value
 517:libraries/SystemView/SYSVIEW/SEGGER_SYSVIEW.c **** *    Pointer to first byte of packet payload.
 518:libraries/SystemView/SYSVIEW/SEGGER_SYSVIEW.c **** *
 519:libraries/SystemView/SYSVIEW/SEGGER_SYSVIEW.c **** *  Additional information
 520:libraries/SystemView/SYSVIEW/SEGGER_SYSVIEW.c **** *    The payload length and evnetId are not initialized.
 521:libraries/SystemView/SYSVIEW/SEGGER_SYSVIEW.c **** *    PreparePacket only reserves space for them and they are
 522:libraries/SystemView/SYSVIEW/SEGGER_SYSVIEW.c **** *    computed and filled in by the sending function.
 523:libraries/SystemView/SYSVIEW/SEGGER_SYSVIEW.c **** */
 524:libraries/SystemView/SYSVIEW/SEGGER_SYSVIEW.c **** static U8* _PreparePacket(U8* pPacket) {
 263              		.loc 1 524 40 is_stmt 1 view -0
 264              		.cfi_startproc
 265              		@ args = 0, pretend = 0, frame = 0
 266              		@ frame_needed = 0, uses_anonymous_args = 0
 267              		@ link register save eliminated.
 525:libraries/SystemView/SYSVIEW/SEGGER_SYSVIEW.c ****   return pPacket + _MAX_ID_BYTES + _MAX_DATA_BYTES;
 268              		.loc 1 525 3 view .LVU85
 526:libraries/SystemView/SYSVIEW/SEGGER_SYSVIEW.c **** }
 269              		.loc 1 526 1 is_stmt 0 view .LVU86
 270 0000 0730     		adds	r0, r0, #7
 271              	.LVL37:
 272              		.loc 1 526 1 view .LVU87
 273 0002 7047     		bx	lr
 274              		.cfi_endproc
 275              	.LFE2:
 277              		.section	.text._TrySendOverflowPacket,"ax",%progbits
 278              		.align	1
 279              		.syntax unified
 280              		.thumb
 281              		.thumb_func
 282              		.fpu fpv4-sp-d16
 284              	_TrySendOverflowPacket:
 285              	.LFB4:
 527:libraries/SystemView/SYSVIEW/SEGGER_SYSVIEW.c **** 
 528:libraries/SystemView/SYSVIEW/SEGGER_SYSVIEW.c **** /*********************************************************************
 529:libraries/SystemView/SYSVIEW/SEGGER_SYSVIEW.c **** *
 530:libraries/SystemView/SYSVIEW/SEGGER_SYSVIEW.c **** *       _HandleIncomingPacket()
 531:libraries/SystemView/SYSVIEW/SEGGER_SYSVIEW.c **** *
 532:libraries/SystemView/SYSVIEW/SEGGER_SYSVIEW.c **** *  Function description
 533:libraries/SystemView/SYSVIEW/SEGGER_SYSVIEW.c **** *    Read an incoming command from the down channel and process it.
 534:libraries/SystemView/SYSVIEW/SEGGER_SYSVIEW.c **** *
 535:libraries/SystemView/SYSVIEW/SEGGER_SYSVIEW.c **** *  Additional information
 536:libraries/SystemView/SYSVIEW/SEGGER_SYSVIEW.c **** *    This function is called each time after sending a packet.
 537:libraries/SystemView/SYSVIEW/SEGGER_SYSVIEW.c **** *    Processing incoming packets is done asynchronous. SystemView might
 538:libraries/SystemView/SYSVIEW/SEGGER_SYSVIEW.c **** *    already have sent event packets after the host has sent a command.
 539:libraries/SystemView/SYSVIEW/SEGGER_SYSVIEW.c **** */
 540:libraries/SystemView/SYSVIEW/SEGGER_SYSVIEW.c **** #if (SEGGER_SYSVIEW_POST_MORTEM_MODE != 1)
 541:libraries/SystemView/SYSVIEW/SEGGER_SYSVIEW.c **** static void _HandleIncomingPacket(void) {
 542:libraries/SystemView/SYSVIEW/SEGGER_SYSVIEW.c ****   U8  Cmd;
 543:libraries/SystemView/SYSVIEW/SEGGER_SYSVIEW.c ****   unsigned int Status;
 544:libraries/SystemView/SYSVIEW/SEGGER_SYSVIEW.c ****   //
 545:libraries/SystemView/SYSVIEW/SEGGER_SYSVIEW.c ****   Status = SEGGER_RTT_ReadNoLock(CHANNEL_ID_DOWN, &Cmd, 1);
ARM GAS  /tmp/ccyEpLlu.s 			page 16


 546:libraries/SystemView/SYSVIEW/SEGGER_SYSVIEW.c ****   if (Status > 0) {
 547:libraries/SystemView/SYSVIEW/SEGGER_SYSVIEW.c ****     switch (Cmd) {
 548:libraries/SystemView/SYSVIEW/SEGGER_SYSVIEW.c ****     case SEGGER_SYSVIEW_COMMAND_ID_START:
 549:libraries/SystemView/SYSVIEW/SEGGER_SYSVIEW.c ****       SEGGER_SYSVIEW_Start();
 550:libraries/SystemView/SYSVIEW/SEGGER_SYSVIEW.c ****       break;
 551:libraries/SystemView/SYSVIEW/SEGGER_SYSVIEW.c ****     case SEGGER_SYSVIEW_COMMAND_ID_STOP:
 552:libraries/SystemView/SYSVIEW/SEGGER_SYSVIEW.c ****       SEGGER_SYSVIEW_Stop();
 553:libraries/SystemView/SYSVIEW/SEGGER_SYSVIEW.c ****       break;
 554:libraries/SystemView/SYSVIEW/SEGGER_SYSVIEW.c ****     case SEGGER_SYSVIEW_COMMAND_ID_GET_SYSTIME:
 555:libraries/SystemView/SYSVIEW/SEGGER_SYSVIEW.c ****       SEGGER_SYSVIEW_RecordSystime();
 556:libraries/SystemView/SYSVIEW/SEGGER_SYSVIEW.c ****       break;
 557:libraries/SystemView/SYSVIEW/SEGGER_SYSVIEW.c ****     case SEGGER_SYSVIEW_COMMAND_ID_GET_TASKLIST:
 558:libraries/SystemView/SYSVIEW/SEGGER_SYSVIEW.c ****       SEGGER_SYSVIEW_SendTaskList();
 559:libraries/SystemView/SYSVIEW/SEGGER_SYSVIEW.c ****       break;
 560:libraries/SystemView/SYSVIEW/SEGGER_SYSVIEW.c ****     case SEGGER_SYSVIEW_COMMAND_ID_GET_SYSDESC:
 561:libraries/SystemView/SYSVIEW/SEGGER_SYSVIEW.c ****       SEGGER_SYSVIEW_GetSysDesc();
 562:libraries/SystemView/SYSVIEW/SEGGER_SYSVIEW.c ****       break;
 563:libraries/SystemView/SYSVIEW/SEGGER_SYSVIEW.c ****     case SEGGER_SYSVIEW_COMMAND_ID_GET_NUMMODULES:
 564:libraries/SystemView/SYSVIEW/SEGGER_SYSVIEW.c ****       SEGGER_SYSVIEW_SendNumModules();
 565:libraries/SystemView/SYSVIEW/SEGGER_SYSVIEW.c ****       break;
 566:libraries/SystemView/SYSVIEW/SEGGER_SYSVIEW.c ****     case SEGGER_SYSVIEW_COMMAND_ID_GET_MODULEDESC:
 567:libraries/SystemView/SYSVIEW/SEGGER_SYSVIEW.c ****       SEGGER_SYSVIEW_SendModuleDescription();
 568:libraries/SystemView/SYSVIEW/SEGGER_SYSVIEW.c ****       break;
 569:libraries/SystemView/SYSVIEW/SEGGER_SYSVIEW.c ****     case SEGGER_SYSVIEW_COMMAND_ID_GET_MODULE:
 570:libraries/SystemView/SYSVIEW/SEGGER_SYSVIEW.c ****       Status = SEGGER_RTT_ReadNoLock(CHANNEL_ID_DOWN, &Cmd, 1);
 571:libraries/SystemView/SYSVIEW/SEGGER_SYSVIEW.c ****       if (Status > 0) {
 572:libraries/SystemView/SYSVIEW/SEGGER_SYSVIEW.c ****         SEGGER_SYSVIEW_SendModule(Cmd);
 573:libraries/SystemView/SYSVIEW/SEGGER_SYSVIEW.c ****       }
 574:libraries/SystemView/SYSVIEW/SEGGER_SYSVIEW.c ****       break;
 575:libraries/SystemView/SYSVIEW/SEGGER_SYSVIEW.c ****     case SEGGER_SYSVIEW_COMMAND_ID_HEARTBEAT:
 576:libraries/SystemView/SYSVIEW/SEGGER_SYSVIEW.c ****       break;
 577:libraries/SystemView/SYSVIEW/SEGGER_SYSVIEW.c ****     default:
 578:libraries/SystemView/SYSVIEW/SEGGER_SYSVIEW.c ****       if (Cmd >= 128) { // Unknown extended command. Dummy read its parameter.
 579:libraries/SystemView/SYSVIEW/SEGGER_SYSVIEW.c ****         SEGGER_RTT_ReadNoLock(CHANNEL_ID_DOWN, &Cmd, 1);
 580:libraries/SystemView/SYSVIEW/SEGGER_SYSVIEW.c ****       }
 581:libraries/SystemView/SYSVIEW/SEGGER_SYSVIEW.c ****       break;
 582:libraries/SystemView/SYSVIEW/SEGGER_SYSVIEW.c ****     }
 583:libraries/SystemView/SYSVIEW/SEGGER_SYSVIEW.c ****   }
 584:libraries/SystemView/SYSVIEW/SEGGER_SYSVIEW.c **** }
 585:libraries/SystemView/SYSVIEW/SEGGER_SYSVIEW.c **** #endif // (SEGGER_SYSVIEW_POST_MORTEM_MODE != 1)
 586:libraries/SystemView/SYSVIEW/SEGGER_SYSVIEW.c **** 
 587:libraries/SystemView/SYSVIEW/SEGGER_SYSVIEW.c **** /*********************************************************************
 588:libraries/SystemView/SYSVIEW/SEGGER_SYSVIEW.c **** *
 589:libraries/SystemView/SYSVIEW/SEGGER_SYSVIEW.c **** *       _TrySendOverflowPacket()
 590:libraries/SystemView/SYSVIEW/SEGGER_SYSVIEW.c **** *
 591:libraries/SystemView/SYSVIEW/SEGGER_SYSVIEW.c **** *  Function description
 592:libraries/SystemView/SYSVIEW/SEGGER_SYSVIEW.c **** *    Try to transmit an SystemView Overflow packet containing the
 593:libraries/SystemView/SYSVIEW/SEGGER_SYSVIEW.c **** *    number of dropped packets.
 594:libraries/SystemView/SYSVIEW/SEGGER_SYSVIEW.c **** *
 595:libraries/SystemView/SYSVIEW/SEGGER_SYSVIEW.c **** *  Additional information
 596:libraries/SystemView/SYSVIEW/SEGGER_SYSVIEW.c **** *    Format as follows:
 597:libraries/SystemView/SYSVIEW/SEGGER_SYSVIEW.c **** *      01 <DropCnt><TimeStamp>  Max. packet len is 1 + 5 + 5 = 11
 598:libraries/SystemView/SYSVIEW/SEGGER_SYSVIEW.c **** *
 599:libraries/SystemView/SYSVIEW/SEGGER_SYSVIEW.c **** *    Example packets sent
 600:libraries/SystemView/SYSVIEW/SEGGER_SYSVIEW.c **** *      01 20 40
 601:libraries/SystemView/SYSVIEW/SEGGER_SYSVIEW.c **** *
 602:libraries/SystemView/SYSVIEW/SEGGER_SYSVIEW.c **** *  Return value
ARM GAS  /tmp/ccyEpLlu.s 			page 17


 603:libraries/SystemView/SYSVIEW/SEGGER_SYSVIEW.c **** *    !=0:  Success, Message sent (stored in RTT-Buffer)
 604:libraries/SystemView/SYSVIEW/SEGGER_SYSVIEW.c **** *    ==0:  Buffer full, Message *NOT* stored
 605:libraries/SystemView/SYSVIEW/SEGGER_SYSVIEW.c **** *
 606:libraries/SystemView/SYSVIEW/SEGGER_SYSVIEW.c **** */
 607:libraries/SystemView/SYSVIEW/SEGGER_SYSVIEW.c **** #if (SEGGER_SYSVIEW_POST_MORTEM_MODE != 1)
 608:libraries/SystemView/SYSVIEW/SEGGER_SYSVIEW.c **** static int _TrySendOverflowPacket(void) {
 286              		.loc 1 608 41 is_stmt 1 view -0
 287              		.cfi_startproc
 288              		@ args = 0, pretend = 0, frame = 16
 289              		@ frame_needed = 0, uses_anonymous_args = 0
 290 0000 10B5     		push	{r4, lr}
 291              	.LCFI2:
 292              		.cfi_def_cfa_offset 8
 293              		.cfi_offset 4, -8
 294              		.cfi_offset 14, -4
 295 0002 84B0     		sub	sp, sp, #16
 296              	.LCFI3:
 297              		.cfi_def_cfa_offset 24
 609:libraries/SystemView/SYSVIEW/SEGGER_SYSVIEW.c ****   U32 TimeStamp;
 298              		.loc 1 609 3 view .LVU89
 610:libraries/SystemView/SYSVIEW/SEGGER_SYSVIEW.c ****   I32 Delta;
 299              		.loc 1 610 3 view .LVU90
 611:libraries/SystemView/SYSVIEW/SEGGER_SYSVIEW.c ****   int Status;
 300              		.loc 1 611 3 view .LVU91
 612:libraries/SystemView/SYSVIEW/SEGGER_SYSVIEW.c ****   U8  aPacket[11];
 301              		.loc 1 612 3 view .LVU92
 613:libraries/SystemView/SYSVIEW/SEGGER_SYSVIEW.c ****   U8* pPayload;
 302              		.loc 1 613 3 view .LVU93
 614:libraries/SystemView/SYSVIEW/SEGGER_SYSVIEW.c **** 
 615:libraries/SystemView/SYSVIEW/SEGGER_SYSVIEW.c ****   aPacket[0] = SYSVIEW_EVTID_OVERFLOW;      // 1
 303              		.loc 1 615 3 view .LVU94
 304              		.loc 1 615 14 is_stmt 0 view .LVU95
 305 0004 0123     		movs	r3, #1
 306 0006 8DF80430 		strb	r3, [sp, #4]
 616:libraries/SystemView/SYSVIEW/SEGGER_SYSVIEW.c ****   pPayload   = &aPacket[1];
 307              		.loc 1 616 3 is_stmt 1 view .LVU96
 308              	.LVL38:
 309              	.LBB2:
 617:libraries/SystemView/SYSVIEW/SEGGER_SYSVIEW.c ****   ENCODE_U32(pPayload, _SYSVIEW_Globals.DropCount);
 310              		.loc 1 617 3 view .LVU97
 311              		.loc 1 617 3 view .LVU98
 312              		.loc 1 617 3 view .LVU99
 313              		.loc 1 617 3 view .LVU100
 314 000a 184B     		ldr	r3, .L33
 315 000c 5B69     		ldr	r3, [r3, #20]
 316              	.LVL39:
 317              		.loc 1 617 3 view .LVU101
 318 000e 0DF10502 		add	r2, sp, #5
 319              	.LVL40:
 320              		.loc 1 617 3 is_stmt 0 view .LVU102
 321 0012 04E0     		b	.L26
 322              	.LVL41:
 323              	.L27:
 324              		.loc 1 617 3 is_stmt 1 discriminator 3 view .LVU103
 325              		.loc 1 617 3 is_stmt 0 discriminator 3 view .LVU104
 326 0014 63F07F01 		orn	r1, r3, #127
 327 0018 02F8011B 		strb	r1, [r2], #1
ARM GAS  /tmp/ccyEpLlu.s 			page 18


 328              	.LVL42:
 329              		.loc 1 617 3 is_stmt 1 discriminator 3 view .LVU105
 330 001c DB09     		lsrs	r3, r3, #7
 331              	.LVL43:
 332              	.L26:
 333              		.loc 1 617 3 discriminator 1 view .LVU106
 334 001e 7F2B     		cmp	r3, #127
 335 0020 F8D8     		bhi	.L27
 336              		.loc 1 617 3 discriminator 4 view .LVU107
 337              		.loc 1 617 3 discriminator 4 view .LVU108
 338              	.LVL44:
 339              		.loc 1 617 3 is_stmt 0 discriminator 4 view .LVU109
 340 0022 02F8013B 		strb	r3, [r2], #1
 341              	.LVL45:
 342              		.loc 1 617 3 is_stmt 1 discriminator 4 view .LVU110
 343              		.loc 1 617 3 is_stmt 0 discriminator 4 view .LVU111
 344              	.LBE2:
 345              		.loc 1 617 3 is_stmt 1 discriminator 4 view .LVU112
 346              		.loc 1 617 51 discriminator 4 view .LVU113
 618:libraries/SystemView/SYSVIEW/SEGGER_SYSVIEW.c ****   //
 619:libraries/SystemView/SYSVIEW/SEGGER_SYSVIEW.c ****   // Compute time stamp delta and append it to packet.
 620:libraries/SystemView/SYSVIEW/SEGGER_SYSVIEW.c ****   //
 621:libraries/SystemView/SYSVIEW/SEGGER_SYSVIEW.c ****   TimeStamp  = SEGGER_SYSVIEW_GET_TIMESTAMP();
 347              		.loc 1 621 3 discriminator 4 view .LVU114
 348              		.loc 1 621 14 is_stmt 0 discriminator 4 view .LVU115
 349 0026 124B     		ldr	r3, .L33+4
 350              	.LVL46:
 351              		.loc 1 621 14 discriminator 4 view .LVU116
 352 0028 5C68     		ldr	r4, [r3, #4]
 353              	.LVL47:
 622:libraries/SystemView/SYSVIEW/SEGGER_SYSVIEW.c ****   Delta = TimeStamp - _SYSVIEW_Globals.LastTxTimeStamp;
 354              		.loc 1 622 3 is_stmt 1 discriminator 4 view .LVU117
 355              		.loc 1 622 39 is_stmt 0 discriminator 4 view .LVU118
 356 002a 104B     		ldr	r3, .L33
 357 002c DB68     		ldr	r3, [r3, #12]
 358              		.loc 1 622 21 discriminator 4 view .LVU119
 359 002e E31A     		subs	r3, r4, r3
 360              	.LVL48:
 623:libraries/SystemView/SYSVIEW/SEGGER_SYSVIEW.c ****   MAKE_DELTA_32BIT(Delta);
 361              		.loc 1 623 26 is_stmt 1 discriminator 4 view .LVU120
 362              	.LBB3:
 624:libraries/SystemView/SYSVIEW/SEGGER_SYSVIEW.c ****   ENCODE_U32(pPayload, Delta);
 363              		.loc 1 624 3 discriminator 4 view .LVU121
 364              		.loc 1 624 3 discriminator 4 view .LVU122
 365              		.loc 1 624 3 discriminator 4 view .LVU123
 366              		.loc 1 624 3 discriminator 4 view .LVU124
 367              		.loc 1 624 3 discriminator 4 view .LVU125
 368 0030 04E0     		b	.L28
 369              	.LVL49:
 370              	.L29:
 371              		.loc 1 624 3 discriminator 3 view .LVU126
 372              		.loc 1 624 3 is_stmt 0 discriminator 3 view .LVU127
 373 0032 63F07F01 		orn	r1, r3, #127
 374 0036 02F8011B 		strb	r1, [r2], #1
 375              	.LVL50:
 376              		.loc 1 624 3 is_stmt 1 discriminator 3 view .LVU128
 377 003a DB09     		lsrs	r3, r3, #7
ARM GAS  /tmp/ccyEpLlu.s 			page 19


 378              	.LVL51:
 379              	.L28:
 380              		.loc 1 624 3 discriminator 1 view .LVU129
 381 003c 7F2B     		cmp	r3, #127
 382 003e F8D8     		bhi	.L29
 383              		.loc 1 624 3 discriminator 4 view .LVU130
 384              		.loc 1 624 3 discriminator 4 view .LVU131
 385              	.LVL52:
 386              		.loc 1 624 3 is_stmt 0 discriminator 4 view .LVU132
 387 0040 02F8013B 		strb	r3, [r2], #1
 388              	.LVL53:
 389              		.loc 1 624 3 is_stmt 1 discriminator 4 view .LVU133
 390              		.loc 1 624 3 is_stmt 0 discriminator 4 view .LVU134
 391              	.LBE3:
 392              		.loc 1 624 3 is_stmt 1 discriminator 4 view .LVU135
 393              		.loc 1 624 30 discriminator 4 view .LVU136
 625:libraries/SystemView/SYSVIEW/SEGGER_SYSVIEW.c ****   //
 626:libraries/SystemView/SYSVIEW/SEGGER_SYSVIEW.c ****   // Try to store packet in RTT buffer and update time stamp when this was successful
 627:libraries/SystemView/SYSVIEW/SEGGER_SYSVIEW.c ****   //
 628:libraries/SystemView/SYSVIEW/SEGGER_SYSVIEW.c ****   Status = (int)SEGGER_RTT_WriteSkipNoLock(CHANNEL_ID_UP, aPacket, (unsigned int)(pPayload - aPacke
 394              		.loc 1 628 3 discriminator 4 view .LVU137
 395              		.loc 1 628 92 is_stmt 0 discriminator 4 view .LVU138
 396 0044 01A9     		add	r1, sp, #4
 397              		.loc 1 628 17 discriminator 4 view .LVU139
 398 0046 521A     		subs	r2, r2, r1
 399              	.LVL54:
 400              		.loc 1 628 17 discriminator 4 view .LVU140
 401 0048 084B     		ldr	r3, .L33
 402              	.LVL55:
 403              		.loc 1 628 17 discriminator 4 view .LVU141
 404 004a 5878     		ldrb	r0, [r3, #1]	@ zero_extendqisi2
 405 004c FFF7FEFF 		bl	SEGGER_RTT_ASM_WriteSkipNoLock
 406              	.LVL56:
 629:libraries/SystemView/SYSVIEW/SEGGER_SYSVIEW.c ****   SEGGER_SYSVIEW_ON_EVENT_RECORDED(pPayload - aPacket);
 407              		.loc 1 629 55 is_stmt 1 discriminator 4 view .LVU142
 630:libraries/SystemView/SYSVIEW/SEGGER_SYSVIEW.c ****   if (Status) {
 408              		.loc 1 630 3 discriminator 4 view .LVU143
 409              		.loc 1 630 6 is_stmt 0 discriminator 4 view .LVU144
 410 0050 30B1     		cbz	r0, .L30
 631:libraries/SystemView/SYSVIEW/SEGGER_SYSVIEW.c ****     _SYSVIEW_Globals.LastTxTimeStamp = TimeStamp;
 411              		.loc 1 631 5 is_stmt 1 view .LVU145
 412              		.loc 1 631 38 is_stmt 0 view .LVU146
 413 0052 064B     		ldr	r3, .L33
 414 0054 DC60     		str	r4, [r3, #12]
 632:libraries/SystemView/SYSVIEW/SEGGER_SYSVIEW.c ****     _SYSVIEW_Globals.EnableState--; // EnableState has been 2, will be 1. Always.
 415              		.loc 1 632 5 is_stmt 1 view .LVU147
 416              		.loc 1 632 21 is_stmt 0 view .LVU148
 417 0056 1A78     		ldrb	r2, [r3]	@ zero_extendqisi2
 418              		.loc 1 632 33 view .LVU149
 419 0058 013A     		subs	r2, r2, #1
 420 005a 1A70     		strb	r2, [r3]
 421              	.L25:
 633:libraries/SystemView/SYSVIEW/SEGGER_SYSVIEW.c ****   } else {
 634:libraries/SystemView/SYSVIEW/SEGGER_SYSVIEW.c ****     _SYSVIEW_Globals.DropCount++;
 635:libraries/SystemView/SYSVIEW/SEGGER_SYSVIEW.c ****   }
 636:libraries/SystemView/SYSVIEW/SEGGER_SYSVIEW.c ****   //
 637:libraries/SystemView/SYSVIEW/SEGGER_SYSVIEW.c ****   return Status;
ARM GAS  /tmp/ccyEpLlu.s 			page 20


 638:libraries/SystemView/SYSVIEW/SEGGER_SYSVIEW.c **** }
 422              		.loc 1 638 1 view .LVU150
 423 005c 04B0     		add	sp, sp, #16
 424              	.LCFI4:
 425              		.cfi_remember_state
 426              		.cfi_def_cfa_offset 8
 427              		@ sp needed
 428 005e 10BD     		pop	{r4, pc}
 429              	.LVL57:
 430              	.L30:
 431              	.LCFI5:
 432              		.cfi_restore_state
 634:libraries/SystemView/SYSVIEW/SEGGER_SYSVIEW.c ****   }
 433              		.loc 1 634 5 is_stmt 1 view .LVU151
 634:libraries/SystemView/SYSVIEW/SEGGER_SYSVIEW.c ****   }
 434              		.loc 1 634 21 is_stmt 0 view .LVU152
 435 0060 024A     		ldr	r2, .L33
 436 0062 5369     		ldr	r3, [r2, #20]
 634:libraries/SystemView/SYSVIEW/SEGGER_SYSVIEW.c ****   }
 437              		.loc 1 634 31 view .LVU153
 438 0064 0133     		adds	r3, r3, #1
 439 0066 5361     		str	r3, [r2, #20]
 637:libraries/SystemView/SYSVIEW/SEGGER_SYSVIEW.c **** }
 440              		.loc 1 637 3 is_stmt 1 view .LVU154
 637:libraries/SystemView/SYSVIEW/SEGGER_SYSVIEW.c **** }
 441              		.loc 1 637 10 is_stmt 0 view .LVU155
 442 0068 F8E7     		b	.L25
 443              	.L34:
 444 006a 00BF     		.align	2
 445              	.L33:
 446 006c 00000000 		.word	.LANCHOR0
 447 0070 001000E0 		.word	-536866816
 448              		.cfi_endproc
 449              	.LFE4:
 451              		.section	.rodata.SEGGER_SYSVIEW_Init.str1.4,"aMS",%progbits,1
 452              		.align	2
 453              	.LC0:
 454 0000 53797356 		.ascii	"SysView\000"
 454      69657700 
 455              		.section	.text.SEGGER_SYSVIEW_Init,"ax",%progbits
 456              		.align	1
 457              		.global	SEGGER_SYSVIEW_Init
 458              		.syntax unified
 459              		.thumb
 460              		.thumb_func
 461              		.fpu fpv4-sp-d16
 463              	SEGGER_SYSVIEW_Init:
 464              	.LVL58:
 465              	.LFB11:
 639:libraries/SystemView/SYSVIEW/SEGGER_SYSVIEW.c **** #endif  // (SEGGER_SYSVIEW_POST_MORTEM_MODE != 1)
 640:libraries/SystemView/SYSVIEW/SEGGER_SYSVIEW.c **** 
 641:libraries/SystemView/SYSVIEW/SEGGER_SYSVIEW.c **** /*********************************************************************
 642:libraries/SystemView/SYSVIEW/SEGGER_SYSVIEW.c **** *
 643:libraries/SystemView/SYSVIEW/SEGGER_SYSVIEW.c **** *       _SendSyncInfo()
 644:libraries/SystemView/SYSVIEW/SEGGER_SYSVIEW.c **** *
 645:libraries/SystemView/SYSVIEW/SEGGER_SYSVIEW.c **** *  Function description
 646:libraries/SystemView/SYSVIEW/SEGGER_SYSVIEW.c **** *    Send SystemView sync packet and system information in
ARM GAS  /tmp/ccyEpLlu.s 			page 21


 647:libraries/SystemView/SYSVIEW/SEGGER_SYSVIEW.c **** *    post mortem mode.
 648:libraries/SystemView/SYSVIEW/SEGGER_SYSVIEW.c **** *
 649:libraries/SystemView/SYSVIEW/SEGGER_SYSVIEW.c **** *  Additional information
 650:libraries/SystemView/SYSVIEW/SEGGER_SYSVIEW.c **** *    Sync is 10 * 0x00 without timestamp
 651:libraries/SystemView/SYSVIEW/SEGGER_SYSVIEW.c **** */
 652:libraries/SystemView/SYSVIEW/SEGGER_SYSVIEW.c **** #if (SEGGER_SYSVIEW_POST_MORTEM_MODE == 1)
 653:libraries/SystemView/SYSVIEW/SEGGER_SYSVIEW.c **** static void _SendSyncInfo(void) {
 654:libraries/SystemView/SYSVIEW/SEGGER_SYSVIEW.c ****   //
 655:libraries/SystemView/SYSVIEW/SEGGER_SYSVIEW.c ****   // Add sync packet ( 10 * 0x00)
 656:libraries/SystemView/SYSVIEW/SEGGER_SYSVIEW.c ****   // Send system description
 657:libraries/SystemView/SYSVIEW/SEGGER_SYSVIEW.c ****   // Send system time
 658:libraries/SystemView/SYSVIEW/SEGGER_SYSVIEW.c ****   // Send task list
 659:libraries/SystemView/SYSVIEW/SEGGER_SYSVIEW.c ****   // Send module description
 660:libraries/SystemView/SYSVIEW/SEGGER_SYSVIEW.c ****   // Send module information
 661:libraries/SystemView/SYSVIEW/SEGGER_SYSVIEW.c ****   //
 662:libraries/SystemView/SYSVIEW/SEGGER_SYSVIEW.c ****   SEGGER_RTT_WriteWithOverwriteNoLock(CHANNEL_ID_UP, _abSync, 10);
 663:libraries/SystemView/SYSVIEW/SEGGER_SYSVIEW.c ****   SEGGER_SYSVIEW_ON_EVENT_RECORDED(10);
 664:libraries/SystemView/SYSVIEW/SEGGER_SYSVIEW.c ****   SEGGER_SYSVIEW_RecordVoid(SYSVIEW_EVTID_TRACE_START);
 665:libraries/SystemView/SYSVIEW/SEGGER_SYSVIEW.c ****   {
 666:libraries/SystemView/SYSVIEW/SEGGER_SYSVIEW.c ****     U8* pPayload;
 667:libraries/SystemView/SYSVIEW/SEGGER_SYSVIEW.c ****     U8* pPayloadStart;
 668:libraries/SystemView/SYSVIEW/SEGGER_SYSVIEW.c ****     RECORD_START(SEGGER_SYSVIEW_INFO_SIZE + 4 * SEGGER_SYSVIEW_QUANTA_U32);
 669:libraries/SystemView/SYSVIEW/SEGGER_SYSVIEW.c ****     //
 670:libraries/SystemView/SYSVIEW/SEGGER_SYSVIEW.c ****     pPayload = pPayloadStart;
 671:libraries/SystemView/SYSVIEW/SEGGER_SYSVIEW.c ****     ENCODE_U32(pPayload, _SYSVIEW_Globals.SysFreq);
 672:libraries/SystemView/SYSVIEW/SEGGER_SYSVIEW.c ****     ENCODE_U32(pPayload, _SYSVIEW_Globals.CPUFreq);
 673:libraries/SystemView/SYSVIEW/SEGGER_SYSVIEW.c ****     ENCODE_U32(pPayload, _SYSVIEW_Globals.RAMBaseAddress);
 674:libraries/SystemView/SYSVIEW/SEGGER_SYSVIEW.c ****     ENCODE_U32(pPayload, SEGGER_SYSVIEW_ID_SHIFT);
 675:libraries/SystemView/SYSVIEW/SEGGER_SYSVIEW.c ****     _SendPacket(pPayloadStart, pPayload, SYSVIEW_EVTID_INIT);
 676:libraries/SystemView/SYSVIEW/SEGGER_SYSVIEW.c ****     RECORD_END();
 677:libraries/SystemView/SYSVIEW/SEGGER_SYSVIEW.c ****   }
 678:libraries/SystemView/SYSVIEW/SEGGER_SYSVIEW.c ****   if (_SYSVIEW_Globals.pfSendSysDesc) {
 679:libraries/SystemView/SYSVIEW/SEGGER_SYSVIEW.c ****     _SYSVIEW_Globals.pfSendSysDesc();
 680:libraries/SystemView/SYSVIEW/SEGGER_SYSVIEW.c ****   }
 681:libraries/SystemView/SYSVIEW/SEGGER_SYSVIEW.c ****   SEGGER_SYSVIEW_RecordSystime();
 682:libraries/SystemView/SYSVIEW/SEGGER_SYSVIEW.c ****   SEGGER_SYSVIEW_SendTaskList();
 683:libraries/SystemView/SYSVIEW/SEGGER_SYSVIEW.c ****   if (_NumModules > 0) {
 684:libraries/SystemView/SYSVIEW/SEGGER_SYSVIEW.c ****     int n;
 685:libraries/SystemView/SYSVIEW/SEGGER_SYSVIEW.c ****     SEGGER_SYSVIEW_SendNumModules();
 686:libraries/SystemView/SYSVIEW/SEGGER_SYSVIEW.c ****     for (n = 0; n < _NumModules; n++) {
 687:libraries/SystemView/SYSVIEW/SEGGER_SYSVIEW.c ****       SEGGER_SYSVIEW_SendModule(n);
 688:libraries/SystemView/SYSVIEW/SEGGER_SYSVIEW.c ****     }
 689:libraries/SystemView/SYSVIEW/SEGGER_SYSVIEW.c ****     SEGGER_SYSVIEW_SendModuleDescription();
 690:libraries/SystemView/SYSVIEW/SEGGER_SYSVIEW.c ****   }
 691:libraries/SystemView/SYSVIEW/SEGGER_SYSVIEW.c **** }
 692:libraries/SystemView/SYSVIEW/SEGGER_SYSVIEW.c **** #endif  // (SEGGER_SYSVIEW_POST_MORTEM_MODE == 1)
 693:libraries/SystemView/SYSVIEW/SEGGER_SYSVIEW.c **** 
 694:libraries/SystemView/SYSVIEW/SEGGER_SYSVIEW.c **** /*********************************************************************
 695:libraries/SystemView/SYSVIEW/SEGGER_SYSVIEW.c **** *
 696:libraries/SystemView/SYSVIEW/SEGGER_SYSVIEW.c **** *       _SendPacket()
 697:libraries/SystemView/SYSVIEW/SEGGER_SYSVIEW.c **** *
 698:libraries/SystemView/SYSVIEW/SEGGER_SYSVIEW.c **** *  Function description
 699:libraries/SystemView/SYSVIEW/SEGGER_SYSVIEW.c **** *    Send a SystemView packet over RTT. RTT channel and mode are
 700:libraries/SystemView/SYSVIEW/SEGGER_SYSVIEW.c **** *    configured by macros when the SystemView component is initialized.
 701:libraries/SystemView/SYSVIEW/SEGGER_SYSVIEW.c **** *    This function takes care of maintaining the packet drop count
 702:libraries/SystemView/SYSVIEW/SEGGER_SYSVIEW.c **** *    and sending overflow packets when necessary.
 703:libraries/SystemView/SYSVIEW/SEGGER_SYSVIEW.c **** *    The packet must be passed without Id and Length because this
ARM GAS  /tmp/ccyEpLlu.s 			page 22


 704:libraries/SystemView/SYSVIEW/SEGGER_SYSVIEW.c **** *    function prepends it to the packet before transmission.
 705:libraries/SystemView/SYSVIEW/SEGGER_SYSVIEW.c **** *
 706:libraries/SystemView/SYSVIEW/SEGGER_SYSVIEW.c **** *  Parameters
 707:libraries/SystemView/SYSVIEW/SEGGER_SYSVIEW.c **** *    pStartPacket - Pointer to start of packet payload.
 708:libraries/SystemView/SYSVIEW/SEGGER_SYSVIEW.c **** *                   There must be at least 4 bytes free to prepend Id and Length.
 709:libraries/SystemView/SYSVIEW/SEGGER_SYSVIEW.c **** *    pEndPacket   - Pointer to end of packet payload.
 710:libraries/SystemView/SYSVIEW/SEGGER_SYSVIEW.c **** *    EventId      - Id of the event to send.
 711:libraries/SystemView/SYSVIEW/SEGGER_SYSVIEW.c **** *
 712:libraries/SystemView/SYSVIEW/SEGGER_SYSVIEW.c **** */
 713:libraries/SystemView/SYSVIEW/SEGGER_SYSVIEW.c **** static void _SendPacket(U8* pStartPacket, U8* pEndPacket, unsigned int EventId) {
 714:libraries/SystemView/SYSVIEW/SEGGER_SYSVIEW.c ****   unsigned int  NumBytes;
 715:libraries/SystemView/SYSVIEW/SEGGER_SYSVIEW.c ****   U32           TimeStamp;
 716:libraries/SystemView/SYSVIEW/SEGGER_SYSVIEW.c ****   U32           Delta;
 717:libraries/SystemView/SYSVIEW/SEGGER_SYSVIEW.c **** #if (SEGGER_SYSVIEW_POST_MORTEM_MODE != 1)
 718:libraries/SystemView/SYSVIEW/SEGGER_SYSVIEW.c ****   unsigned int  Status;
 719:libraries/SystemView/SYSVIEW/SEGGER_SYSVIEW.c **** #endif
 720:libraries/SystemView/SYSVIEW/SEGGER_SYSVIEW.c **** 
 721:libraries/SystemView/SYSVIEW/SEGGER_SYSVIEW.c **** #if (SEGGER_SYSVIEW_USE_STATIC_BUFFER == 0)
 722:libraries/SystemView/SYSVIEW/SEGGER_SYSVIEW.c ****   SEGGER_SYSVIEW_LOCK();
 723:libraries/SystemView/SYSVIEW/SEGGER_SYSVIEW.c **** #endif
 724:libraries/SystemView/SYSVIEW/SEGGER_SYSVIEW.c **** 
 725:libraries/SystemView/SYSVIEW/SEGGER_SYSVIEW.c **** #if (SEGGER_SYSVIEW_POST_MORTEM_MODE == 1)
 726:libraries/SystemView/SYSVIEW/SEGGER_SYSVIEW.c ****   if (_SYSVIEW_Globals.EnableState == 0) {
 727:libraries/SystemView/SYSVIEW/SEGGER_SYSVIEW.c ****     goto SendDone;
 728:libraries/SystemView/SYSVIEW/SEGGER_SYSVIEW.c ****   }
 729:libraries/SystemView/SYSVIEW/SEGGER_SYSVIEW.c **** #else
 730:libraries/SystemView/SYSVIEW/SEGGER_SYSVIEW.c ****   if (_SYSVIEW_Globals.EnableState == 1) {  // Enabled, no dropped packets remaining
 731:libraries/SystemView/SYSVIEW/SEGGER_SYSVIEW.c ****     goto Send;
 732:libraries/SystemView/SYSVIEW/SEGGER_SYSVIEW.c ****   }
 733:libraries/SystemView/SYSVIEW/SEGGER_SYSVIEW.c ****   if (_SYSVIEW_Globals.EnableState == 0) {
 734:libraries/SystemView/SYSVIEW/SEGGER_SYSVIEW.c ****     goto SendDone;
 735:libraries/SystemView/SYSVIEW/SEGGER_SYSVIEW.c ****   }
 736:libraries/SystemView/SYSVIEW/SEGGER_SYSVIEW.c ****   //
 737:libraries/SystemView/SYSVIEW/SEGGER_SYSVIEW.c ****   // Handle buffer full situations:
 738:libraries/SystemView/SYSVIEW/SEGGER_SYSVIEW.c ****   // Have packets been dropped before because buffer was full?
 739:libraries/SystemView/SYSVIEW/SEGGER_SYSVIEW.c ****   // In this case try to send and overflow packet.
 740:libraries/SystemView/SYSVIEW/SEGGER_SYSVIEW.c ****   //
 741:libraries/SystemView/SYSVIEW/SEGGER_SYSVIEW.c ****   if (_SYSVIEW_Globals.EnableState == 2) {
 742:libraries/SystemView/SYSVIEW/SEGGER_SYSVIEW.c ****     _TrySendOverflowPacket();
 743:libraries/SystemView/SYSVIEW/SEGGER_SYSVIEW.c ****     if (_SYSVIEW_Globals.EnableState != 1) {
 744:libraries/SystemView/SYSVIEW/SEGGER_SYSVIEW.c ****       goto SendDone;
 745:libraries/SystemView/SYSVIEW/SEGGER_SYSVIEW.c ****     }
 746:libraries/SystemView/SYSVIEW/SEGGER_SYSVIEW.c ****   }
 747:libraries/SystemView/SYSVIEW/SEGGER_SYSVIEW.c **** Send:
 748:libraries/SystemView/SYSVIEW/SEGGER_SYSVIEW.c **** #endif
 749:libraries/SystemView/SYSVIEW/SEGGER_SYSVIEW.c ****   //
 750:libraries/SystemView/SYSVIEW/SEGGER_SYSVIEW.c ****   // Check if event is disabled from being recorded.
 751:libraries/SystemView/SYSVIEW/SEGGER_SYSVIEW.c ****   //
 752:libraries/SystemView/SYSVIEW/SEGGER_SYSVIEW.c ****   if (EventId < 32) {
 753:libraries/SystemView/SYSVIEW/SEGGER_SYSVIEW.c ****     if (_SYSVIEW_Globals.DisabledEvents & ((U32)1u << EventId)) {
 754:libraries/SystemView/SYSVIEW/SEGGER_SYSVIEW.c ****       goto SendDone;
 755:libraries/SystemView/SYSVIEW/SEGGER_SYSVIEW.c ****     }
 756:libraries/SystemView/SYSVIEW/SEGGER_SYSVIEW.c ****   }
 757:libraries/SystemView/SYSVIEW/SEGGER_SYSVIEW.c ****   //
 758:libraries/SystemView/SYSVIEW/SEGGER_SYSVIEW.c ****   // Prepare actual packet.
 759:libraries/SystemView/SYSVIEW/SEGGER_SYSVIEW.c ****   // If it is a known packet, prepend eventId only,
 760:libraries/SystemView/SYSVIEW/SEGGER_SYSVIEW.c ****   // otherwise prepend packet length and eventId.
ARM GAS  /tmp/ccyEpLlu.s 			page 23


 761:libraries/SystemView/SYSVIEW/SEGGER_SYSVIEW.c ****   //
 762:libraries/SystemView/SYSVIEW/SEGGER_SYSVIEW.c ****   if (EventId < 24) {
 763:libraries/SystemView/SYSVIEW/SEGGER_SYSVIEW.c ****     *--pStartPacket = (U8)EventId;
 764:libraries/SystemView/SYSVIEW/SEGGER_SYSVIEW.c ****   } else {
 765:libraries/SystemView/SYSVIEW/SEGGER_SYSVIEW.c ****     //
 766:libraries/SystemView/SYSVIEW/SEGGER_SYSVIEW.c ****     // Get data length and prepend it.
 767:libraries/SystemView/SYSVIEW/SEGGER_SYSVIEW.c ****     //
 768:libraries/SystemView/SYSVIEW/SEGGER_SYSVIEW.c ****     NumBytes = (unsigned int)(pEndPacket - pStartPacket);
 769:libraries/SystemView/SYSVIEW/SEGGER_SYSVIEW.c **** #if SEGGER_SYSVIEW_SUPPORT_LONG_DATA
 770:libraries/SystemView/SYSVIEW/SEGGER_SYSVIEW.c ****     if (NumBytes < 127) {
 771:libraries/SystemView/SYSVIEW/SEGGER_SYSVIEW.c ****       *--pStartPacket = EventId;
 772:libraries/SystemView/SYSVIEW/SEGGER_SYSVIEW.c ****     } else {
 773:libraries/SystemView/SYSVIEW/SEGGER_SYSVIEW.c ****       //
 774:libraries/SystemView/SYSVIEW/SEGGER_SYSVIEW.c ****       // Backwards U32 encode EventId.
 775:libraries/SystemView/SYSVIEW/SEGGER_SYSVIEW.c ****       //
 776:libraries/SystemView/SYSVIEW/SEGGER_SYSVIEW.c ****       if (NumBytes < (1u << 14)) { // Encodes in 2 bytes
 777:libraries/SystemView/SYSVIEW/SEGGER_SYSVIEW.c ****         *--pStartPacket = (U8)(NumBytes >>  7);
 778:libraries/SystemView/SYSVIEW/SEGGER_SYSVIEW.c ****         *--pStartPacket = (U8)(NumBytes | 0x80);
 779:libraries/SystemView/SYSVIEW/SEGGER_SYSVIEW.c ****       } else if (NumBytes < (1u << 21)) {    // Encodes in 3 bytes
 780:libraries/SystemView/SYSVIEW/SEGGER_SYSVIEW.c ****         *--pStartPacket = (U8)(NumBytes >> 14);
 781:libraries/SystemView/SYSVIEW/SEGGER_SYSVIEW.c ****         *--pStartPacket = (U8)((NumBytes >>  7) | 0x80);
 782:libraries/SystemView/SYSVIEW/SEGGER_SYSVIEW.c ****         *--pStartPacket = (U8)(NumBytes | 0x80);
 783:libraries/SystemView/SYSVIEW/SEGGER_SYSVIEW.c ****       } else if (NumBytes < (1u << 28)) {    // Encodes in 4 bytes
 784:libraries/SystemView/SYSVIEW/SEGGER_SYSVIEW.c ****         *--pStartPacket = (U8)(NumBytes >> 21);
 785:libraries/SystemView/SYSVIEW/SEGGER_SYSVIEW.c ****         *--pStartPacket = (U8)((NumBytes >> 14) | 0x80);
 786:libraries/SystemView/SYSVIEW/SEGGER_SYSVIEW.c ****         *--pStartPacket = (U8)((NumBytes >>  7) | 0x80);
 787:libraries/SystemView/SYSVIEW/SEGGER_SYSVIEW.c ****         *--pStartPacket = (U8)(NumBytes | 0x80);
 788:libraries/SystemView/SYSVIEW/SEGGER_SYSVIEW.c ****       } else {                              // Encodes in 5 bytes
 789:libraries/SystemView/SYSVIEW/SEGGER_SYSVIEW.c ****         *--pStartPacket = (U8)(NumBytes >> 28);
 790:libraries/SystemView/SYSVIEW/SEGGER_SYSVIEW.c ****         *--pStartPacket = (U8)((NumBytes >> 21) | 0x80);
 791:libraries/SystemView/SYSVIEW/SEGGER_SYSVIEW.c ****         *--pStartPacket = (U8)((NumBytes >> 14) | 0x80);
 792:libraries/SystemView/SYSVIEW/SEGGER_SYSVIEW.c ****         *--pStartPacket = (U8)((NumBytes >>  7) | 0x80);
 793:libraries/SystemView/SYSVIEW/SEGGER_SYSVIEW.c ****         *--pStartPacket = (U8)(NumBytes | 0x80);
 794:libraries/SystemView/SYSVIEW/SEGGER_SYSVIEW.c ****       }
 795:libraries/SystemView/SYSVIEW/SEGGER_SYSVIEW.c ****     }
 796:libraries/SystemView/SYSVIEW/SEGGER_SYSVIEW.c **** #else
 797:libraries/SystemView/SYSVIEW/SEGGER_SYSVIEW.c ****     if (NumBytes > 127) {
 798:libraries/SystemView/SYSVIEW/SEGGER_SYSVIEW.c ****       *--pStartPacket = (U8)(NumBytes >> 7);
 799:libraries/SystemView/SYSVIEW/SEGGER_SYSVIEW.c ****       *--pStartPacket = (U8)(NumBytes | 0x80);
 800:libraries/SystemView/SYSVIEW/SEGGER_SYSVIEW.c ****     } else {
 801:libraries/SystemView/SYSVIEW/SEGGER_SYSVIEW.c ****       *--pStartPacket = (U8)NumBytes;
 802:libraries/SystemView/SYSVIEW/SEGGER_SYSVIEW.c ****     }
 803:libraries/SystemView/SYSVIEW/SEGGER_SYSVIEW.c **** #endif
 804:libraries/SystemView/SYSVIEW/SEGGER_SYSVIEW.c ****     //
 805:libraries/SystemView/SYSVIEW/SEGGER_SYSVIEW.c ****     // Prepend EventId.
 806:libraries/SystemView/SYSVIEW/SEGGER_SYSVIEW.c ****     //
 807:libraries/SystemView/SYSVIEW/SEGGER_SYSVIEW.c **** #if SEGGER_SYSVIEW_SUPPORT_LONG_ID
 808:libraries/SystemView/SYSVIEW/SEGGER_SYSVIEW.c ****     if (EventId < 127) {
 809:libraries/SystemView/SYSVIEW/SEGGER_SYSVIEW.c ****       *--pStartPacket = (U8)EventId;
 810:libraries/SystemView/SYSVIEW/SEGGER_SYSVIEW.c ****     } else {
 811:libraries/SystemView/SYSVIEW/SEGGER_SYSVIEW.c ****       //
 812:libraries/SystemView/SYSVIEW/SEGGER_SYSVIEW.c ****       // Backwards U32 encode EventId.
 813:libraries/SystemView/SYSVIEW/SEGGER_SYSVIEW.c ****       //
 814:libraries/SystemView/SYSVIEW/SEGGER_SYSVIEW.c ****       if (EventId < (1u << 14)) { // Encodes in 2 bytes
 815:libraries/SystemView/SYSVIEW/SEGGER_SYSVIEW.c ****         *--pStartPacket = (U8)(EventId >>  7);
 816:libraries/SystemView/SYSVIEW/SEGGER_SYSVIEW.c ****         *--pStartPacket = (U8)(EventId | 0x80);
 817:libraries/SystemView/SYSVIEW/SEGGER_SYSVIEW.c ****       } else if (EventId < (1u << 21)) {    // Encodes in 3 bytes
ARM GAS  /tmp/ccyEpLlu.s 			page 24


 818:libraries/SystemView/SYSVIEW/SEGGER_SYSVIEW.c ****         *--pStartPacket = (U8)(EventId >> 14);
 819:libraries/SystemView/SYSVIEW/SEGGER_SYSVIEW.c ****         *--pStartPacket = (U8)((EventId >>  7) | 0x80);
 820:libraries/SystemView/SYSVIEW/SEGGER_SYSVIEW.c ****         *--pStartPacket = (U8)(EventId | 0x80);
 821:libraries/SystemView/SYSVIEW/SEGGER_SYSVIEW.c ****       } else if (EventId < (1u << 28)) {    // Encodes in 4 bytes
 822:libraries/SystemView/SYSVIEW/SEGGER_SYSVIEW.c ****         *--pStartPacket = (U8)(EventId >> 21);
 823:libraries/SystemView/SYSVIEW/SEGGER_SYSVIEW.c ****         *--pStartPacket = (U8)((EventId >> 14) | 0x80);
 824:libraries/SystemView/SYSVIEW/SEGGER_SYSVIEW.c ****         *--pStartPacket = (U8)((EventId >>  7) | 0x80);
 825:libraries/SystemView/SYSVIEW/SEGGER_SYSVIEW.c ****         *--pStartPacket = (U8)(EventId | 0x80);
 826:libraries/SystemView/SYSVIEW/SEGGER_SYSVIEW.c ****       } else {                              // Encodes in 5 bytes
 827:libraries/SystemView/SYSVIEW/SEGGER_SYSVIEW.c ****         *--pStartPacket = (U8)(EventId >> 28);
 828:libraries/SystemView/SYSVIEW/SEGGER_SYSVIEW.c ****         *--pStartPacket = (U8)((EventId >> 21) | 0x80);
 829:libraries/SystemView/SYSVIEW/SEGGER_SYSVIEW.c ****         *--pStartPacket = (U8)((EventId >> 14) | 0x80);
 830:libraries/SystemView/SYSVIEW/SEGGER_SYSVIEW.c ****         *--pStartPacket = (U8)((EventId >>  7) | 0x80);
 831:libraries/SystemView/SYSVIEW/SEGGER_SYSVIEW.c ****         *--pStartPacket = (U8)(EventId | 0x80);
 832:libraries/SystemView/SYSVIEW/SEGGER_SYSVIEW.c ****       }
 833:libraries/SystemView/SYSVIEW/SEGGER_SYSVIEW.c ****     }
 834:libraries/SystemView/SYSVIEW/SEGGER_SYSVIEW.c **** #else
 835:libraries/SystemView/SYSVIEW/SEGGER_SYSVIEW.c ****     if (EventId > 127) {
 836:libraries/SystemView/SYSVIEW/SEGGER_SYSVIEW.c ****       *--pStartPacket = (U8)(EventId >> 7);
 837:libraries/SystemView/SYSVIEW/SEGGER_SYSVIEW.c ****       *--pStartPacket = (U8)(EventId | 0x80);
 838:libraries/SystemView/SYSVIEW/SEGGER_SYSVIEW.c ****     } else {
 839:libraries/SystemView/SYSVIEW/SEGGER_SYSVIEW.c ****       *--pStartPacket = (U8)EventId;
 840:libraries/SystemView/SYSVIEW/SEGGER_SYSVIEW.c ****     }
 841:libraries/SystemView/SYSVIEW/SEGGER_SYSVIEW.c **** #endif
 842:libraries/SystemView/SYSVIEW/SEGGER_SYSVIEW.c ****   }
 843:libraries/SystemView/SYSVIEW/SEGGER_SYSVIEW.c ****   //
 844:libraries/SystemView/SYSVIEW/SEGGER_SYSVIEW.c ****   // Compute time stamp delta and append it to packet.
 845:libraries/SystemView/SYSVIEW/SEGGER_SYSVIEW.c ****   //
 846:libraries/SystemView/SYSVIEW/SEGGER_SYSVIEW.c ****   TimeStamp  = SEGGER_SYSVIEW_GET_TIMESTAMP();
 847:libraries/SystemView/SYSVIEW/SEGGER_SYSVIEW.c ****   Delta = TimeStamp - _SYSVIEW_Globals.LastTxTimeStamp;
 848:libraries/SystemView/SYSVIEW/SEGGER_SYSVIEW.c ****   MAKE_DELTA_32BIT(Delta);
 849:libraries/SystemView/SYSVIEW/SEGGER_SYSVIEW.c ****   ENCODE_U32(pEndPacket, Delta);
 850:libraries/SystemView/SYSVIEW/SEGGER_SYSVIEW.c **** #if (SEGGER_SYSVIEW_POST_MORTEM_MODE == 1)
 851:libraries/SystemView/SYSVIEW/SEGGER_SYSVIEW.c ****   //
 852:libraries/SystemView/SYSVIEW/SEGGER_SYSVIEW.c ****   // Store packet in RTT buffer by overwriting old data and update time stamp
 853:libraries/SystemView/SYSVIEW/SEGGER_SYSVIEW.c ****   //
 854:libraries/SystemView/SYSVIEW/SEGGER_SYSVIEW.c ****   SEGGER_RTT_WriteWithOverwriteNoLock(CHANNEL_ID_UP, pStartPacket, pEndPacket - pStartPacket);
 855:libraries/SystemView/SYSVIEW/SEGGER_SYSVIEW.c ****   SEGGER_SYSVIEW_ON_EVENT_RECORDED(pEndPacket - pStartPacket);
 856:libraries/SystemView/SYSVIEW/SEGGER_SYSVIEW.c ****   _SYSVIEW_Globals.LastTxTimeStamp = TimeStamp;
 857:libraries/SystemView/SYSVIEW/SEGGER_SYSVIEW.c **** #else
 858:libraries/SystemView/SYSVIEW/SEGGER_SYSVIEW.c ****   //
 859:libraries/SystemView/SYSVIEW/SEGGER_SYSVIEW.c ****   // Try to store packet in RTT buffer and update time stamp when this was successful
 860:libraries/SystemView/SYSVIEW/SEGGER_SYSVIEW.c ****   //
 861:libraries/SystemView/SYSVIEW/SEGGER_SYSVIEW.c ****   Status = SEGGER_RTT_WriteSkipNoLock(CHANNEL_ID_UP, pStartPacket, (unsigned int)(pEndPacket - pSta
 862:libraries/SystemView/SYSVIEW/SEGGER_SYSVIEW.c ****   SEGGER_SYSVIEW_ON_EVENT_RECORDED(pEndPacket - pStartPacket);
 863:libraries/SystemView/SYSVIEW/SEGGER_SYSVIEW.c ****   if (Status) {
 864:libraries/SystemView/SYSVIEW/SEGGER_SYSVIEW.c ****     _SYSVIEW_Globals.LastTxTimeStamp = TimeStamp;
 865:libraries/SystemView/SYSVIEW/SEGGER_SYSVIEW.c ****   } else {
 866:libraries/SystemView/SYSVIEW/SEGGER_SYSVIEW.c ****     _SYSVIEW_Globals.EnableState++; // EnableState has been 1, will be 2. Always.
 867:libraries/SystemView/SYSVIEW/SEGGER_SYSVIEW.c ****   }
 868:libraries/SystemView/SYSVIEW/SEGGER_SYSVIEW.c **** #endif
 869:libraries/SystemView/SYSVIEW/SEGGER_SYSVIEW.c **** 
 870:libraries/SystemView/SYSVIEW/SEGGER_SYSVIEW.c **** #if (SEGGER_SYSVIEW_POST_MORTEM_MODE == 1)
 871:libraries/SystemView/SYSVIEW/SEGGER_SYSVIEW.c ****   //
 872:libraries/SystemView/SYSVIEW/SEGGER_SYSVIEW.c ****   // Add sync and system information periodically if we are in post mortem mode
 873:libraries/SystemView/SYSVIEW/SEGGER_SYSVIEW.c ****   //
 874:libraries/SystemView/SYSVIEW/SEGGER_SYSVIEW.c ****   if (_SYSVIEW_Globals.RecursionCnt == 0) {   // Avoid uncontrolled nesting. This way, this routine
ARM GAS  /tmp/ccyEpLlu.s 			page 25


 875:libraries/SystemView/SYSVIEW/SEGGER_SYSVIEW.c ****     _SYSVIEW_Globals.RecursionCnt = 1;
 876:libraries/SystemView/SYSVIEW/SEGGER_SYSVIEW.c ****     if (_SYSVIEW_Globals.PacketCount++ & (1 << SEGGER_SYSVIEW_SYNC_PERIOD_SHIFT)) {
 877:libraries/SystemView/SYSVIEW/SEGGER_SYSVIEW.c ****       _SendSyncInfo();
 878:libraries/SystemView/SYSVIEW/SEGGER_SYSVIEW.c ****       _SYSVIEW_Globals.PacketCount = 0;
 879:libraries/SystemView/SYSVIEW/SEGGER_SYSVIEW.c ****     }
 880:libraries/SystemView/SYSVIEW/SEGGER_SYSVIEW.c ****     _SYSVIEW_Globals.RecursionCnt = 0;
 881:libraries/SystemView/SYSVIEW/SEGGER_SYSVIEW.c ****   }
 882:libraries/SystemView/SYSVIEW/SEGGER_SYSVIEW.c **** SendDone:
 883:libraries/SystemView/SYSVIEW/SEGGER_SYSVIEW.c ****   ; // Avoid "label at end of compound statement" error when using static buffer
 884:libraries/SystemView/SYSVIEW/SEGGER_SYSVIEW.c **** #else
 885:libraries/SystemView/SYSVIEW/SEGGER_SYSVIEW.c **** SendDone:
 886:libraries/SystemView/SYSVIEW/SEGGER_SYSVIEW.c ****   //
 887:libraries/SystemView/SYSVIEW/SEGGER_SYSVIEW.c ****   // Check if host is sending data which needs to be processed.
 888:libraries/SystemView/SYSVIEW/SEGGER_SYSVIEW.c ****   // Note that since this code is called for every packet, it is very time critical, so we do
 889:libraries/SystemView/SYSVIEW/SEGGER_SYSVIEW.c ****   // only what is really needed here, which is checking if there is any data
 890:libraries/SystemView/SYSVIEW/SEGGER_SYSVIEW.c ****   //
 891:libraries/SystemView/SYSVIEW/SEGGER_SYSVIEW.c ****   if (SEGGER_RTT_HASDATA(CHANNEL_ID_DOWN)) {
 892:libraries/SystemView/SYSVIEW/SEGGER_SYSVIEW.c ****     if (_SYSVIEW_Globals.RecursionCnt == 0) {   // Avoid uncontrolled nesting. This way, this routi
 893:libraries/SystemView/SYSVIEW/SEGGER_SYSVIEW.c ****       _SYSVIEW_Globals.RecursionCnt = 1;
 894:libraries/SystemView/SYSVIEW/SEGGER_SYSVIEW.c ****       _HandleIncomingPacket();
 895:libraries/SystemView/SYSVIEW/SEGGER_SYSVIEW.c ****       _SYSVIEW_Globals.RecursionCnt = 0;
 896:libraries/SystemView/SYSVIEW/SEGGER_SYSVIEW.c ****     }
 897:libraries/SystemView/SYSVIEW/SEGGER_SYSVIEW.c ****   }
 898:libraries/SystemView/SYSVIEW/SEGGER_SYSVIEW.c **** #endif
 899:libraries/SystemView/SYSVIEW/SEGGER_SYSVIEW.c ****   //
 900:libraries/SystemView/SYSVIEW/SEGGER_SYSVIEW.c **** #if (SEGGER_SYSVIEW_USE_STATIC_BUFFER == 0)
 901:libraries/SystemView/SYSVIEW/SEGGER_SYSVIEW.c ****   SEGGER_SYSVIEW_UNLOCK();  // We are done. Unlock and return
 902:libraries/SystemView/SYSVIEW/SEGGER_SYSVIEW.c **** #endif
 903:libraries/SystemView/SYSVIEW/SEGGER_SYSVIEW.c **** }
 904:libraries/SystemView/SYSVIEW/SEGGER_SYSVIEW.c **** 
 905:libraries/SystemView/SYSVIEW/SEGGER_SYSVIEW.c **** #ifndef SEGGER_SYSVIEW_EXCLUDE_PRINTF // Define in project to avoid warnings about variable paramet
 906:libraries/SystemView/SYSVIEW/SEGGER_SYSVIEW.c **** /*********************************************************************
 907:libraries/SystemView/SYSVIEW/SEGGER_SYSVIEW.c **** *
 908:libraries/SystemView/SYSVIEW/SEGGER_SYSVIEW.c **** *       _VPrintHost()
 909:libraries/SystemView/SYSVIEW/SEGGER_SYSVIEW.c **** *
 910:libraries/SystemView/SYSVIEW/SEGGER_SYSVIEW.c **** *  Function description
 911:libraries/SystemView/SYSVIEW/SEGGER_SYSVIEW.c **** *    Send a format string and its parameters to the host.
 912:libraries/SystemView/SYSVIEW/SEGGER_SYSVIEW.c **** *
 913:libraries/SystemView/SYSVIEW/SEGGER_SYSVIEW.c **** *  Parameters
 914:libraries/SystemView/SYSVIEW/SEGGER_SYSVIEW.c **** *    s            Pointer to format string.
 915:libraries/SystemView/SYSVIEW/SEGGER_SYSVIEW.c **** *    Options      Options to be sent to the host.
 916:libraries/SystemView/SYSVIEW/SEGGER_SYSVIEW.c **** *    pParamList   Pointer to the list of arguments for the format string.
 917:libraries/SystemView/SYSVIEW/SEGGER_SYSVIEW.c **** */
 918:libraries/SystemView/SYSVIEW/SEGGER_SYSVIEW.c **** static int _VPrintHost(const char* s, U32 Options, va_list* pParamList) {
 919:libraries/SystemView/SYSVIEW/SEGGER_SYSVIEW.c ****   U32         aParas[SEGGER_SYSVIEW_MAX_ARGUMENTS];
 920:libraries/SystemView/SYSVIEW/SEGGER_SYSVIEW.c ****   U32*        pParas;
 921:libraries/SystemView/SYSVIEW/SEGGER_SYSVIEW.c ****   U32         NumArguments;
 922:libraries/SystemView/SYSVIEW/SEGGER_SYSVIEW.c ****   const char* p;
 923:libraries/SystemView/SYSVIEW/SEGGER_SYSVIEW.c ****   char        c;
 924:libraries/SystemView/SYSVIEW/SEGGER_SYSVIEW.c ****   U8*         pPayload;
 925:libraries/SystemView/SYSVIEW/SEGGER_SYSVIEW.c ****   U8*         pPayloadStart;
 926:libraries/SystemView/SYSVIEW/SEGGER_SYSVIEW.c **** #if SEGGER_SYSVIEW_PRINTF_IMPLICIT_FORMAT
 927:libraries/SystemView/SYSVIEW/SEGGER_SYSVIEW.c ****   U8 HasNonScalar;
 928:libraries/SystemView/SYSVIEW/SEGGER_SYSVIEW.c **** 
 929:libraries/SystemView/SYSVIEW/SEGGER_SYSVIEW.c ****   HasNonScalar = 0;
 930:libraries/SystemView/SYSVIEW/SEGGER_SYSVIEW.c **** #endif
 931:libraries/SystemView/SYSVIEW/SEGGER_SYSVIEW.c ****   //
ARM GAS  /tmp/ccyEpLlu.s 			page 26


 932:libraries/SystemView/SYSVIEW/SEGGER_SYSVIEW.c ****   // Count number of arguments by counting '%' characters in string.
 933:libraries/SystemView/SYSVIEW/SEGGER_SYSVIEW.c ****   // If enabled, check for non-scalar modifier flags to format string on the target.
 934:libraries/SystemView/SYSVIEW/SEGGER_SYSVIEW.c ****   //
 935:libraries/SystemView/SYSVIEW/SEGGER_SYSVIEW.c ****   p = s;
 936:libraries/SystemView/SYSVIEW/SEGGER_SYSVIEW.c ****   NumArguments = 0;
 937:libraries/SystemView/SYSVIEW/SEGGER_SYSVIEW.c ****   for (;;) {
 938:libraries/SystemView/SYSVIEW/SEGGER_SYSVIEW.c ****     c = *p++;
 939:libraries/SystemView/SYSVIEW/SEGGER_SYSVIEW.c ****     if (c == 0) {
 940:libraries/SystemView/SYSVIEW/SEGGER_SYSVIEW.c ****       break;
 941:libraries/SystemView/SYSVIEW/SEGGER_SYSVIEW.c ****     }
 942:libraries/SystemView/SYSVIEW/SEGGER_SYSVIEW.c ****     if (c == '%') {
 943:libraries/SystemView/SYSVIEW/SEGGER_SYSVIEW.c ****       c = *p;
 944:libraries/SystemView/SYSVIEW/SEGGER_SYSVIEW.c **** #if SEGGER_SYSVIEW_PRINTF_IMPLICIT_FORMAT == 0
 945:libraries/SystemView/SYSVIEW/SEGGER_SYSVIEW.c ****       aParas[NumArguments++] = (U32)(va_arg(*pParamList, int));
 946:libraries/SystemView/SYSVIEW/SEGGER_SYSVIEW.c ****       if (NumArguments == SEGGER_SYSVIEW_MAX_ARGUMENTS) {
 947:libraries/SystemView/SYSVIEW/SEGGER_SYSVIEW.c ****         break;
 948:libraries/SystemView/SYSVIEW/SEGGER_SYSVIEW.c ****       }
 949:libraries/SystemView/SYSVIEW/SEGGER_SYSVIEW.c **** #else
 950:libraries/SystemView/SYSVIEW/SEGGER_SYSVIEW.c ****       if (c == 's') {
 951:libraries/SystemView/SYSVIEW/SEGGER_SYSVIEW.c ****         HasNonScalar = 1;
 952:libraries/SystemView/SYSVIEW/SEGGER_SYSVIEW.c ****         break;
 953:libraries/SystemView/SYSVIEW/SEGGER_SYSVIEW.c ****       } else {
 954:libraries/SystemView/SYSVIEW/SEGGER_SYSVIEW.c ****         aParas[NumArguments++] = (U32)(va_arg(*pParamList, int));
 955:libraries/SystemView/SYSVIEW/SEGGER_SYSVIEW.c ****         if (NumArguments == SEGGER_SYSVIEW_MAX_ARGUMENTS) {
 956:libraries/SystemView/SYSVIEW/SEGGER_SYSVIEW.c ****           break;
 957:libraries/SystemView/SYSVIEW/SEGGER_SYSVIEW.c ****         }
 958:libraries/SystemView/SYSVIEW/SEGGER_SYSVIEW.c ****       }
 959:libraries/SystemView/SYSVIEW/SEGGER_SYSVIEW.c **** #endif
 960:libraries/SystemView/SYSVIEW/SEGGER_SYSVIEW.c ****     }
 961:libraries/SystemView/SYSVIEW/SEGGER_SYSVIEW.c ****   }
 962:libraries/SystemView/SYSVIEW/SEGGER_SYSVIEW.c **** 
 963:libraries/SystemView/SYSVIEW/SEGGER_SYSVIEW.c **** #if SEGGER_SYSVIEW_PRINTF_IMPLICIT_FORMAT
 964:libraries/SystemView/SYSVIEW/SEGGER_SYSVIEW.c ****   if (HasNonScalar) {
 965:libraries/SystemView/SYSVIEW/SEGGER_SYSVIEW.c ****     return -1;
 966:libraries/SystemView/SYSVIEW/SEGGER_SYSVIEW.c ****   }
 967:libraries/SystemView/SYSVIEW/SEGGER_SYSVIEW.c **** #endif
 968:libraries/SystemView/SYSVIEW/SEGGER_SYSVIEW.c ****   //
 969:libraries/SystemView/SYSVIEW/SEGGER_SYSVIEW.c ****   // Send string and parameters to host
 970:libraries/SystemView/SYSVIEW/SEGGER_SYSVIEW.c ****   //
 971:libraries/SystemView/SYSVIEW/SEGGER_SYSVIEW.c ****   {
 972:libraries/SystemView/SYSVIEW/SEGGER_SYSVIEW.c ****     RECORD_START(SEGGER_SYSVIEW_INFO_SIZE + SEGGER_SYSVIEW_MAX_STRING_LEN + 2 * SEGGER_SYSVIEW_QUAN
 973:libraries/SystemView/SYSVIEW/SEGGER_SYSVIEW.c ****     pPayload = _EncodeStr(pPayloadStart, s, SEGGER_SYSVIEW_MAX_STRING_LEN);
 974:libraries/SystemView/SYSVIEW/SEGGER_SYSVIEW.c ****     ENCODE_U32(pPayload, Options);
 975:libraries/SystemView/SYSVIEW/SEGGER_SYSVIEW.c ****     ENCODE_U32(pPayload, NumArguments);
 976:libraries/SystemView/SYSVIEW/SEGGER_SYSVIEW.c ****     pParas = aParas;
 977:libraries/SystemView/SYSVIEW/SEGGER_SYSVIEW.c ****     while (NumArguments--) {
 978:libraries/SystemView/SYSVIEW/SEGGER_SYSVIEW.c ****       ENCODE_U32(pPayload, (*pParas));
 979:libraries/SystemView/SYSVIEW/SEGGER_SYSVIEW.c ****       pParas++;
 980:libraries/SystemView/SYSVIEW/SEGGER_SYSVIEW.c ****     }
 981:libraries/SystemView/SYSVIEW/SEGGER_SYSVIEW.c ****     _SendPacket(pPayloadStart, pPayload, SYSVIEW_EVTID_PRINT_FORMATTED);
 982:libraries/SystemView/SYSVIEW/SEGGER_SYSVIEW.c ****     RECORD_END();
 983:libraries/SystemView/SYSVIEW/SEGGER_SYSVIEW.c ****   }
 984:libraries/SystemView/SYSVIEW/SEGGER_SYSVIEW.c ****   return 0;
 985:libraries/SystemView/SYSVIEW/SEGGER_SYSVIEW.c **** }
 986:libraries/SystemView/SYSVIEW/SEGGER_SYSVIEW.c **** 
 987:libraries/SystemView/SYSVIEW/SEGGER_SYSVIEW.c **** /*********************************************************************
 988:libraries/SystemView/SYSVIEW/SEGGER_SYSVIEW.c **** *
ARM GAS  /tmp/ccyEpLlu.s 			page 27


 989:libraries/SystemView/SYSVIEW/SEGGER_SYSVIEW.c **** *       _StoreChar()
 990:libraries/SystemView/SYSVIEW/SEGGER_SYSVIEW.c **** *
 991:libraries/SystemView/SYSVIEW/SEGGER_SYSVIEW.c **** *  Function description
 992:libraries/SystemView/SYSVIEW/SEGGER_SYSVIEW.c **** *    Stores a character in the printf-buffer and sends the buffer when
 993:libraries/SystemView/SYSVIEW/SEGGER_SYSVIEW.c **** *     it is filled.
 994:libraries/SystemView/SYSVIEW/SEGGER_SYSVIEW.c **** *
 995:libraries/SystemView/SYSVIEW/SEGGER_SYSVIEW.c **** *  Parameters
 996:libraries/SystemView/SYSVIEW/SEGGER_SYSVIEW.c **** *    p            Pointer to the buffer description.
 997:libraries/SystemView/SYSVIEW/SEGGER_SYSVIEW.c **** *    c            Character to be printed.
 998:libraries/SystemView/SYSVIEW/SEGGER_SYSVIEW.c **** */
 999:libraries/SystemView/SYSVIEW/SEGGER_SYSVIEW.c **** static void _StoreChar(SEGGER_SYSVIEW_PRINTF_DESC * p, char c) {
1000:libraries/SystemView/SYSVIEW/SEGGER_SYSVIEW.c ****   unsigned int  Cnt;
1001:libraries/SystemView/SYSVIEW/SEGGER_SYSVIEW.c ****   U8*           pPayload;
1002:libraries/SystemView/SYSVIEW/SEGGER_SYSVIEW.c ****   U32           Options;
1003:libraries/SystemView/SYSVIEW/SEGGER_SYSVIEW.c **** 
1004:libraries/SystemView/SYSVIEW/SEGGER_SYSVIEW.c ****   Cnt = p->Cnt;
1005:libraries/SystemView/SYSVIEW/SEGGER_SYSVIEW.c ****   if ((Cnt + 1u) <= SEGGER_SYSVIEW_MAX_STRING_LEN) {
1006:libraries/SystemView/SYSVIEW/SEGGER_SYSVIEW.c ****     *(p->pPayload++) = (U8)c;
1007:libraries/SystemView/SYSVIEW/SEGGER_SYSVIEW.c ****     p->Cnt = Cnt + 1u;
1008:libraries/SystemView/SYSVIEW/SEGGER_SYSVIEW.c ****   }
1009:libraries/SystemView/SYSVIEW/SEGGER_SYSVIEW.c ****   //
1010:libraries/SystemView/SYSVIEW/SEGGER_SYSVIEW.c ****   // Write part of string, when the buffer is full
1011:libraries/SystemView/SYSVIEW/SEGGER_SYSVIEW.c ****   //
1012:libraries/SystemView/SYSVIEW/SEGGER_SYSVIEW.c ****   if (p->Cnt == SEGGER_SYSVIEW_MAX_STRING_LEN) {
1013:libraries/SystemView/SYSVIEW/SEGGER_SYSVIEW.c ****     *(p->pPayloadStart) = (U8)p->Cnt;
1014:libraries/SystemView/SYSVIEW/SEGGER_SYSVIEW.c ****     pPayload = p->pPayload;
1015:libraries/SystemView/SYSVIEW/SEGGER_SYSVIEW.c ****     Options = p->Options;
1016:libraries/SystemView/SYSVIEW/SEGGER_SYSVIEW.c ****     ENCODE_U32(pPayload, Options);
1017:libraries/SystemView/SYSVIEW/SEGGER_SYSVIEW.c ****     ENCODE_U32(pPayload, 0);
1018:libraries/SystemView/SYSVIEW/SEGGER_SYSVIEW.c ****     _SendPacket(p->pPayloadStart, pPayload, SYSVIEW_EVTID_PRINT_FORMATTED);
1019:libraries/SystemView/SYSVIEW/SEGGER_SYSVIEW.c ****     p->pPayloadStart = _PreparePacket(p->pBuffer);
1020:libraries/SystemView/SYSVIEW/SEGGER_SYSVIEW.c ****     p->pPayload = p->pPayloadStart + 1u;
1021:libraries/SystemView/SYSVIEW/SEGGER_SYSVIEW.c ****     p->Cnt = 0u;
1022:libraries/SystemView/SYSVIEW/SEGGER_SYSVIEW.c ****   }
1023:libraries/SystemView/SYSVIEW/SEGGER_SYSVIEW.c **** }
1024:libraries/SystemView/SYSVIEW/SEGGER_SYSVIEW.c **** 
1025:libraries/SystemView/SYSVIEW/SEGGER_SYSVIEW.c **** /*********************************************************************
1026:libraries/SystemView/SYSVIEW/SEGGER_SYSVIEW.c **** *
1027:libraries/SystemView/SYSVIEW/SEGGER_SYSVIEW.c **** *       _PrintUnsigned()
1028:libraries/SystemView/SYSVIEW/SEGGER_SYSVIEW.c **** *
1029:libraries/SystemView/SYSVIEW/SEGGER_SYSVIEW.c **** *  Function description
1030:libraries/SystemView/SYSVIEW/SEGGER_SYSVIEW.c **** *    Print an unsigned integer with the given formatting into the
1031:libraries/SystemView/SYSVIEW/SEGGER_SYSVIEW.c **** *     formatted string.
1032:libraries/SystemView/SYSVIEW/SEGGER_SYSVIEW.c **** *
1033:libraries/SystemView/SYSVIEW/SEGGER_SYSVIEW.c **** *  Parameters
1034:libraries/SystemView/SYSVIEW/SEGGER_SYSVIEW.c **** *    pBufferDesc  Pointer to the buffer description.
1035:libraries/SystemView/SYSVIEW/SEGGER_SYSVIEW.c **** *    v            Value to be printed.
1036:libraries/SystemView/SYSVIEW/SEGGER_SYSVIEW.c **** *    Base         Base of the value.
1037:libraries/SystemView/SYSVIEW/SEGGER_SYSVIEW.c **** *    NumDigits    Number of digits to be printed.
1038:libraries/SystemView/SYSVIEW/SEGGER_SYSVIEW.c **** *    FieldWidth   Width of the printed field.
1039:libraries/SystemView/SYSVIEW/SEGGER_SYSVIEW.c **** *    FormatFlags  Flags for formatting the value.
1040:libraries/SystemView/SYSVIEW/SEGGER_SYSVIEW.c **** */
1041:libraries/SystemView/SYSVIEW/SEGGER_SYSVIEW.c **** static void _PrintUnsigned(SEGGER_SYSVIEW_PRINTF_DESC * pBufferDesc, unsigned int v, unsigned int B
1042:libraries/SystemView/SYSVIEW/SEGGER_SYSVIEW.c ****   static const char _aV2C[16] = {'0', '1', '2', '3', '4', '5', '6', '7', '8', '9', 'A', 'B', 'C', '
1043:libraries/SystemView/SYSVIEW/SEGGER_SYSVIEW.c ****   unsigned int      Div;
1044:libraries/SystemView/SYSVIEW/SEGGER_SYSVIEW.c ****   unsigned int      Digit;
1045:libraries/SystemView/SYSVIEW/SEGGER_SYSVIEW.c ****   unsigned int      Number;
ARM GAS  /tmp/ccyEpLlu.s 			page 28


1046:libraries/SystemView/SYSVIEW/SEGGER_SYSVIEW.c ****   unsigned int      Width;
1047:libraries/SystemView/SYSVIEW/SEGGER_SYSVIEW.c ****   char              c;
1048:libraries/SystemView/SYSVIEW/SEGGER_SYSVIEW.c **** 
1049:libraries/SystemView/SYSVIEW/SEGGER_SYSVIEW.c ****   Number = v;
1050:libraries/SystemView/SYSVIEW/SEGGER_SYSVIEW.c ****   Digit = 1u;
1051:libraries/SystemView/SYSVIEW/SEGGER_SYSVIEW.c ****   //
1052:libraries/SystemView/SYSVIEW/SEGGER_SYSVIEW.c ****   // Get actual field width
1053:libraries/SystemView/SYSVIEW/SEGGER_SYSVIEW.c ****   //
1054:libraries/SystemView/SYSVIEW/SEGGER_SYSVIEW.c ****   Width = 1u;
1055:libraries/SystemView/SYSVIEW/SEGGER_SYSVIEW.c ****   while (Number >= Base) {
1056:libraries/SystemView/SYSVIEW/SEGGER_SYSVIEW.c ****     Number = (Number / Base);
1057:libraries/SystemView/SYSVIEW/SEGGER_SYSVIEW.c ****     Width++;
1058:libraries/SystemView/SYSVIEW/SEGGER_SYSVIEW.c ****   }
1059:libraries/SystemView/SYSVIEW/SEGGER_SYSVIEW.c ****   if (NumDigits > Width) {
1060:libraries/SystemView/SYSVIEW/SEGGER_SYSVIEW.c ****     Width = NumDigits;
1061:libraries/SystemView/SYSVIEW/SEGGER_SYSVIEW.c ****   }
1062:libraries/SystemView/SYSVIEW/SEGGER_SYSVIEW.c ****   //
1063:libraries/SystemView/SYSVIEW/SEGGER_SYSVIEW.c ****   // Print leading chars if necessary
1064:libraries/SystemView/SYSVIEW/SEGGER_SYSVIEW.c ****   //
1065:libraries/SystemView/SYSVIEW/SEGGER_SYSVIEW.c ****   if ((FormatFlags & FORMAT_FLAG_LEFT_JUSTIFY) == 0u) {
1066:libraries/SystemView/SYSVIEW/SEGGER_SYSVIEW.c ****     if (FieldWidth != 0u) {
1067:libraries/SystemView/SYSVIEW/SEGGER_SYSVIEW.c ****       if (((FormatFlags & FORMAT_FLAG_PAD_ZERO) == FORMAT_FLAG_PAD_ZERO) && (NumDigits == 0u)) {
1068:libraries/SystemView/SYSVIEW/SEGGER_SYSVIEW.c ****         c = '0';
1069:libraries/SystemView/SYSVIEW/SEGGER_SYSVIEW.c ****       } else {
1070:libraries/SystemView/SYSVIEW/SEGGER_SYSVIEW.c ****         c = ' ';
1071:libraries/SystemView/SYSVIEW/SEGGER_SYSVIEW.c ****       }
1072:libraries/SystemView/SYSVIEW/SEGGER_SYSVIEW.c ****       while ((FieldWidth != 0u) && (Width < FieldWidth)) {
1073:libraries/SystemView/SYSVIEW/SEGGER_SYSVIEW.c ****         FieldWidth--;
1074:libraries/SystemView/SYSVIEW/SEGGER_SYSVIEW.c ****         _StoreChar(pBufferDesc, c);
1075:libraries/SystemView/SYSVIEW/SEGGER_SYSVIEW.c ****       }
1076:libraries/SystemView/SYSVIEW/SEGGER_SYSVIEW.c ****     }
1077:libraries/SystemView/SYSVIEW/SEGGER_SYSVIEW.c ****   }
1078:libraries/SystemView/SYSVIEW/SEGGER_SYSVIEW.c ****   //
1079:libraries/SystemView/SYSVIEW/SEGGER_SYSVIEW.c ****   // Compute Digit.
1080:libraries/SystemView/SYSVIEW/SEGGER_SYSVIEW.c ****   // Loop until Digit has the value of the highest digit required.
1081:libraries/SystemView/SYSVIEW/SEGGER_SYSVIEW.c ****   // Example: If the output is 345 (Base 10), loop 2 times until Digit is 100.
1082:libraries/SystemView/SYSVIEW/SEGGER_SYSVIEW.c ****   //
1083:libraries/SystemView/SYSVIEW/SEGGER_SYSVIEW.c ****   while (1) {
1084:libraries/SystemView/SYSVIEW/SEGGER_SYSVIEW.c ****     if (NumDigits > 1u) {       // User specified a min number of digits to print? => Make sure we 
1085:libraries/SystemView/SYSVIEW/SEGGER_SYSVIEW.c ****       NumDigits--;
1086:libraries/SystemView/SYSVIEW/SEGGER_SYSVIEW.c ****     } else {
1087:libraries/SystemView/SYSVIEW/SEGGER_SYSVIEW.c ****       Div = v / Digit;
1088:libraries/SystemView/SYSVIEW/SEGGER_SYSVIEW.c ****       if (Div < Base) {        // Is our divider big enough to extract the highest digit from value
1089:libraries/SystemView/SYSVIEW/SEGGER_SYSVIEW.c ****         break;
1090:libraries/SystemView/SYSVIEW/SEGGER_SYSVIEW.c ****       }
1091:libraries/SystemView/SYSVIEW/SEGGER_SYSVIEW.c ****     }
1092:libraries/SystemView/SYSVIEW/SEGGER_SYSVIEW.c ****     Digit *= Base;
1093:libraries/SystemView/SYSVIEW/SEGGER_SYSVIEW.c ****   }
1094:libraries/SystemView/SYSVIEW/SEGGER_SYSVIEW.c ****   //
1095:libraries/SystemView/SYSVIEW/SEGGER_SYSVIEW.c ****   // Output digits
1096:libraries/SystemView/SYSVIEW/SEGGER_SYSVIEW.c ****   //
1097:libraries/SystemView/SYSVIEW/SEGGER_SYSVIEW.c ****   do {
1098:libraries/SystemView/SYSVIEW/SEGGER_SYSVIEW.c ****     Div = v / Digit;
1099:libraries/SystemView/SYSVIEW/SEGGER_SYSVIEW.c ****     v -= Div * Digit;
1100:libraries/SystemView/SYSVIEW/SEGGER_SYSVIEW.c ****     _StoreChar(pBufferDesc, _aV2C[Div]);
1101:libraries/SystemView/SYSVIEW/SEGGER_SYSVIEW.c ****     Digit /= Base;
1102:libraries/SystemView/SYSVIEW/SEGGER_SYSVIEW.c ****   } while (Digit);
ARM GAS  /tmp/ccyEpLlu.s 			page 29


1103:libraries/SystemView/SYSVIEW/SEGGER_SYSVIEW.c ****   //
1104:libraries/SystemView/SYSVIEW/SEGGER_SYSVIEW.c ****   // Print trailing spaces if necessary
1105:libraries/SystemView/SYSVIEW/SEGGER_SYSVIEW.c ****   //
1106:libraries/SystemView/SYSVIEW/SEGGER_SYSVIEW.c ****   if ((FormatFlags & FORMAT_FLAG_LEFT_JUSTIFY) == FORMAT_FLAG_LEFT_JUSTIFY) {
1107:libraries/SystemView/SYSVIEW/SEGGER_SYSVIEW.c ****     if (FieldWidth != 0u) {
1108:libraries/SystemView/SYSVIEW/SEGGER_SYSVIEW.c ****       while ((FieldWidth != 0u) && (Width < FieldWidth)) {
1109:libraries/SystemView/SYSVIEW/SEGGER_SYSVIEW.c ****         FieldWidth--;
1110:libraries/SystemView/SYSVIEW/SEGGER_SYSVIEW.c ****         _StoreChar(pBufferDesc, ' ');
1111:libraries/SystemView/SYSVIEW/SEGGER_SYSVIEW.c ****       }
1112:libraries/SystemView/SYSVIEW/SEGGER_SYSVIEW.c ****     }
1113:libraries/SystemView/SYSVIEW/SEGGER_SYSVIEW.c ****   }
1114:libraries/SystemView/SYSVIEW/SEGGER_SYSVIEW.c **** }
1115:libraries/SystemView/SYSVIEW/SEGGER_SYSVIEW.c **** 
1116:libraries/SystemView/SYSVIEW/SEGGER_SYSVIEW.c **** /*********************************************************************
1117:libraries/SystemView/SYSVIEW/SEGGER_SYSVIEW.c **** *
1118:libraries/SystemView/SYSVIEW/SEGGER_SYSVIEW.c **** *       _PrintInt()
1119:libraries/SystemView/SYSVIEW/SEGGER_SYSVIEW.c **** *
1120:libraries/SystemView/SYSVIEW/SEGGER_SYSVIEW.c **** *  Function description
1121:libraries/SystemView/SYSVIEW/SEGGER_SYSVIEW.c **** *    Print a signed integer with the given formatting into the
1122:libraries/SystemView/SYSVIEW/SEGGER_SYSVIEW.c **** *     formatted string.
1123:libraries/SystemView/SYSVIEW/SEGGER_SYSVIEW.c **** *
1124:libraries/SystemView/SYSVIEW/SEGGER_SYSVIEW.c **** *  Parameters
1125:libraries/SystemView/SYSVIEW/SEGGER_SYSVIEW.c **** *    pBufferDesc  Pointer to the buffer description.
1126:libraries/SystemView/SYSVIEW/SEGGER_SYSVIEW.c **** *    v            Value to be printed.
1127:libraries/SystemView/SYSVIEW/SEGGER_SYSVIEW.c **** *    Base         Base of the value.
1128:libraries/SystemView/SYSVIEW/SEGGER_SYSVIEW.c **** *    NumDigits    Number of digits to be printed.
1129:libraries/SystemView/SYSVIEW/SEGGER_SYSVIEW.c **** *    FieldWidth   Width of the printed field.
1130:libraries/SystemView/SYSVIEW/SEGGER_SYSVIEW.c **** *    FormatFlags  Flags for formatting the value.
1131:libraries/SystemView/SYSVIEW/SEGGER_SYSVIEW.c **** */
1132:libraries/SystemView/SYSVIEW/SEGGER_SYSVIEW.c **** static void _PrintInt(SEGGER_SYSVIEW_PRINTF_DESC * pBufferDesc, int v, unsigned int Base, unsigned 
1133:libraries/SystemView/SYSVIEW/SEGGER_SYSVIEW.c ****   unsigned int  Width;
1134:libraries/SystemView/SYSVIEW/SEGGER_SYSVIEW.c ****   int           Number;
1135:libraries/SystemView/SYSVIEW/SEGGER_SYSVIEW.c **** 
1136:libraries/SystemView/SYSVIEW/SEGGER_SYSVIEW.c ****   Number = (v < 0) ? -v : v;
1137:libraries/SystemView/SYSVIEW/SEGGER_SYSVIEW.c **** 
1138:libraries/SystemView/SYSVIEW/SEGGER_SYSVIEW.c ****   //
1139:libraries/SystemView/SYSVIEW/SEGGER_SYSVIEW.c ****   // Get actual field width
1140:libraries/SystemView/SYSVIEW/SEGGER_SYSVIEW.c ****   //
1141:libraries/SystemView/SYSVIEW/SEGGER_SYSVIEW.c ****   Width = 1u;
1142:libraries/SystemView/SYSVIEW/SEGGER_SYSVIEW.c ****   while (Number >= (int)Base) {
1143:libraries/SystemView/SYSVIEW/SEGGER_SYSVIEW.c ****     Number = (Number / (int)Base);
1144:libraries/SystemView/SYSVIEW/SEGGER_SYSVIEW.c ****     Width++;
1145:libraries/SystemView/SYSVIEW/SEGGER_SYSVIEW.c ****   }
1146:libraries/SystemView/SYSVIEW/SEGGER_SYSVIEW.c ****   if (NumDigits > Width) {
1147:libraries/SystemView/SYSVIEW/SEGGER_SYSVIEW.c ****     Width = NumDigits;
1148:libraries/SystemView/SYSVIEW/SEGGER_SYSVIEW.c ****   }
1149:libraries/SystemView/SYSVIEW/SEGGER_SYSVIEW.c ****   if ((FieldWidth > 0u) && ((v < 0) || ((FormatFlags & FORMAT_FLAG_PRINT_SIGN) == FORMAT_FLAG_PRINT
1150:libraries/SystemView/SYSVIEW/SEGGER_SYSVIEW.c ****     FieldWidth--;
1151:libraries/SystemView/SYSVIEW/SEGGER_SYSVIEW.c ****   }
1152:libraries/SystemView/SYSVIEW/SEGGER_SYSVIEW.c **** 
1153:libraries/SystemView/SYSVIEW/SEGGER_SYSVIEW.c ****   //
1154:libraries/SystemView/SYSVIEW/SEGGER_SYSVIEW.c ****   // Print leading spaces if necessary
1155:libraries/SystemView/SYSVIEW/SEGGER_SYSVIEW.c ****   //
1156:libraries/SystemView/SYSVIEW/SEGGER_SYSVIEW.c ****   if ((((FormatFlags & FORMAT_FLAG_PAD_ZERO) == 0u) || (NumDigits != 0u)) && ((FormatFlags & FORMAT
1157:libraries/SystemView/SYSVIEW/SEGGER_SYSVIEW.c ****     if (FieldWidth != 0u) {
1158:libraries/SystemView/SYSVIEW/SEGGER_SYSVIEW.c ****       while ((FieldWidth != 0u) && (Width < FieldWidth)) {
1159:libraries/SystemView/SYSVIEW/SEGGER_SYSVIEW.c ****         FieldWidth--;
ARM GAS  /tmp/ccyEpLlu.s 			page 30


1160:libraries/SystemView/SYSVIEW/SEGGER_SYSVIEW.c ****         _StoreChar(pBufferDesc, ' ');
1161:libraries/SystemView/SYSVIEW/SEGGER_SYSVIEW.c ****       }
1162:libraries/SystemView/SYSVIEW/SEGGER_SYSVIEW.c ****     }
1163:libraries/SystemView/SYSVIEW/SEGGER_SYSVIEW.c ****   }
1164:libraries/SystemView/SYSVIEW/SEGGER_SYSVIEW.c ****   //
1165:libraries/SystemView/SYSVIEW/SEGGER_SYSVIEW.c ****   // Print sign if necessary
1166:libraries/SystemView/SYSVIEW/SEGGER_SYSVIEW.c ****   //
1167:libraries/SystemView/SYSVIEW/SEGGER_SYSVIEW.c ****   if (v < 0) {
1168:libraries/SystemView/SYSVIEW/SEGGER_SYSVIEW.c ****     v = -v;
1169:libraries/SystemView/SYSVIEW/SEGGER_SYSVIEW.c ****     _StoreChar(pBufferDesc, '-');
1170:libraries/SystemView/SYSVIEW/SEGGER_SYSVIEW.c ****   } else if ((FormatFlags & FORMAT_FLAG_PRINT_SIGN) == FORMAT_FLAG_PRINT_SIGN) {
1171:libraries/SystemView/SYSVIEW/SEGGER_SYSVIEW.c ****     _StoreChar(pBufferDesc, '+');
1172:libraries/SystemView/SYSVIEW/SEGGER_SYSVIEW.c ****   } else {
1173:libraries/SystemView/SYSVIEW/SEGGER_SYSVIEW.c **** 
1174:libraries/SystemView/SYSVIEW/SEGGER_SYSVIEW.c ****   }
1175:libraries/SystemView/SYSVIEW/SEGGER_SYSVIEW.c ****   //
1176:libraries/SystemView/SYSVIEW/SEGGER_SYSVIEW.c ****   // Print leading zeros if necessary
1177:libraries/SystemView/SYSVIEW/SEGGER_SYSVIEW.c ****   //
1178:libraries/SystemView/SYSVIEW/SEGGER_SYSVIEW.c ****   if (((FormatFlags & FORMAT_FLAG_PAD_ZERO) == FORMAT_FLAG_PAD_ZERO) && ((FormatFlags & FORMAT_FLAG
1179:libraries/SystemView/SYSVIEW/SEGGER_SYSVIEW.c ****     if (FieldWidth != 0u) {
1180:libraries/SystemView/SYSVIEW/SEGGER_SYSVIEW.c ****       while ((FieldWidth != 0u) && (Width < FieldWidth)) {
1181:libraries/SystemView/SYSVIEW/SEGGER_SYSVIEW.c ****         FieldWidth--;
1182:libraries/SystemView/SYSVIEW/SEGGER_SYSVIEW.c ****         _StoreChar(pBufferDesc, '0');
1183:libraries/SystemView/SYSVIEW/SEGGER_SYSVIEW.c ****       }
1184:libraries/SystemView/SYSVIEW/SEGGER_SYSVIEW.c ****     }
1185:libraries/SystemView/SYSVIEW/SEGGER_SYSVIEW.c ****   }
1186:libraries/SystemView/SYSVIEW/SEGGER_SYSVIEW.c ****   //
1187:libraries/SystemView/SYSVIEW/SEGGER_SYSVIEW.c ****   // Print number without sign
1188:libraries/SystemView/SYSVIEW/SEGGER_SYSVIEW.c ****   //
1189:libraries/SystemView/SYSVIEW/SEGGER_SYSVIEW.c ****   _PrintUnsigned(pBufferDesc, (unsigned int)v, Base, NumDigits, FieldWidth, FormatFlags);
1190:libraries/SystemView/SYSVIEW/SEGGER_SYSVIEW.c **** }
1191:libraries/SystemView/SYSVIEW/SEGGER_SYSVIEW.c **** 
1192:libraries/SystemView/SYSVIEW/SEGGER_SYSVIEW.c **** /*********************************************************************
1193:libraries/SystemView/SYSVIEW/SEGGER_SYSVIEW.c **** *
1194:libraries/SystemView/SYSVIEW/SEGGER_SYSVIEW.c **** *       _VPrintTarget()
1195:libraries/SystemView/SYSVIEW/SEGGER_SYSVIEW.c **** *
1196:libraries/SystemView/SYSVIEW/SEGGER_SYSVIEW.c **** *  Function description
1197:libraries/SystemView/SYSVIEW/SEGGER_SYSVIEW.c **** *    Stores a formatted string.
1198:libraries/SystemView/SYSVIEW/SEGGER_SYSVIEW.c **** *    This data is read by the host.
1199:libraries/SystemView/SYSVIEW/SEGGER_SYSVIEW.c **** *
1200:libraries/SystemView/SYSVIEW/SEGGER_SYSVIEW.c **** *  Parameters
1201:libraries/SystemView/SYSVIEW/SEGGER_SYSVIEW.c **** *    sFormat      Pointer to format string.
1202:libraries/SystemView/SYSVIEW/SEGGER_SYSVIEW.c **** *    Options      Options to be sent to the host.
1203:libraries/SystemView/SYSVIEW/SEGGER_SYSVIEW.c **** *    pParamList   Pointer to the list of arguments for the format string.
1204:libraries/SystemView/SYSVIEW/SEGGER_SYSVIEW.c **** */
1205:libraries/SystemView/SYSVIEW/SEGGER_SYSVIEW.c **** static void _VPrintTarget(const char* sFormat, U32 Options, va_list* pParamList) {
1206:libraries/SystemView/SYSVIEW/SEGGER_SYSVIEW.c ****   SEGGER_SYSVIEW_PRINTF_DESC BufferDesc;
1207:libraries/SystemView/SYSVIEW/SEGGER_SYSVIEW.c ****   char          c;
1208:libraries/SystemView/SYSVIEW/SEGGER_SYSVIEW.c ****   int           v;
1209:libraries/SystemView/SYSVIEW/SEGGER_SYSVIEW.c ****   unsigned int  NumDigits;
1210:libraries/SystemView/SYSVIEW/SEGGER_SYSVIEW.c ****   unsigned int  FormatFlags;
1211:libraries/SystemView/SYSVIEW/SEGGER_SYSVIEW.c ****   unsigned int  FieldWidth;
1212:libraries/SystemView/SYSVIEW/SEGGER_SYSVIEW.c ****   U8*           pPayloadStart;
1213:libraries/SystemView/SYSVIEW/SEGGER_SYSVIEW.c **** #if SEGGER_SYSVIEW_USE_STATIC_BUFFER == 0
1214:libraries/SystemView/SYSVIEW/SEGGER_SYSVIEW.c ****   RECORD_START(SEGGER_SYSVIEW_INFO_SIZE + SEGGER_SYSVIEW_MAX_STRING_LEN + 1 + 2 * SEGGER_SYSVIEW_QU
1215:libraries/SystemView/SYSVIEW/SEGGER_SYSVIEW.c ****   SEGGER_SYSVIEW_LOCK();
1216:libraries/SystemView/SYSVIEW/SEGGER_SYSVIEW.c **** #else
ARM GAS  /tmp/ccyEpLlu.s 			page 31


1217:libraries/SystemView/SYSVIEW/SEGGER_SYSVIEW.c ****   RECORD_START(SEGGER_SYSVIEW_INFO_SIZE + SEGGER_SYSVIEW_MAX_STRING_LEN + 1 + 2 * SEGGER_SYSVIEW_QU
1218:libraries/SystemView/SYSVIEW/SEGGER_SYSVIEW.c **** #endif
1219:libraries/SystemView/SYSVIEW/SEGGER_SYSVIEW.c **** 
1220:libraries/SystemView/SYSVIEW/SEGGER_SYSVIEW.c **** #if SEGGER_SYSVIEW_USE_STATIC_BUFFER == 0
1221:libraries/SystemView/SYSVIEW/SEGGER_SYSVIEW.c ****   BufferDesc.pBuffer        = aPacket;
1222:libraries/SystemView/SYSVIEW/SEGGER_SYSVIEW.c **** #else
1223:libraries/SystemView/SYSVIEW/SEGGER_SYSVIEW.c ****   BufferDesc.pBuffer        = _aPacket;
1224:libraries/SystemView/SYSVIEW/SEGGER_SYSVIEW.c **** #endif
1225:libraries/SystemView/SYSVIEW/SEGGER_SYSVIEW.c ****   BufferDesc.Cnt            = 0u;
1226:libraries/SystemView/SYSVIEW/SEGGER_SYSVIEW.c ****   BufferDesc.pPayloadStart  = pPayloadStart;
1227:libraries/SystemView/SYSVIEW/SEGGER_SYSVIEW.c ****   BufferDesc.pPayload       = BufferDesc.pPayloadStart + 1u;
1228:libraries/SystemView/SYSVIEW/SEGGER_SYSVIEW.c ****   BufferDesc.Options        =  Options;
1229:libraries/SystemView/SYSVIEW/SEGGER_SYSVIEW.c **** 
1230:libraries/SystemView/SYSVIEW/SEGGER_SYSVIEW.c ****   do {
1231:libraries/SystemView/SYSVIEW/SEGGER_SYSVIEW.c ****     c = *sFormat;
1232:libraries/SystemView/SYSVIEW/SEGGER_SYSVIEW.c ****     sFormat++;
1233:libraries/SystemView/SYSVIEW/SEGGER_SYSVIEW.c ****     if (c == 0u) {
1234:libraries/SystemView/SYSVIEW/SEGGER_SYSVIEW.c ****       break;
1235:libraries/SystemView/SYSVIEW/SEGGER_SYSVIEW.c ****     }
1236:libraries/SystemView/SYSVIEW/SEGGER_SYSVIEW.c ****     if (c == '%') {
1237:libraries/SystemView/SYSVIEW/SEGGER_SYSVIEW.c ****       //
1238:libraries/SystemView/SYSVIEW/SEGGER_SYSVIEW.c ****       // Filter out flags
1239:libraries/SystemView/SYSVIEW/SEGGER_SYSVIEW.c ****       //
1240:libraries/SystemView/SYSVIEW/SEGGER_SYSVIEW.c ****       FormatFlags = 0u;
1241:libraries/SystemView/SYSVIEW/SEGGER_SYSVIEW.c ****       v = 1;
1242:libraries/SystemView/SYSVIEW/SEGGER_SYSVIEW.c ****       do {
1243:libraries/SystemView/SYSVIEW/SEGGER_SYSVIEW.c ****         c = *sFormat;
1244:libraries/SystemView/SYSVIEW/SEGGER_SYSVIEW.c ****         switch (c) {
1245:libraries/SystemView/SYSVIEW/SEGGER_SYSVIEW.c ****         case '-': FormatFlags |= FORMAT_FLAG_LEFT_JUSTIFY; sFormat++; break;
1246:libraries/SystemView/SYSVIEW/SEGGER_SYSVIEW.c ****         case '0': FormatFlags |= FORMAT_FLAG_PAD_ZERO;     sFormat++; break;
1247:libraries/SystemView/SYSVIEW/SEGGER_SYSVIEW.c ****         case '+': FormatFlags |= FORMAT_FLAG_PRINT_SIGN;   sFormat++; break;
1248:libraries/SystemView/SYSVIEW/SEGGER_SYSVIEW.c ****         case '#': FormatFlags |= FORMAT_FLAG_ALTERNATE;    sFormat++; break;
1249:libraries/SystemView/SYSVIEW/SEGGER_SYSVIEW.c ****         default:  v = 0; break;
1250:libraries/SystemView/SYSVIEW/SEGGER_SYSVIEW.c ****         }
1251:libraries/SystemView/SYSVIEW/SEGGER_SYSVIEW.c ****       } while (v);
1252:libraries/SystemView/SYSVIEW/SEGGER_SYSVIEW.c ****       //
1253:libraries/SystemView/SYSVIEW/SEGGER_SYSVIEW.c ****       // filter out field with
1254:libraries/SystemView/SYSVIEW/SEGGER_SYSVIEW.c ****       //
1255:libraries/SystemView/SYSVIEW/SEGGER_SYSVIEW.c ****       FieldWidth = 0u;
1256:libraries/SystemView/SYSVIEW/SEGGER_SYSVIEW.c ****       do {
1257:libraries/SystemView/SYSVIEW/SEGGER_SYSVIEW.c ****         c = *sFormat;
1258:libraries/SystemView/SYSVIEW/SEGGER_SYSVIEW.c ****         if ((c < '0') || (c > '9')) {
1259:libraries/SystemView/SYSVIEW/SEGGER_SYSVIEW.c ****           break;
1260:libraries/SystemView/SYSVIEW/SEGGER_SYSVIEW.c ****         }
1261:libraries/SystemView/SYSVIEW/SEGGER_SYSVIEW.c ****         sFormat++;
1262:libraries/SystemView/SYSVIEW/SEGGER_SYSVIEW.c ****         FieldWidth = (FieldWidth * 10u) + ((unsigned int)c - '0');
1263:libraries/SystemView/SYSVIEW/SEGGER_SYSVIEW.c ****       } while (1);
1264:libraries/SystemView/SYSVIEW/SEGGER_SYSVIEW.c **** 
1265:libraries/SystemView/SYSVIEW/SEGGER_SYSVIEW.c ****       //
1266:libraries/SystemView/SYSVIEW/SEGGER_SYSVIEW.c ****       // Filter out precision (number of digits to display)
1267:libraries/SystemView/SYSVIEW/SEGGER_SYSVIEW.c ****       //
1268:libraries/SystemView/SYSVIEW/SEGGER_SYSVIEW.c ****       NumDigits = 0u;
1269:libraries/SystemView/SYSVIEW/SEGGER_SYSVIEW.c ****       c = *sFormat;
1270:libraries/SystemView/SYSVIEW/SEGGER_SYSVIEW.c ****       if (c == '.') {
1271:libraries/SystemView/SYSVIEW/SEGGER_SYSVIEW.c ****         sFormat++;
1272:libraries/SystemView/SYSVIEW/SEGGER_SYSVIEW.c ****         do {
1273:libraries/SystemView/SYSVIEW/SEGGER_SYSVIEW.c ****           c = *sFormat;
ARM GAS  /tmp/ccyEpLlu.s 			page 32


1274:libraries/SystemView/SYSVIEW/SEGGER_SYSVIEW.c ****           if ((c < '0') || (c > '9')) {
1275:libraries/SystemView/SYSVIEW/SEGGER_SYSVIEW.c ****             break;
1276:libraries/SystemView/SYSVIEW/SEGGER_SYSVIEW.c ****           }
1277:libraries/SystemView/SYSVIEW/SEGGER_SYSVIEW.c ****           sFormat++;
1278:libraries/SystemView/SYSVIEW/SEGGER_SYSVIEW.c ****           NumDigits = NumDigits * 10u + ((unsigned int)c - '0');
1279:libraries/SystemView/SYSVIEW/SEGGER_SYSVIEW.c ****         } while (1);
1280:libraries/SystemView/SYSVIEW/SEGGER_SYSVIEW.c ****       }
1281:libraries/SystemView/SYSVIEW/SEGGER_SYSVIEW.c ****       //
1282:libraries/SystemView/SYSVIEW/SEGGER_SYSVIEW.c ****       // Filter out length modifier
1283:libraries/SystemView/SYSVIEW/SEGGER_SYSVIEW.c ****       //
1284:libraries/SystemView/SYSVIEW/SEGGER_SYSVIEW.c ****       c = *sFormat;
1285:libraries/SystemView/SYSVIEW/SEGGER_SYSVIEW.c ****       do {
1286:libraries/SystemView/SYSVIEW/SEGGER_SYSVIEW.c ****         if ((c == 'l') || (c == 'h')) {
1287:libraries/SystemView/SYSVIEW/SEGGER_SYSVIEW.c ****           c = *sFormat;
1288:libraries/SystemView/SYSVIEW/SEGGER_SYSVIEW.c ****           sFormat++;
1289:libraries/SystemView/SYSVIEW/SEGGER_SYSVIEW.c ****         } else {
1290:libraries/SystemView/SYSVIEW/SEGGER_SYSVIEW.c ****           break;
1291:libraries/SystemView/SYSVIEW/SEGGER_SYSVIEW.c ****         }
1292:libraries/SystemView/SYSVIEW/SEGGER_SYSVIEW.c ****       } while (1);
1293:libraries/SystemView/SYSVIEW/SEGGER_SYSVIEW.c ****       //
1294:libraries/SystemView/SYSVIEW/SEGGER_SYSVIEW.c ****       // Handle specifiers
1295:libraries/SystemView/SYSVIEW/SEGGER_SYSVIEW.c ****       //
1296:libraries/SystemView/SYSVIEW/SEGGER_SYSVIEW.c ****       switch (c) {
1297:libraries/SystemView/SYSVIEW/SEGGER_SYSVIEW.c ****       case 'c': {
1298:libraries/SystemView/SYSVIEW/SEGGER_SYSVIEW.c ****         char c0;
1299:libraries/SystemView/SYSVIEW/SEGGER_SYSVIEW.c ****         v = va_arg(*pParamList, int);
1300:libraries/SystemView/SYSVIEW/SEGGER_SYSVIEW.c ****         c0 = (char)v;
1301:libraries/SystemView/SYSVIEW/SEGGER_SYSVIEW.c ****         _StoreChar(&BufferDesc, c0);
1302:libraries/SystemView/SYSVIEW/SEGGER_SYSVIEW.c ****         break;
1303:libraries/SystemView/SYSVIEW/SEGGER_SYSVIEW.c ****       }
1304:libraries/SystemView/SYSVIEW/SEGGER_SYSVIEW.c ****       case 'd':
1305:libraries/SystemView/SYSVIEW/SEGGER_SYSVIEW.c ****         v = va_arg(*pParamList, int);
1306:libraries/SystemView/SYSVIEW/SEGGER_SYSVIEW.c ****         _PrintInt(&BufferDesc, v, 10u, NumDigits, FieldWidth, FormatFlags);
1307:libraries/SystemView/SYSVIEW/SEGGER_SYSVIEW.c ****         break;
1308:libraries/SystemView/SYSVIEW/SEGGER_SYSVIEW.c ****       case 'u':
1309:libraries/SystemView/SYSVIEW/SEGGER_SYSVIEW.c ****         v = va_arg(*pParamList, int);
1310:libraries/SystemView/SYSVIEW/SEGGER_SYSVIEW.c ****         _PrintUnsigned(&BufferDesc, (unsigned int)v, 10u, NumDigits, FieldWidth, FormatFlags);
1311:libraries/SystemView/SYSVIEW/SEGGER_SYSVIEW.c ****         break;
1312:libraries/SystemView/SYSVIEW/SEGGER_SYSVIEW.c ****       case 'x':
1313:libraries/SystemView/SYSVIEW/SEGGER_SYSVIEW.c ****       case 'X':
1314:libraries/SystemView/SYSVIEW/SEGGER_SYSVIEW.c ****         v = va_arg(*pParamList, int);
1315:libraries/SystemView/SYSVIEW/SEGGER_SYSVIEW.c ****         _PrintUnsigned(&BufferDesc, (unsigned int)v, 16u, NumDigits, FieldWidth, FormatFlags);
1316:libraries/SystemView/SYSVIEW/SEGGER_SYSVIEW.c ****         break;
1317:libraries/SystemView/SYSVIEW/SEGGER_SYSVIEW.c ****       case 'p':
1318:libraries/SystemView/SYSVIEW/SEGGER_SYSVIEW.c ****         v = va_arg(*pParamList, int);
1319:libraries/SystemView/SYSVIEW/SEGGER_SYSVIEW.c ****         _PrintUnsigned(&BufferDesc, (unsigned int)v, 16u, 8u, 8u, 0u);
1320:libraries/SystemView/SYSVIEW/SEGGER_SYSVIEW.c ****         break;
1321:libraries/SystemView/SYSVIEW/SEGGER_SYSVIEW.c ****       case '%':
1322:libraries/SystemView/SYSVIEW/SEGGER_SYSVIEW.c ****         _StoreChar(&BufferDesc, '%');
1323:libraries/SystemView/SYSVIEW/SEGGER_SYSVIEW.c ****         break;
1324:libraries/SystemView/SYSVIEW/SEGGER_SYSVIEW.c ****       default:
1325:libraries/SystemView/SYSVIEW/SEGGER_SYSVIEW.c ****         break;
1326:libraries/SystemView/SYSVIEW/SEGGER_SYSVIEW.c ****       }
1327:libraries/SystemView/SYSVIEW/SEGGER_SYSVIEW.c ****       sFormat++;
1328:libraries/SystemView/SYSVIEW/SEGGER_SYSVIEW.c ****     } else {
1329:libraries/SystemView/SYSVIEW/SEGGER_SYSVIEW.c ****       _StoreChar(&BufferDesc, c);
1330:libraries/SystemView/SYSVIEW/SEGGER_SYSVIEW.c ****     }
ARM GAS  /tmp/ccyEpLlu.s 			page 33


1331:libraries/SystemView/SYSVIEW/SEGGER_SYSVIEW.c ****   } while (*sFormat);
1332:libraries/SystemView/SYSVIEW/SEGGER_SYSVIEW.c **** 
1333:libraries/SystemView/SYSVIEW/SEGGER_SYSVIEW.c ****   //
1334:libraries/SystemView/SYSVIEW/SEGGER_SYSVIEW.c ****   // Write remaining data, if any
1335:libraries/SystemView/SYSVIEW/SEGGER_SYSVIEW.c ****   //
1336:libraries/SystemView/SYSVIEW/SEGGER_SYSVIEW.c ****   if (BufferDesc.Cnt != 0u) {
1337:libraries/SystemView/SYSVIEW/SEGGER_SYSVIEW.c ****     *(BufferDesc.pPayloadStart) = (U8)BufferDesc.Cnt;
1338:libraries/SystemView/SYSVIEW/SEGGER_SYSVIEW.c ****     ENCODE_U32(BufferDesc.pPayload, BufferDesc.Options);
1339:libraries/SystemView/SYSVIEW/SEGGER_SYSVIEW.c ****     ENCODE_U32(BufferDesc.pPayload, 0);
1340:libraries/SystemView/SYSVIEW/SEGGER_SYSVIEW.c ****     _SendPacket(BufferDesc.pPayloadStart, BufferDesc.pPayload, SYSVIEW_EVTID_PRINT_FORMATTED);
1341:libraries/SystemView/SYSVIEW/SEGGER_SYSVIEW.c ****   }
1342:libraries/SystemView/SYSVIEW/SEGGER_SYSVIEW.c **** #if SEGGER_SYSVIEW_USE_STATIC_BUFFER == 0
1343:libraries/SystemView/SYSVIEW/SEGGER_SYSVIEW.c ****   SEGGER_SYSVIEW_UNLOCK();
1344:libraries/SystemView/SYSVIEW/SEGGER_SYSVIEW.c ****   RECORD_END();
1345:libraries/SystemView/SYSVIEW/SEGGER_SYSVIEW.c **** #else
1346:libraries/SystemView/SYSVIEW/SEGGER_SYSVIEW.c ****   RECORD_END();
1347:libraries/SystemView/SYSVIEW/SEGGER_SYSVIEW.c **** #endif
1348:libraries/SystemView/SYSVIEW/SEGGER_SYSVIEW.c **** }
1349:libraries/SystemView/SYSVIEW/SEGGER_SYSVIEW.c **** #endif // SEGGER_SYSVIEW_EXCLUDE_PRINTF
1350:libraries/SystemView/SYSVIEW/SEGGER_SYSVIEW.c **** 
1351:libraries/SystemView/SYSVIEW/SEGGER_SYSVIEW.c **** /*********************************************************************
1352:libraries/SystemView/SYSVIEW/SEGGER_SYSVIEW.c **** *
1353:libraries/SystemView/SYSVIEW/SEGGER_SYSVIEW.c **** *       Public code
1354:libraries/SystemView/SYSVIEW/SEGGER_SYSVIEW.c **** *
1355:libraries/SystemView/SYSVIEW/SEGGER_SYSVIEW.c **** **********************************************************************
1356:libraries/SystemView/SYSVIEW/SEGGER_SYSVIEW.c **** */
1357:libraries/SystemView/SYSVIEW/SEGGER_SYSVIEW.c **** 
1358:libraries/SystemView/SYSVIEW/SEGGER_SYSVIEW.c **** /*********************************************************************
1359:libraries/SystemView/SYSVIEW/SEGGER_SYSVIEW.c **** *
1360:libraries/SystemView/SYSVIEW/SEGGER_SYSVIEW.c **** *       SEGGER_SYSVIEW_Init()
1361:libraries/SystemView/SYSVIEW/SEGGER_SYSVIEW.c **** *
1362:libraries/SystemView/SYSVIEW/SEGGER_SYSVIEW.c **** *  Function description
1363:libraries/SystemView/SYSVIEW/SEGGER_SYSVIEW.c **** *    Initializes the SYSVIEW module.
1364:libraries/SystemView/SYSVIEW/SEGGER_SYSVIEW.c **** *    Must be called before the Systemview Application connects to
1365:libraries/SystemView/SYSVIEW/SEGGER_SYSVIEW.c **** *    the system.
1366:libraries/SystemView/SYSVIEW/SEGGER_SYSVIEW.c **** *
1367:libraries/SystemView/SYSVIEW/SEGGER_SYSVIEW.c **** *  Parameters
1368:libraries/SystemView/SYSVIEW/SEGGER_SYSVIEW.c **** *    SysFreq        - Frequency of timestamp, usually CPU core clock frequency.
1369:libraries/SystemView/SYSVIEW/SEGGER_SYSVIEW.c **** *    CPUFreq        - CPU core clock frequency.
1370:libraries/SystemView/SYSVIEW/SEGGER_SYSVIEW.c **** *    pOSAPI         - Pointer to the API structure for OS-specific functions.
1371:libraries/SystemView/SYSVIEW/SEGGER_SYSVIEW.c **** *    pfSendSysDesc  - Pointer to record system description callback function.
1372:libraries/SystemView/SYSVIEW/SEGGER_SYSVIEW.c **** *
1373:libraries/SystemView/SYSVIEW/SEGGER_SYSVIEW.c **** *  Additional information
1374:libraries/SystemView/SYSVIEW/SEGGER_SYSVIEW.c **** *    This function initializes the RTT channel used to transport
1375:libraries/SystemView/SYSVIEW/SEGGER_SYSVIEW.c **** *    SEGGER SystemView packets.
1376:libraries/SystemView/SYSVIEW/SEGGER_SYSVIEW.c **** *    The channel is assigned the label "SysView" for client software
1377:libraries/SystemView/SYSVIEW/SEGGER_SYSVIEW.c **** *    to identify the SystemView channel.
1378:libraries/SystemView/SYSVIEW/SEGGER_SYSVIEW.c **** *
1379:libraries/SystemView/SYSVIEW/SEGGER_SYSVIEW.c **** *    The channel is configured with the macro SEGGER_SYSVIEW_RTT_CHANNEL.
1380:libraries/SystemView/SYSVIEW/SEGGER_SYSVIEW.c **** */
1381:libraries/SystemView/SYSVIEW/SEGGER_SYSVIEW.c **** void SEGGER_SYSVIEW_Init(U32 SysFreq, U32 CPUFreq, const SEGGER_SYSVIEW_OS_API *pOSAPI, SEGGER_SYSV
 466              		.loc 1 1381 138 is_stmt 1 view -0
 467              		.cfi_startproc
 468              		@ args = 0, pretend = 0, frame = 0
 469              		@ frame_needed = 0, uses_anonymous_args = 0
 470              		.loc 1 1381 138 is_stmt 0 view .LVU157
 471 0000 2DE9F047 		push	{r4, r5, r6, r7, r8, r9, r10, lr}
ARM GAS  /tmp/ccyEpLlu.s 			page 34


 472              	.LCFI6:
 473              		.cfi_def_cfa_offset 32
 474              		.cfi_offset 4, -32
 475              		.cfi_offset 5, -28
 476              		.cfi_offset 6, -24
 477              		.cfi_offset 7, -20
 478              		.cfi_offset 8, -16
 479              		.cfi_offset 9, -12
 480              		.cfi_offset 10, -8
 481              		.cfi_offset 14, -4
 482 0004 82B0     		sub	sp, sp, #8
 483              	.LCFI7:
 484              		.cfi_def_cfa_offset 40
 485 0006 0746     		mov	r7, r0
 486 0008 0E46     		mov	r6, r1
 487 000a 9046     		mov	r8, r2
 488 000c 1D46     		mov	r5, r3
1382:libraries/SystemView/SYSVIEW/SEGGER_SYSVIEW.c **** #ifdef SEGGER_RTT_SECTION
1383:libraries/SystemView/SYSVIEW/SEGGER_SYSVIEW.c ****   //
1384:libraries/SystemView/SYSVIEW/SEGGER_SYSVIEW.c ****   // Explicitly initialize the RTT Control Block if it is in its dedicated section.
1385:libraries/SystemView/SYSVIEW/SEGGER_SYSVIEW.c ****   //
1386:libraries/SystemView/SYSVIEW/SEGGER_SYSVIEW.c ****   SEGGER_RTT_Init();
1387:libraries/SystemView/SYSVIEW/SEGGER_SYSVIEW.c **** #endif
1388:libraries/SystemView/SYSVIEW/SEGGER_SYSVIEW.c **** #if (SEGGER_SYSVIEW_POST_MORTEM_MODE == 1)
1389:libraries/SystemView/SYSVIEW/SEGGER_SYSVIEW.c **** #if SEGGER_SYSVIEW_RTT_CHANNEL > 0
1390:libraries/SystemView/SYSVIEW/SEGGER_SYSVIEW.c ****   SEGGER_RTT_ConfigUpBuffer(SEGGER_SYSVIEW_RTT_CHANNEL, "SysView", &_UpBuffer[0],   sizeof(_UpBuffe
1391:libraries/SystemView/SYSVIEW/SEGGER_SYSVIEW.c **** #else
1392:libraries/SystemView/SYSVIEW/SEGGER_SYSVIEW.c ****   _SYSVIEW_Globals.UpChannel = (U8)SEGGER_RTT_AllocUpBuffer  ("SysView", &_UpBuffer[0],   sizeof(_U
1393:libraries/SystemView/SYSVIEW/SEGGER_SYSVIEW.c **** #endif
1394:libraries/SystemView/SYSVIEW/SEGGER_SYSVIEW.c ****   _SYSVIEW_Globals.RAMBaseAddress   = SEGGER_SYSVIEW_ID_BASE;
1395:libraries/SystemView/SYSVIEW/SEGGER_SYSVIEW.c ****   _SYSVIEW_Globals.LastTxTimeStamp  = SEGGER_SYSVIEW_GET_TIMESTAMP();
1396:libraries/SystemView/SYSVIEW/SEGGER_SYSVIEW.c ****   _SYSVIEW_Globals.pOSAPI           = pOSAPI;
1397:libraries/SystemView/SYSVIEW/SEGGER_SYSVIEW.c ****   _SYSVIEW_Globals.SysFreq          = SysFreq;
1398:libraries/SystemView/SYSVIEW/SEGGER_SYSVIEW.c ****   _SYSVIEW_Globals.CPUFreq          = CPUFreq;
1399:libraries/SystemView/SYSVIEW/SEGGER_SYSVIEW.c ****   _SYSVIEW_Globals.pfSendSysDesc    = pfSendSysDesc;
1400:libraries/SystemView/SYSVIEW/SEGGER_SYSVIEW.c ****   _SYSVIEW_Globals.EnableState      = 0;
1401:libraries/SystemView/SYSVIEW/SEGGER_SYSVIEW.c ****   _SYSVIEW_Globals.PacketCount      = 0;
1402:libraries/SystemView/SYSVIEW/SEGGER_SYSVIEW.c **** #else // (SEGGER_SYSVIEW_POST_MORTEM_MODE == 1)
1403:libraries/SystemView/SYSVIEW/SEGGER_SYSVIEW.c **** #if SEGGER_SYSVIEW_RTT_CHANNEL > 0
1404:libraries/SystemView/SYSVIEW/SEGGER_SYSVIEW.c ****   SEGGER_RTT_ConfigUpBuffer   (SEGGER_SYSVIEW_RTT_CHANNEL, "SysView", &_UpBuffer[0],   sizeof(_UpBu
1405:libraries/SystemView/SYSVIEW/SEGGER_SYSVIEW.c ****   SEGGER_RTT_ConfigDownBuffer (SEGGER_SYSVIEW_RTT_CHANNEL, "SysView", &_DownBuffer[0], sizeof(_Down
1406:libraries/SystemView/SYSVIEW/SEGGER_SYSVIEW.c **** #else
1407:libraries/SystemView/SYSVIEW/SEGGER_SYSVIEW.c ****   _SYSVIEW_Globals.UpChannel = (U8)SEGGER_RTT_AllocUpBuffer  ("SysView", &_UpBuffer[0],   sizeof(_U
 489              		.loc 1 1407 3 is_stmt 1 view .LVU158
 490              		.loc 1 1407 36 is_stmt 0 view .LVU159
 491 000e DFF85890 		ldr	r9, .L37+16
 492 0012 0023     		movs	r3, #0
 493              	.LVL59:
 494              		.loc 1 1407 36 view .LVU160
 495 0014 4FF48062 		mov	r2, #1024
 496              	.LVL60:
 497              		.loc 1 1407 36 view .LVU161
 498 0018 0F49     		ldr	r1, .L37
 499              	.LVL61:
 500              		.loc 1 1407 36 view .LVU162
 501 001a 4846     		mov	r0, r9
 502              	.LVL62:
ARM GAS  /tmp/ccyEpLlu.s 			page 35


 503              		.loc 1 1407 36 view .LVU163
 504 001c FFF7FEFF 		bl	SEGGER_RTT_AllocUpBuffer
 505              	.LVL63:
 506              		.loc 1 1407 32 view .LVU164
 507 0020 C0B2     		uxtb	r0, r0
 508              		.loc 1 1407 30 view .LVU165
 509 0022 0E4C     		ldr	r4, .L37+4
 510 0024 6070     		strb	r0, [r4, #1]
1408:libraries/SystemView/SYSVIEW/SEGGER_SYSVIEW.c ****   _SYSVIEW_Globals.DownChannel = _SYSVIEW_Globals.UpChannel;
 511              		.loc 1 1408 3 is_stmt 1 view .LVU166
 512              		.loc 1 1408 32 is_stmt 0 view .LVU167
 513 0026 2076     		strb	r0, [r4, #24]
1409:libraries/SystemView/SYSVIEW/SEGGER_SYSVIEW.c ****   SEGGER_RTT_ConfigDownBuffer (_SYSVIEW_Globals.DownChannel, "SysView", &_DownBuffer[0], sizeof(_Do
 514              		.loc 1 1409 3 is_stmt 1 view .LVU168
 515 0028 4FF0000A 		mov	r10, #0
 516 002c CDF800A0 		str	r10, [sp]
 517 0030 0823     		movs	r3, #8
 518 0032 0B4A     		ldr	r2, .L37+8
 519 0034 4946     		mov	r1, r9
 520 0036 FFF7FEFF 		bl	SEGGER_RTT_ConfigDownBuffer
 521              	.LVL64:
1410:libraries/SystemView/SYSVIEW/SEGGER_SYSVIEW.c **** #endif
1411:libraries/SystemView/SYSVIEW/SEGGER_SYSVIEW.c ****   _SYSVIEW_Globals.RAMBaseAddress   = SEGGER_SYSVIEW_ID_BASE;
 522              		.loc 1 1411 3 view .LVU169
 523              		.loc 1 1411 37 is_stmt 0 view .LVU170
 524 003a C4F810A0 		str	r10, [r4, #16]
1412:libraries/SystemView/SYSVIEW/SEGGER_SYSVIEW.c ****   _SYSVIEW_Globals.LastTxTimeStamp  = SEGGER_SYSVIEW_GET_TIMESTAMP();
 525              		.loc 1 1412 3 is_stmt 1 view .LVU171
 526              		.loc 1 1412 39 is_stmt 0 view .LVU172
 527 003e 094B     		ldr	r3, .L37+12
 528 0040 5B68     		ldr	r3, [r3, #4]
 529              		.loc 1 1412 37 view .LVU173
 530 0042 E360     		str	r3, [r4, #12]
1413:libraries/SystemView/SYSVIEW/SEGGER_SYSVIEW.c ****   _SYSVIEW_Globals.pOSAPI           = pOSAPI;
 531              		.loc 1 1413 3 is_stmt 1 view .LVU174
 532              		.loc 1 1413 37 is_stmt 0 view .LVU175
 533 0044 C4F82080 		str	r8, [r4, #32]
1414:libraries/SystemView/SYSVIEW/SEGGER_SYSVIEW.c ****   _SYSVIEW_Globals.SysFreq          = SysFreq;
 534              		.loc 1 1414 3 is_stmt 1 view .LVU176
 535              		.loc 1 1414 37 is_stmt 0 view .LVU177
 536 0048 6760     		str	r7, [r4, #4]
1415:libraries/SystemView/SYSVIEW/SEGGER_SYSVIEW.c ****   _SYSVIEW_Globals.CPUFreq          = CPUFreq;
 537              		.loc 1 1415 3 is_stmt 1 view .LVU178
 538              		.loc 1 1415 37 is_stmt 0 view .LVU179
 539 004a A660     		str	r6, [r4, #8]
1416:libraries/SystemView/SYSVIEW/SEGGER_SYSVIEW.c ****   _SYSVIEW_Globals.pfSendSysDesc    = pfSendSysDesc;
 540              		.loc 1 1416 3 is_stmt 1 view .LVU180
 541              		.loc 1 1416 37 is_stmt 0 view .LVU181
 542 004c 6562     		str	r5, [r4, #36]
1417:libraries/SystemView/SYSVIEW/SEGGER_SYSVIEW.c ****   _SYSVIEW_Globals.EnableState      = 0;
 543              		.loc 1 1417 3 is_stmt 1 view .LVU182
 544              		.loc 1 1417 37 is_stmt 0 view .LVU183
 545 004e 84F800A0 		strb	r10, [r4]
1418:libraries/SystemView/SYSVIEW/SEGGER_SYSVIEW.c **** #endif  // (SEGGER_SYSVIEW_POST_MORTEM_MODE == 1)
1419:libraries/SystemView/SYSVIEW/SEGGER_SYSVIEW.c **** }
 546              		.loc 1 1419 1 view .LVU184
 547 0052 02B0     		add	sp, sp, #8
ARM GAS  /tmp/ccyEpLlu.s 			page 36


 548              	.LCFI8:
 549              		.cfi_def_cfa_offset 32
 550              		@ sp needed
 551 0054 BDE8F087 		pop	{r4, r5, r6, r7, r8, r9, r10, pc}
 552              	.LVL65:
 553              	.L38:
 554              		.loc 1 1419 1 view .LVU185
 555              		.align	2
 556              	.L37:
 557 0058 00000000 		.word	.LANCHOR1
 558 005c 00000000 		.word	.LANCHOR0
 559 0060 00000000 		.word	.LANCHOR2
 560 0064 001000E0 		.word	-536866816
 561 0068 00000000 		.word	.LC0
 562              		.cfi_endproc
 563              	.LFE11:
 565              		.section	.text.SEGGER_SYSVIEW_SetRAMBase,"ax",%progbits
 566              		.align	1
 567              		.global	SEGGER_SYSVIEW_SetRAMBase
 568              		.syntax unified
 569              		.thumb
 570              		.thumb_func
 571              		.fpu fpv4-sp-d16
 573              	SEGGER_SYSVIEW_SetRAMBase:
 574              	.LVL66:
 575              	.LFB12:
1420:libraries/SystemView/SYSVIEW/SEGGER_SYSVIEW.c **** 
1421:libraries/SystemView/SYSVIEW/SEGGER_SYSVIEW.c **** /*********************************************************************
1422:libraries/SystemView/SYSVIEW/SEGGER_SYSVIEW.c **** *
1423:libraries/SystemView/SYSVIEW/SEGGER_SYSVIEW.c **** *       SEGGER_SYSVIEW_SetRAMBase()
1424:libraries/SystemView/SYSVIEW/SEGGER_SYSVIEW.c **** *
1425:libraries/SystemView/SYSVIEW/SEGGER_SYSVIEW.c **** *  Function description
1426:libraries/SystemView/SYSVIEW/SEGGER_SYSVIEW.c **** *    Sets the RAM base address, which is subtracted from IDs in order
1427:libraries/SystemView/SYSVIEW/SEGGER_SYSVIEW.c **** *     to save bandwidth.
1428:libraries/SystemView/SYSVIEW/SEGGER_SYSVIEW.c **** *
1429:libraries/SystemView/SYSVIEW/SEGGER_SYSVIEW.c **** *  Parameters
1430:libraries/SystemView/SYSVIEW/SEGGER_SYSVIEW.c **** *    RAMBaseAddress - Lowest RAM Address. (i.e. 0x20000000 on most Cortex-M)
1431:libraries/SystemView/SYSVIEW/SEGGER_SYSVIEW.c **** */
1432:libraries/SystemView/SYSVIEW/SEGGER_SYSVIEW.c **** void SEGGER_SYSVIEW_SetRAMBase(U32 RAMBaseAddress) {
 576              		.loc 1 1432 52 is_stmt 1 view -0
 577              		.cfi_startproc
 578              		@ args = 0, pretend = 0, frame = 0
 579              		@ frame_needed = 0, uses_anonymous_args = 0
 580              		@ link register save eliminated.
1433:libraries/SystemView/SYSVIEW/SEGGER_SYSVIEW.c ****   _SYSVIEW_Globals.RAMBaseAddress = RAMBaseAddress;
 581              		.loc 1 1433 3 view .LVU187
 582              		.loc 1 1433 35 is_stmt 0 view .LVU188
 583 0000 014B     		ldr	r3, .L40
 584 0002 1861     		str	r0, [r3, #16]
1434:libraries/SystemView/SYSVIEW/SEGGER_SYSVIEW.c **** }
 585              		.loc 1 1434 1 view .LVU189
 586 0004 7047     		bx	lr
 587              	.L41:
 588 0006 00BF     		.align	2
 589              	.L40:
 590 0008 00000000 		.word	.LANCHOR0
 591              		.cfi_endproc
ARM GAS  /tmp/ccyEpLlu.s 			page 37


 592              	.LFE12:
 594              		.section	.text.SEGGER_SYSVIEW_GetChannelID,"ax",%progbits
 595              		.align	1
 596              		.global	SEGGER_SYSVIEW_GetChannelID
 597              		.syntax unified
 598              		.thumb
 599              		.thumb_func
 600              		.fpu fpv4-sp-d16
 602              	SEGGER_SYSVIEW_GetChannelID:
 603              	.LFB27:
1435:libraries/SystemView/SYSVIEW/SEGGER_SYSVIEW.c **** 
1436:libraries/SystemView/SYSVIEW/SEGGER_SYSVIEW.c **** /*********************************************************************
1437:libraries/SystemView/SYSVIEW/SEGGER_SYSVIEW.c **** *
1438:libraries/SystemView/SYSVIEW/SEGGER_SYSVIEW.c **** *       SEGGER_SYSVIEW_RecordVoid()
1439:libraries/SystemView/SYSVIEW/SEGGER_SYSVIEW.c **** *
1440:libraries/SystemView/SYSVIEW/SEGGER_SYSVIEW.c **** *  Function description
1441:libraries/SystemView/SYSVIEW/SEGGER_SYSVIEW.c **** *    Formats and sends a SystemView packet with an empty payload.
1442:libraries/SystemView/SYSVIEW/SEGGER_SYSVIEW.c **** *
1443:libraries/SystemView/SYSVIEW/SEGGER_SYSVIEW.c **** *  Parameters
1444:libraries/SystemView/SYSVIEW/SEGGER_SYSVIEW.c **** *    EventID - SystemView event ID.
1445:libraries/SystemView/SYSVIEW/SEGGER_SYSVIEW.c **** */
1446:libraries/SystemView/SYSVIEW/SEGGER_SYSVIEW.c **** void SEGGER_SYSVIEW_RecordVoid(unsigned int EventID) {
1447:libraries/SystemView/SYSVIEW/SEGGER_SYSVIEW.c ****   U8* pPayloadStart;
1448:libraries/SystemView/SYSVIEW/SEGGER_SYSVIEW.c ****   RECORD_START(SEGGER_SYSVIEW_INFO_SIZE);
1449:libraries/SystemView/SYSVIEW/SEGGER_SYSVIEW.c ****   //
1450:libraries/SystemView/SYSVIEW/SEGGER_SYSVIEW.c ****   _SendPacket(pPayloadStart, pPayloadStart, EventID);
1451:libraries/SystemView/SYSVIEW/SEGGER_SYSVIEW.c ****   RECORD_END();
1452:libraries/SystemView/SYSVIEW/SEGGER_SYSVIEW.c **** }
1453:libraries/SystemView/SYSVIEW/SEGGER_SYSVIEW.c **** 
1454:libraries/SystemView/SYSVIEW/SEGGER_SYSVIEW.c **** /*********************************************************************
1455:libraries/SystemView/SYSVIEW/SEGGER_SYSVIEW.c **** *
1456:libraries/SystemView/SYSVIEW/SEGGER_SYSVIEW.c **** *       SEGGER_SYSVIEW_RecordU32()
1457:libraries/SystemView/SYSVIEW/SEGGER_SYSVIEW.c **** *
1458:libraries/SystemView/SYSVIEW/SEGGER_SYSVIEW.c **** *  Function description
1459:libraries/SystemView/SYSVIEW/SEGGER_SYSVIEW.c **** *    Formats and sends a SystemView packet containing a single U32
1460:libraries/SystemView/SYSVIEW/SEGGER_SYSVIEW.c **** *    parameter payload.
1461:libraries/SystemView/SYSVIEW/SEGGER_SYSVIEW.c **** *
1462:libraries/SystemView/SYSVIEW/SEGGER_SYSVIEW.c **** *  Parameters
1463:libraries/SystemView/SYSVIEW/SEGGER_SYSVIEW.c **** *    EventID - SystemView event ID.
1464:libraries/SystemView/SYSVIEW/SEGGER_SYSVIEW.c **** *    Value   - The 32-bit parameter encoded to SystemView packet payload.
1465:libraries/SystemView/SYSVIEW/SEGGER_SYSVIEW.c **** */
1466:libraries/SystemView/SYSVIEW/SEGGER_SYSVIEW.c **** void SEGGER_SYSVIEW_RecordU32(unsigned int EventID, U32 Value) {
1467:libraries/SystemView/SYSVIEW/SEGGER_SYSVIEW.c ****   U8* pPayload;
1468:libraries/SystemView/SYSVIEW/SEGGER_SYSVIEW.c ****   U8* pPayloadStart;
1469:libraries/SystemView/SYSVIEW/SEGGER_SYSVIEW.c ****   RECORD_START(SEGGER_SYSVIEW_INFO_SIZE + SEGGER_SYSVIEW_QUANTA_U32);
1470:libraries/SystemView/SYSVIEW/SEGGER_SYSVIEW.c ****   //
1471:libraries/SystemView/SYSVIEW/SEGGER_SYSVIEW.c ****   pPayload = pPayloadStart;
1472:libraries/SystemView/SYSVIEW/SEGGER_SYSVIEW.c ****   ENCODE_U32(pPayload, Value);
1473:libraries/SystemView/SYSVIEW/SEGGER_SYSVIEW.c ****   _SendPacket(pPayloadStart, pPayload, EventID);
1474:libraries/SystemView/SYSVIEW/SEGGER_SYSVIEW.c ****   RECORD_END();
1475:libraries/SystemView/SYSVIEW/SEGGER_SYSVIEW.c **** }
1476:libraries/SystemView/SYSVIEW/SEGGER_SYSVIEW.c **** 
1477:libraries/SystemView/SYSVIEW/SEGGER_SYSVIEW.c **** /*********************************************************************
1478:libraries/SystemView/SYSVIEW/SEGGER_SYSVIEW.c **** *
1479:libraries/SystemView/SYSVIEW/SEGGER_SYSVIEW.c **** *       SEGGER_SYSVIEW_RecordU32x2()
1480:libraries/SystemView/SYSVIEW/SEGGER_SYSVIEW.c **** *
1481:libraries/SystemView/SYSVIEW/SEGGER_SYSVIEW.c **** *  Function description
ARM GAS  /tmp/ccyEpLlu.s 			page 38


1482:libraries/SystemView/SYSVIEW/SEGGER_SYSVIEW.c **** *    Formats and sends a SystemView packet containing 2 U32 parameter payload.
1483:libraries/SystemView/SYSVIEW/SEGGER_SYSVIEW.c **** *
1484:libraries/SystemView/SYSVIEW/SEGGER_SYSVIEW.c **** *  Parameters
1485:libraries/SystemView/SYSVIEW/SEGGER_SYSVIEW.c **** *    EventID - SystemView event ID.
1486:libraries/SystemView/SYSVIEW/SEGGER_SYSVIEW.c **** *    Para0   - The 32-bit parameter encoded to SystemView packet payload.
1487:libraries/SystemView/SYSVIEW/SEGGER_SYSVIEW.c **** *    Para1   - The 32-bit parameter encoded to SystemView packet payload.
1488:libraries/SystemView/SYSVIEW/SEGGER_SYSVIEW.c **** */
1489:libraries/SystemView/SYSVIEW/SEGGER_SYSVIEW.c **** void SEGGER_SYSVIEW_RecordU32x2(unsigned int EventID, U32 Para0, U32 Para1) {
1490:libraries/SystemView/SYSVIEW/SEGGER_SYSVIEW.c ****   U8* pPayload;
1491:libraries/SystemView/SYSVIEW/SEGGER_SYSVIEW.c ****   U8* pPayloadStart;
1492:libraries/SystemView/SYSVIEW/SEGGER_SYSVIEW.c ****   RECORD_START(SEGGER_SYSVIEW_INFO_SIZE + 2 * SEGGER_SYSVIEW_QUANTA_U32);
1493:libraries/SystemView/SYSVIEW/SEGGER_SYSVIEW.c ****   //
1494:libraries/SystemView/SYSVIEW/SEGGER_SYSVIEW.c ****   pPayload = pPayloadStart;
1495:libraries/SystemView/SYSVIEW/SEGGER_SYSVIEW.c ****   ENCODE_U32(pPayload, Para0);
1496:libraries/SystemView/SYSVIEW/SEGGER_SYSVIEW.c ****   ENCODE_U32(pPayload, Para1);
1497:libraries/SystemView/SYSVIEW/SEGGER_SYSVIEW.c ****   _SendPacket(pPayloadStart, pPayload, EventID);
1498:libraries/SystemView/SYSVIEW/SEGGER_SYSVIEW.c ****   RECORD_END();
1499:libraries/SystemView/SYSVIEW/SEGGER_SYSVIEW.c **** }
1500:libraries/SystemView/SYSVIEW/SEGGER_SYSVIEW.c **** 
1501:libraries/SystemView/SYSVIEW/SEGGER_SYSVIEW.c **** /*********************************************************************
1502:libraries/SystemView/SYSVIEW/SEGGER_SYSVIEW.c **** *
1503:libraries/SystemView/SYSVIEW/SEGGER_SYSVIEW.c **** *       SEGGER_SYSVIEW_RecordU32x3()
1504:libraries/SystemView/SYSVIEW/SEGGER_SYSVIEW.c **** *
1505:libraries/SystemView/SYSVIEW/SEGGER_SYSVIEW.c **** *  Function description
1506:libraries/SystemView/SYSVIEW/SEGGER_SYSVIEW.c **** *    Formats and sends a SystemView packet containing 3 U32 parameter payload.
1507:libraries/SystemView/SYSVIEW/SEGGER_SYSVIEW.c **** *
1508:libraries/SystemView/SYSVIEW/SEGGER_SYSVIEW.c **** *  Parameters
1509:libraries/SystemView/SYSVIEW/SEGGER_SYSVIEW.c **** *    EventID - SystemView event ID.
1510:libraries/SystemView/SYSVIEW/SEGGER_SYSVIEW.c **** *    Para0   - The 32-bit parameter encoded to SystemView packet payload.
1511:libraries/SystemView/SYSVIEW/SEGGER_SYSVIEW.c **** *    Para1   - The 32-bit parameter encoded to SystemView packet payload.
1512:libraries/SystemView/SYSVIEW/SEGGER_SYSVIEW.c **** *    Para2   - The 32-bit parameter encoded to SystemView packet payload.
1513:libraries/SystemView/SYSVIEW/SEGGER_SYSVIEW.c **** */
1514:libraries/SystemView/SYSVIEW/SEGGER_SYSVIEW.c **** void SEGGER_SYSVIEW_RecordU32x3(unsigned int EventID, U32 Para0, U32 Para1, U32 Para2) {
1515:libraries/SystemView/SYSVIEW/SEGGER_SYSVIEW.c ****   U8* pPayload;
1516:libraries/SystemView/SYSVIEW/SEGGER_SYSVIEW.c ****   U8* pPayloadStart;
1517:libraries/SystemView/SYSVIEW/SEGGER_SYSVIEW.c ****   RECORD_START(SEGGER_SYSVIEW_INFO_SIZE + 3 * SEGGER_SYSVIEW_QUANTA_U32);
1518:libraries/SystemView/SYSVIEW/SEGGER_SYSVIEW.c ****   //
1519:libraries/SystemView/SYSVIEW/SEGGER_SYSVIEW.c ****   pPayload = pPayloadStart;
1520:libraries/SystemView/SYSVIEW/SEGGER_SYSVIEW.c ****   ENCODE_U32(pPayload, Para0);
1521:libraries/SystemView/SYSVIEW/SEGGER_SYSVIEW.c ****   ENCODE_U32(pPayload, Para1);
1522:libraries/SystemView/SYSVIEW/SEGGER_SYSVIEW.c ****   ENCODE_U32(pPayload, Para2);
1523:libraries/SystemView/SYSVIEW/SEGGER_SYSVIEW.c ****   _SendPacket(pPayloadStart, pPayload, EventID);
1524:libraries/SystemView/SYSVIEW/SEGGER_SYSVIEW.c ****   RECORD_END();
1525:libraries/SystemView/SYSVIEW/SEGGER_SYSVIEW.c **** }
1526:libraries/SystemView/SYSVIEW/SEGGER_SYSVIEW.c **** 
1527:libraries/SystemView/SYSVIEW/SEGGER_SYSVIEW.c **** /*********************************************************************
1528:libraries/SystemView/SYSVIEW/SEGGER_SYSVIEW.c **** *
1529:libraries/SystemView/SYSVIEW/SEGGER_SYSVIEW.c **** *       SEGGER_SYSVIEW_RecordU32x4()
1530:libraries/SystemView/SYSVIEW/SEGGER_SYSVIEW.c **** *
1531:libraries/SystemView/SYSVIEW/SEGGER_SYSVIEW.c **** *  Function description
1532:libraries/SystemView/SYSVIEW/SEGGER_SYSVIEW.c **** *    Formats and sends a SystemView packet containing 4 U32 parameter payload.
1533:libraries/SystemView/SYSVIEW/SEGGER_SYSVIEW.c **** *
1534:libraries/SystemView/SYSVIEW/SEGGER_SYSVIEW.c **** *  Parameters
1535:libraries/SystemView/SYSVIEW/SEGGER_SYSVIEW.c **** *    EventID - SystemView event ID.
1536:libraries/SystemView/SYSVIEW/SEGGER_SYSVIEW.c **** *    Para0   - The 32-bit parameter encoded to SystemView packet payload.
1537:libraries/SystemView/SYSVIEW/SEGGER_SYSVIEW.c **** *    Para1   - The 32-bit parameter encoded to SystemView packet payload.
1538:libraries/SystemView/SYSVIEW/SEGGER_SYSVIEW.c **** *    Para2   - The 32-bit parameter encoded to SystemView packet payload.
ARM GAS  /tmp/ccyEpLlu.s 			page 39


1539:libraries/SystemView/SYSVIEW/SEGGER_SYSVIEW.c **** *    Para3   - The 32-bit parameter encoded to SystemView packet payload.
1540:libraries/SystemView/SYSVIEW/SEGGER_SYSVIEW.c **** */
1541:libraries/SystemView/SYSVIEW/SEGGER_SYSVIEW.c **** void SEGGER_SYSVIEW_RecordU32x4(unsigned int EventID, U32 Para0, U32 Para1, U32 Para2, U32 Para3) {
1542:libraries/SystemView/SYSVIEW/SEGGER_SYSVIEW.c ****   U8* pPayload;
1543:libraries/SystemView/SYSVIEW/SEGGER_SYSVIEW.c ****   U8* pPayloadStart;
1544:libraries/SystemView/SYSVIEW/SEGGER_SYSVIEW.c ****   RECORD_START(SEGGER_SYSVIEW_INFO_SIZE + 4 * SEGGER_SYSVIEW_QUANTA_U32);
1545:libraries/SystemView/SYSVIEW/SEGGER_SYSVIEW.c ****   //
1546:libraries/SystemView/SYSVIEW/SEGGER_SYSVIEW.c ****   pPayload = pPayloadStart;
1547:libraries/SystemView/SYSVIEW/SEGGER_SYSVIEW.c ****   ENCODE_U32(pPayload, Para0);
1548:libraries/SystemView/SYSVIEW/SEGGER_SYSVIEW.c ****   ENCODE_U32(pPayload, Para1);
1549:libraries/SystemView/SYSVIEW/SEGGER_SYSVIEW.c ****   ENCODE_U32(pPayload, Para2);
1550:libraries/SystemView/SYSVIEW/SEGGER_SYSVIEW.c ****   ENCODE_U32(pPayload, Para3);
1551:libraries/SystemView/SYSVIEW/SEGGER_SYSVIEW.c ****   _SendPacket(pPayloadStart, pPayload, EventID);
1552:libraries/SystemView/SYSVIEW/SEGGER_SYSVIEW.c ****   RECORD_END();
1553:libraries/SystemView/SYSVIEW/SEGGER_SYSVIEW.c **** }
1554:libraries/SystemView/SYSVIEW/SEGGER_SYSVIEW.c **** 
1555:libraries/SystemView/SYSVIEW/SEGGER_SYSVIEW.c **** /*********************************************************************
1556:libraries/SystemView/SYSVIEW/SEGGER_SYSVIEW.c **** *
1557:libraries/SystemView/SYSVIEW/SEGGER_SYSVIEW.c **** *       SEGGER_SYSVIEW_RecordU32x5()
1558:libraries/SystemView/SYSVIEW/SEGGER_SYSVIEW.c **** *
1559:libraries/SystemView/SYSVIEW/SEGGER_SYSVIEW.c **** *  Function description
1560:libraries/SystemView/SYSVIEW/SEGGER_SYSVIEW.c **** *    Formats and sends a SystemView packet containing 5 U32 parameter payload.
1561:libraries/SystemView/SYSVIEW/SEGGER_SYSVIEW.c **** *
1562:libraries/SystemView/SYSVIEW/SEGGER_SYSVIEW.c **** *  Parameters
1563:libraries/SystemView/SYSVIEW/SEGGER_SYSVIEW.c **** *    EventID - SystemView event ID.
1564:libraries/SystemView/SYSVIEW/SEGGER_SYSVIEW.c **** *    Para0   - The 32-bit parameter encoded to SystemView packet payload.
1565:libraries/SystemView/SYSVIEW/SEGGER_SYSVIEW.c **** *    Para1   - The 32-bit parameter encoded to SystemView packet payload.
1566:libraries/SystemView/SYSVIEW/SEGGER_SYSVIEW.c **** *    Para2   - The 32-bit parameter encoded to SystemView packet payload.
1567:libraries/SystemView/SYSVIEW/SEGGER_SYSVIEW.c **** *    Para3   - The 32-bit parameter encoded to SystemView packet payload.
1568:libraries/SystemView/SYSVIEW/SEGGER_SYSVIEW.c **** *    Para4   - The 32-bit parameter encoded to SystemView packet payload.
1569:libraries/SystemView/SYSVIEW/SEGGER_SYSVIEW.c **** */
1570:libraries/SystemView/SYSVIEW/SEGGER_SYSVIEW.c **** void SEGGER_SYSVIEW_RecordU32x5(unsigned int EventID, U32 Para0, U32 Para1, U32 Para2, U32 Para3, U
1571:libraries/SystemView/SYSVIEW/SEGGER_SYSVIEW.c ****   U8* pPayload;
1572:libraries/SystemView/SYSVIEW/SEGGER_SYSVIEW.c ****   U8* pPayloadStart;
1573:libraries/SystemView/SYSVIEW/SEGGER_SYSVIEW.c ****   RECORD_START(SEGGER_SYSVIEW_INFO_SIZE + 5 * SEGGER_SYSVIEW_QUANTA_U32);
1574:libraries/SystemView/SYSVIEW/SEGGER_SYSVIEW.c ****   //
1575:libraries/SystemView/SYSVIEW/SEGGER_SYSVIEW.c ****   pPayload = pPayloadStart;
1576:libraries/SystemView/SYSVIEW/SEGGER_SYSVIEW.c ****   ENCODE_U32(pPayload, Para0);
1577:libraries/SystemView/SYSVIEW/SEGGER_SYSVIEW.c ****   ENCODE_U32(pPayload, Para1);
1578:libraries/SystemView/SYSVIEW/SEGGER_SYSVIEW.c ****   ENCODE_U32(pPayload, Para2);
1579:libraries/SystemView/SYSVIEW/SEGGER_SYSVIEW.c ****   ENCODE_U32(pPayload, Para3);
1580:libraries/SystemView/SYSVIEW/SEGGER_SYSVIEW.c ****   ENCODE_U32(pPayload, Para4);
1581:libraries/SystemView/SYSVIEW/SEGGER_SYSVIEW.c ****   _SendPacket(pPayloadStart, pPayload, EventID);
1582:libraries/SystemView/SYSVIEW/SEGGER_SYSVIEW.c ****   RECORD_END();
1583:libraries/SystemView/SYSVIEW/SEGGER_SYSVIEW.c **** }
1584:libraries/SystemView/SYSVIEW/SEGGER_SYSVIEW.c **** 
1585:libraries/SystemView/SYSVIEW/SEGGER_SYSVIEW.c **** /*********************************************************************
1586:libraries/SystemView/SYSVIEW/SEGGER_SYSVIEW.c **** *
1587:libraries/SystemView/SYSVIEW/SEGGER_SYSVIEW.c **** *       SEGGER_SYSVIEW_RecordU32x6()
1588:libraries/SystemView/SYSVIEW/SEGGER_SYSVIEW.c **** *
1589:libraries/SystemView/SYSVIEW/SEGGER_SYSVIEW.c **** *  Function description
1590:libraries/SystemView/SYSVIEW/SEGGER_SYSVIEW.c **** *    Formats and sends a SystemView packet containing 6 U32 parameter payload.
1591:libraries/SystemView/SYSVIEW/SEGGER_SYSVIEW.c **** *
1592:libraries/SystemView/SYSVIEW/SEGGER_SYSVIEW.c **** *  Parameters
1593:libraries/SystemView/SYSVIEW/SEGGER_SYSVIEW.c **** *    EventID - SystemView event ID.
1594:libraries/SystemView/SYSVIEW/SEGGER_SYSVIEW.c **** *    Para0   - The 32-bit parameter encoded to SystemView packet payload.
1595:libraries/SystemView/SYSVIEW/SEGGER_SYSVIEW.c **** *    Para1   - The 32-bit parameter encoded to SystemView packet payload.
ARM GAS  /tmp/ccyEpLlu.s 			page 40


1596:libraries/SystemView/SYSVIEW/SEGGER_SYSVIEW.c **** *    Para2   - The 32-bit parameter encoded to SystemView packet payload.
1597:libraries/SystemView/SYSVIEW/SEGGER_SYSVIEW.c **** *    Para3   - The 32-bit parameter encoded to SystemView packet payload.
1598:libraries/SystemView/SYSVIEW/SEGGER_SYSVIEW.c **** *    Para4   - The 32-bit parameter encoded to SystemView packet payload.
1599:libraries/SystemView/SYSVIEW/SEGGER_SYSVIEW.c **** *    Para5   - The 32-bit parameter encoded to SystemView packet payload.
1600:libraries/SystemView/SYSVIEW/SEGGER_SYSVIEW.c **** */
1601:libraries/SystemView/SYSVIEW/SEGGER_SYSVIEW.c **** void SEGGER_SYSVIEW_RecordU32x6(unsigned int EventID, U32 Para0, U32 Para1, U32 Para2, U32 Para3, U
1602:libraries/SystemView/SYSVIEW/SEGGER_SYSVIEW.c ****   U8* pPayload;
1603:libraries/SystemView/SYSVIEW/SEGGER_SYSVIEW.c ****   U8* pPayloadStart;
1604:libraries/SystemView/SYSVIEW/SEGGER_SYSVIEW.c ****   RECORD_START(SEGGER_SYSVIEW_INFO_SIZE + 6 * SEGGER_SYSVIEW_QUANTA_U32);
1605:libraries/SystemView/SYSVIEW/SEGGER_SYSVIEW.c ****   //
1606:libraries/SystemView/SYSVIEW/SEGGER_SYSVIEW.c ****   pPayload = pPayloadStart;
1607:libraries/SystemView/SYSVIEW/SEGGER_SYSVIEW.c ****   ENCODE_U32(pPayload, Para0);
1608:libraries/SystemView/SYSVIEW/SEGGER_SYSVIEW.c ****   ENCODE_U32(pPayload, Para1);
1609:libraries/SystemView/SYSVIEW/SEGGER_SYSVIEW.c ****   ENCODE_U32(pPayload, Para2);
1610:libraries/SystemView/SYSVIEW/SEGGER_SYSVIEW.c ****   ENCODE_U32(pPayload, Para3);
1611:libraries/SystemView/SYSVIEW/SEGGER_SYSVIEW.c ****   ENCODE_U32(pPayload, Para4);
1612:libraries/SystemView/SYSVIEW/SEGGER_SYSVIEW.c ****   ENCODE_U32(pPayload, Para5);
1613:libraries/SystemView/SYSVIEW/SEGGER_SYSVIEW.c ****   _SendPacket(pPayloadStart, pPayload, EventID);
1614:libraries/SystemView/SYSVIEW/SEGGER_SYSVIEW.c ****   RECORD_END();
1615:libraries/SystemView/SYSVIEW/SEGGER_SYSVIEW.c **** }
1616:libraries/SystemView/SYSVIEW/SEGGER_SYSVIEW.c **** 
1617:libraries/SystemView/SYSVIEW/SEGGER_SYSVIEW.c **** /*********************************************************************
1618:libraries/SystemView/SYSVIEW/SEGGER_SYSVIEW.c **** *
1619:libraries/SystemView/SYSVIEW/SEGGER_SYSVIEW.c **** *       SEGGER_SYSVIEW_RecordU32x7()
1620:libraries/SystemView/SYSVIEW/SEGGER_SYSVIEW.c **** *
1621:libraries/SystemView/SYSVIEW/SEGGER_SYSVIEW.c **** *  Function description
1622:libraries/SystemView/SYSVIEW/SEGGER_SYSVIEW.c **** *    Formats and sends a SystemView packet containing 7 U32 parameter payload.
1623:libraries/SystemView/SYSVIEW/SEGGER_SYSVIEW.c **** *
1624:libraries/SystemView/SYSVIEW/SEGGER_SYSVIEW.c **** *  Parameters
1625:libraries/SystemView/SYSVIEW/SEGGER_SYSVIEW.c **** *    EventID - SystemView event ID.
1626:libraries/SystemView/SYSVIEW/SEGGER_SYSVIEW.c **** *    Para0   - The 32-bit parameter encoded to SystemView packet payload.
1627:libraries/SystemView/SYSVIEW/SEGGER_SYSVIEW.c **** *    Para1   - The 32-bit parameter encoded to SystemView packet payload.
1628:libraries/SystemView/SYSVIEW/SEGGER_SYSVIEW.c **** *    Para2   - The 32-bit parameter encoded to SystemView packet payload.
1629:libraries/SystemView/SYSVIEW/SEGGER_SYSVIEW.c **** *    Para3   - The 32-bit parameter encoded to SystemView packet payload.
1630:libraries/SystemView/SYSVIEW/SEGGER_SYSVIEW.c **** *    Para4   - The 32-bit parameter encoded to SystemView packet payload.
1631:libraries/SystemView/SYSVIEW/SEGGER_SYSVIEW.c **** *    Para5   - The 32-bit parameter encoded to SystemView packet payload.
1632:libraries/SystemView/SYSVIEW/SEGGER_SYSVIEW.c **** *    Para6   - The 32-bit parameter encoded to SystemView packet payload.
1633:libraries/SystemView/SYSVIEW/SEGGER_SYSVIEW.c **** */
1634:libraries/SystemView/SYSVIEW/SEGGER_SYSVIEW.c **** void SEGGER_SYSVIEW_RecordU32x7(unsigned int EventID, U32 Para0, U32 Para1, U32 Para2, U32 Para3, U
1635:libraries/SystemView/SYSVIEW/SEGGER_SYSVIEW.c ****   U8* pPayload;
1636:libraries/SystemView/SYSVIEW/SEGGER_SYSVIEW.c ****   U8* pPayloadStart;
1637:libraries/SystemView/SYSVIEW/SEGGER_SYSVIEW.c ****   RECORD_START(SEGGER_SYSVIEW_INFO_SIZE + 7 * SEGGER_SYSVIEW_QUANTA_U32);
1638:libraries/SystemView/SYSVIEW/SEGGER_SYSVIEW.c ****   //
1639:libraries/SystemView/SYSVIEW/SEGGER_SYSVIEW.c ****   pPayload = pPayloadStart;
1640:libraries/SystemView/SYSVIEW/SEGGER_SYSVIEW.c ****   ENCODE_U32(pPayload, Para0);
1641:libraries/SystemView/SYSVIEW/SEGGER_SYSVIEW.c ****   ENCODE_U32(pPayload, Para1);
1642:libraries/SystemView/SYSVIEW/SEGGER_SYSVIEW.c ****   ENCODE_U32(pPayload, Para2);
1643:libraries/SystemView/SYSVIEW/SEGGER_SYSVIEW.c ****   ENCODE_U32(pPayload, Para3);
1644:libraries/SystemView/SYSVIEW/SEGGER_SYSVIEW.c ****   ENCODE_U32(pPayload, Para4);
1645:libraries/SystemView/SYSVIEW/SEGGER_SYSVIEW.c ****   ENCODE_U32(pPayload, Para5);
1646:libraries/SystemView/SYSVIEW/SEGGER_SYSVIEW.c ****   ENCODE_U32(pPayload, Para6);
1647:libraries/SystemView/SYSVIEW/SEGGER_SYSVIEW.c ****   _SendPacket(pPayloadStart, pPayload, EventID);
1648:libraries/SystemView/SYSVIEW/SEGGER_SYSVIEW.c ****   RECORD_END();
1649:libraries/SystemView/SYSVIEW/SEGGER_SYSVIEW.c **** }
1650:libraries/SystemView/SYSVIEW/SEGGER_SYSVIEW.c **** 
1651:libraries/SystemView/SYSVIEW/SEGGER_SYSVIEW.c **** /*********************************************************************
1652:libraries/SystemView/SYSVIEW/SEGGER_SYSVIEW.c **** *
ARM GAS  /tmp/ccyEpLlu.s 			page 41


1653:libraries/SystemView/SYSVIEW/SEGGER_SYSVIEW.c **** *       SEGGER_SYSVIEW_RecordU32x8()
1654:libraries/SystemView/SYSVIEW/SEGGER_SYSVIEW.c **** *
1655:libraries/SystemView/SYSVIEW/SEGGER_SYSVIEW.c **** *  Function description
1656:libraries/SystemView/SYSVIEW/SEGGER_SYSVIEW.c **** *    Formats and sends a SystemView packet containing 8 U32 parameter payload.
1657:libraries/SystemView/SYSVIEW/SEGGER_SYSVIEW.c **** *
1658:libraries/SystemView/SYSVIEW/SEGGER_SYSVIEW.c **** *  Parameters
1659:libraries/SystemView/SYSVIEW/SEGGER_SYSVIEW.c **** *    EventID - SystemView event ID.
1660:libraries/SystemView/SYSVIEW/SEGGER_SYSVIEW.c **** *    Para0   - The 32-bit parameter encoded to SystemView packet payload.
1661:libraries/SystemView/SYSVIEW/SEGGER_SYSVIEW.c **** *    Para1   - The 32-bit parameter encoded to SystemView packet payload.
1662:libraries/SystemView/SYSVIEW/SEGGER_SYSVIEW.c **** *    Para2   - The 32-bit parameter encoded to SystemView packet payload.
1663:libraries/SystemView/SYSVIEW/SEGGER_SYSVIEW.c **** *    Para3   - The 32-bit parameter encoded to SystemView packet payload.
1664:libraries/SystemView/SYSVIEW/SEGGER_SYSVIEW.c **** *    Para4   - The 32-bit parameter encoded to SystemView packet payload.
1665:libraries/SystemView/SYSVIEW/SEGGER_SYSVIEW.c **** *    Para5   - The 32-bit parameter encoded to SystemView packet payload.
1666:libraries/SystemView/SYSVIEW/SEGGER_SYSVIEW.c **** *    Para6   - The 32-bit parameter encoded to SystemView packet payload.
1667:libraries/SystemView/SYSVIEW/SEGGER_SYSVIEW.c **** *    Para7   - The 32-bit parameter encoded to SystemView packet payload.
1668:libraries/SystemView/SYSVIEW/SEGGER_SYSVIEW.c **** */
1669:libraries/SystemView/SYSVIEW/SEGGER_SYSVIEW.c **** void SEGGER_SYSVIEW_RecordU32x8(unsigned int EventID, U32 Para0, U32 Para1, U32 Para2, U32 Para3, U
1670:libraries/SystemView/SYSVIEW/SEGGER_SYSVIEW.c ****   U8* pPayload;
1671:libraries/SystemView/SYSVIEW/SEGGER_SYSVIEW.c ****   U8* pPayloadStart;
1672:libraries/SystemView/SYSVIEW/SEGGER_SYSVIEW.c ****   RECORD_START(SEGGER_SYSVIEW_INFO_SIZE + 8 * SEGGER_SYSVIEW_QUANTA_U32);
1673:libraries/SystemView/SYSVIEW/SEGGER_SYSVIEW.c ****   //
1674:libraries/SystemView/SYSVIEW/SEGGER_SYSVIEW.c ****   pPayload = pPayloadStart;
1675:libraries/SystemView/SYSVIEW/SEGGER_SYSVIEW.c ****   ENCODE_U32(pPayload, Para0);
1676:libraries/SystemView/SYSVIEW/SEGGER_SYSVIEW.c ****   ENCODE_U32(pPayload, Para1);
1677:libraries/SystemView/SYSVIEW/SEGGER_SYSVIEW.c ****   ENCODE_U32(pPayload, Para2);
1678:libraries/SystemView/SYSVIEW/SEGGER_SYSVIEW.c ****   ENCODE_U32(pPayload, Para3);
1679:libraries/SystemView/SYSVIEW/SEGGER_SYSVIEW.c ****   ENCODE_U32(pPayload, Para4);
1680:libraries/SystemView/SYSVIEW/SEGGER_SYSVIEW.c ****   ENCODE_U32(pPayload, Para5);
1681:libraries/SystemView/SYSVIEW/SEGGER_SYSVIEW.c ****   ENCODE_U32(pPayload, Para6);
1682:libraries/SystemView/SYSVIEW/SEGGER_SYSVIEW.c ****   ENCODE_U32(pPayload, Para7);
1683:libraries/SystemView/SYSVIEW/SEGGER_SYSVIEW.c ****   _SendPacket(pPayloadStart, pPayload, EventID);
1684:libraries/SystemView/SYSVIEW/SEGGER_SYSVIEW.c ****   RECORD_END();
1685:libraries/SystemView/SYSVIEW/SEGGER_SYSVIEW.c **** }
1686:libraries/SystemView/SYSVIEW/SEGGER_SYSVIEW.c **** 
1687:libraries/SystemView/SYSVIEW/SEGGER_SYSVIEW.c **** /*********************************************************************
1688:libraries/SystemView/SYSVIEW/SEGGER_SYSVIEW.c **** *
1689:libraries/SystemView/SYSVIEW/SEGGER_SYSVIEW.c **** *       SEGGER_SYSVIEW_RecordU32x9()
1690:libraries/SystemView/SYSVIEW/SEGGER_SYSVIEW.c **** *
1691:libraries/SystemView/SYSVIEW/SEGGER_SYSVIEW.c **** *  Function description
1692:libraries/SystemView/SYSVIEW/SEGGER_SYSVIEW.c **** *    Formats and sends a SystemView packet containing 9 U32 parameter payload.
1693:libraries/SystemView/SYSVIEW/SEGGER_SYSVIEW.c **** *
1694:libraries/SystemView/SYSVIEW/SEGGER_SYSVIEW.c **** *  Parameters
1695:libraries/SystemView/SYSVIEW/SEGGER_SYSVIEW.c **** *    EventID - SystemView event ID.
1696:libraries/SystemView/SYSVIEW/SEGGER_SYSVIEW.c **** *    Para0   - The 32-bit parameter encoded to SystemView packet payload.
1697:libraries/SystemView/SYSVIEW/SEGGER_SYSVIEW.c **** *    Para1   - The 32-bit parameter encoded to SystemView packet payload.
1698:libraries/SystemView/SYSVIEW/SEGGER_SYSVIEW.c **** *    Para2   - The 32-bit parameter encoded to SystemView packet payload.
1699:libraries/SystemView/SYSVIEW/SEGGER_SYSVIEW.c **** *    Para3   - The 32-bit parameter encoded to SystemView packet payload.
1700:libraries/SystemView/SYSVIEW/SEGGER_SYSVIEW.c **** *    Para4   - The 32-bit parameter encoded to SystemView packet payload.
1701:libraries/SystemView/SYSVIEW/SEGGER_SYSVIEW.c **** *    Para5   - The 32-bit parameter encoded to SystemView packet payload.
1702:libraries/SystemView/SYSVIEW/SEGGER_SYSVIEW.c **** *    Para6   - The 32-bit parameter encoded to SystemView packet payload.
1703:libraries/SystemView/SYSVIEW/SEGGER_SYSVIEW.c **** *    Para7   - The 32-bit parameter encoded to SystemView packet payload.
1704:libraries/SystemView/SYSVIEW/SEGGER_SYSVIEW.c **** *    Para8   - The 32-bit parameter encoded to SystemView packet payload.
1705:libraries/SystemView/SYSVIEW/SEGGER_SYSVIEW.c **** */
1706:libraries/SystemView/SYSVIEW/SEGGER_SYSVIEW.c **** void SEGGER_SYSVIEW_RecordU32x9(unsigned int EventID, U32 Para0, U32 Para1, U32 Para2, U32 Para3, U
1707:libraries/SystemView/SYSVIEW/SEGGER_SYSVIEW.c ****   U8* pPayload;
1708:libraries/SystemView/SYSVIEW/SEGGER_SYSVIEW.c ****   U8* pPayloadStart;
1709:libraries/SystemView/SYSVIEW/SEGGER_SYSVIEW.c ****   RECORD_START(SEGGER_SYSVIEW_INFO_SIZE + 9 * SEGGER_SYSVIEW_QUANTA_U32);
ARM GAS  /tmp/ccyEpLlu.s 			page 42


1710:libraries/SystemView/SYSVIEW/SEGGER_SYSVIEW.c ****   //
1711:libraries/SystemView/SYSVIEW/SEGGER_SYSVIEW.c ****   pPayload = pPayloadStart;
1712:libraries/SystemView/SYSVIEW/SEGGER_SYSVIEW.c ****   ENCODE_U32(pPayload, Para0);
1713:libraries/SystemView/SYSVIEW/SEGGER_SYSVIEW.c ****   ENCODE_U32(pPayload, Para1);
1714:libraries/SystemView/SYSVIEW/SEGGER_SYSVIEW.c ****   ENCODE_U32(pPayload, Para2);
1715:libraries/SystemView/SYSVIEW/SEGGER_SYSVIEW.c ****   ENCODE_U32(pPayload, Para3);
1716:libraries/SystemView/SYSVIEW/SEGGER_SYSVIEW.c ****   ENCODE_U32(pPayload, Para4);
1717:libraries/SystemView/SYSVIEW/SEGGER_SYSVIEW.c ****   ENCODE_U32(pPayload, Para5);
1718:libraries/SystemView/SYSVIEW/SEGGER_SYSVIEW.c ****   ENCODE_U32(pPayload, Para6);
1719:libraries/SystemView/SYSVIEW/SEGGER_SYSVIEW.c ****   ENCODE_U32(pPayload, Para7);
1720:libraries/SystemView/SYSVIEW/SEGGER_SYSVIEW.c ****   ENCODE_U32(pPayload, Para8);
1721:libraries/SystemView/SYSVIEW/SEGGER_SYSVIEW.c ****   _SendPacket(pPayloadStart, pPayload, EventID);
1722:libraries/SystemView/SYSVIEW/SEGGER_SYSVIEW.c ****   RECORD_END();
1723:libraries/SystemView/SYSVIEW/SEGGER_SYSVIEW.c **** }
1724:libraries/SystemView/SYSVIEW/SEGGER_SYSVIEW.c **** 
1725:libraries/SystemView/SYSVIEW/SEGGER_SYSVIEW.c **** /*********************************************************************
1726:libraries/SystemView/SYSVIEW/SEGGER_SYSVIEW.c **** *
1727:libraries/SystemView/SYSVIEW/SEGGER_SYSVIEW.c **** *       SEGGER_SYSVIEW_RecordU32x10()
1728:libraries/SystemView/SYSVIEW/SEGGER_SYSVIEW.c **** *
1729:libraries/SystemView/SYSVIEW/SEGGER_SYSVIEW.c **** *  Function description
1730:libraries/SystemView/SYSVIEW/SEGGER_SYSVIEW.c **** *    Formats and sends a SystemView packet containing 10 U32 parameter payload.
1731:libraries/SystemView/SYSVIEW/SEGGER_SYSVIEW.c **** *
1732:libraries/SystemView/SYSVIEW/SEGGER_SYSVIEW.c **** *  Parameters
1733:libraries/SystemView/SYSVIEW/SEGGER_SYSVIEW.c **** *    EventID - SystemView event ID.
1734:libraries/SystemView/SYSVIEW/SEGGER_SYSVIEW.c **** *    Para0   - The 32-bit parameter encoded to SystemView packet payload.
1735:libraries/SystemView/SYSVIEW/SEGGER_SYSVIEW.c **** *    Para1   - The 32-bit parameter encoded to SystemView packet payload.
1736:libraries/SystemView/SYSVIEW/SEGGER_SYSVIEW.c **** *    Para2   - The 32-bit parameter encoded to SystemView packet payload.
1737:libraries/SystemView/SYSVIEW/SEGGER_SYSVIEW.c **** *    Para3   - The 32-bit parameter encoded to SystemView packet payload.
1738:libraries/SystemView/SYSVIEW/SEGGER_SYSVIEW.c **** *    Para4   - The 32-bit parameter encoded to SystemView packet payload.
1739:libraries/SystemView/SYSVIEW/SEGGER_SYSVIEW.c **** *    Para5   - The 32-bit parameter encoded to SystemView packet payload.
1740:libraries/SystemView/SYSVIEW/SEGGER_SYSVIEW.c **** *    Para6   - The 32-bit parameter encoded to SystemView packet payload.
1741:libraries/SystemView/SYSVIEW/SEGGER_SYSVIEW.c **** *    Para7   - The 32-bit parameter encoded to SystemView packet payload.
1742:libraries/SystemView/SYSVIEW/SEGGER_SYSVIEW.c **** *    Para8   - The 32-bit parameter encoded to SystemView packet payload.
1743:libraries/SystemView/SYSVIEW/SEGGER_SYSVIEW.c **** *    Para9   - The 32-bit parameter encoded to SystemView packet payload.
1744:libraries/SystemView/SYSVIEW/SEGGER_SYSVIEW.c **** */
1745:libraries/SystemView/SYSVIEW/SEGGER_SYSVIEW.c **** void SEGGER_SYSVIEW_RecordU32x10(unsigned int EventID, U32 Para0, U32 Para1, U32 Para2, U32 Para3, 
1746:libraries/SystemView/SYSVIEW/SEGGER_SYSVIEW.c ****   U8* pPayload;
1747:libraries/SystemView/SYSVIEW/SEGGER_SYSVIEW.c ****   U8* pPayloadStart;
1748:libraries/SystemView/SYSVIEW/SEGGER_SYSVIEW.c ****   RECORD_START(SEGGER_SYSVIEW_INFO_SIZE + 10 * SEGGER_SYSVIEW_QUANTA_U32);
1749:libraries/SystemView/SYSVIEW/SEGGER_SYSVIEW.c ****   //
1750:libraries/SystemView/SYSVIEW/SEGGER_SYSVIEW.c ****   pPayload = pPayloadStart;
1751:libraries/SystemView/SYSVIEW/SEGGER_SYSVIEW.c ****   ENCODE_U32(pPayload, Para0);
1752:libraries/SystemView/SYSVIEW/SEGGER_SYSVIEW.c ****   ENCODE_U32(pPayload, Para1);
1753:libraries/SystemView/SYSVIEW/SEGGER_SYSVIEW.c ****   ENCODE_U32(pPayload, Para2);
1754:libraries/SystemView/SYSVIEW/SEGGER_SYSVIEW.c ****   ENCODE_U32(pPayload, Para3);
1755:libraries/SystemView/SYSVIEW/SEGGER_SYSVIEW.c ****   ENCODE_U32(pPayload, Para4);
1756:libraries/SystemView/SYSVIEW/SEGGER_SYSVIEW.c ****   ENCODE_U32(pPayload, Para5);
1757:libraries/SystemView/SYSVIEW/SEGGER_SYSVIEW.c ****   ENCODE_U32(pPayload, Para6);
1758:libraries/SystemView/SYSVIEW/SEGGER_SYSVIEW.c ****   ENCODE_U32(pPayload, Para7);
1759:libraries/SystemView/SYSVIEW/SEGGER_SYSVIEW.c ****   ENCODE_U32(pPayload, Para8);
1760:libraries/SystemView/SYSVIEW/SEGGER_SYSVIEW.c ****   ENCODE_U32(pPayload, Para9);
1761:libraries/SystemView/SYSVIEW/SEGGER_SYSVIEW.c ****   _SendPacket(pPayloadStart, pPayload, EventID);
1762:libraries/SystemView/SYSVIEW/SEGGER_SYSVIEW.c ****   RECORD_END();
1763:libraries/SystemView/SYSVIEW/SEGGER_SYSVIEW.c **** }
1764:libraries/SystemView/SYSVIEW/SEGGER_SYSVIEW.c **** /*********************************************************************
1765:libraries/SystemView/SYSVIEW/SEGGER_SYSVIEW.c **** *
1766:libraries/SystemView/SYSVIEW/SEGGER_SYSVIEW.c **** *       SEGGER_SYSVIEW_RecordString()
ARM GAS  /tmp/ccyEpLlu.s 			page 43


1767:libraries/SystemView/SYSVIEW/SEGGER_SYSVIEW.c **** *
1768:libraries/SystemView/SYSVIEW/SEGGER_SYSVIEW.c **** *  Function description
1769:libraries/SystemView/SYSVIEW/SEGGER_SYSVIEW.c **** *    Formats and sends a SystemView packet containing a string.
1770:libraries/SystemView/SYSVIEW/SEGGER_SYSVIEW.c **** *
1771:libraries/SystemView/SYSVIEW/SEGGER_SYSVIEW.c **** *  Parameters
1772:libraries/SystemView/SYSVIEW/SEGGER_SYSVIEW.c **** *    EventID - SystemView event ID.
1773:libraries/SystemView/SYSVIEW/SEGGER_SYSVIEW.c **** *    pString - The string to be sent in the SystemView packet payload.
1774:libraries/SystemView/SYSVIEW/SEGGER_SYSVIEW.c **** *
1775:libraries/SystemView/SYSVIEW/SEGGER_SYSVIEW.c **** *  Additional information
1776:libraries/SystemView/SYSVIEW/SEGGER_SYSVIEW.c **** *    The string is encoded as a count byte followed by the contents
1777:libraries/SystemView/SYSVIEW/SEGGER_SYSVIEW.c **** *    of the string.
1778:libraries/SystemView/SYSVIEW/SEGGER_SYSVIEW.c **** *    No more than SEGGER_SYSVIEW_MAX_STRING_LEN bytes will be encoded to the payload.
1779:libraries/SystemView/SYSVIEW/SEGGER_SYSVIEW.c **** */
1780:libraries/SystemView/SYSVIEW/SEGGER_SYSVIEW.c **** void SEGGER_SYSVIEW_RecordString(unsigned int EventID, const char* pString) {
1781:libraries/SystemView/SYSVIEW/SEGGER_SYSVIEW.c ****   U8* pPayload;
1782:libraries/SystemView/SYSVIEW/SEGGER_SYSVIEW.c ****   U8* pPayloadStart;
1783:libraries/SystemView/SYSVIEW/SEGGER_SYSVIEW.c ****   RECORD_START(SEGGER_SYSVIEW_INFO_SIZE + 1 + SEGGER_SYSVIEW_MAX_STRING_LEN);
1784:libraries/SystemView/SYSVIEW/SEGGER_SYSVIEW.c ****   //
1785:libraries/SystemView/SYSVIEW/SEGGER_SYSVIEW.c ****   pPayload = _EncodeStr(pPayloadStart, pString, SEGGER_SYSVIEW_MAX_STRING_LEN);
1786:libraries/SystemView/SYSVIEW/SEGGER_SYSVIEW.c ****   _SendPacket(pPayloadStart, pPayload, EventID);
1787:libraries/SystemView/SYSVIEW/SEGGER_SYSVIEW.c ****   RECORD_END();
1788:libraries/SystemView/SYSVIEW/SEGGER_SYSVIEW.c **** }
1789:libraries/SystemView/SYSVIEW/SEGGER_SYSVIEW.c **** 
1790:libraries/SystemView/SYSVIEW/SEGGER_SYSVIEW.c **** /*********************************************************************
1791:libraries/SystemView/SYSVIEW/SEGGER_SYSVIEW.c **** *
1792:libraries/SystemView/SYSVIEW/SEGGER_SYSVIEW.c **** *       SEGGER_SYSVIEW_Start()
1793:libraries/SystemView/SYSVIEW/SEGGER_SYSVIEW.c **** *
1794:libraries/SystemView/SYSVIEW/SEGGER_SYSVIEW.c **** *  Function description
1795:libraries/SystemView/SYSVIEW/SEGGER_SYSVIEW.c **** *    Start recording SystemView events.
1796:libraries/SystemView/SYSVIEW/SEGGER_SYSVIEW.c **** *
1797:libraries/SystemView/SYSVIEW/SEGGER_SYSVIEW.c **** *    This function is triggered by the SystemView Application on connect.
1798:libraries/SystemView/SYSVIEW/SEGGER_SYSVIEW.c **** *    For single-shot or post-mortem mode recording, it needs to be called
1799:libraries/SystemView/SYSVIEW/SEGGER_SYSVIEW.c **** *    by the application.
1800:libraries/SystemView/SYSVIEW/SEGGER_SYSVIEW.c **** *
1801:libraries/SystemView/SYSVIEW/SEGGER_SYSVIEW.c **** *  Additional information
1802:libraries/SystemView/SYSVIEW/SEGGER_SYSVIEW.c **** *    This function enables transmission of SystemView packets recorded
1803:libraries/SystemView/SYSVIEW/SEGGER_SYSVIEW.c **** *    by subsequent trace calls and records a SystemView Start event.
1804:libraries/SystemView/SYSVIEW/SEGGER_SYSVIEW.c **** *
1805:libraries/SystemView/SYSVIEW/SEGGER_SYSVIEW.c **** *    As part of start, a SystemView Init packet is sent, containing the system
1806:libraries/SystemView/SYSVIEW/SEGGER_SYSVIEW.c **** *    frequency. The list of current tasks, the current system time and the
1807:libraries/SystemView/SYSVIEW/SEGGER_SYSVIEW.c **** *    system description string is sent, too.
1808:libraries/SystemView/SYSVIEW/SEGGER_SYSVIEW.c **** *
1809:libraries/SystemView/SYSVIEW/SEGGER_SYSVIEW.c **** *  Notes
1810:libraries/SystemView/SYSVIEW/SEGGER_SYSVIEW.c **** *    SEGGER_SYSVIEW_Start and SEGGER_SYSVIEW_Stop do not nest.
1811:libraries/SystemView/SYSVIEW/SEGGER_SYSVIEW.c **** *    When SEGGER_SYSVIEW_CAN_RESTART is 1, each received start command
1812:libraries/SystemView/SYSVIEW/SEGGER_SYSVIEW.c **** *    records the system information. This is required to enable restart
1813:libraries/SystemView/SYSVIEW/SEGGER_SYSVIEW.c **** *    of recordings when SystemView unexpectedly disconnects without sending
1814:libraries/SystemView/SYSVIEW/SEGGER_SYSVIEW.c **** *    a stop command before.
1815:libraries/SystemView/SYSVIEW/SEGGER_SYSVIEW.c **** */
1816:libraries/SystemView/SYSVIEW/SEGGER_SYSVIEW.c **** void SEGGER_SYSVIEW_Start(void) {
1817:libraries/SystemView/SYSVIEW/SEGGER_SYSVIEW.c **** #if (SEGGER_SYSVIEW_CAN_RESTART == 0)
1818:libraries/SystemView/SYSVIEW/SEGGER_SYSVIEW.c ****   if (_SYSVIEW_Globals.EnableState == 0) {
1819:libraries/SystemView/SYSVIEW/SEGGER_SYSVIEW.c **** #endif
1820:libraries/SystemView/SYSVIEW/SEGGER_SYSVIEW.c ****     _SYSVIEW_Globals.EnableState = 1;
1821:libraries/SystemView/SYSVIEW/SEGGER_SYSVIEW.c **** #if (SEGGER_SYSVIEW_POST_MORTEM_MODE == 1)
1822:libraries/SystemView/SYSVIEW/SEGGER_SYSVIEW.c ****     _SendSyncInfo();
1823:libraries/SystemView/SYSVIEW/SEGGER_SYSVIEW.c **** #else
ARM GAS  /tmp/ccyEpLlu.s 			page 44


1824:libraries/SystemView/SYSVIEW/SEGGER_SYSVIEW.c ****     SEGGER_SYSVIEW_LOCK();
1825:libraries/SystemView/SYSVIEW/SEGGER_SYSVIEW.c ****     SEGGER_RTT_WriteSkipNoLock(CHANNEL_ID_UP, _abSync, 10);
1826:libraries/SystemView/SYSVIEW/SEGGER_SYSVIEW.c ****     SEGGER_SYSVIEW_UNLOCK();
1827:libraries/SystemView/SYSVIEW/SEGGER_SYSVIEW.c ****     SEGGER_SYSVIEW_ON_EVENT_RECORDED(10);
1828:libraries/SystemView/SYSVIEW/SEGGER_SYSVIEW.c ****     SEGGER_SYSVIEW_RecordVoid(SYSVIEW_EVTID_TRACE_START);
1829:libraries/SystemView/SYSVIEW/SEGGER_SYSVIEW.c ****     {
1830:libraries/SystemView/SYSVIEW/SEGGER_SYSVIEW.c ****       U8* pPayload;
1831:libraries/SystemView/SYSVIEW/SEGGER_SYSVIEW.c ****       U8* pPayloadStart;
1832:libraries/SystemView/SYSVIEW/SEGGER_SYSVIEW.c ****       RECORD_START(SEGGER_SYSVIEW_INFO_SIZE + 4 * SEGGER_SYSVIEW_QUANTA_U32);
1833:libraries/SystemView/SYSVIEW/SEGGER_SYSVIEW.c ****       //
1834:libraries/SystemView/SYSVIEW/SEGGER_SYSVIEW.c ****       pPayload = pPayloadStart;
1835:libraries/SystemView/SYSVIEW/SEGGER_SYSVIEW.c ****       ENCODE_U32(pPayload, _SYSVIEW_Globals.SysFreq);
1836:libraries/SystemView/SYSVIEW/SEGGER_SYSVIEW.c ****       ENCODE_U32(pPayload, _SYSVIEW_Globals.CPUFreq);
1837:libraries/SystemView/SYSVIEW/SEGGER_SYSVIEW.c ****       ENCODE_U32(pPayload, _SYSVIEW_Globals.RAMBaseAddress);
1838:libraries/SystemView/SYSVIEW/SEGGER_SYSVIEW.c ****       ENCODE_U32(pPayload, SEGGER_SYSVIEW_ID_SHIFT);
1839:libraries/SystemView/SYSVIEW/SEGGER_SYSVIEW.c ****       _SendPacket(pPayloadStart, pPayload, SYSVIEW_EVTID_INIT);
1840:libraries/SystemView/SYSVIEW/SEGGER_SYSVIEW.c ****       RECORD_END();
1841:libraries/SystemView/SYSVIEW/SEGGER_SYSVIEW.c ****     }
1842:libraries/SystemView/SYSVIEW/SEGGER_SYSVIEW.c ****     if (_SYSVIEW_Globals.pfSendSysDesc) {
1843:libraries/SystemView/SYSVIEW/SEGGER_SYSVIEW.c ****       _SYSVIEW_Globals.pfSendSysDesc();
1844:libraries/SystemView/SYSVIEW/SEGGER_SYSVIEW.c ****     }
1845:libraries/SystemView/SYSVIEW/SEGGER_SYSVIEW.c ****     SEGGER_SYSVIEW_RecordSystime();
1846:libraries/SystemView/SYSVIEW/SEGGER_SYSVIEW.c ****     SEGGER_SYSVIEW_SendTaskList();
1847:libraries/SystemView/SYSVIEW/SEGGER_SYSVIEW.c ****     SEGGER_SYSVIEW_SendNumModules();
1848:libraries/SystemView/SYSVIEW/SEGGER_SYSVIEW.c **** #endif
1849:libraries/SystemView/SYSVIEW/SEGGER_SYSVIEW.c **** #if (SEGGER_SYSVIEW_CAN_RESTART == 0)
1850:libraries/SystemView/SYSVIEW/SEGGER_SYSVIEW.c ****   }
1851:libraries/SystemView/SYSVIEW/SEGGER_SYSVIEW.c **** #endif
1852:libraries/SystemView/SYSVIEW/SEGGER_SYSVIEW.c **** }
1853:libraries/SystemView/SYSVIEW/SEGGER_SYSVIEW.c **** 
1854:libraries/SystemView/SYSVIEW/SEGGER_SYSVIEW.c **** /*********************************************************************
1855:libraries/SystemView/SYSVIEW/SEGGER_SYSVIEW.c **** *
1856:libraries/SystemView/SYSVIEW/SEGGER_SYSVIEW.c **** *       SEGGER_SYSVIEW_Stop()
1857:libraries/SystemView/SYSVIEW/SEGGER_SYSVIEW.c **** *
1858:libraries/SystemView/SYSVIEW/SEGGER_SYSVIEW.c **** *  Function description
1859:libraries/SystemView/SYSVIEW/SEGGER_SYSVIEW.c **** *    Stop recording SystemView events.
1860:libraries/SystemView/SYSVIEW/SEGGER_SYSVIEW.c **** *
1861:libraries/SystemView/SYSVIEW/SEGGER_SYSVIEW.c **** *    This function is triggered by the SystemView Application on disconnect.
1862:libraries/SystemView/SYSVIEW/SEGGER_SYSVIEW.c **** *    For single-shot or post-mortem mode recording, it can be called
1863:libraries/SystemView/SYSVIEW/SEGGER_SYSVIEW.c **** *    by the application.
1864:libraries/SystemView/SYSVIEW/SEGGER_SYSVIEW.c **** *
1865:libraries/SystemView/SYSVIEW/SEGGER_SYSVIEW.c **** *  Additional information
1866:libraries/SystemView/SYSVIEW/SEGGER_SYSVIEW.c **** *    This function disables transmission of SystemView packets recorded
1867:libraries/SystemView/SYSVIEW/SEGGER_SYSVIEW.c **** *    by subsequent trace calls.  If transmission is enabled when
1868:libraries/SystemView/SYSVIEW/SEGGER_SYSVIEW.c **** *    this function is called, a single SystemView Stop event is recorded
1869:libraries/SystemView/SYSVIEW/SEGGER_SYSVIEW.c **** *    to the trace, send, and then trace transmission is halted.
1870:libraries/SystemView/SYSVIEW/SEGGER_SYSVIEW.c **** */
1871:libraries/SystemView/SYSVIEW/SEGGER_SYSVIEW.c **** void SEGGER_SYSVIEW_Stop(void) {
1872:libraries/SystemView/SYSVIEW/SEGGER_SYSVIEW.c ****   U8* pPayloadStart;
1873:libraries/SystemView/SYSVIEW/SEGGER_SYSVIEW.c ****   RECORD_START(SEGGER_SYSVIEW_INFO_SIZE);
1874:libraries/SystemView/SYSVIEW/SEGGER_SYSVIEW.c ****   //
1875:libraries/SystemView/SYSVIEW/SEGGER_SYSVIEW.c ****   if (_SYSVIEW_Globals.EnableState) {
1876:libraries/SystemView/SYSVIEW/SEGGER_SYSVIEW.c ****     _SendPacket(pPayloadStart, pPayloadStart, SYSVIEW_EVTID_TRACE_STOP);
1877:libraries/SystemView/SYSVIEW/SEGGER_SYSVIEW.c ****     _SYSVIEW_Globals.EnableState = 0;
1878:libraries/SystemView/SYSVIEW/SEGGER_SYSVIEW.c ****   }
1879:libraries/SystemView/SYSVIEW/SEGGER_SYSVIEW.c ****   RECORD_END();
1880:libraries/SystemView/SYSVIEW/SEGGER_SYSVIEW.c **** }
ARM GAS  /tmp/ccyEpLlu.s 			page 45


1881:libraries/SystemView/SYSVIEW/SEGGER_SYSVIEW.c **** 
1882:libraries/SystemView/SYSVIEW/SEGGER_SYSVIEW.c **** /*********************************************************************
1883:libraries/SystemView/SYSVIEW/SEGGER_SYSVIEW.c **** *
1884:libraries/SystemView/SYSVIEW/SEGGER_SYSVIEW.c **** *       SEGGER_SYSVIEW_GetChannelID()
1885:libraries/SystemView/SYSVIEW/SEGGER_SYSVIEW.c **** *
1886:libraries/SystemView/SYSVIEW/SEGGER_SYSVIEW.c **** *  Function description
1887:libraries/SystemView/SYSVIEW/SEGGER_SYSVIEW.c **** *    Returns the RTT <Up> / <Down> channel ID used by SystemView.
1888:libraries/SystemView/SYSVIEW/SEGGER_SYSVIEW.c **** */
1889:libraries/SystemView/SYSVIEW/SEGGER_SYSVIEW.c **** int SEGGER_SYSVIEW_GetChannelID(void) {
 604              		.loc 1 1889 39 is_stmt 1 view -0
 605              		.cfi_startproc
 606              		@ args = 0, pretend = 0, frame = 0
 607              		@ frame_needed = 0, uses_anonymous_args = 0
 608              		@ link register save eliminated.
1890:libraries/SystemView/SYSVIEW/SEGGER_SYSVIEW.c ****   return CHANNEL_ID_UP;
 609              		.loc 1 1890 3 view .LVU191
1891:libraries/SystemView/SYSVIEW/SEGGER_SYSVIEW.c **** }
 610              		.loc 1 1891 1 is_stmt 0 view .LVU192
 611 0000 014B     		ldr	r3, .L43
 612 0002 5878     		ldrb	r0, [r3, #1]	@ zero_extendqisi2
 613 0004 7047     		bx	lr
 614              	.L44:
 615 0006 00BF     		.align	2
 616              	.L43:
 617 0008 00000000 		.word	.LANCHOR0
 618              		.cfi_endproc
 619              	.LFE27:
 621              		.section	.text.SEGGER_SYSVIEW_SendTaskList,"ax",%progbits
 622              		.align	1
 623              		.global	SEGGER_SYSVIEW_SendTaskList
 624              		.syntax unified
 625              		.thumb
 626              		.thumb_func
 627              		.fpu fpv4-sp-d16
 629              	SEGGER_SYSVIEW_SendTaskList:
 630              	.LFB30:
1892:libraries/SystemView/SYSVIEW/SEGGER_SYSVIEW.c **** 
1893:libraries/SystemView/SYSVIEW/SEGGER_SYSVIEW.c **** /*********************************************************************
1894:libraries/SystemView/SYSVIEW/SEGGER_SYSVIEW.c **** *
1895:libraries/SystemView/SYSVIEW/SEGGER_SYSVIEW.c **** *       SEGGER_SYSVIEW_GetSysDesc()
1896:libraries/SystemView/SYSVIEW/SEGGER_SYSVIEW.c **** *
1897:libraries/SystemView/SYSVIEW/SEGGER_SYSVIEW.c **** *  Function description
1898:libraries/SystemView/SYSVIEW/SEGGER_SYSVIEW.c **** *    Triggers a send of the system information and description.
1899:libraries/SystemView/SYSVIEW/SEGGER_SYSVIEW.c **** *
1900:libraries/SystemView/SYSVIEW/SEGGER_SYSVIEW.c **** */
1901:libraries/SystemView/SYSVIEW/SEGGER_SYSVIEW.c **** void SEGGER_SYSVIEW_GetSysDesc(void) {
1902:libraries/SystemView/SYSVIEW/SEGGER_SYSVIEW.c ****   U8* pPayload;
1903:libraries/SystemView/SYSVIEW/SEGGER_SYSVIEW.c ****   U8* pPayloadStart;
1904:libraries/SystemView/SYSVIEW/SEGGER_SYSVIEW.c ****   RECORD_START(SEGGER_SYSVIEW_INFO_SIZE + 4 * SEGGER_SYSVIEW_QUANTA_U32);
1905:libraries/SystemView/SYSVIEW/SEGGER_SYSVIEW.c ****   //
1906:libraries/SystemView/SYSVIEW/SEGGER_SYSVIEW.c ****   pPayload = pPayloadStart;
1907:libraries/SystemView/SYSVIEW/SEGGER_SYSVIEW.c ****   ENCODE_U32(pPayload, _SYSVIEW_Globals.SysFreq);
1908:libraries/SystemView/SYSVIEW/SEGGER_SYSVIEW.c ****   ENCODE_U32(pPayload, _SYSVIEW_Globals.CPUFreq);
1909:libraries/SystemView/SYSVIEW/SEGGER_SYSVIEW.c ****   ENCODE_U32(pPayload, _SYSVIEW_Globals.RAMBaseAddress);
1910:libraries/SystemView/SYSVIEW/SEGGER_SYSVIEW.c ****   ENCODE_U32(pPayload, SEGGER_SYSVIEW_ID_SHIFT);
1911:libraries/SystemView/SYSVIEW/SEGGER_SYSVIEW.c ****   _SendPacket(pPayloadStart, pPayload, SYSVIEW_EVTID_INIT);
1912:libraries/SystemView/SYSVIEW/SEGGER_SYSVIEW.c ****   RECORD_END();
ARM GAS  /tmp/ccyEpLlu.s 			page 46


1913:libraries/SystemView/SYSVIEW/SEGGER_SYSVIEW.c ****   if (_SYSVIEW_Globals.pfSendSysDesc) {
1914:libraries/SystemView/SYSVIEW/SEGGER_SYSVIEW.c ****     _SYSVIEW_Globals.pfSendSysDesc();
1915:libraries/SystemView/SYSVIEW/SEGGER_SYSVIEW.c ****   }
1916:libraries/SystemView/SYSVIEW/SEGGER_SYSVIEW.c **** }
1917:libraries/SystemView/SYSVIEW/SEGGER_SYSVIEW.c **** 
1918:libraries/SystemView/SYSVIEW/SEGGER_SYSVIEW.c **** /*********************************************************************
1919:libraries/SystemView/SYSVIEW/SEGGER_SYSVIEW.c **** *
1920:libraries/SystemView/SYSVIEW/SEGGER_SYSVIEW.c **** *       SEGGER_SYSVIEW_SendTaskInfo()
1921:libraries/SystemView/SYSVIEW/SEGGER_SYSVIEW.c **** *
1922:libraries/SystemView/SYSVIEW/SEGGER_SYSVIEW.c **** *  Function description
1923:libraries/SystemView/SYSVIEW/SEGGER_SYSVIEW.c **** *    Send a Task Info Packet, containing TaskId for identification,
1924:libraries/SystemView/SYSVIEW/SEGGER_SYSVIEW.c **** *    task priority and task name.
1925:libraries/SystemView/SYSVIEW/SEGGER_SYSVIEW.c **** *
1926:libraries/SystemView/SYSVIEW/SEGGER_SYSVIEW.c **** *  Parameters
1927:libraries/SystemView/SYSVIEW/SEGGER_SYSVIEW.c **** *    pInfo - Pointer to task information to send.
1928:libraries/SystemView/SYSVIEW/SEGGER_SYSVIEW.c **** */
1929:libraries/SystemView/SYSVIEW/SEGGER_SYSVIEW.c **** void SEGGER_SYSVIEW_SendTaskInfo(const SEGGER_SYSVIEW_TASKINFO *pInfo) {
1930:libraries/SystemView/SYSVIEW/SEGGER_SYSVIEW.c ****   U8* pPayload;
1931:libraries/SystemView/SYSVIEW/SEGGER_SYSVIEW.c ****   U8* pPayloadStart;
1932:libraries/SystemView/SYSVIEW/SEGGER_SYSVIEW.c ****   RECORD_START(SEGGER_SYSVIEW_INFO_SIZE + SEGGER_SYSVIEW_QUANTA_U32 + 1 + 32);
1933:libraries/SystemView/SYSVIEW/SEGGER_SYSVIEW.c ****   //
1934:libraries/SystemView/SYSVIEW/SEGGER_SYSVIEW.c ****   pPayload = pPayloadStart;
1935:libraries/SystemView/SYSVIEW/SEGGER_SYSVIEW.c ****   ENCODE_U32(pPayload, SHRINK_ID(pInfo->TaskID));
1936:libraries/SystemView/SYSVIEW/SEGGER_SYSVIEW.c ****   ENCODE_U32(pPayload, pInfo->Prio);
1937:libraries/SystemView/SYSVIEW/SEGGER_SYSVIEW.c ****   pPayload = _EncodeStr(pPayload, pInfo->sName, 32);
1938:libraries/SystemView/SYSVIEW/SEGGER_SYSVIEW.c ****   _SendPacket(pPayloadStart, pPayload, SYSVIEW_EVTID_TASK_INFO);
1939:libraries/SystemView/SYSVIEW/SEGGER_SYSVIEW.c ****   //
1940:libraries/SystemView/SYSVIEW/SEGGER_SYSVIEW.c ****   pPayload = pPayloadStart;
1941:libraries/SystemView/SYSVIEW/SEGGER_SYSVIEW.c ****   ENCODE_U32(pPayload, SHRINK_ID(pInfo->TaskID));
1942:libraries/SystemView/SYSVIEW/SEGGER_SYSVIEW.c ****   ENCODE_U32(pPayload, pInfo->StackBase);
1943:libraries/SystemView/SYSVIEW/SEGGER_SYSVIEW.c ****   ENCODE_U32(pPayload, pInfo->StackSize);
1944:libraries/SystemView/SYSVIEW/SEGGER_SYSVIEW.c ****   ENCODE_U32(pPayload, 0); // Stack End, future use
1945:libraries/SystemView/SYSVIEW/SEGGER_SYSVIEW.c ****   _SendPacket(pPayloadStart, pPayload, SYSVIEW_EVTID_STACK_INFO);
1946:libraries/SystemView/SYSVIEW/SEGGER_SYSVIEW.c ****   RECORD_END();
1947:libraries/SystemView/SYSVIEW/SEGGER_SYSVIEW.c **** }
1948:libraries/SystemView/SYSVIEW/SEGGER_SYSVIEW.c **** 
1949:libraries/SystemView/SYSVIEW/SEGGER_SYSVIEW.c **** /*********************************************************************
1950:libraries/SystemView/SYSVIEW/SEGGER_SYSVIEW.c **** *
1951:libraries/SystemView/SYSVIEW/SEGGER_SYSVIEW.c **** *       SEGGER_SYSVIEW_SendTaskList()
1952:libraries/SystemView/SYSVIEW/SEGGER_SYSVIEW.c **** *
1953:libraries/SystemView/SYSVIEW/SEGGER_SYSVIEW.c **** *  Function description
1954:libraries/SystemView/SYSVIEW/SEGGER_SYSVIEW.c **** *    Send all tasks descriptors to the host.
1955:libraries/SystemView/SYSVIEW/SEGGER_SYSVIEW.c **** */
1956:libraries/SystemView/SYSVIEW/SEGGER_SYSVIEW.c **** void SEGGER_SYSVIEW_SendTaskList(void) {
 631              		.loc 1 1956 40 is_stmt 1 view -0
 632              		.cfi_startproc
 633              		@ args = 0, pretend = 0, frame = 0
 634              		@ frame_needed = 0, uses_anonymous_args = 0
 635 0000 08B5     		push	{r3, lr}
 636              	.LCFI9:
 637              		.cfi_def_cfa_offset 8
 638              		.cfi_offset 3, -8
 639              		.cfi_offset 14, -4
1957:libraries/SystemView/SYSVIEW/SEGGER_SYSVIEW.c ****   if (_SYSVIEW_Globals.pOSAPI && _SYSVIEW_Globals.pOSAPI->pfSendTaskList) {
 640              		.loc 1 1957 3 view .LVU194
 641              		.loc 1 1957 23 is_stmt 0 view .LVU195
 642 0002 034B     		ldr	r3, .L48
ARM GAS  /tmp/ccyEpLlu.s 			page 47


 643 0004 1B6A     		ldr	r3, [r3, #32]
 644              		.loc 1 1957 6 view .LVU196
 645 0006 13B1     		cbz	r3, .L45
 646              		.loc 1 1957 57 discriminator 1 view .LVU197
 647 0008 5B68     		ldr	r3, [r3, #4]
 648              		.loc 1 1957 31 discriminator 1 view .LVU198
 649 000a 03B1     		cbz	r3, .L45
1958:libraries/SystemView/SYSVIEW/SEGGER_SYSVIEW.c ****     _SYSVIEW_Globals.pOSAPI->pfSendTaskList();
 650              		.loc 1 1958 5 is_stmt 1 view .LVU199
 651 000c 9847     		blx	r3
 652              	.LVL67:
 653              	.L45:
1959:libraries/SystemView/SYSVIEW/SEGGER_SYSVIEW.c ****   }
1960:libraries/SystemView/SYSVIEW/SEGGER_SYSVIEW.c **** }
 654              		.loc 1 1960 1 is_stmt 0 view .LVU200
 655 000e 08BD     		pop	{r3, pc}
 656              	.L49:
 657              		.align	2
 658              	.L48:
 659 0010 00000000 		.word	.LANCHOR0
 660              		.cfi_endproc
 661              	.LFE30:
 663              		.section	.text.SEGGER_SYSVIEW_EncodeU32,"ax",%progbits
 664              		.align	1
 665              		.global	SEGGER_SYSVIEW_EncodeU32
 666              		.syntax unified
 667              		.thumb
 668              		.thumb_func
 669              		.fpu fpv4-sp-d16
 671              	SEGGER_SYSVIEW_EncodeU32:
 672              	.LVL68:
 673              	.LFB53:
1961:libraries/SystemView/SYSVIEW/SEGGER_SYSVIEW.c **** 
1962:libraries/SystemView/SYSVIEW/SEGGER_SYSVIEW.c **** /*********************************************************************
1963:libraries/SystemView/SYSVIEW/SEGGER_SYSVIEW.c **** *
1964:libraries/SystemView/SYSVIEW/SEGGER_SYSVIEW.c **** *       SEGGER_SYSVIEW_SendSysDesc()
1965:libraries/SystemView/SYSVIEW/SEGGER_SYSVIEW.c **** *
1966:libraries/SystemView/SYSVIEW/SEGGER_SYSVIEW.c **** *  Function description
1967:libraries/SystemView/SYSVIEW/SEGGER_SYSVIEW.c **** *    Send the system description string to the host.
1968:libraries/SystemView/SYSVIEW/SEGGER_SYSVIEW.c **** *    The system description is used by the Systemview Application
1969:libraries/SystemView/SYSVIEW/SEGGER_SYSVIEW.c **** *    to identify the current application and handle events accordingly.
1970:libraries/SystemView/SYSVIEW/SEGGER_SYSVIEW.c **** *
1971:libraries/SystemView/SYSVIEW/SEGGER_SYSVIEW.c **** *    The system description is usually called by the system description
1972:libraries/SystemView/SYSVIEW/SEGGER_SYSVIEW.c **** *    callback, to ensure it is only sent when the SystemView Application
1973:libraries/SystemView/SYSVIEW/SEGGER_SYSVIEW.c **** *    is connected.
1974:libraries/SystemView/SYSVIEW/SEGGER_SYSVIEW.c **** *
1975:libraries/SystemView/SYSVIEW/SEGGER_SYSVIEW.c **** *  Parameters
1976:libraries/SystemView/SYSVIEW/SEGGER_SYSVIEW.c **** *    sSysDesc - Pointer to the 0-terminated system description string.
1977:libraries/SystemView/SYSVIEW/SEGGER_SYSVIEW.c **** *
1978:libraries/SystemView/SYSVIEW/SEGGER_SYSVIEW.c **** *  Additional information
1979:libraries/SystemView/SYSVIEW/SEGGER_SYSVIEW.c **** *    One system description string may not exceed SEGGER_SYSVIEW_MAX_STRING_LEN characters.
1980:libraries/SystemView/SYSVIEW/SEGGER_SYSVIEW.c **** *    Multiple description strings can be recorded.
1981:libraries/SystemView/SYSVIEW/SEGGER_SYSVIEW.c **** *
1982:libraries/SystemView/SYSVIEW/SEGGER_SYSVIEW.c **** *    The Following items can be described in a system description string.
1983:libraries/SystemView/SYSVIEW/SEGGER_SYSVIEW.c **** *    Each item is identified by its identifier, followed by '=' and the value.
1984:libraries/SystemView/SYSVIEW/SEGGER_SYSVIEW.c **** *    Items are separated by ','.
1985:libraries/SystemView/SYSVIEW/SEGGER_SYSVIEW.c **** */
ARM GAS  /tmp/ccyEpLlu.s 			page 48


1986:libraries/SystemView/SYSVIEW/SEGGER_SYSVIEW.c **** void SEGGER_SYSVIEW_SendSysDesc(const char *sSysDesc) {
1987:libraries/SystemView/SYSVIEW/SEGGER_SYSVIEW.c ****   U8* pPayload;
1988:libraries/SystemView/SYSVIEW/SEGGER_SYSVIEW.c ****   U8* pPayloadStart;
1989:libraries/SystemView/SYSVIEW/SEGGER_SYSVIEW.c ****   RECORD_START(SEGGER_SYSVIEW_INFO_SIZE + 1 + SEGGER_SYSVIEW_MAX_STRING_LEN);
1990:libraries/SystemView/SYSVIEW/SEGGER_SYSVIEW.c ****   //
1991:libraries/SystemView/SYSVIEW/SEGGER_SYSVIEW.c ****   pPayload = _EncodeStr(pPayloadStart, sSysDesc, SEGGER_SYSVIEW_MAX_STRING_LEN);
1992:libraries/SystemView/SYSVIEW/SEGGER_SYSVIEW.c ****   _SendPacket(pPayloadStart, pPayload, SYSVIEW_EVTID_SYSDESC);
1993:libraries/SystemView/SYSVIEW/SEGGER_SYSVIEW.c ****   RECORD_END();
1994:libraries/SystemView/SYSVIEW/SEGGER_SYSVIEW.c **** }
1995:libraries/SystemView/SYSVIEW/SEGGER_SYSVIEW.c **** 
1996:libraries/SystemView/SYSVIEW/SEGGER_SYSVIEW.c **** /*********************************************************************
1997:libraries/SystemView/SYSVIEW/SEGGER_SYSVIEW.c **** *
1998:libraries/SystemView/SYSVIEW/SEGGER_SYSVIEW.c **** *       SEGGER_SYSVIEW_RecordSystime()
1999:libraries/SystemView/SYSVIEW/SEGGER_SYSVIEW.c **** *
2000:libraries/SystemView/SYSVIEW/SEGGER_SYSVIEW.c **** *  Function description
2001:libraries/SystemView/SYSVIEW/SEGGER_SYSVIEW.c **** *    Formats and sends a SystemView Systime containing a single U64 or U32
2002:libraries/SystemView/SYSVIEW/SEGGER_SYSVIEW.c **** *    parameter payload.
2003:libraries/SystemView/SYSVIEW/SEGGER_SYSVIEW.c **** */
2004:libraries/SystemView/SYSVIEW/SEGGER_SYSVIEW.c **** void SEGGER_SYSVIEW_RecordSystime(void) {
2005:libraries/SystemView/SYSVIEW/SEGGER_SYSVIEW.c ****   U64 Systime;
2006:libraries/SystemView/SYSVIEW/SEGGER_SYSVIEW.c **** 
2007:libraries/SystemView/SYSVIEW/SEGGER_SYSVIEW.c ****   if (_SYSVIEW_Globals.pOSAPI && _SYSVIEW_Globals.pOSAPI->pfGetTime) {
2008:libraries/SystemView/SYSVIEW/SEGGER_SYSVIEW.c ****     Systime = _SYSVIEW_Globals.pOSAPI->pfGetTime();
2009:libraries/SystemView/SYSVIEW/SEGGER_SYSVIEW.c ****     SEGGER_SYSVIEW_RecordU32x2(SYSVIEW_EVTID_SYSTIME_US,
2010:libraries/SystemView/SYSVIEW/SEGGER_SYSVIEW.c ****                                (U32)(Systime),
2011:libraries/SystemView/SYSVIEW/SEGGER_SYSVIEW.c ****                                (U32)(Systime >> 32));
2012:libraries/SystemView/SYSVIEW/SEGGER_SYSVIEW.c ****   } else {
2013:libraries/SystemView/SYSVIEW/SEGGER_SYSVIEW.c ****     SEGGER_SYSVIEW_RecordU32(SYSVIEW_EVTID_SYSTIME_CYCLES, SEGGER_SYSVIEW_GET_TIMESTAMP());
2014:libraries/SystemView/SYSVIEW/SEGGER_SYSVIEW.c ****   }
2015:libraries/SystemView/SYSVIEW/SEGGER_SYSVIEW.c **** }
2016:libraries/SystemView/SYSVIEW/SEGGER_SYSVIEW.c **** 
2017:libraries/SystemView/SYSVIEW/SEGGER_SYSVIEW.c **** /*********************************************************************
2018:libraries/SystemView/SYSVIEW/SEGGER_SYSVIEW.c **** *
2019:libraries/SystemView/SYSVIEW/SEGGER_SYSVIEW.c **** *       SEGGER_SYSVIEW_RecordEnterISR()
2020:libraries/SystemView/SYSVIEW/SEGGER_SYSVIEW.c **** *
2021:libraries/SystemView/SYSVIEW/SEGGER_SYSVIEW.c **** *  Function description
2022:libraries/SystemView/SYSVIEW/SEGGER_SYSVIEW.c **** *    Format and send an ISR entry event.
2023:libraries/SystemView/SYSVIEW/SEGGER_SYSVIEW.c **** *
2024:libraries/SystemView/SYSVIEW/SEGGER_SYSVIEW.c **** *  Additional information
2025:libraries/SystemView/SYSVIEW/SEGGER_SYSVIEW.c **** *    Example packets sent
2026:libraries/SystemView/SYSVIEW/SEGGER_SYSVIEW.c **** *      02 0F 50              // ISR(15) Enter. Timestamp is 80 (0x50)
2027:libraries/SystemView/SYSVIEW/SEGGER_SYSVIEW.c **** */
2028:libraries/SystemView/SYSVIEW/SEGGER_SYSVIEW.c **** void SEGGER_SYSVIEW_RecordEnterISR(void) {
2029:libraries/SystemView/SYSVIEW/SEGGER_SYSVIEW.c ****   unsigned v;
2030:libraries/SystemView/SYSVIEW/SEGGER_SYSVIEW.c ****   U8* pPayload;
2031:libraries/SystemView/SYSVIEW/SEGGER_SYSVIEW.c ****   U8* pPayloadStart;
2032:libraries/SystemView/SYSVIEW/SEGGER_SYSVIEW.c ****   RECORD_START(SEGGER_SYSVIEW_INFO_SIZE + SEGGER_SYSVIEW_QUANTA_U32);
2033:libraries/SystemView/SYSVIEW/SEGGER_SYSVIEW.c ****   //
2034:libraries/SystemView/SYSVIEW/SEGGER_SYSVIEW.c ****   pPayload = pPayloadStart;
2035:libraries/SystemView/SYSVIEW/SEGGER_SYSVIEW.c ****   v = SEGGER_SYSVIEW_GET_INTERRUPT_ID();
2036:libraries/SystemView/SYSVIEW/SEGGER_SYSVIEW.c ****   ENCODE_U32(pPayload, v);
2037:libraries/SystemView/SYSVIEW/SEGGER_SYSVIEW.c ****   _SendPacket(pPayloadStart, pPayload, SYSVIEW_EVTID_ISR_ENTER);
2038:libraries/SystemView/SYSVIEW/SEGGER_SYSVIEW.c ****   RECORD_END();
2039:libraries/SystemView/SYSVIEW/SEGGER_SYSVIEW.c **** }
2040:libraries/SystemView/SYSVIEW/SEGGER_SYSVIEW.c **** 
2041:libraries/SystemView/SYSVIEW/SEGGER_SYSVIEW.c **** /*********************************************************************
2042:libraries/SystemView/SYSVIEW/SEGGER_SYSVIEW.c **** *
ARM GAS  /tmp/ccyEpLlu.s 			page 49


2043:libraries/SystemView/SYSVIEW/SEGGER_SYSVIEW.c **** *       SEGGER_SYSVIEW_RecordExitISR()
2044:libraries/SystemView/SYSVIEW/SEGGER_SYSVIEW.c **** *
2045:libraries/SystemView/SYSVIEW/SEGGER_SYSVIEW.c **** *  Function description
2046:libraries/SystemView/SYSVIEW/SEGGER_SYSVIEW.c **** *    Format and send an ISR exit event.
2047:libraries/SystemView/SYSVIEW/SEGGER_SYSVIEW.c **** *
2048:libraries/SystemView/SYSVIEW/SEGGER_SYSVIEW.c **** *  Additional information
2049:libraries/SystemView/SYSVIEW/SEGGER_SYSVIEW.c **** *    Format as follows:
2050:libraries/SystemView/SYSVIEW/SEGGER_SYSVIEW.c **** *      03 <TimeStamp>        // Max. packet len is 6
2051:libraries/SystemView/SYSVIEW/SEGGER_SYSVIEW.c **** *
2052:libraries/SystemView/SYSVIEW/SEGGER_SYSVIEW.c **** *    Example packets sent
2053:libraries/SystemView/SYSVIEW/SEGGER_SYSVIEW.c **** *      03 20                // ISR Exit. Timestamp is 32 (0x20)
2054:libraries/SystemView/SYSVIEW/SEGGER_SYSVIEW.c **** */
2055:libraries/SystemView/SYSVIEW/SEGGER_SYSVIEW.c **** void SEGGER_SYSVIEW_RecordExitISR(void) {
2056:libraries/SystemView/SYSVIEW/SEGGER_SYSVIEW.c ****   U8* pPayloadStart;
2057:libraries/SystemView/SYSVIEW/SEGGER_SYSVIEW.c ****   RECORD_START(SEGGER_SYSVIEW_INFO_SIZE);
2058:libraries/SystemView/SYSVIEW/SEGGER_SYSVIEW.c ****   //
2059:libraries/SystemView/SYSVIEW/SEGGER_SYSVIEW.c ****   _SendPacket(pPayloadStart, pPayloadStart, SYSVIEW_EVTID_ISR_EXIT);
2060:libraries/SystemView/SYSVIEW/SEGGER_SYSVIEW.c ****   RECORD_END();
2061:libraries/SystemView/SYSVIEW/SEGGER_SYSVIEW.c **** }
2062:libraries/SystemView/SYSVIEW/SEGGER_SYSVIEW.c **** 
2063:libraries/SystemView/SYSVIEW/SEGGER_SYSVIEW.c **** /*********************************************************************
2064:libraries/SystemView/SYSVIEW/SEGGER_SYSVIEW.c **** *
2065:libraries/SystemView/SYSVIEW/SEGGER_SYSVIEW.c **** *       SEGGER_SYSVIEW_RecordExitISRToScheduler()
2066:libraries/SystemView/SYSVIEW/SEGGER_SYSVIEW.c **** *
2067:libraries/SystemView/SYSVIEW/SEGGER_SYSVIEW.c **** *  Function description
2068:libraries/SystemView/SYSVIEW/SEGGER_SYSVIEW.c **** *    Format and send an ISR exit into scheduler event.
2069:libraries/SystemView/SYSVIEW/SEGGER_SYSVIEW.c **** *
2070:libraries/SystemView/SYSVIEW/SEGGER_SYSVIEW.c **** *  Additional information
2071:libraries/SystemView/SYSVIEW/SEGGER_SYSVIEW.c **** *    Format as follows:
2072:libraries/SystemView/SYSVIEW/SEGGER_SYSVIEW.c **** *      18 <TimeStamp>        // Max. packet len is 6
2073:libraries/SystemView/SYSVIEW/SEGGER_SYSVIEW.c **** *
2074:libraries/SystemView/SYSVIEW/SEGGER_SYSVIEW.c **** *    Example packets sent
2075:libraries/SystemView/SYSVIEW/SEGGER_SYSVIEW.c **** *      18 20                // ISR Exit to Scheduler. Timestamp is 32 (0x20)
2076:libraries/SystemView/SYSVIEW/SEGGER_SYSVIEW.c **** */
2077:libraries/SystemView/SYSVIEW/SEGGER_SYSVIEW.c **** void SEGGER_SYSVIEW_RecordExitISRToScheduler(void) {
2078:libraries/SystemView/SYSVIEW/SEGGER_SYSVIEW.c ****   U8* pPayloadStart;
2079:libraries/SystemView/SYSVIEW/SEGGER_SYSVIEW.c ****   RECORD_START(SEGGER_SYSVIEW_INFO_SIZE);
2080:libraries/SystemView/SYSVIEW/SEGGER_SYSVIEW.c ****   //
2081:libraries/SystemView/SYSVIEW/SEGGER_SYSVIEW.c ****   _SendPacket(pPayloadStart, pPayloadStart, SYSVIEW_EVTID_ISR_TO_SCHEDULER);
2082:libraries/SystemView/SYSVIEW/SEGGER_SYSVIEW.c ****   RECORD_END();
2083:libraries/SystemView/SYSVIEW/SEGGER_SYSVIEW.c **** }
2084:libraries/SystemView/SYSVIEW/SEGGER_SYSVIEW.c **** 
2085:libraries/SystemView/SYSVIEW/SEGGER_SYSVIEW.c **** /*********************************************************************
2086:libraries/SystemView/SYSVIEW/SEGGER_SYSVIEW.c **** *
2087:libraries/SystemView/SYSVIEW/SEGGER_SYSVIEW.c **** *       SEGGER_SYSVIEW_RecordEnterTimer()
2088:libraries/SystemView/SYSVIEW/SEGGER_SYSVIEW.c **** *
2089:libraries/SystemView/SYSVIEW/SEGGER_SYSVIEW.c **** *  Function description
2090:libraries/SystemView/SYSVIEW/SEGGER_SYSVIEW.c **** *    Format and send a Timer entry event.
2091:libraries/SystemView/SYSVIEW/SEGGER_SYSVIEW.c **** *
2092:libraries/SystemView/SYSVIEW/SEGGER_SYSVIEW.c **** *  Parameters
2093:libraries/SystemView/SYSVIEW/SEGGER_SYSVIEW.c **** *    TimerId - Id of the timer which starts.
2094:libraries/SystemView/SYSVIEW/SEGGER_SYSVIEW.c **** */
2095:libraries/SystemView/SYSVIEW/SEGGER_SYSVIEW.c **** void SEGGER_SYSVIEW_RecordEnterTimer(U32 TimerId) {
2096:libraries/SystemView/SYSVIEW/SEGGER_SYSVIEW.c ****   U8* pPayload;
2097:libraries/SystemView/SYSVIEW/SEGGER_SYSVIEW.c ****   U8* pPayloadStart;
2098:libraries/SystemView/SYSVIEW/SEGGER_SYSVIEW.c ****   RECORD_START(SEGGER_SYSVIEW_INFO_SIZE + SEGGER_SYSVIEW_QUANTA_U32);
2099:libraries/SystemView/SYSVIEW/SEGGER_SYSVIEW.c ****   //
ARM GAS  /tmp/ccyEpLlu.s 			page 50


2100:libraries/SystemView/SYSVIEW/SEGGER_SYSVIEW.c ****   pPayload = pPayloadStart;
2101:libraries/SystemView/SYSVIEW/SEGGER_SYSVIEW.c ****   ENCODE_U32(pPayload, SHRINK_ID(TimerId));
2102:libraries/SystemView/SYSVIEW/SEGGER_SYSVIEW.c ****   _SendPacket(pPayloadStart, pPayload, SYSVIEW_EVTID_TIMER_ENTER);
2103:libraries/SystemView/SYSVIEW/SEGGER_SYSVIEW.c ****   RECORD_END();
2104:libraries/SystemView/SYSVIEW/SEGGER_SYSVIEW.c **** }
2105:libraries/SystemView/SYSVIEW/SEGGER_SYSVIEW.c **** 
2106:libraries/SystemView/SYSVIEW/SEGGER_SYSVIEW.c **** /*********************************************************************
2107:libraries/SystemView/SYSVIEW/SEGGER_SYSVIEW.c **** *
2108:libraries/SystemView/SYSVIEW/SEGGER_SYSVIEW.c **** *       SEGGER_SYSVIEW_RecordExitTimer()
2109:libraries/SystemView/SYSVIEW/SEGGER_SYSVIEW.c **** *
2110:libraries/SystemView/SYSVIEW/SEGGER_SYSVIEW.c **** *  Function description
2111:libraries/SystemView/SYSVIEW/SEGGER_SYSVIEW.c **** *    Format and send a Timer exit event.
2112:libraries/SystemView/SYSVIEW/SEGGER_SYSVIEW.c **** */
2113:libraries/SystemView/SYSVIEW/SEGGER_SYSVIEW.c **** void SEGGER_SYSVIEW_RecordExitTimer(void) {
2114:libraries/SystemView/SYSVIEW/SEGGER_SYSVIEW.c ****   U8* pPayloadStart;
2115:libraries/SystemView/SYSVIEW/SEGGER_SYSVIEW.c ****   RECORD_START(SEGGER_SYSVIEW_INFO_SIZE);
2116:libraries/SystemView/SYSVIEW/SEGGER_SYSVIEW.c ****   //
2117:libraries/SystemView/SYSVIEW/SEGGER_SYSVIEW.c ****   _SendPacket(pPayloadStart, pPayloadStart, SYSVIEW_EVTID_TIMER_EXIT);
2118:libraries/SystemView/SYSVIEW/SEGGER_SYSVIEW.c ****   RECORD_END();
2119:libraries/SystemView/SYSVIEW/SEGGER_SYSVIEW.c **** }
2120:libraries/SystemView/SYSVIEW/SEGGER_SYSVIEW.c **** 
2121:libraries/SystemView/SYSVIEW/SEGGER_SYSVIEW.c **** /*********************************************************************
2122:libraries/SystemView/SYSVIEW/SEGGER_SYSVIEW.c **** *
2123:libraries/SystemView/SYSVIEW/SEGGER_SYSVIEW.c **** *       SEGGER_SYSVIEW_RecordEndCall()
2124:libraries/SystemView/SYSVIEW/SEGGER_SYSVIEW.c **** *
2125:libraries/SystemView/SYSVIEW/SEGGER_SYSVIEW.c **** *  Function description
2126:libraries/SystemView/SYSVIEW/SEGGER_SYSVIEW.c **** *    Format and send an End API Call event without return value.
2127:libraries/SystemView/SYSVIEW/SEGGER_SYSVIEW.c **** *
2128:libraries/SystemView/SYSVIEW/SEGGER_SYSVIEW.c **** *  Parameters
2129:libraries/SystemView/SYSVIEW/SEGGER_SYSVIEW.c **** *    EventID - Id of API function which ends.
2130:libraries/SystemView/SYSVIEW/SEGGER_SYSVIEW.c **** */
2131:libraries/SystemView/SYSVIEW/SEGGER_SYSVIEW.c **** void SEGGER_SYSVIEW_RecordEndCall(unsigned int EventID) {
2132:libraries/SystemView/SYSVIEW/SEGGER_SYSVIEW.c ****   U8* pPayload;
2133:libraries/SystemView/SYSVIEW/SEGGER_SYSVIEW.c ****   U8* pPayloadStart;
2134:libraries/SystemView/SYSVIEW/SEGGER_SYSVIEW.c ****   RECORD_START(SEGGER_SYSVIEW_INFO_SIZE + SEGGER_SYSVIEW_QUANTA_U32);
2135:libraries/SystemView/SYSVIEW/SEGGER_SYSVIEW.c ****   //
2136:libraries/SystemView/SYSVIEW/SEGGER_SYSVIEW.c ****   pPayload = pPayloadStart;
2137:libraries/SystemView/SYSVIEW/SEGGER_SYSVIEW.c ****   ENCODE_U32(pPayload, EventID);
2138:libraries/SystemView/SYSVIEW/SEGGER_SYSVIEW.c ****   _SendPacket(pPayloadStart, pPayload, SYSVIEW_EVTID_END_CALL);
2139:libraries/SystemView/SYSVIEW/SEGGER_SYSVIEW.c ****   RECORD_END();
2140:libraries/SystemView/SYSVIEW/SEGGER_SYSVIEW.c **** }
2141:libraries/SystemView/SYSVIEW/SEGGER_SYSVIEW.c **** 
2142:libraries/SystemView/SYSVIEW/SEGGER_SYSVIEW.c **** /*********************************************************************
2143:libraries/SystemView/SYSVIEW/SEGGER_SYSVIEW.c **** *
2144:libraries/SystemView/SYSVIEW/SEGGER_SYSVIEW.c **** *       SEGGER_SYSVIEW_RecordEndCallU32()
2145:libraries/SystemView/SYSVIEW/SEGGER_SYSVIEW.c **** *
2146:libraries/SystemView/SYSVIEW/SEGGER_SYSVIEW.c **** *  Function description
2147:libraries/SystemView/SYSVIEW/SEGGER_SYSVIEW.c **** *    Format and send an End API Call event with return value.
2148:libraries/SystemView/SYSVIEW/SEGGER_SYSVIEW.c **** *
2149:libraries/SystemView/SYSVIEW/SEGGER_SYSVIEW.c **** *  Parameters
2150:libraries/SystemView/SYSVIEW/SEGGER_SYSVIEW.c **** *    EventID      - Id of API function which ends.
2151:libraries/SystemView/SYSVIEW/SEGGER_SYSVIEW.c **** *    Para0        - Return value which will be returned by the API function.
2152:libraries/SystemView/SYSVIEW/SEGGER_SYSVIEW.c **** */
2153:libraries/SystemView/SYSVIEW/SEGGER_SYSVIEW.c **** void SEGGER_SYSVIEW_RecordEndCallU32(unsigned int EventID, U32 Para0) {
2154:libraries/SystemView/SYSVIEW/SEGGER_SYSVIEW.c ****   U8* pPayload;
2155:libraries/SystemView/SYSVIEW/SEGGER_SYSVIEW.c ****   U8* pPayloadStart;
2156:libraries/SystemView/SYSVIEW/SEGGER_SYSVIEW.c ****   RECORD_START(SEGGER_SYSVIEW_INFO_SIZE + 2 * SEGGER_SYSVIEW_QUANTA_U32);
ARM GAS  /tmp/ccyEpLlu.s 			page 51


2157:libraries/SystemView/SYSVIEW/SEGGER_SYSVIEW.c ****   //
2158:libraries/SystemView/SYSVIEW/SEGGER_SYSVIEW.c ****   pPayload = pPayloadStart;
2159:libraries/SystemView/SYSVIEW/SEGGER_SYSVIEW.c ****   ENCODE_U32(pPayload, EventID);
2160:libraries/SystemView/SYSVIEW/SEGGER_SYSVIEW.c ****   ENCODE_U32(pPayload, Para0);
2161:libraries/SystemView/SYSVIEW/SEGGER_SYSVIEW.c ****   _SendPacket(pPayloadStart, pPayload, SYSVIEW_EVTID_END_CALL);
2162:libraries/SystemView/SYSVIEW/SEGGER_SYSVIEW.c ****   RECORD_END();
2163:libraries/SystemView/SYSVIEW/SEGGER_SYSVIEW.c **** }
2164:libraries/SystemView/SYSVIEW/SEGGER_SYSVIEW.c **** 
2165:libraries/SystemView/SYSVIEW/SEGGER_SYSVIEW.c **** /*********************************************************************
2166:libraries/SystemView/SYSVIEW/SEGGER_SYSVIEW.c **** *
2167:libraries/SystemView/SYSVIEW/SEGGER_SYSVIEW.c **** *       SEGGER_SYSVIEW_OnIdle()
2168:libraries/SystemView/SYSVIEW/SEGGER_SYSVIEW.c **** *
2169:libraries/SystemView/SYSVIEW/SEGGER_SYSVIEW.c **** *  Function description
2170:libraries/SystemView/SYSVIEW/SEGGER_SYSVIEW.c **** *    Record an Idle event.
2171:libraries/SystemView/SYSVIEW/SEGGER_SYSVIEW.c **** */
2172:libraries/SystemView/SYSVIEW/SEGGER_SYSVIEW.c **** void SEGGER_SYSVIEW_OnIdle(void) {
2173:libraries/SystemView/SYSVIEW/SEGGER_SYSVIEW.c ****   U8* pPayloadStart;
2174:libraries/SystemView/SYSVIEW/SEGGER_SYSVIEW.c ****   RECORD_START(SEGGER_SYSVIEW_INFO_SIZE);
2175:libraries/SystemView/SYSVIEW/SEGGER_SYSVIEW.c ****   //
2176:libraries/SystemView/SYSVIEW/SEGGER_SYSVIEW.c ****   _SendPacket(pPayloadStart, pPayloadStart, SYSVIEW_EVTID_IDLE);
2177:libraries/SystemView/SYSVIEW/SEGGER_SYSVIEW.c ****   RECORD_END();
2178:libraries/SystemView/SYSVIEW/SEGGER_SYSVIEW.c **** }
2179:libraries/SystemView/SYSVIEW/SEGGER_SYSVIEW.c **** 
2180:libraries/SystemView/SYSVIEW/SEGGER_SYSVIEW.c **** /*********************************************************************
2181:libraries/SystemView/SYSVIEW/SEGGER_SYSVIEW.c **** *
2182:libraries/SystemView/SYSVIEW/SEGGER_SYSVIEW.c **** *       SEGGER_SYSVIEW_OnTaskCreate()
2183:libraries/SystemView/SYSVIEW/SEGGER_SYSVIEW.c **** *
2184:libraries/SystemView/SYSVIEW/SEGGER_SYSVIEW.c **** *  Function description
2185:libraries/SystemView/SYSVIEW/SEGGER_SYSVIEW.c **** *    Record a Task Create event.  The Task Create event corresponds
2186:libraries/SystemView/SYSVIEW/SEGGER_SYSVIEW.c **** *    to creating a task in the OS.
2187:libraries/SystemView/SYSVIEW/SEGGER_SYSVIEW.c **** *
2188:libraries/SystemView/SYSVIEW/SEGGER_SYSVIEW.c **** *  Parameters
2189:libraries/SystemView/SYSVIEW/SEGGER_SYSVIEW.c **** *    TaskId        - Task ID of created task.
2190:libraries/SystemView/SYSVIEW/SEGGER_SYSVIEW.c **** */
2191:libraries/SystemView/SYSVIEW/SEGGER_SYSVIEW.c **** void SEGGER_SYSVIEW_OnTaskCreate(U32 TaskId) {
2192:libraries/SystemView/SYSVIEW/SEGGER_SYSVIEW.c ****   U8* pPayload;
2193:libraries/SystemView/SYSVIEW/SEGGER_SYSVIEW.c ****   U8* pPayloadStart;
2194:libraries/SystemView/SYSVIEW/SEGGER_SYSVIEW.c ****   RECORD_START(SEGGER_SYSVIEW_INFO_SIZE + SEGGER_SYSVIEW_QUANTA_U32);
2195:libraries/SystemView/SYSVIEW/SEGGER_SYSVIEW.c ****   //
2196:libraries/SystemView/SYSVIEW/SEGGER_SYSVIEW.c ****   pPayload = pPayloadStart;
2197:libraries/SystemView/SYSVIEW/SEGGER_SYSVIEW.c ****   TaskId = SHRINK_ID(TaskId);
2198:libraries/SystemView/SYSVIEW/SEGGER_SYSVIEW.c ****   ENCODE_U32(pPayload, TaskId);
2199:libraries/SystemView/SYSVIEW/SEGGER_SYSVIEW.c ****   _SendPacket(pPayloadStart, pPayload, SYSVIEW_EVTID_TASK_CREATE);
2200:libraries/SystemView/SYSVIEW/SEGGER_SYSVIEW.c ****   RECORD_END();
2201:libraries/SystemView/SYSVIEW/SEGGER_SYSVIEW.c **** }
2202:libraries/SystemView/SYSVIEW/SEGGER_SYSVIEW.c **** 
2203:libraries/SystemView/SYSVIEW/SEGGER_SYSVIEW.c **** /*********************************************************************
2204:libraries/SystemView/SYSVIEW/SEGGER_SYSVIEW.c **** *
2205:libraries/SystemView/SYSVIEW/SEGGER_SYSVIEW.c **** *       SEGGER_SYSVIEW_OnTaskTerminate()
2206:libraries/SystemView/SYSVIEW/SEGGER_SYSVIEW.c **** *
2207:libraries/SystemView/SYSVIEW/SEGGER_SYSVIEW.c **** *  Function description
2208:libraries/SystemView/SYSVIEW/SEGGER_SYSVIEW.c **** *    Record a Task termination event.
2209:libraries/SystemView/SYSVIEW/SEGGER_SYSVIEW.c **** *    The Task termination event corresponds to terminating a task in
2210:libraries/SystemView/SYSVIEW/SEGGER_SYSVIEW.c **** *    the OS. If the TaskId is the currently active task,
2211:libraries/SystemView/SYSVIEW/SEGGER_SYSVIEW.c **** *    SEGGER_SYSVIEW_OnTaskStopExec may be used, either.
2212:libraries/SystemView/SYSVIEW/SEGGER_SYSVIEW.c **** *
2213:libraries/SystemView/SYSVIEW/SEGGER_SYSVIEW.c **** *  Parameters
ARM GAS  /tmp/ccyEpLlu.s 			page 52


2214:libraries/SystemView/SYSVIEW/SEGGER_SYSVIEW.c **** *    TaskId        - Task ID of terminated task.
2215:libraries/SystemView/SYSVIEW/SEGGER_SYSVIEW.c **** */
2216:libraries/SystemView/SYSVIEW/SEGGER_SYSVIEW.c **** void SEGGER_SYSVIEW_OnTaskTerminate(U32 TaskId) {
2217:libraries/SystemView/SYSVIEW/SEGGER_SYSVIEW.c ****   U8* pPayload;
2218:libraries/SystemView/SYSVIEW/SEGGER_SYSVIEW.c ****   U8* pPayloadStart;
2219:libraries/SystemView/SYSVIEW/SEGGER_SYSVIEW.c ****   RECORD_START(SEGGER_SYSVIEW_INFO_SIZE + SEGGER_SYSVIEW_QUANTA_U32);
2220:libraries/SystemView/SYSVIEW/SEGGER_SYSVIEW.c ****   //
2221:libraries/SystemView/SYSVIEW/SEGGER_SYSVIEW.c ****   pPayload = pPayloadStart;
2222:libraries/SystemView/SYSVIEW/SEGGER_SYSVIEW.c ****   TaskId = SHRINK_ID(TaskId);
2223:libraries/SystemView/SYSVIEW/SEGGER_SYSVIEW.c ****   ENCODE_U32(pPayload, TaskId);
2224:libraries/SystemView/SYSVIEW/SEGGER_SYSVIEW.c ****   _SendPacket(pPayloadStart, pPayload, SYSVIEW_EVTID_TASK_TERMINATE);
2225:libraries/SystemView/SYSVIEW/SEGGER_SYSVIEW.c ****   RECORD_END();
2226:libraries/SystemView/SYSVIEW/SEGGER_SYSVIEW.c **** }
2227:libraries/SystemView/SYSVIEW/SEGGER_SYSVIEW.c **** 
2228:libraries/SystemView/SYSVIEW/SEGGER_SYSVIEW.c **** /*********************************************************************
2229:libraries/SystemView/SYSVIEW/SEGGER_SYSVIEW.c **** *
2230:libraries/SystemView/SYSVIEW/SEGGER_SYSVIEW.c **** *       SEGGER_SYSVIEW_OnTaskStartExec()
2231:libraries/SystemView/SYSVIEW/SEGGER_SYSVIEW.c **** *
2232:libraries/SystemView/SYSVIEW/SEGGER_SYSVIEW.c **** *  Function description
2233:libraries/SystemView/SYSVIEW/SEGGER_SYSVIEW.c **** *    Record a Task Start Execution event.  The Task Start event
2234:libraries/SystemView/SYSVIEW/SEGGER_SYSVIEW.c **** *    corresponds to when a task has started to execute rather than
2235:libraries/SystemView/SYSVIEW/SEGGER_SYSVIEW.c **** *    when it is ready to execute.
2236:libraries/SystemView/SYSVIEW/SEGGER_SYSVIEW.c **** *
2237:libraries/SystemView/SYSVIEW/SEGGER_SYSVIEW.c **** *  Parameters
2238:libraries/SystemView/SYSVIEW/SEGGER_SYSVIEW.c **** *    TaskId - Task ID of task that started to execute.
2239:libraries/SystemView/SYSVIEW/SEGGER_SYSVIEW.c **** */
2240:libraries/SystemView/SYSVIEW/SEGGER_SYSVIEW.c **** void SEGGER_SYSVIEW_OnTaskStartExec(U32 TaskId) {
2241:libraries/SystemView/SYSVIEW/SEGGER_SYSVIEW.c ****   U8* pPayload;
2242:libraries/SystemView/SYSVIEW/SEGGER_SYSVIEW.c ****   U8* pPayloadStart;
2243:libraries/SystemView/SYSVIEW/SEGGER_SYSVIEW.c ****   RECORD_START(SEGGER_SYSVIEW_INFO_SIZE + SEGGER_SYSVIEW_QUANTA_U32);
2244:libraries/SystemView/SYSVIEW/SEGGER_SYSVIEW.c ****   //
2245:libraries/SystemView/SYSVIEW/SEGGER_SYSVIEW.c ****   pPayload = pPayloadStart;
2246:libraries/SystemView/SYSVIEW/SEGGER_SYSVIEW.c ****   TaskId = SHRINK_ID(TaskId);
2247:libraries/SystemView/SYSVIEW/SEGGER_SYSVIEW.c ****   ENCODE_U32(pPayload, TaskId);
2248:libraries/SystemView/SYSVIEW/SEGGER_SYSVIEW.c ****   _SendPacket(pPayloadStart, pPayload, SYSVIEW_EVTID_TASK_START_EXEC);
2249:libraries/SystemView/SYSVIEW/SEGGER_SYSVIEW.c ****   RECORD_END();
2250:libraries/SystemView/SYSVIEW/SEGGER_SYSVIEW.c **** }
2251:libraries/SystemView/SYSVIEW/SEGGER_SYSVIEW.c **** 
2252:libraries/SystemView/SYSVIEW/SEGGER_SYSVIEW.c **** /*********************************************************************
2253:libraries/SystemView/SYSVIEW/SEGGER_SYSVIEW.c **** *
2254:libraries/SystemView/SYSVIEW/SEGGER_SYSVIEW.c **** *       SEGGER_SYSVIEW_OnTaskStopExec()
2255:libraries/SystemView/SYSVIEW/SEGGER_SYSVIEW.c **** *
2256:libraries/SystemView/SYSVIEW/SEGGER_SYSVIEW.c **** *  Function description
2257:libraries/SystemView/SYSVIEW/SEGGER_SYSVIEW.c **** *    Record a Task Stop Execution event.  The Task Stop event
2258:libraries/SystemView/SYSVIEW/SEGGER_SYSVIEW.c **** *    corresponds to when a task stops executing and terminates.
2259:libraries/SystemView/SYSVIEW/SEGGER_SYSVIEW.c **** */
2260:libraries/SystemView/SYSVIEW/SEGGER_SYSVIEW.c **** void SEGGER_SYSVIEW_OnTaskStopExec(void) {
2261:libraries/SystemView/SYSVIEW/SEGGER_SYSVIEW.c ****   U8* pPayloadStart;
2262:libraries/SystemView/SYSVIEW/SEGGER_SYSVIEW.c ****   RECORD_START(SEGGER_SYSVIEW_INFO_SIZE);
2263:libraries/SystemView/SYSVIEW/SEGGER_SYSVIEW.c ****   //
2264:libraries/SystemView/SYSVIEW/SEGGER_SYSVIEW.c ****   _SendPacket(pPayloadStart, pPayloadStart, SYSVIEW_EVTID_TASK_STOP_EXEC);
2265:libraries/SystemView/SYSVIEW/SEGGER_SYSVIEW.c ****   RECORD_END();
2266:libraries/SystemView/SYSVIEW/SEGGER_SYSVIEW.c **** }
2267:libraries/SystemView/SYSVIEW/SEGGER_SYSVIEW.c **** 
2268:libraries/SystemView/SYSVIEW/SEGGER_SYSVIEW.c **** /*********************************************************************
2269:libraries/SystemView/SYSVIEW/SEGGER_SYSVIEW.c **** *
2270:libraries/SystemView/SYSVIEW/SEGGER_SYSVIEW.c **** *       SEGGER_SYSVIEW_OnTaskStartReady()
ARM GAS  /tmp/ccyEpLlu.s 			page 53


2271:libraries/SystemView/SYSVIEW/SEGGER_SYSVIEW.c **** *
2272:libraries/SystemView/SYSVIEW/SEGGER_SYSVIEW.c **** *  Function description
2273:libraries/SystemView/SYSVIEW/SEGGER_SYSVIEW.c **** *    Record a Task Start Ready event.
2274:libraries/SystemView/SYSVIEW/SEGGER_SYSVIEW.c **** *
2275:libraries/SystemView/SYSVIEW/SEGGER_SYSVIEW.c **** *  Parameters
2276:libraries/SystemView/SYSVIEW/SEGGER_SYSVIEW.c **** *    TaskId - Task ID of task that started to execute.
2277:libraries/SystemView/SYSVIEW/SEGGER_SYSVIEW.c **** */
2278:libraries/SystemView/SYSVIEW/SEGGER_SYSVIEW.c **** void SEGGER_SYSVIEW_OnTaskStartReady(U32 TaskId) {
2279:libraries/SystemView/SYSVIEW/SEGGER_SYSVIEW.c ****   U8* pPayload;
2280:libraries/SystemView/SYSVIEW/SEGGER_SYSVIEW.c ****   U8* pPayloadStart;
2281:libraries/SystemView/SYSVIEW/SEGGER_SYSVIEW.c ****   RECORD_START(SEGGER_SYSVIEW_INFO_SIZE + SEGGER_SYSVIEW_QUANTA_U32);
2282:libraries/SystemView/SYSVIEW/SEGGER_SYSVIEW.c ****   //
2283:libraries/SystemView/SYSVIEW/SEGGER_SYSVIEW.c ****   pPayload = pPayloadStart;
2284:libraries/SystemView/SYSVIEW/SEGGER_SYSVIEW.c ****   TaskId = SHRINK_ID(TaskId);
2285:libraries/SystemView/SYSVIEW/SEGGER_SYSVIEW.c ****   ENCODE_U32(pPayload, TaskId);
2286:libraries/SystemView/SYSVIEW/SEGGER_SYSVIEW.c ****   _SendPacket(pPayloadStart, pPayload, SYSVIEW_EVTID_TASK_START_READY);
2287:libraries/SystemView/SYSVIEW/SEGGER_SYSVIEW.c ****   RECORD_END();
2288:libraries/SystemView/SYSVIEW/SEGGER_SYSVIEW.c **** }
2289:libraries/SystemView/SYSVIEW/SEGGER_SYSVIEW.c **** 
2290:libraries/SystemView/SYSVIEW/SEGGER_SYSVIEW.c **** /*********************************************************************
2291:libraries/SystemView/SYSVIEW/SEGGER_SYSVIEW.c **** *
2292:libraries/SystemView/SYSVIEW/SEGGER_SYSVIEW.c **** *       SEGGER_SYSVIEW_OnTaskStopReady()
2293:libraries/SystemView/SYSVIEW/SEGGER_SYSVIEW.c **** *
2294:libraries/SystemView/SYSVIEW/SEGGER_SYSVIEW.c **** *  Function description
2295:libraries/SystemView/SYSVIEW/SEGGER_SYSVIEW.c **** *    Record a Task Stop Ready event.
2296:libraries/SystemView/SYSVIEW/SEGGER_SYSVIEW.c **** *
2297:libraries/SystemView/SYSVIEW/SEGGER_SYSVIEW.c **** *  Parameters
2298:libraries/SystemView/SYSVIEW/SEGGER_SYSVIEW.c **** *    TaskId - Task ID of task that completed execution.
2299:libraries/SystemView/SYSVIEW/SEGGER_SYSVIEW.c **** *    Cause  - Reason for task to stop (i.e. Idle/Sleep)
2300:libraries/SystemView/SYSVIEW/SEGGER_SYSVIEW.c **** */
2301:libraries/SystemView/SYSVIEW/SEGGER_SYSVIEW.c **** void SEGGER_SYSVIEW_OnTaskStopReady(U32 TaskId, unsigned int Cause) {
2302:libraries/SystemView/SYSVIEW/SEGGER_SYSVIEW.c ****   U8* pPayload;
2303:libraries/SystemView/SYSVIEW/SEGGER_SYSVIEW.c ****   U8* pPayloadStart;
2304:libraries/SystemView/SYSVIEW/SEGGER_SYSVIEW.c ****   RECORD_START(SEGGER_SYSVIEW_INFO_SIZE + 2 * SEGGER_SYSVIEW_QUANTA_U32);
2305:libraries/SystemView/SYSVIEW/SEGGER_SYSVIEW.c ****   //
2306:libraries/SystemView/SYSVIEW/SEGGER_SYSVIEW.c ****   pPayload = pPayloadStart;
2307:libraries/SystemView/SYSVIEW/SEGGER_SYSVIEW.c ****   TaskId = SHRINK_ID(TaskId);
2308:libraries/SystemView/SYSVIEW/SEGGER_SYSVIEW.c ****   ENCODE_U32(pPayload, TaskId);
2309:libraries/SystemView/SYSVIEW/SEGGER_SYSVIEW.c ****   ENCODE_U32(pPayload, Cause);
2310:libraries/SystemView/SYSVIEW/SEGGER_SYSVIEW.c ****   _SendPacket(pPayloadStart, pPayload, SYSVIEW_EVTID_TASK_STOP_READY);
2311:libraries/SystemView/SYSVIEW/SEGGER_SYSVIEW.c ****   RECORD_END();
2312:libraries/SystemView/SYSVIEW/SEGGER_SYSVIEW.c **** }
2313:libraries/SystemView/SYSVIEW/SEGGER_SYSVIEW.c **** 
2314:libraries/SystemView/SYSVIEW/SEGGER_SYSVIEW.c **** /*********************************************************************
2315:libraries/SystemView/SYSVIEW/SEGGER_SYSVIEW.c **** *
2316:libraries/SystemView/SYSVIEW/SEGGER_SYSVIEW.c **** *       SEGGER_SYSVIEW_MarkStart()
2317:libraries/SystemView/SYSVIEW/SEGGER_SYSVIEW.c **** *
2318:libraries/SystemView/SYSVIEW/SEGGER_SYSVIEW.c **** *  Function description
2319:libraries/SystemView/SYSVIEW/SEGGER_SYSVIEW.c **** *    Record a Performance Marker Start event to start measuring runtime.
2320:libraries/SystemView/SYSVIEW/SEGGER_SYSVIEW.c **** *
2321:libraries/SystemView/SYSVIEW/SEGGER_SYSVIEW.c **** *  Parameters
2322:libraries/SystemView/SYSVIEW/SEGGER_SYSVIEW.c **** *    MarkerId  - User defined ID for the marker.
2323:libraries/SystemView/SYSVIEW/SEGGER_SYSVIEW.c **** */
2324:libraries/SystemView/SYSVIEW/SEGGER_SYSVIEW.c **** void SEGGER_SYSVIEW_MarkStart(unsigned MarkerId) {
2325:libraries/SystemView/SYSVIEW/SEGGER_SYSVIEW.c ****   U8* pPayload;
2326:libraries/SystemView/SYSVIEW/SEGGER_SYSVIEW.c ****   U8* pPayloadStart;
2327:libraries/SystemView/SYSVIEW/SEGGER_SYSVIEW.c ****   RECORD_START(SEGGER_SYSVIEW_INFO_SIZE + SEGGER_SYSVIEW_QUANTA_U32);
ARM GAS  /tmp/ccyEpLlu.s 			page 54


2328:libraries/SystemView/SYSVIEW/SEGGER_SYSVIEW.c ****   //
2329:libraries/SystemView/SYSVIEW/SEGGER_SYSVIEW.c ****   pPayload = pPayloadStart;
2330:libraries/SystemView/SYSVIEW/SEGGER_SYSVIEW.c ****   ENCODE_U32(pPayload, MarkerId);
2331:libraries/SystemView/SYSVIEW/SEGGER_SYSVIEW.c ****   _SendPacket(pPayloadStart, pPayload, SYSVIEW_EVTID_MARK_START);
2332:libraries/SystemView/SYSVIEW/SEGGER_SYSVIEW.c ****   RECORD_END();
2333:libraries/SystemView/SYSVIEW/SEGGER_SYSVIEW.c **** }
2334:libraries/SystemView/SYSVIEW/SEGGER_SYSVIEW.c **** 
2335:libraries/SystemView/SYSVIEW/SEGGER_SYSVIEW.c **** /*********************************************************************
2336:libraries/SystemView/SYSVIEW/SEGGER_SYSVIEW.c **** *
2337:libraries/SystemView/SYSVIEW/SEGGER_SYSVIEW.c **** *       SEGGER_SYSVIEW_MarkStop()
2338:libraries/SystemView/SYSVIEW/SEGGER_SYSVIEW.c **** *
2339:libraries/SystemView/SYSVIEW/SEGGER_SYSVIEW.c **** *  Function description
2340:libraries/SystemView/SYSVIEW/SEGGER_SYSVIEW.c **** *    Record a Performance Marker Stop event to stop measuring runtime.
2341:libraries/SystemView/SYSVIEW/SEGGER_SYSVIEW.c **** *
2342:libraries/SystemView/SYSVIEW/SEGGER_SYSVIEW.c **** *  Parameters
2343:libraries/SystemView/SYSVIEW/SEGGER_SYSVIEW.c **** *    MarkerId  - User defined ID for the marker.
2344:libraries/SystemView/SYSVIEW/SEGGER_SYSVIEW.c **** */
2345:libraries/SystemView/SYSVIEW/SEGGER_SYSVIEW.c **** void SEGGER_SYSVIEW_MarkStop(unsigned MarkerId) {
2346:libraries/SystemView/SYSVIEW/SEGGER_SYSVIEW.c ****   U8 * pPayload;
2347:libraries/SystemView/SYSVIEW/SEGGER_SYSVIEW.c ****   U8 * pPayloadStart;
2348:libraries/SystemView/SYSVIEW/SEGGER_SYSVIEW.c ****   RECORD_START(SEGGER_SYSVIEW_INFO_SIZE + SEGGER_SYSVIEW_QUANTA_U32);
2349:libraries/SystemView/SYSVIEW/SEGGER_SYSVIEW.c ****   //
2350:libraries/SystemView/SYSVIEW/SEGGER_SYSVIEW.c ****   pPayload = pPayloadStart;
2351:libraries/SystemView/SYSVIEW/SEGGER_SYSVIEW.c ****   ENCODE_U32(pPayload, MarkerId);
2352:libraries/SystemView/SYSVIEW/SEGGER_SYSVIEW.c ****   _SendPacket(pPayloadStart, pPayload, SYSVIEW_EVTID_MARK_STOP);
2353:libraries/SystemView/SYSVIEW/SEGGER_SYSVIEW.c ****   RECORD_END();
2354:libraries/SystemView/SYSVIEW/SEGGER_SYSVIEW.c **** }
2355:libraries/SystemView/SYSVIEW/SEGGER_SYSVIEW.c **** 
2356:libraries/SystemView/SYSVIEW/SEGGER_SYSVIEW.c **** /*********************************************************************
2357:libraries/SystemView/SYSVIEW/SEGGER_SYSVIEW.c **** *
2358:libraries/SystemView/SYSVIEW/SEGGER_SYSVIEW.c **** *       SEGGER_SYSVIEW_Mark()
2359:libraries/SystemView/SYSVIEW/SEGGER_SYSVIEW.c **** *
2360:libraries/SystemView/SYSVIEW/SEGGER_SYSVIEW.c **** *  Function description
2361:libraries/SystemView/SYSVIEW/SEGGER_SYSVIEW.c **** *    Record a Performance Marker intermediate event.
2362:libraries/SystemView/SYSVIEW/SEGGER_SYSVIEW.c **** *
2363:libraries/SystemView/SYSVIEW/SEGGER_SYSVIEW.c **** *  Parameters
2364:libraries/SystemView/SYSVIEW/SEGGER_SYSVIEW.c **** *    MarkerId  - User defined ID for the marker.
2365:libraries/SystemView/SYSVIEW/SEGGER_SYSVIEW.c **** */
2366:libraries/SystemView/SYSVIEW/SEGGER_SYSVIEW.c **** void SEGGER_SYSVIEW_Mark(unsigned int MarkerId) {
2367:libraries/SystemView/SYSVIEW/SEGGER_SYSVIEW.c ****   U8* pPayload;
2368:libraries/SystemView/SYSVIEW/SEGGER_SYSVIEW.c ****   U8* pPayloadStart;
2369:libraries/SystemView/SYSVIEW/SEGGER_SYSVIEW.c ****   RECORD_START(SEGGER_SYSVIEW_INFO_SIZE + 2 * SEGGER_SYSVIEW_QUANTA_U32);
2370:libraries/SystemView/SYSVIEW/SEGGER_SYSVIEW.c ****   //
2371:libraries/SystemView/SYSVIEW/SEGGER_SYSVIEW.c ****   pPayload = pPayloadStart;
2372:libraries/SystemView/SYSVIEW/SEGGER_SYSVIEW.c ****   ENCODE_U32(pPayload, SYSVIEW_EVTID_EX_MARK);
2373:libraries/SystemView/SYSVIEW/SEGGER_SYSVIEW.c ****   ENCODE_U32(pPayload, MarkerId);
2374:libraries/SystemView/SYSVIEW/SEGGER_SYSVIEW.c ****   _SendPacket(pPayloadStart, pPayload, SYSVIEW_EVTID_EX);
2375:libraries/SystemView/SYSVIEW/SEGGER_SYSVIEW.c ****   RECORD_END();
2376:libraries/SystemView/SYSVIEW/SEGGER_SYSVIEW.c **** }
2377:libraries/SystemView/SYSVIEW/SEGGER_SYSVIEW.c **** 
2378:libraries/SystemView/SYSVIEW/SEGGER_SYSVIEW.c **** /*********************************************************************
2379:libraries/SystemView/SYSVIEW/SEGGER_SYSVIEW.c **** *
2380:libraries/SystemView/SYSVIEW/SEGGER_SYSVIEW.c **** *       SEGGER_SYSVIEW_NameMarker()
2381:libraries/SystemView/SYSVIEW/SEGGER_SYSVIEW.c **** *
2382:libraries/SystemView/SYSVIEW/SEGGER_SYSVIEW.c **** *  Function description
2383:libraries/SystemView/SYSVIEW/SEGGER_SYSVIEW.c **** *    Send the name of a Performance Marker to be displayed in SystemView.
2384:libraries/SystemView/SYSVIEW/SEGGER_SYSVIEW.c **** *
ARM GAS  /tmp/ccyEpLlu.s 			page 55


2385:libraries/SystemView/SYSVIEW/SEGGER_SYSVIEW.c **** *    Marker names are usually set in the system description
2386:libraries/SystemView/SYSVIEW/SEGGER_SYSVIEW.c **** *    callback, to ensure it is only sent when the SystemView Application
2387:libraries/SystemView/SYSVIEW/SEGGER_SYSVIEW.c **** *    is connected.
2388:libraries/SystemView/SYSVIEW/SEGGER_SYSVIEW.c **** *
2389:libraries/SystemView/SYSVIEW/SEGGER_SYSVIEW.c **** *  Parameters
2390:libraries/SystemView/SYSVIEW/SEGGER_SYSVIEW.c **** *    MarkerId   - User defined ID for the marker.
2391:libraries/SystemView/SYSVIEW/SEGGER_SYSVIEW.c **** *    sName      - Pointer to the marker name. (Max. SEGGER_SYSVIEW_MAX_STRING_LEN Bytes)
2392:libraries/SystemView/SYSVIEW/SEGGER_SYSVIEW.c **** */
2393:libraries/SystemView/SYSVIEW/SEGGER_SYSVIEW.c **** void SEGGER_SYSVIEW_NameMarker(unsigned int MarkerId, const char* sName) {
2394:libraries/SystemView/SYSVIEW/SEGGER_SYSVIEW.c ****   U8* pPayload;
2395:libraries/SystemView/SYSVIEW/SEGGER_SYSVIEW.c ****   U8* pPayloadStart;
2396:libraries/SystemView/SYSVIEW/SEGGER_SYSVIEW.c ****   RECORD_START(SEGGER_SYSVIEW_INFO_SIZE + 2 * SEGGER_SYSVIEW_QUANTA_U32 + 1 + SEGGER_SYSVIEW_MAX_ST
2397:libraries/SystemView/SYSVIEW/SEGGER_SYSVIEW.c ****   //
2398:libraries/SystemView/SYSVIEW/SEGGER_SYSVIEW.c ****   pPayload = pPayloadStart;
2399:libraries/SystemView/SYSVIEW/SEGGER_SYSVIEW.c ****   ENCODE_U32(pPayload, SYSVIEW_EVTID_EX_NAME_MARKER);
2400:libraries/SystemView/SYSVIEW/SEGGER_SYSVIEW.c ****   ENCODE_U32(pPayload, MarkerId);
2401:libraries/SystemView/SYSVIEW/SEGGER_SYSVIEW.c ****   pPayload = _EncodeStr(pPayload, sName, SEGGER_SYSVIEW_MAX_STRING_LEN);
2402:libraries/SystemView/SYSVIEW/SEGGER_SYSVIEW.c ****   _SendPacket(pPayloadStart, pPayload, SYSVIEW_EVTID_EX);
2403:libraries/SystemView/SYSVIEW/SEGGER_SYSVIEW.c ****   RECORD_END();
2404:libraries/SystemView/SYSVIEW/SEGGER_SYSVIEW.c **** }
2405:libraries/SystemView/SYSVIEW/SEGGER_SYSVIEW.c **** 
2406:libraries/SystemView/SYSVIEW/SEGGER_SYSVIEW.c **** /*********************************************************************
2407:libraries/SystemView/SYSVIEW/SEGGER_SYSVIEW.c **** *
2408:libraries/SystemView/SYSVIEW/SEGGER_SYSVIEW.c **** *       SEGGER_SYSVIEW_NameResource()
2409:libraries/SystemView/SYSVIEW/SEGGER_SYSVIEW.c **** *
2410:libraries/SystemView/SYSVIEW/SEGGER_SYSVIEW.c **** *  Function description
2411:libraries/SystemView/SYSVIEW/SEGGER_SYSVIEW.c **** *    Send the name of a resource to be displayed in SystemView.
2412:libraries/SystemView/SYSVIEW/SEGGER_SYSVIEW.c **** *
2413:libraries/SystemView/SYSVIEW/SEGGER_SYSVIEW.c **** *    Marker names are usually set in the system description
2414:libraries/SystemView/SYSVIEW/SEGGER_SYSVIEW.c **** *    callback, to ensure it is only sent when the SystemView Application
2415:libraries/SystemView/SYSVIEW/SEGGER_SYSVIEW.c **** *    is connected.
2416:libraries/SystemView/SYSVIEW/SEGGER_SYSVIEW.c **** *
2417:libraries/SystemView/SYSVIEW/SEGGER_SYSVIEW.c **** *  Parameters
2418:libraries/SystemView/SYSVIEW/SEGGER_SYSVIEW.c **** *    ResourceId - Id of the resource to be named. i.e. its address.
2419:libraries/SystemView/SYSVIEW/SEGGER_SYSVIEW.c **** *    sName      - Pointer to the resource name. (Max. SEGGER_SYSVIEW_MAX_STRING_LEN Bytes)
2420:libraries/SystemView/SYSVIEW/SEGGER_SYSVIEW.c **** */
2421:libraries/SystemView/SYSVIEW/SEGGER_SYSVIEW.c **** void SEGGER_SYSVIEW_NameResource(U32 ResourceId, const char* sName) {
2422:libraries/SystemView/SYSVIEW/SEGGER_SYSVIEW.c ****   U8* pPayload;
2423:libraries/SystemView/SYSVIEW/SEGGER_SYSVIEW.c ****   U8* pPayloadStart;
2424:libraries/SystemView/SYSVIEW/SEGGER_SYSVIEW.c ****   RECORD_START(SEGGER_SYSVIEW_INFO_SIZE + SEGGER_SYSVIEW_QUANTA_U32 + 1 + SEGGER_SYSVIEW_MAX_STRING
2425:libraries/SystemView/SYSVIEW/SEGGER_SYSVIEW.c ****   //
2426:libraries/SystemView/SYSVIEW/SEGGER_SYSVIEW.c ****   pPayload = pPayloadStart;
2427:libraries/SystemView/SYSVIEW/SEGGER_SYSVIEW.c ****   ENCODE_U32(pPayload, SHRINK_ID(ResourceId));
2428:libraries/SystemView/SYSVIEW/SEGGER_SYSVIEW.c ****   pPayload = _EncodeStr(pPayload, sName, SEGGER_SYSVIEW_MAX_STRING_LEN);
2429:libraries/SystemView/SYSVIEW/SEGGER_SYSVIEW.c ****   _SendPacket(pPayloadStart, pPayload, SYSVIEW_EVTID_NAME_RESOURCE);
2430:libraries/SystemView/SYSVIEW/SEGGER_SYSVIEW.c ****   RECORD_END();
2431:libraries/SystemView/SYSVIEW/SEGGER_SYSVIEW.c **** }
2432:libraries/SystemView/SYSVIEW/SEGGER_SYSVIEW.c **** 
2433:libraries/SystemView/SYSVIEW/SEGGER_SYSVIEW.c **** /*********************************************************************
2434:libraries/SystemView/SYSVIEW/SEGGER_SYSVIEW.c **** *
2435:libraries/SystemView/SYSVIEW/SEGGER_SYSVIEW.c **** *       SEGGER_SYSVIEW_SendPacket()
2436:libraries/SystemView/SYSVIEW/SEGGER_SYSVIEW.c **** *
2437:libraries/SystemView/SYSVIEW/SEGGER_SYSVIEW.c **** *  Function description
2438:libraries/SystemView/SYSVIEW/SEGGER_SYSVIEW.c **** *    Send an event packet.
2439:libraries/SystemView/SYSVIEW/SEGGER_SYSVIEW.c **** *
2440:libraries/SystemView/SYSVIEW/SEGGER_SYSVIEW.c **** *  Parameters
2441:libraries/SystemView/SYSVIEW/SEGGER_SYSVIEW.c **** *    pPacket      - Pointer to the start of the packet.
ARM GAS  /tmp/ccyEpLlu.s 			page 56


2442:libraries/SystemView/SYSVIEW/SEGGER_SYSVIEW.c **** *    pPayloadEnd  - Pointer to the end of the payload.
2443:libraries/SystemView/SYSVIEW/SEGGER_SYSVIEW.c **** *                   Make sure there are at least 5 bytes free after the payload.
2444:libraries/SystemView/SYSVIEW/SEGGER_SYSVIEW.c **** *    EventId      - Id of the event packet.
2445:libraries/SystemView/SYSVIEW/SEGGER_SYSVIEW.c **** *
2446:libraries/SystemView/SYSVIEW/SEGGER_SYSVIEW.c **** *  Return value
2447:libraries/SystemView/SYSVIEW/SEGGER_SYSVIEW.c **** *    !=0:  Success, Message sent.
2448:libraries/SystemView/SYSVIEW/SEGGER_SYSVIEW.c **** *    ==0:  Buffer full, Message *NOT* sent.
2449:libraries/SystemView/SYSVIEW/SEGGER_SYSVIEW.c **** */
2450:libraries/SystemView/SYSVIEW/SEGGER_SYSVIEW.c **** int SEGGER_SYSVIEW_SendPacket(U8* pPacket, U8* pPayloadEnd, unsigned int EventId) {
2451:libraries/SystemView/SYSVIEW/SEGGER_SYSVIEW.c **** #if (SEGGER_SYSVIEW_USE_STATIC_BUFFER == 1)
2452:libraries/SystemView/SYSVIEW/SEGGER_SYSVIEW.c ****   SEGGER_SYSVIEW_LOCK();
2453:libraries/SystemView/SYSVIEW/SEGGER_SYSVIEW.c **** #endif
2454:libraries/SystemView/SYSVIEW/SEGGER_SYSVIEW.c ****   _SendPacket(pPacket + 4, pPayloadEnd, EventId);
