ARM GAS  /tmp/ccclznnq.s 			page 1


   1              		.cpu cortex-m4
   2              		.eabi_attribute 27, 1
   3              		.eabi_attribute 28, 1
   4              		.eabi_attribute 20, 1
   5              		.eabi_attribute 21, 1
   6              		.eabi_attribute 23, 3
   7              		.eabi_attribute 24, 1
   8              		.eabi_attribute 25, 1
   9              		.eabi_attribute 26, 1
  10              		.eabi_attribute 30, 1
  11              		.eabi_attribute 34, 1
  12              		.eabi_attribute 18, 4
  13              		.file	"SEGGER_RTT_Syscalls_GCC.c"
  14              		.text
  15              	.Ltext0:
  16              		.cfi_sections	.debug_frame
  17              		.section	.text._write,"ax",%progbits
  18              		.align	1
  19              		.global	_write
  20              		.arch armv7e-m
  21              		.syntax unified
  22              		.thumb
  23              		.thumb_func
  24              		.fpu fpv4-sp-d16
  26              	_write:
  27              	.LVL0:
  28              	.LFB0:
  29              		.file 1 "libraries/RTT/Syscalls/SEGGER_RTT_Syscalls_GCC.c"
   1:libraries/RTT/Syscalls/SEGGER_RTT_Syscalls_GCC.c **** /*********************************************************************
   2:libraries/RTT/Syscalls/SEGGER_RTT_Syscalls_GCC.c **** *                    SEGGER Microcontroller GmbH                     *
   3:libraries/RTT/Syscalls/SEGGER_RTT_Syscalls_GCC.c **** *                        The Embedded Experts                        *
   4:libraries/RTT/Syscalls/SEGGER_RTT_Syscalls_GCC.c **** **********************************************************************
   5:libraries/RTT/Syscalls/SEGGER_RTT_Syscalls_GCC.c **** *                                                                    *
   6:libraries/RTT/Syscalls/SEGGER_RTT_Syscalls_GCC.c **** *            (c) 1995 - 2021 SEGGER Microcontroller GmbH             *
   7:libraries/RTT/Syscalls/SEGGER_RTT_Syscalls_GCC.c **** *                                                                    *
   8:libraries/RTT/Syscalls/SEGGER_RTT_Syscalls_GCC.c **** *       www.segger.com     Support: support@segger.com               *
   9:libraries/RTT/Syscalls/SEGGER_RTT_Syscalls_GCC.c **** *                                                                    *
  10:libraries/RTT/Syscalls/SEGGER_RTT_Syscalls_GCC.c **** **********************************************************************
  11:libraries/RTT/Syscalls/SEGGER_RTT_Syscalls_GCC.c **** *                                                                    *
  12:libraries/RTT/Syscalls/SEGGER_RTT_Syscalls_GCC.c **** *       SEGGER RTT * Real Time Transfer for embedded targets         *
  13:libraries/RTT/Syscalls/SEGGER_RTT_Syscalls_GCC.c **** *                                                                    *
  14:libraries/RTT/Syscalls/SEGGER_RTT_Syscalls_GCC.c **** **********************************************************************
  15:libraries/RTT/Syscalls/SEGGER_RTT_Syscalls_GCC.c **** *                                                                    *
  16:libraries/RTT/Syscalls/SEGGER_RTT_Syscalls_GCC.c **** * All rights reserved.                                               *
  17:libraries/RTT/Syscalls/SEGGER_RTT_Syscalls_GCC.c **** *                                                                    *
  18:libraries/RTT/Syscalls/SEGGER_RTT_Syscalls_GCC.c **** * SEGGER strongly recommends to not make any changes                 *
  19:libraries/RTT/Syscalls/SEGGER_RTT_Syscalls_GCC.c **** * to or modify the source code of this software in order to stay     *
  20:libraries/RTT/Syscalls/SEGGER_RTT_Syscalls_GCC.c **** * compatible with the RTT protocol and J-Link.                       *
  21:libraries/RTT/Syscalls/SEGGER_RTT_Syscalls_GCC.c **** *                                                                    *
  22:libraries/RTT/Syscalls/SEGGER_RTT_Syscalls_GCC.c **** * Redistribution and use in source and binary forms, with or         *
  23:libraries/RTT/Syscalls/SEGGER_RTT_Syscalls_GCC.c **** * without modification, are permitted provided that the following    *
  24:libraries/RTT/Syscalls/SEGGER_RTT_Syscalls_GCC.c **** * condition is met:                                                  *
  25:libraries/RTT/Syscalls/SEGGER_RTT_Syscalls_GCC.c **** *                                                                    *
  26:libraries/RTT/Syscalls/SEGGER_RTT_Syscalls_GCC.c **** * o Redistributions of source code must retain the above copyright   *
  27:libraries/RTT/Syscalls/SEGGER_RTT_Syscalls_GCC.c **** *   notice, this condition and the following disclaimer.             *
  28:libraries/RTT/Syscalls/SEGGER_RTT_Syscalls_GCC.c **** *                                                                    *
  29:libraries/RTT/Syscalls/SEGGER_RTT_Syscalls_GCC.c **** * THIS SOFTWARE IS PROVIDED BY THE COPYRIGHT HOLDERS AND             *
ARM GAS  /tmp/ccclznnq.s 			page 2


  30:libraries/RTT/Syscalls/SEGGER_RTT_Syscalls_GCC.c **** * CONTRIBUTORS "AS IS" AND ANY EXPRESS OR IMPLIED WARRANTIES,        *
  31:libraries/RTT/Syscalls/SEGGER_RTT_Syscalls_GCC.c **** * INCLUDING, BUT NOT LIMITED TO, THE IMPLIED WARRANTIES OF           *
  32:libraries/RTT/Syscalls/SEGGER_RTT_Syscalls_GCC.c **** * MERCHANTABILITY AND FITNESS FOR A PARTICULAR PURPOSE ARE           *
  33:libraries/RTT/Syscalls/SEGGER_RTT_Syscalls_GCC.c **** * DISCLAIMED. IN NO EVENT SHALL SEGGER Microcontroller BE LIABLE FOR *
  34:libraries/RTT/Syscalls/SEGGER_RTT_Syscalls_GCC.c **** * ANY DIRECT, INDIRECT, INCIDENTAL, SPECIAL, EXEMPLARY, OR           *
  35:libraries/RTT/Syscalls/SEGGER_RTT_Syscalls_GCC.c **** * CONSEQUENTIAL DAMAGES (INCLUDING, BUT NOT LIMITED TO, PROCUREMENT  *
  36:libraries/RTT/Syscalls/SEGGER_RTT_Syscalls_GCC.c **** * OF SUBSTITUTE GOODS OR SERVICES; LOSS OF USE, DATA, OR PROFITS;    *
  37:libraries/RTT/Syscalls/SEGGER_RTT_Syscalls_GCC.c **** * OR BUSINESS INTERRUPTION) HOWEVER CAUSED AND ON ANY THEORY OF      *
  38:libraries/RTT/Syscalls/SEGGER_RTT_Syscalls_GCC.c **** * LIABILITY, WHETHER IN CONTRACT, STRICT LIABILITY, OR TORT          *
  39:libraries/RTT/Syscalls/SEGGER_RTT_Syscalls_GCC.c **** * (INCLUDING NEGLIGENCE OR OTHERWISE) ARISING IN ANY WAY OUT OF THE  *
  40:libraries/RTT/Syscalls/SEGGER_RTT_Syscalls_GCC.c **** * USE OF THIS SOFTWARE, EVEN IF ADVISED OF THE POSSIBILITY OF SUCH   *
  41:libraries/RTT/Syscalls/SEGGER_RTT_Syscalls_GCC.c **** * DAMAGE.                                                            *
  42:libraries/RTT/Syscalls/SEGGER_RTT_Syscalls_GCC.c **** *                                                                    *
  43:libraries/RTT/Syscalls/SEGGER_RTT_Syscalls_GCC.c **** **********************************************************************
  44:libraries/RTT/Syscalls/SEGGER_RTT_Syscalls_GCC.c **** *                                                                    *
  45:libraries/RTT/Syscalls/SEGGER_RTT_Syscalls_GCC.c **** *       RTT version: 7.54                                           *
  46:libraries/RTT/Syscalls/SEGGER_RTT_Syscalls_GCC.c **** *                                                                    *
  47:libraries/RTT/Syscalls/SEGGER_RTT_Syscalls_GCC.c **** **********************************************************************
  48:libraries/RTT/Syscalls/SEGGER_RTT_Syscalls_GCC.c **** 
  49:libraries/RTT/Syscalls/SEGGER_RTT_Syscalls_GCC.c **** ---------------------------END-OF-HEADER------------------------------
  50:libraries/RTT/Syscalls/SEGGER_RTT_Syscalls_GCC.c **** File    : SEGGER_RTT_Syscalls_GCC.c
  51:libraries/RTT/Syscalls/SEGGER_RTT_Syscalls_GCC.c **** Purpose : Low-level functions for using printf() via RTT in GCC.
  52:libraries/RTT/Syscalls/SEGGER_RTT_Syscalls_GCC.c ****           To use RTT for printf output, include this file in your 
  53:libraries/RTT/Syscalls/SEGGER_RTT_Syscalls_GCC.c ****           application.
  54:libraries/RTT/Syscalls/SEGGER_RTT_Syscalls_GCC.c **** Revision: $Rev: 24316 $
  55:libraries/RTT/Syscalls/SEGGER_RTT_Syscalls_GCC.c **** ----------------------------------------------------------------------
  56:libraries/RTT/Syscalls/SEGGER_RTT_Syscalls_GCC.c **** */
  57:libraries/RTT/Syscalls/SEGGER_RTT_Syscalls_GCC.c **** #if (defined __GNUC__) && !(defined __SES_ARM) && !(defined __CROSSWORKS_ARM) && !(defined __ARMCC_
  58:libraries/RTT/Syscalls/SEGGER_RTT_Syscalls_GCC.c **** 
  59:libraries/RTT/Syscalls/SEGGER_RTT_Syscalls_GCC.c **** #include <reent.h>  // required for _write_r
  60:libraries/RTT/Syscalls/SEGGER_RTT_Syscalls_GCC.c **** #include "SEGGER_RTT.h"
  61:libraries/RTT/Syscalls/SEGGER_RTT_Syscalls_GCC.c **** 
  62:libraries/RTT/Syscalls/SEGGER_RTT_Syscalls_GCC.c **** 
  63:libraries/RTT/Syscalls/SEGGER_RTT_Syscalls_GCC.c **** /*********************************************************************
  64:libraries/RTT/Syscalls/SEGGER_RTT_Syscalls_GCC.c **** *
  65:libraries/RTT/Syscalls/SEGGER_RTT_Syscalls_GCC.c **** *       Types
  66:libraries/RTT/Syscalls/SEGGER_RTT_Syscalls_GCC.c **** *
  67:libraries/RTT/Syscalls/SEGGER_RTT_Syscalls_GCC.c **** **********************************************************************
  68:libraries/RTT/Syscalls/SEGGER_RTT_Syscalls_GCC.c **** */
  69:libraries/RTT/Syscalls/SEGGER_RTT_Syscalls_GCC.c **** //
  70:libraries/RTT/Syscalls/SEGGER_RTT_Syscalls_GCC.c **** // If necessary define the _reent struct
  71:libraries/RTT/Syscalls/SEGGER_RTT_Syscalls_GCC.c **** // to match the one passed by the used standard library.
  72:libraries/RTT/Syscalls/SEGGER_RTT_Syscalls_GCC.c **** //
  73:libraries/RTT/Syscalls/SEGGER_RTT_Syscalls_GCC.c **** struct _reent;
  74:libraries/RTT/Syscalls/SEGGER_RTT_Syscalls_GCC.c **** 
  75:libraries/RTT/Syscalls/SEGGER_RTT_Syscalls_GCC.c **** /*********************************************************************
  76:libraries/RTT/Syscalls/SEGGER_RTT_Syscalls_GCC.c **** *
  77:libraries/RTT/Syscalls/SEGGER_RTT_Syscalls_GCC.c **** *       Function prototypes
  78:libraries/RTT/Syscalls/SEGGER_RTT_Syscalls_GCC.c **** *
  79:libraries/RTT/Syscalls/SEGGER_RTT_Syscalls_GCC.c **** **********************************************************************
  80:libraries/RTT/Syscalls/SEGGER_RTT_Syscalls_GCC.c **** */
  81:libraries/RTT/Syscalls/SEGGER_RTT_Syscalls_GCC.c **** _ssize_t _write  (int file, const void *ptr, size_t len);
  82:libraries/RTT/Syscalls/SEGGER_RTT_Syscalls_GCC.c **** _ssize_t _write_r(struct _reent *r, int file, const void *ptr, size_t len);
  83:libraries/RTT/Syscalls/SEGGER_RTT_Syscalls_GCC.c **** 
  84:libraries/RTT/Syscalls/SEGGER_RTT_Syscalls_GCC.c **** /*********************************************************************
  85:libraries/RTT/Syscalls/SEGGER_RTT_Syscalls_GCC.c **** *
  86:libraries/RTT/Syscalls/SEGGER_RTT_Syscalls_GCC.c **** *       Global functions
ARM GAS  /tmp/ccclznnq.s 			page 3


  87:libraries/RTT/Syscalls/SEGGER_RTT_Syscalls_GCC.c **** *
  88:libraries/RTT/Syscalls/SEGGER_RTT_Syscalls_GCC.c **** **********************************************************************
  89:libraries/RTT/Syscalls/SEGGER_RTT_Syscalls_GCC.c **** */
  90:libraries/RTT/Syscalls/SEGGER_RTT_Syscalls_GCC.c **** 
  91:libraries/RTT/Syscalls/SEGGER_RTT_Syscalls_GCC.c **** /*********************************************************************
  92:libraries/RTT/Syscalls/SEGGER_RTT_Syscalls_GCC.c **** *
  93:libraries/RTT/Syscalls/SEGGER_RTT_Syscalls_GCC.c **** *       _write()
  94:libraries/RTT/Syscalls/SEGGER_RTT_Syscalls_GCC.c **** *
  95:libraries/RTT/Syscalls/SEGGER_RTT_Syscalls_GCC.c **** * Function description
  96:libraries/RTT/Syscalls/SEGGER_RTT_Syscalls_GCC.c **** *   Low-level write function.
  97:libraries/RTT/Syscalls/SEGGER_RTT_Syscalls_GCC.c **** *   libc subroutines will use this system routine for output to all files,
  98:libraries/RTT/Syscalls/SEGGER_RTT_Syscalls_GCC.c **** *   including stdout.
  99:libraries/RTT/Syscalls/SEGGER_RTT_Syscalls_GCC.c **** *   Write data via RTT.
 100:libraries/RTT/Syscalls/SEGGER_RTT_Syscalls_GCC.c **** */
 101:libraries/RTT/Syscalls/SEGGER_RTT_Syscalls_GCC.c **** _ssize_t _write(int file, const void *ptr, size_t len) {
  30              		.loc 1 101 56 view -0
  31              		.cfi_startproc
  32              		@ args = 0, pretend = 0, frame = 0
  33              		@ frame_needed = 0, uses_anonymous_args = 0
  34              		.loc 1 101 56 is_stmt 0 view .LVU1
  35 0000 10B5     		push	{r4, lr}
  36              	.LCFI0:
  37              		.cfi_def_cfa_offset 8
  38              		.cfi_offset 4, -8
  39              		.cfi_offset 14, -4
  40 0002 1446     		mov	r4, r2
 102:libraries/RTT/Syscalls/SEGGER_RTT_Syscalls_GCC.c ****   (void) file;  /* Not used, avoid warning */
  41              		.loc 1 102 3 is_stmt 1 view .LVU2
 103:libraries/RTT/Syscalls/SEGGER_RTT_Syscalls_GCC.c ****   SEGGER_RTT_Write(0, ptr, len);
  42              		.loc 1 103 3 view .LVU3
  43 0004 0020     		movs	r0, #0
  44              	.LVL1:
  45              		.loc 1 103 3 is_stmt 0 view .LVU4
  46 0006 FFF7FEFF 		bl	SEGGER_RTT_Write
  47              	.LVL2:
 104:libraries/RTT/Syscalls/SEGGER_RTT_Syscalls_GCC.c ****   return len;
  48              		.loc 1 104 3 is_stmt 1 view .LVU5
 105:libraries/RTT/Syscalls/SEGGER_RTT_Syscalls_GCC.c **** }
  49              		.loc 1 105 1 is_stmt 0 view .LVU6
  50 000a 2046     		mov	r0, r4
  51 000c 10BD     		pop	{r4, pc}
  52              		.loc 1 105 1 view .LVU7
  53              		.cfi_endproc
  54              	.LFE0:
  56              		.section	.text._write_r,"ax",%progbits
  57              		.align	1
  58              		.global	_write_r
  59              		.syntax unified
  60              		.thumb
  61              		.thumb_func
  62              		.fpu fpv4-sp-d16
  64              	_write_r:
  65              	.LVL3:
  66              	.LFB1:
 106:libraries/RTT/Syscalls/SEGGER_RTT_Syscalls_GCC.c **** 
 107:libraries/RTT/Syscalls/SEGGER_RTT_Syscalls_GCC.c **** /*********************************************************************
 108:libraries/RTT/Syscalls/SEGGER_RTT_Syscalls_GCC.c **** *
ARM GAS  /tmp/ccclznnq.s 			page 4


 109:libraries/RTT/Syscalls/SEGGER_RTT_Syscalls_GCC.c **** *       _write_r()
 110:libraries/RTT/Syscalls/SEGGER_RTT_Syscalls_GCC.c **** *
 111:libraries/RTT/Syscalls/SEGGER_RTT_Syscalls_GCC.c **** * Function description
 112:libraries/RTT/Syscalls/SEGGER_RTT_Syscalls_GCC.c **** *   Low-level reentrant write function.
 113:libraries/RTT/Syscalls/SEGGER_RTT_Syscalls_GCC.c **** *   libc subroutines will use this system routine for output to all files,
 114:libraries/RTT/Syscalls/SEGGER_RTT_Syscalls_GCC.c **** *   including stdout.
 115:libraries/RTT/Syscalls/SEGGER_RTT_Syscalls_GCC.c **** *   Write data via RTT.
 116:libraries/RTT/Syscalls/SEGGER_RTT_Syscalls_GCC.c **** */
 117:libraries/RTT/Syscalls/SEGGER_RTT_Syscalls_GCC.c **** _ssize_t _write_r(struct _reent *r, int file, const void *ptr, size_t len) {
  67              		.loc 1 117 76 is_stmt 1 view -0
  68              		.cfi_startproc
  69              		@ args = 0, pretend = 0, frame = 0
  70              		@ frame_needed = 0, uses_anonymous_args = 0
  71              		.loc 1 117 76 is_stmt 0 view .LVU9
  72 0000 10B5     		push	{r4, lr}
  73              	.LCFI1:
  74              		.cfi_def_cfa_offset 8
  75              		.cfi_offset 4, -8
  76              		.cfi_offset 14, -4
  77 0002 1146     		mov	r1, r2
  78              	.LVL4:
  79              		.loc 1 117 76 view .LVU10
  80 0004 1C46     		mov	r4, r3
 118:libraries/RTT/Syscalls/SEGGER_RTT_Syscalls_GCC.c ****   (void) file;  /* Not used, avoid warning */
  81              		.loc 1 118 3 is_stmt 1 view .LVU11
 119:libraries/RTT/Syscalls/SEGGER_RTT_Syscalls_GCC.c ****   (void) r;     /* Not used, avoid warning */
  82              		.loc 1 119 3 view .LVU12
 120:libraries/RTT/Syscalls/SEGGER_RTT_Syscalls_GCC.c ****   SEGGER_RTT_Write(0, ptr, len);
  83              		.loc 1 120 3 view .LVU13
  84 0006 1A46     		mov	r2, r3
  85              	.LVL5:
  86              		.loc 1 120 3 is_stmt 0 view .LVU14
  87 0008 0020     		movs	r0, #0
  88              	.LVL6:
  89              		.loc 1 120 3 view .LVU15
  90 000a FFF7FEFF 		bl	SEGGER_RTT_Write
  91              	.LVL7:
 121:libraries/RTT/Syscalls/SEGGER_RTT_Syscalls_GCC.c ****   return len;
  92              		.loc 1 121 3 is_stmt 1 view .LVU16
 122:libraries/RTT/Syscalls/SEGGER_RTT_Syscalls_GCC.c **** }
  93              		.loc 1 122 1 is_stmt 0 view .LVU17
  94 000e 2046     		mov	r0, r4
  95 0010 10BD     		pop	{r4, pc}
  96              		.loc 1 122 1 view .LVU18
  97              		.cfi_endproc
  98              	.LFE1:
 100              		.text
 101              	.Letext0:
 102              		.file 2 "/usr/lib/gcc/arm-none-eabi/10.3.1/include/stddef.h"
 103              		.file 3 "/usr/include/newlib/sys/_types.h"
 104              		.file 4 "/usr/include/newlib/sys/reent.h"
 105              		.file 5 "/usr/include/newlib/sys/lock.h"
 106              		.file 6 "/usr/include/newlib/reent.h"
 107              		.file 7 "libraries/RTT/RTT/SEGGER_RTT.h"
ARM GAS  /tmp/ccclznnq.s 			page 5

