ARM GAS  /tmp/ccT9rKxR.s 			page 1


   1              		.cpu cortex-m4
   2              		.eabi_attribute 27, 1
   3              		.eabi_attribute 28, 1
   4              		.eabi_attribute 20, 1
   5              		.eabi_attribute 21, 1
   6              		.eabi_attribute 23, 3
   7              		.eabi_attribute 24, 1
   8              		.eabi_attribute 25, 1
   9              		.eabi_attribute 26, 1
  10              		.eabi_attribute 30, 1
  11              		.eabi_attribute 34, 1
  12              		.eabi_attribute 18, 4
  13              		.file	"sht3x.c"
  14              		.text
  15              	.Ltext0:
  16              		.cfi_sections	.debug_frame
  17              		.section	.text.SHT3x_CRC8,"ax",%progbits
  18              		.align	1
  19              		.global	SHT3x_CRC8
  20              		.arch armv7e-m
  21              		.syntax unified
  22              		.thumb
  23              		.thumb_func
  24              		.fpu fpv4-sp-d16
  26              	SHT3x_CRC8:
  27              	.LVL0:
  28              	.LFB145:
  29              		.file 1 "app/drivers/sht3x/sht3x.c"
   1:app/drivers/sht3x/sht3x.c **** /*!
   2:app/drivers/sht3x/sht3x.c ****  * @file sht3x.c
   3:app/drivers/sht3x/sht3x.c ****  * @brief implementation of sht3x
   4:app/drivers/sht3x/sht3x.c ****  *
   5:app/drivers/sht3x/sht3x.c ****  * Detailed description of the implementation file.
   6:app/drivers/sht3x/sht3x.c ****  *
   7:app/drivers/sht3x/sht3x.c ****  * @date 04/08/2024
   8:app/drivers/sht3x/sht3x.c ****  * @author artempolisskyi
   9:app/drivers/sht3x/sht3x.c ****  */
  10:app/drivers/sht3x/sht3x.c **** 
  11:app/drivers/sht3x/sht3x.c **** #include "sht3x.h"
  12:app/drivers/sht3x/sht3x.c **** #include "main.h"
  13:app/drivers/sht3x/sht3x.c **** 
  14:app/drivers/sht3x/sht3x.c **** // TODO move it to task
  15:app/drivers/sht3x/sht3x.c **** SHT3x_IO_t SHT3x_IO = {
  16:app/drivers/sht3x/sht3x.c ****         .i2cAddress = 0x00,
  17:app/drivers/sht3x/sht3x.c ****         .write = NULL,
  18:app/drivers/sht3x/sht3x.c ****         .read = NULL,
  19:app/drivers/sht3x/sht3x.c ****         .delayMs = NULL,
  20:app/drivers/sht3x/sht3x.c ****         .crc8 = NULL
  21:app/drivers/sht3x/sht3x.c **** };
  22:app/drivers/sht3x/sht3x.c **** 
  23:app/drivers/sht3x/sht3x.c **** static const uint8_t crc8LookupTable[16 * 16] = {
  24:app/drivers/sht3x/sht3x.c ****         0x00, 0x31, 0x62, 0x53, 0xc4, 0xf5, 0xa6, 0x97,
  25:app/drivers/sht3x/sht3x.c ****         0xb9, 0x88, 0xdb, 0xea, 0x7d, 0x4c, 0x1f, 0x2e,
  26:app/drivers/sht3x/sht3x.c ****         0x43, 0x72, 0x21, 0x10, 0x87, 0xb6, 0xe5, 0xd4,
  27:app/drivers/sht3x/sht3x.c ****         0xfa, 0xcb, 0x98, 0xa9, 0x3e, 0x0f, 0x5c, 0x6d,
  28:app/drivers/sht3x/sht3x.c ****         0x86, 0xb7, 0xe4, 0xd5, 0x42, 0x73, 0x20, 0x11,
  29:app/drivers/sht3x/sht3x.c ****         0x3f, 0x0e, 0x5d, 0x6c, 0xfb, 0xca, 0x99, 0xa8,
ARM GAS  /tmp/ccT9rKxR.s 			page 2


  30:app/drivers/sht3x/sht3x.c ****         0xc5, 0xf4, 0xa7, 0x96, 0x01, 0x30, 0x63, 0x52,
  31:app/drivers/sht3x/sht3x.c ****         0x7c, 0x4d, 0x1e, 0x2f, 0xb8, 0x89, 0xda, 0xeb,
  32:app/drivers/sht3x/sht3x.c ****         0x3d, 0x0c, 0x5f, 0x6e, 0xf9, 0xc8, 0x9b, 0xaa,
  33:app/drivers/sht3x/sht3x.c ****         0x84, 0xb5, 0xe6, 0xd7, 0x40, 0x71, 0x22, 0x13,
  34:app/drivers/sht3x/sht3x.c ****         0x7e, 0x4f, 0x1c, 0x2d, 0xba, 0x8b, 0xd8, 0xe9,
  35:app/drivers/sht3x/sht3x.c ****         0xc7, 0xf6, 0xa5, 0x94, 0x03, 0x32, 0x61, 0x50,
  36:app/drivers/sht3x/sht3x.c ****         0xbb, 0x8a, 0xd9, 0xe8, 0x7f, 0x4e, 0x1d, 0x2c,
  37:app/drivers/sht3x/sht3x.c ****         0x02, 0x33, 0x60, 0x51, 0xc6, 0xf7, 0xa4, 0x95,
  38:app/drivers/sht3x/sht3x.c ****         0xf8, 0xc9, 0x9a, 0xab, 0x3c, 0x0d, 0x5e, 0x6f,
  39:app/drivers/sht3x/sht3x.c ****         0x41, 0x70, 0x23, 0x12, 0x85, 0xb4, 0xe7, 0xd6,
  40:app/drivers/sht3x/sht3x.c ****         0x7a, 0x4b, 0x18, 0x29, 0xbe, 0x8f, 0xdc, 0xed,
  41:app/drivers/sht3x/sht3x.c ****         0xc3, 0xf2, 0xa1, 0x90, 0x07, 0x36, 0x65, 0x54,
  42:app/drivers/sht3x/sht3x.c ****         0x39, 0x08, 0x5b, 0x6a, 0xfd, 0xcc, 0x9f, 0xae,
  43:app/drivers/sht3x/sht3x.c ****         0x80, 0xb1, 0xe2, 0xd3, 0x44, 0x75, 0x26, 0x17,
  44:app/drivers/sht3x/sht3x.c ****         0xfc, 0xcd, 0x9e, 0xaf, 0x38, 0x09, 0x5a, 0x6b,
  45:app/drivers/sht3x/sht3x.c ****         0x45, 0x74, 0x27, 0x16, 0x81, 0xb0, 0xe3, 0xd2,
  46:app/drivers/sht3x/sht3x.c ****         0xbf, 0x8e, 0xdd, 0xec, 0x7b, 0x4a, 0x19, 0x28,
  47:app/drivers/sht3x/sht3x.c ****         0x06, 0x37, 0x64, 0x55, 0xc2, 0xf3, 0xa0, 0x91,
  48:app/drivers/sht3x/sht3x.c ****         0x47, 0x76, 0x25, 0x14, 0x83, 0xb2, 0xe1, 0xd0,
  49:app/drivers/sht3x/sht3x.c ****         0xfe, 0xcf, 0x9c, 0xad, 0x3a, 0x0b, 0x58, 0x69,
  50:app/drivers/sht3x/sht3x.c ****         0x04, 0x35, 0x66, 0x57, 0xc0, 0xf1, 0xa2, 0x93,
  51:app/drivers/sht3x/sht3x.c ****         0xbd, 0x8c, 0xdf, 0xee, 0x79, 0x48, 0x1b, 0x2a,
  52:app/drivers/sht3x/sht3x.c ****         0xc1, 0xf0, 0xa3, 0x92, 0x05, 0x34, 0x67, 0x56,
  53:app/drivers/sht3x/sht3x.c ****         0x78, 0x49, 0x1a, 0x2b, 0xbc, 0x8d, 0xde, 0xef,
  54:app/drivers/sht3x/sht3x.c ****         0x82, 0xb3, 0xe0, 0xd1, 0x46, 0x77, 0x24, 0x15,
  55:app/drivers/sht3x/sht3x.c ****         0x3b, 0x0a, 0x59, 0x68, 0xff, 0xce, 0x9d, 0xac
  56:app/drivers/sht3x/sht3x.c **** };
  57:app/drivers/sht3x/sht3x.c **** 
  58:app/drivers/sht3x/sht3x.c **** // TODO refactor so that every function accepts a pointer to SHT3x_IO_t
  59:app/drivers/sht3x/sht3x.c **** SHT3x_RESULT SHT3x_InitIO(uint8_t i2cAddress, SHT3x_Write_Func write, SHT3x_Read_Func read, SHT3x_D
  60:app/drivers/sht3x/sht3x.c ****   SHT3x_IO.i2cAddress = i2cAddress;
  61:app/drivers/sht3x/sht3x.c ****   SHT3x_IO.write = write;
  62:app/drivers/sht3x/sht3x.c ****   SHT3x_IO.read = read;
  63:app/drivers/sht3x/sht3x.c ****   SHT3x_IO.delayMs = delayMs;
  64:app/drivers/sht3x/sht3x.c ****   SHT3x_IO.crc8 = (crc8 == NULL)
  65:app/drivers/sht3x/sht3x.c ****     ? SHT3x_CRC8
  66:app/drivers/sht3x/sht3x.c ****     : crc8;
  67:app/drivers/sht3x/sht3x.c **** 
  68:app/drivers/sht3x/sht3x.c ****   return SHT3x_OK;
  69:app/drivers/sht3x/sht3x.c **** }
  70:app/drivers/sht3x/sht3x.c **** 
  71:app/drivers/sht3x/sht3x.c **** /**
  72:app/drivers/sht3x/sht3x.c ****  * @brief Read the serial number of the SHT3x sensor.
  73:app/drivers/sht3x/sht3x.c ****  *
  74:app/drivers/sht3x/sht3x.c ****  * Serial number structure:
  75:app/drivers/sht3x/sht3x.c ****  * - 2 bytes: Serial number word 1
  76:app/drivers/sht3x/sht3x.c ****  * - 1 byte: CRC for serial number word 1
  77:app/drivers/sht3x/sht3x.c ****  * - 2 bytes: Serial number word 2
  78:app/drivers/sht3x/sht3x.c ****  * - 1 byte: CRC for serial number word 2
  79:app/drivers/sht3x/sht3x.c ****  *
  80:app/drivers/sht3x/sht3x.c ****  * @note the sensor needs the time tIDLE = 1ms to respond to the I2C read header with an ACK Bit
  81:app/drivers/sht3x/sht3x.c ****  *
  82:app/drivers/sht3x/sht3x.c ****  * @see https://sensirion.com/media/documents/E5762713/63D103C2/Sensirion_electronic_identification
  83:app/drivers/sht3x/sht3x.c ****  * @param id
  84:app/drivers/sht3x/sht3x.c ****  * @return
  85:app/drivers/sht3x/sht3x.c ****  */
  86:app/drivers/sht3x/sht3x.c **** SHT3x_RESULT SHT3x_ReadDeviceID(uint32_t *id) {
ARM GAS  /tmp/ccT9rKxR.s 			page 3


  87:app/drivers/sht3x/sht3x.c ****     uint8_t serialNumberData[SHT3x_SERIAL_NUMBER_SIZE] = {0x00, 0x00, 0x00, 0x00, 0x00, 0x00};
  88:app/drivers/sht3x/sht3x.c ****     uint8_t serialNumberCMD[] = {SHT3x_SERIAL_NUMBER_CMD_ID >> 8, SHT3x_SERIAL_NUMBER_CMD_ID & 0xFF
  89:app/drivers/sht3x/sht3x.c **** 
  90:app/drivers/sht3x/sht3x.c ****     SHT3x_RESULT result = SHT3x_IO.write(SHT3x_IO.i2cAddress, serialNumberCMD, SHT3x_CMD_SIZE);
  91:app/drivers/sht3x/sht3x.c **** 
  92:app/drivers/sht3x/sht3x.c ****     if (result != SHT3x_OK)
  93:app/drivers/sht3x/sht3x.c ****       return result;
  94:app/drivers/sht3x/sht3x.c **** 
  95:app/drivers/sht3x/sht3x.c ****     SHT3x_IO.delayMs(1);
  96:app/drivers/sht3x/sht3x.c **** 
  97:app/drivers/sht3x/sht3x.c ****     result = SHT3x_IO.read(SHT3x_IO.i2cAddress, serialNumberData, SHT3x_SERIAL_NUMBER_SIZE);
  98:app/drivers/sht3x/sht3x.c **** 
  99:app/drivers/sht3x/sht3x.c ****     if (result != SHT3x_OK)
 100:app/drivers/sht3x/sht3x.c ****       return result;
 101:app/drivers/sht3x/sht3x.c **** 
 102:app/drivers/sht3x/sht3x.c ****     // Check CRC
 103:app/drivers/sht3x/sht3x.c ****     uint8_t word1ReceivedCRC = serialNumberData[2];
 104:app/drivers/sht3x/sht3x.c ****     uint8_t word2ReceivedCRC = serialNumberData[5];
 105:app/drivers/sht3x/sht3x.c ****     bool word1CRCValid = SHT3x_IO.crc8(serialNumberData, 2) == word1ReceivedCRC;
 106:app/drivers/sht3x/sht3x.c ****     bool word2CRCValid = SHT3x_IO.crc8(serialNumberData + 3, 2) == word2ReceivedCRC;
 107:app/drivers/sht3x/sht3x.c **** 
 108:app/drivers/sht3x/sht3x.c ****     if (word1CRCValid == false || word2CRCValid == false) {
 109:app/drivers/sht3x/sht3x.c ****       return SHT3x_CRC_ERROR;
 110:app/drivers/sht3x/sht3x.c ****     }
 111:app/drivers/sht3x/sht3x.c **** 
 112:app/drivers/sht3x/sht3x.c ****     *id = serialNumberData[0] << 24 | serialNumberData[1] << 16 | serialNumberData[3] << 8 | serial
 113:app/drivers/sht3x/sht3x.c **** 
 114:app/drivers/sht3x/sht3x.c ****     return SHT3x_OK;
 115:app/drivers/sht3x/sht3x.c **** }
 116:app/drivers/sht3x/sht3x.c **** 
 117:app/drivers/sht3x/sht3x.c **** SHT3x_RESULT SHT3x_PeriodicAcquisitionMode(uint16_t modeCondition) {
 118:app/drivers/sht3x/sht3x.c ****   uint8_t cmd[] = {modeCondition >> 8, modeCondition & 0xFF};
 119:app/drivers/sht3x/sht3x.c **** 
 120:app/drivers/sht3x/sht3x.c ****   return SHT3x_IO.write(SHT3x_IO.i2cAddress, cmd, SHT3x_CMD_SIZE);
 121:app/drivers/sht3x/sht3x.c **** }
 122:app/drivers/sht3x/sht3x.c **** 
 123:app/drivers/sht3x/sht3x.c **** SHT3x_RESULT SHT3x_ReadMeasurements(int16_t *rawTemperature, uint16_t *rawHumidity) {
 124:app/drivers/sht3x/sht3x.c ****   uint8_t data[6] = {0x00, 0x00, 0x00, 0x00, 0x00, 0x00};
 125:app/drivers/sht3x/sht3x.c ****   uint8_t cmd[] = {SHT3x_READ_MEASUREMENT_CMD_ID >> 8, SHT3x_READ_MEASUREMENT_CMD_ID & 0xFF};
 126:app/drivers/sht3x/sht3x.c **** 
 127:app/drivers/sht3x/sht3x.c ****   SHT3x_RESULT result = SHT3x_IO.write(SHT3x_IO.i2cAddress, cmd, SHT3x_CMD_SIZE);
 128:app/drivers/sht3x/sht3x.c **** 
 129:app/drivers/sht3x/sht3x.c ****   if (result != SHT3x_OK)
 130:app/drivers/sht3x/sht3x.c ****     return result;
 131:app/drivers/sht3x/sht3x.c **** 
 132:app/drivers/sht3x/sht3x.c ****   // TODO handle: If no measurement data is present the I2C read header is responded with a NACK
 133:app/drivers/sht3x/sht3x.c ****   result = SHT3x_IO.read(SHT3x_IO.i2cAddress, data, 6);
 134:app/drivers/sht3x/sht3x.c **** 
 135:app/drivers/sht3x/sht3x.c ****   if (result != SHT3x_OK)
 136:app/drivers/sht3x/sht3x.c ****     return result;
 137:app/drivers/sht3x/sht3x.c **** 
 138:app/drivers/sht3x/sht3x.c ****   // Check CRC
 139:app/drivers/sht3x/sht3x.c ****   uint8_t temperatureCRC = data[2];
 140:app/drivers/sht3x/sht3x.c ****   uint8_t humidityCRC = data[5];
 141:app/drivers/sht3x/sht3x.c ****   bool temperatureCRCValid = SHT3x_IO.crc8(data, 2) == temperatureCRC;
 142:app/drivers/sht3x/sht3x.c ****   bool humidityCRCValid = SHT3x_IO.crc8(data + 3, 2) == humidityCRC;
 143:app/drivers/sht3x/sht3x.c **** 
ARM GAS  /tmp/ccT9rKxR.s 			page 4


 144:app/drivers/sht3x/sht3x.c ****   if (temperatureCRCValid == false || humidityCRCValid == false) {
 145:app/drivers/sht3x/sht3x.c ****     return SHT3x_CRC_ERROR;
 146:app/drivers/sht3x/sht3x.c ****   }
 147:app/drivers/sht3x/sht3x.c **** 
 148:app/drivers/sht3x/sht3x.c ****   *rawTemperature = data[0] << 8 | data[1];
 149:app/drivers/sht3x/sht3x.c ****   *rawHumidity = data[3] << 8 | data[4];
 150:app/drivers/sht3x/sht3x.c **** 
 151:app/drivers/sht3x/sht3x.c ****   return SHT3x_OK;
 152:app/drivers/sht3x/sht3x.c **** }
 153:app/drivers/sht3x/sht3x.c **** 
 154:app/drivers/sht3x/sht3x.c **** float SHT3x_RawToTemperatureC(int16_t rawTemperature) {
 155:app/drivers/sht3x/sht3x.c ****   // simplified (65536 instead of 65535) integer version of:
 156:app/drivers/sht3x/sht3x.c ****   // temp = (stemp * 175.0f) / 65535.0f - 45.0f;
 157:app/drivers/sht3x/sht3x.c ****   int32_t stemp = ((4375 * (int32_t)rawTemperature) >> 14) - 4500;
 158:app/drivers/sht3x/sht3x.c **** 
 159:app/drivers/sht3x/sht3x.c ****   return (float)stemp / 100.0f;
 160:app/drivers/sht3x/sht3x.c **** }
 161:app/drivers/sht3x/sht3x.c **** 
 162:app/drivers/sht3x/sht3x.c **** float SHT3x_RawToHumidityRH(uint16_t rawHumidity) {
 163:app/drivers/sht3x/sht3x.c ****   // simplified (65536 instead of 65535) integer version of:
 164:app/drivers/sht3x/sht3x.c ****   // humidity = (shum * 100.0f) / 65535.0f;
 165:app/drivers/sht3x/sht3x.c ****   uint32_t shum = (625 * (uint32_t)rawHumidity) >> 12;
 166:app/drivers/sht3x/sht3x.c **** 
 167:app/drivers/sht3x/sht3x.c ****   return (float)shum / 100.0f;
 168:app/drivers/sht3x/sht3x.c **** }
 169:app/drivers/sht3x/sht3x.c **** 
 170:app/drivers/sht3x/sht3x.c **** uint8_t SHT3x_CRC8(uint8_t *data, uint8_t len) {
  30              		.loc 1 170 48 view -0
  31              		.cfi_startproc
  32              		@ args = 0, pretend = 0, frame = 0
  33              		@ frame_needed = 0, uses_anonymous_args = 0
  34              		@ link register save eliminated.
  35              		.loc 1 170 48 is_stmt 0 view .LVU1
  36 0000 8446     		mov	ip, r0
 171:app/drivers/sht3x/sht3x.c ****   uint8_t crc = 0xFF;  // Initial value
  37              		.loc 1 171 3 is_stmt 1 view .LVU2
  38              	.LVL1:
 172:app/drivers/sht3x/sht3x.c **** 
 173:app/drivers/sht3x/sht3x.c ****   for (uint8_t i = 0; i < len; i++) {
  39              		.loc 1 173 3 view .LVU3
  40              	.LBB2:
  41              		.loc 1 173 8 view .LVU4
  42              		.loc 1 173 16 is_stmt 0 view .LVU5
  43 0002 0023     		movs	r3, #0
  44              	.LBE2:
 171:app/drivers/sht3x/sht3x.c ****   uint8_t crc = 0xFF;  // Initial value
  45              		.loc 1 171 11 view .LVU6
  46 0004 FF20     		movs	r0, #255
  47              	.LVL2:
  48              	.LBB3:
  49              		.loc 1 173 23 is_stmt 1 view .LVU7
  50              		.loc 1 173 3 is_stmt 0 view .LVU8
  51 0006 8B42     		cmp	r3, r1
  52 0008 0CD2     		bcs	.L8
  53              	.LBE3:
 170:app/drivers/sht3x/sht3x.c ****   uint8_t crc = 0xFF;  // Initial value
  54              		.loc 1 170 48 view .LVU9
ARM GAS  /tmp/ccT9rKxR.s 			page 5


  55 000a 10B4     		push	{r4}
  56              	.LCFI0:
  57              		.cfi_def_cfa_offset 4
  58              		.cfi_offset 4, -4
  59              	.L3:
  60              	.LBB4:
 174:app/drivers/sht3x/sht3x.c ****     crc = crc8LookupTable[crc ^ data[i]];
  61              		.loc 1 174 5 is_stmt 1 discriminator 3 view .LVU10
  62              		.loc 1 174 37 is_stmt 0 discriminator 3 view .LVU11
  63 000c 1CF80320 		ldrb	r2, [ip, r3]	@ zero_extendqisi2
  64              		.loc 1 174 31 discriminator 3 view .LVU12
  65 0010 4240     		eors	r2, r2, r0
  66              		.loc 1 174 9 discriminator 3 view .LVU13
  67 0012 054C     		ldr	r4, .L9
  68 0014 A05C     		ldrb	r0, [r4, r2]	@ zero_extendqisi2
  69              	.LVL3:
 173:app/drivers/sht3x/sht3x.c ****     crc = crc8LookupTable[crc ^ data[i]];
  70              		.loc 1 173 32 is_stmt 1 discriminator 3 view .LVU14
 173:app/drivers/sht3x/sht3x.c ****     crc = crc8LookupTable[crc ^ data[i]];
  71              		.loc 1 173 33 is_stmt 0 discriminator 3 view .LVU15
  72 0016 0133     		adds	r3, r3, #1
  73              	.LVL4:
 173:app/drivers/sht3x/sht3x.c ****     crc = crc8LookupTable[crc ^ data[i]];
  74              		.loc 1 173 33 discriminator 3 view .LVU16
  75 0018 DBB2     		uxtb	r3, r3
  76              	.LVL5:
 173:app/drivers/sht3x/sht3x.c ****     crc = crc8LookupTable[crc ^ data[i]];
  77              		.loc 1 173 23 is_stmt 1 discriminator 3 view .LVU17
 173:app/drivers/sht3x/sht3x.c ****     crc = crc8LookupTable[crc ^ data[i]];
  78              		.loc 1 173 3 is_stmt 0 discriminator 3 view .LVU18
  79 001a 8B42     		cmp	r3, r1
  80 001c F6D3     		bcc	.L3
  81              	.LBE4:
 175:app/drivers/sht3x/sht3x.c ****   }
 176:app/drivers/sht3x/sht3x.c **** 
 177:app/drivers/sht3x/sht3x.c ****   return crc;
  82              		.loc 1 177 3 is_stmt 1 view .LVU19
 178:app/drivers/sht3x/sht3x.c **** }...
  83              		.loc 1 178 1 is_stmt 0 view .LVU20
  84 001e 5DF8044B 		ldr	r4, [sp], #4
  85              	.LCFI1:
  86              		.cfi_restore 4
  87              		.cfi_def_cfa_offset 0
  88 0022 7047     		bx	lr
  89              	.L8:
  90              		.loc 1 178 1 view .LVU21
  91 0024 7047     		bx	lr
  92              	.L10:
  93 0026 00BF     		.align	2
  94              	.L9:
  95 0028 00000000 		.word	.LANCHOR0
  96              		.cfi_endproc
  97              	.LFE145:
  99              		.section	.text.SHT3x_InitIO,"ax",%progbits
 100              		.align	1
 101              		.global	SHT3x_InitIO
 102              		.syntax unified
ARM GAS  /tmp/ccT9rKxR.s 			page 6


 103              		.thumb
 104              		.thumb_func
 105              		.fpu fpv4-sp-d16
 107              	SHT3x_InitIO:
 108              	.LVL6:
 109              	.LFB139:
  59:app/drivers/sht3x/sht3x.c **** SHT3x_RESULT SHT3x_InitIO(uint8_t i2cAddress, SHT3x_Write_Func write, SHT3x_Read_Func read, SHT3x_D
 110              		.loc 1 59 143 is_stmt 1 view -0
 111              		.cfi_startproc
 112              		@ args = 4, pretend = 0, frame = 0
 113              		@ frame_needed = 0, uses_anonymous_args = 0
 114              		@ link register save eliminated.
  59:app/drivers/sht3x/sht3x.c **** SHT3x_RESULT SHT3x_InitIO(uint8_t i2cAddress, SHT3x_Write_Func write, SHT3x_Read_Func read, SHT3x_D
 115              		.loc 1 59 143 is_stmt 0 view .LVU23
 116 0000 30B4     		push	{r4, r5}
 117              	.LCFI2:
 118              		.cfi_def_cfa_offset 8
 119              		.cfi_offset 4, -8
 120              		.cfi_offset 5, -4
 121 0002 029D     		ldr	r5, [sp, #8]
  60:app/drivers/sht3x/sht3x.c ****   SHT3x_IO.i2cAddress = i2cAddress;
 122              		.loc 1 60 3 is_stmt 1 view .LVU24
  60:app/drivers/sht3x/sht3x.c ****   SHT3x_IO.i2cAddress = i2cAddress;
 123              		.loc 1 60 23 is_stmt 0 view .LVU25
 124 0004 064C     		ldr	r4, .L16
 125 0006 2070     		strb	r0, [r4]
  61:app/drivers/sht3x/sht3x.c ****   SHT3x_IO.write = write;
 126              		.loc 1 61 3 is_stmt 1 view .LVU26
  61:app/drivers/sht3x/sht3x.c ****   SHT3x_IO.write = write;
 127              		.loc 1 61 18 is_stmt 0 view .LVU27
 128 0008 6160     		str	r1, [r4, #4]
  62:app/drivers/sht3x/sht3x.c ****   SHT3x_IO.read = read;
 129              		.loc 1 62 3 is_stmt 1 view .LVU28
  62:app/drivers/sht3x/sht3x.c ****   SHT3x_IO.read = read;
 130              		.loc 1 62 17 is_stmt 0 view .LVU29
 131 000a A260     		str	r2, [r4, #8]
  63:app/drivers/sht3x/sht3x.c ****   SHT3x_IO.delayMs = delayMs;
 132              		.loc 1 63 3 is_stmt 1 view .LVU30
  63:app/drivers/sht3x/sht3x.c ****   SHT3x_IO.delayMs = delayMs;
 133              		.loc 1 63 20 is_stmt 0 view .LVU31
 134 000c E360     		str	r3, [r4, #12]
  64:app/drivers/sht3x/sht3x.c ****   SHT3x_IO.crc8 = (crc8 == NULL)
 135              		.loc 1 64 3 is_stmt 1 view .LVU32
  66:app/drivers/sht3x/sht3x.c ****     : crc8;
 136              		.loc 1 66 5 is_stmt 0 view .LVU33
 137 000e 25B1     		cbz	r5, .L15
 138              	.L12:
  64:app/drivers/sht3x/sht3x.c ****   SHT3x_IO.crc8 = (crc8 == NULL)
 139              		.loc 1 64 17 view .LVU34
 140 0010 034B     		ldr	r3, .L16
 141              	.LVL7:
  64:app/drivers/sht3x/sht3x.c ****   SHT3x_IO.crc8 = (crc8 == NULL)
 142              		.loc 1 64 17 view .LVU35
 143 0012 1D61     		str	r5, [r3, #16]
  68:app/drivers/sht3x/sht3x.c ****   return SHT3x_OK;
 144              		.loc 1 68 3 is_stmt 1 view .LVU36
  69:app/drivers/sht3x/sht3x.c **** }
ARM GAS  /tmp/ccT9rKxR.s 			page 7


 145              		.loc 1 69 1 is_stmt 0 view .LVU37
 146 0014 0020     		movs	r0, #0
 147              	.LVL8:
  69:app/drivers/sht3x/sht3x.c **** }
 148              		.loc 1 69 1 view .LVU38
 149 0016 30BC     		pop	{r4, r5}
 150              	.LCFI3:
 151              		.cfi_remember_state
 152              		.cfi_restore 5
 153              		.cfi_restore 4
 154              		.cfi_def_cfa_offset 0
 155              	.LVL9:
  69:app/drivers/sht3x/sht3x.c **** }
 156              		.loc 1 69 1 view .LVU39
 157 0018 7047     		bx	lr
 158              	.LVL10:
 159              	.L15:
 160              	.LCFI4:
 161              		.cfi_restore_state
  66:app/drivers/sht3x/sht3x.c ****     : crc8;
 162              		.loc 1 66 5 view .LVU40
 163 001a 024D     		ldr	r5, .L16+4
 164 001c F8E7     		b	.L12
 165              	.L17:
 166 001e 00BF     		.align	2
 167              	.L16:
 168 0020 00000000 		.word	.LANCHOR1
 169 0024 00000000 		.word	SHT3x_CRC8
 170              		.cfi_endproc
 171              	.LFE139:
 173              		.section	.text.SHT3x_ReadDeviceID,"ax",%progbits
 174              		.align	1
 175              		.global	SHT3x_ReadDeviceID
 176              		.syntax unified
 177              		.thumb
 178              		.thumb_func
 179              		.fpu fpv4-sp-d16
 181              	SHT3x_ReadDeviceID:
 182              	.LVL11:
 183              	.LFB140:
  86:app/drivers/sht3x/sht3x.c **** SHT3x_RESULT SHT3x_ReadDeviceID(uint32_t *id) {
 184              		.loc 1 86 47 is_stmt 1 view -0
 185              		.cfi_startproc
 186              		@ args = 0, pretend = 0, frame = 16
 187              		@ frame_needed = 0, uses_anonymous_args = 0
  86:app/drivers/sht3x/sht3x.c **** SHT3x_RESULT SHT3x_ReadDeviceID(uint32_t *id) {
 188              		.loc 1 86 47 is_stmt 0 view .LVU42
 189 0000 2DE9F043 		push	{r4, r5, r6, r7, r8, r9, lr}
 190              	.LCFI5:
 191              		.cfi_def_cfa_offset 28
 192              		.cfi_offset 4, -28
 193              		.cfi_offset 5, -24
 194              		.cfi_offset 6, -20
 195              		.cfi_offset 7, -16
 196              		.cfi_offset 8, -12
 197              		.cfi_offset 9, -8
 198              		.cfi_offset 14, -4
ARM GAS  /tmp/ccT9rKxR.s 			page 8


 199 0004 85B0     		sub	sp, sp, #20
 200              	.LCFI6:
 201              		.cfi_def_cfa_offset 48
 202 0006 0446     		mov	r4, r0
  87:app/drivers/sht3x/sht3x.c ****     uint8_t serialNumberData[SHT3x_SERIAL_NUMBER_SIZE] = {0x00, 0x00, 0x00, 0x00, 0x00, 0x00};
 203              		.loc 1 87 5 is_stmt 1 view .LVU43
  87:app/drivers/sht3x/sht3x.c ****     uint8_t serialNumberData[SHT3x_SERIAL_NUMBER_SIZE] = {0x00, 0x00, 0x00, 0x00, 0x00, 0x00};
 204              		.loc 1 87 13 is_stmt 0 view .LVU44
 205 0008 244B     		ldr	r3, .L23
 206 000a 93E80300 		ldm	r3, {r0, r1}
 207              	.LVL12:
  87:app/drivers/sht3x/sht3x.c ****     uint8_t serialNumberData[SHT3x_SERIAL_NUMBER_SIZE] = {0x00, 0x00, 0x00, 0x00, 0x00, 0x00};
 208              		.loc 1 87 13 view .LVU45
 209 000e 0290     		str	r0, [sp, #8]
 210 0010 ADF80C10 		strh	r1, [sp, #12]	@ movhi
  88:app/drivers/sht3x/sht3x.c ****     uint8_t serialNumberCMD[] = {SHT3x_SERIAL_NUMBER_CMD_ID >> 8, SHT3x_SERIAL_NUMBER_CMD_ID & 0xFF
 211              		.loc 1 88 5 is_stmt 1 view .LVU46
  88:app/drivers/sht3x/sht3x.c ****     uint8_t serialNumberCMD[] = {SHT3x_SERIAL_NUMBER_CMD_ID >> 8, SHT3x_SERIAL_NUMBER_CMD_ID & 0xFF
 212              		.loc 1 88 13 is_stmt 0 view .LVU47
 213 0014 48F23623 		movw	r3, #33334
 214 0018 ADF80430 		strh	r3, [sp, #4]	@ movhi
  90:app/drivers/sht3x/sht3x.c ****     SHT3x_RESULT result = SHT3x_IO.write(SHT3x_IO.i2cAddress, serialNumberCMD, SHT3x_CMD_SIZE);
 215              		.loc 1 90 5 is_stmt 1 view .LVU48
  90:app/drivers/sht3x/sht3x.c ****     SHT3x_RESULT result = SHT3x_IO.write(SHT3x_IO.i2cAddress, serialNumberCMD, SHT3x_CMD_SIZE);
 216              		.loc 1 90 35 is_stmt 0 view .LVU49
 217 001c 204B     		ldr	r3, .L23+4
 218 001e 5D68     		ldr	r5, [r3, #4]
  90:app/drivers/sht3x/sht3x.c ****     SHT3x_RESULT result = SHT3x_IO.write(SHT3x_IO.i2cAddress, serialNumberCMD, SHT3x_CMD_SIZE);
 219              		.loc 1 90 27 view .LVU50
 220 0020 0222     		movs	r2, #2
 221 0022 01A9     		add	r1, sp, #4
 222 0024 1878     		ldrb	r0, [r3]	@ zero_extendqisi2
 223 0026 A847     		blx	r5
 224              	.LVL13:
  92:app/drivers/sht3x/sht3x.c ****     if (result != SHT3x_OK)
 225              		.loc 1 92 5 is_stmt 1 view .LVU51
  92:app/drivers/sht3x/sht3x.c ****     if (result != SHT3x_OK)
 226              		.loc 1 92 8 is_stmt 0 view .LVU52
 227 0028 0546     		mov	r5, r0
 228 002a 60BB     		cbnz	r0, .L18
  95:app/drivers/sht3x/sht3x.c ****     SHT3x_IO.delayMs(1);
 229              		.loc 1 95 5 is_stmt 1 view .LVU53
  95:app/drivers/sht3x/sht3x.c ****     SHT3x_IO.delayMs(1);
 230              		.loc 1 95 13 is_stmt 0 view .LVU54
 231 002c 1C4D     		ldr	r5, .L23+4
 232 002e EB68     		ldr	r3, [r5, #12]
  95:app/drivers/sht3x/sht3x.c ****     SHT3x_IO.delayMs(1);
 233              		.loc 1 95 5 view .LVU55
 234 0030 0120     		movs	r0, #1
 235              	.LVL14:
  95:app/drivers/sht3x/sht3x.c ****     SHT3x_IO.delayMs(1);
 236              		.loc 1 95 5 view .LVU56
 237 0032 9847     		blx	r3
 238              	.LVL15:
  97:app/drivers/sht3x/sht3x.c ****     result = SHT3x_IO.read(SHT3x_IO.i2cAddress, serialNumberData, SHT3x_SERIAL_NUMBER_SIZE);
 239              		.loc 1 97 5 is_stmt 1 view .LVU57
  97:app/drivers/sht3x/sht3x.c ****     result = SHT3x_IO.read(SHT3x_IO.i2cAddress, serialNumberData, SHT3x_SERIAL_NUMBER_SIZE);
ARM GAS  /tmp/ccT9rKxR.s 			page 9


 240              		.loc 1 97 22 is_stmt 0 view .LVU58
 241 0034 AB68     		ldr	r3, [r5, #8]
  97:app/drivers/sht3x/sht3x.c ****     result = SHT3x_IO.read(SHT3x_IO.i2cAddress, serialNumberData, SHT3x_SERIAL_NUMBER_SIZE);
 242              		.loc 1 97 14 view .LVU59
 243 0036 0622     		movs	r2, #6
 244 0038 02A9     		add	r1, sp, #8
 245 003a 2878     		ldrb	r0, [r5]	@ zero_extendqisi2
 246 003c 9847     		blx	r3
 247              	.LVL16:
  99:app/drivers/sht3x/sht3x.c ****     if (result != SHT3x_OK)
 248              		.loc 1 99 5 is_stmt 1 view .LVU60
  99:app/drivers/sht3x/sht3x.c ****     if (result != SHT3x_OK)
 249              		.loc 1 99 8 is_stmt 0 view .LVU61
 250 003e 0546     		mov	r5, r0
 251 0040 08BB     		cbnz	r0, .L18
 103:app/drivers/sht3x/sht3x.c ****     uint8_t word1ReceivedCRC = serialNumberData[2];
 252              		.loc 1 103 5 is_stmt 1 view .LVU62
 103:app/drivers/sht3x/sht3x.c ****     uint8_t word1ReceivedCRC = serialNumberData[2];
 253              		.loc 1 103 13 is_stmt 0 view .LVU63
 254 0042 9DF80A80 		ldrb	r8, [sp, #10]	@ zero_extendqisi2
 255              	.LVL17:
 104:app/drivers/sht3x/sht3x.c ****     uint8_t word2ReceivedCRC = serialNumberData[5];
 256              		.loc 1 104 5 is_stmt 1 view .LVU64
 104:app/drivers/sht3x/sht3x.c ****     uint8_t word2ReceivedCRC = serialNumberData[5];
 257              		.loc 1 104 13 is_stmt 0 view .LVU65
 258 0046 9DF80D90 		ldrb	r9, [sp, #13]	@ zero_extendqisi2
 259              	.LVL18:
 105:app/drivers/sht3x/sht3x.c ****     bool word1CRCValid = SHT3x_IO.crc8(serialNumberData, 2) == word1ReceivedCRC;
 260              		.loc 1 105 5 is_stmt 1 view .LVU66
 105:app/drivers/sht3x/sht3x.c ****     bool word1CRCValid = SHT3x_IO.crc8(serialNumberData, 2) == word1ReceivedCRC;
 261              		.loc 1 105 34 is_stmt 0 view .LVU67
 262 004a 154F     		ldr	r7, .L23+4
 263 004c 3B69     		ldr	r3, [r7, #16]
 105:app/drivers/sht3x/sht3x.c ****     bool word1CRCValid = SHT3x_IO.crc8(serialNumberData, 2) == word1ReceivedCRC;
 264              		.loc 1 105 26 view .LVU68
 265 004e 0221     		movs	r1, #2
 266 0050 02A8     		add	r0, sp, #8
 267              	.LVL19:
 105:app/drivers/sht3x/sht3x.c ****     bool word1CRCValid = SHT3x_IO.crc8(serialNumberData, 2) == word1ReceivedCRC;
 268              		.loc 1 105 26 view .LVU69
 269 0052 9847     		blx	r3
 270              	.LVL20:
 271 0054 0646     		mov	r6, r0
 272              	.LVL21:
 106:app/drivers/sht3x/sht3x.c ****     bool word2CRCValid = SHT3x_IO.crc8(serialNumberData + 3, 2) == word2ReceivedCRC;
 273              		.loc 1 106 5 is_stmt 1 view .LVU70
 106:app/drivers/sht3x/sht3x.c ****     bool word2CRCValid = SHT3x_IO.crc8(serialNumberData + 3, 2) == word2ReceivedCRC;
 274              		.loc 1 106 34 is_stmt 0 view .LVU71
 275 0056 3B69     		ldr	r3, [r7, #16]
 106:app/drivers/sht3x/sht3x.c ****     bool word2CRCValid = SHT3x_IO.crc8(serialNumberData + 3, 2) == word2ReceivedCRC;
 276              		.loc 1 106 26 view .LVU72
 277 0058 0221     		movs	r1, #2
 278 005a 0DF10B00 		add	r0, sp, #11
 279 005e 9847     		blx	r3
 280              	.LVL22:
 108:app/drivers/sht3x/sht3x.c ****     if (word1CRCValid == false || word2CRCValid == false) {
 281              		.loc 1 108 5 is_stmt 1 view .LVU73
ARM GAS  /tmp/ccT9rKxR.s 			page 10


 108:app/drivers/sht3x/sht3x.c ****     if (word1CRCValid == false || word2CRCValid == false) {
 282              		.loc 1 108 8 is_stmt 0 view .LVU74
 283 0060 4645     		cmp	r6, r8
 284 0062 14D1     		bne	.L20
 108:app/drivers/sht3x/sht3x.c ****     if (word1CRCValid == false || word2CRCValid == false) {
 285              		.loc 1 108 32 discriminator 1 view .LVU75
 286 0064 4845     		cmp	r0, r9
 287 0066 15D1     		bne	.L21
 112:app/drivers/sht3x/sht3x.c ****     *id = serialNumberData[0] << 24 | serialNumberData[1] << 16 | serialNumberData[3] << 8 | serial
 288              		.loc 1 112 5 is_stmt 1 view .LVU76
 112:app/drivers/sht3x/sht3x.c ****     *id = serialNumberData[0] << 24 | serialNumberData[1] << 16 | serialNumberData[3] << 8 | serial
 289              		.loc 1 112 27 is_stmt 0 view .LVU77
 290 0068 9DF80820 		ldrb	r2, [sp, #8]	@ zero_extendqisi2
 112:app/drivers/sht3x/sht3x.c ****     *id = serialNumberData[0] << 24 | serialNumberData[1] << 16 | serialNumberData[3] << 8 | serial
 291              		.loc 1 112 55 view .LVU78
 292 006c 9DF80930 		ldrb	r3, [sp, #9]	@ zero_extendqisi2
 112:app/drivers/sht3x/sht3x.c ****     *id = serialNumberData[0] << 24 | serialNumberData[1] << 16 | serialNumberData[3] << 8 | serial
 293              		.loc 1 112 59 view .LVU79
 294 0070 1B04     		lsls	r3, r3, #16
 112:app/drivers/sht3x/sht3x.c ****     *id = serialNumberData[0] << 24 | serialNumberData[1] << 16 | serialNumberData[3] << 8 | serial
 295              		.loc 1 112 37 view .LVU80
 296 0072 43EA0263 		orr	r3, r3, r2, lsl #24
 112:app/drivers/sht3x/sht3x.c ****     *id = serialNumberData[0] << 24 | serialNumberData[1] << 16 | serialNumberData[3] << 8 | serial
 297              		.loc 1 112 83 view .LVU81
 298 0076 9DF80B20 		ldrb	r2, [sp, #11]	@ zero_extendqisi2
 112:app/drivers/sht3x/sht3x.c ****     *id = serialNumberData[0] << 24 | serialNumberData[1] << 16 | serialNumberData[3] << 8 | serial
 299              		.loc 1 112 65 view .LVU82
 300 007a 43EA0223 		orr	r3, r3, r2, lsl #8
 112:app/drivers/sht3x/sht3x.c ****     *id = serialNumberData[0] << 24 | serialNumberData[1] << 16 | serialNumberData[3] << 8 | serial
 301              		.loc 1 112 110 view .LVU83
 302 007e 9DF80C20 		ldrb	r2, [sp, #12]	@ zero_extendqisi2
 112:app/drivers/sht3x/sht3x.c ****     *id = serialNumberData[0] << 24 | serialNumberData[1] << 16 | serialNumberData[3] << 8 | serial
 303              		.loc 1 112 92 view .LVU84
 304 0082 1343     		orrs	r3, r3, r2
 112:app/drivers/sht3x/sht3x.c ****     *id = serialNumberData[0] << 24 | serialNumberData[1] << 16 | serialNumberData[3] << 8 | serial
 305              		.loc 1 112 9 view .LVU85
 306 0084 2360     		str	r3, [r4]
 114:app/drivers/sht3x/sht3x.c ****     return SHT3x_OK;
 307              		.loc 1 114 5 is_stmt 1 view .LVU86
 308              	.LVL23:
 309              	.L18:
 115:app/drivers/sht3x/sht3x.c **** }
 310              		.loc 1 115 1 is_stmt 0 view .LVU87
 311 0086 2846     		mov	r0, r5
 312 0088 05B0     		add	sp, sp, #20
 313              	.LCFI7:
 314              		.cfi_remember_state
 315              		.cfi_def_cfa_offset 28
 316              		@ sp needed
 317 008a BDE8F083 		pop	{r4, r5, r6, r7, r8, r9, pc}
 318              	.LVL24:
 319              	.L20:
 320              	.LCFI8:
 321              		.cfi_restore_state
 109:app/drivers/sht3x/sht3x.c ****       return SHT3x_CRC_ERROR;
 322              		.loc 1 109 14 view .LVU88
 323 008e 6FF00305 		mvn	r5, #3
ARM GAS  /tmp/ccT9rKxR.s 			page 11


 324              	.LVL25:
 109:app/drivers/sht3x/sht3x.c ****       return SHT3x_CRC_ERROR;
 325              		.loc 1 109 14 view .LVU89
 326 0092 F8E7     		b	.L18
 327              	.LVL26:
 328              	.L21:
 109:app/drivers/sht3x/sht3x.c ****       return SHT3x_CRC_ERROR;
 329              		.loc 1 109 14 view .LVU90
 330 0094 6FF00305 		mvn	r5, #3
 331              	.LVL27:
 109:app/drivers/sht3x/sht3x.c ****       return SHT3x_CRC_ERROR;
 332              		.loc 1 109 14 view .LVU91
 333 0098 F5E7     		b	.L18
 334              	.L24:
 335 009a 00BF     		.align	2
 336              	.L23:
 337 009c 00000000 		.word	.LANCHOR2
 338 00a0 00000000 		.word	.LANCHOR1
 339              		.cfi_endproc
 340              	.LFE140:
 342              		.section	.text.SHT3x_PeriodicAcquisitionMode,"ax",%progbits
 343              		.align	1
 344              		.global	SHT3x_PeriodicAcquisitionMode
 345              		.syntax unified
 346              		.thumb
 347              		.thumb_func
 348              		.fpu fpv4-sp-d16
 350              	SHT3x_PeriodicAcquisitionMode:
 351              	.LVL28:
 352              	.LFB141:
 117:app/drivers/sht3x/sht3x.c **** SHT3x_RESULT SHT3x_PeriodicAcquisitionMode(uint16_t modeCondition) {
 353              		.loc 1 117 68 is_stmt 1 view -0
 354              		.cfi_startproc
 355              		@ args = 0, pretend = 0, frame = 8
 356              		@ frame_needed = 0, uses_anonymous_args = 0
 117:app/drivers/sht3x/sht3x.c **** SHT3x_RESULT SHT3x_PeriodicAcquisitionMode(uint16_t modeCondition) {
 357              		.loc 1 117 68 is_stmt 0 view .LVU93
 358 0000 10B5     		push	{r4, lr}
 359              	.LCFI9:
 360              		.cfi_def_cfa_offset 8
 361              		.cfi_offset 4, -8
 362              		.cfi_offset 14, -4
 363 0002 82B0     		sub	sp, sp, #8
 364              	.LCFI10:
 365              		.cfi_def_cfa_offset 16
 118:app/drivers/sht3x/sht3x.c ****   uint8_t cmd[] = {modeCondition >> 8, modeCondition & 0xFF};
 366              		.loc 1 118 3 is_stmt 1 view .LVU94
 118:app/drivers/sht3x/sht3x.c ****   uint8_t cmd[] = {modeCondition >> 8, modeCondition & 0xFF};
 367              		.loc 1 118 11 is_stmt 0 view .LVU95
 368 0004 030A     		lsrs	r3, r0, #8
 369 0006 8DF80430 		strb	r3, [sp, #4]
 370 000a 8DF80500 		strb	r0, [sp, #5]
 120:app/drivers/sht3x/sht3x.c ****   return SHT3x_IO.write(SHT3x_IO.i2cAddress, cmd, SHT3x_CMD_SIZE);
 371              		.loc 1 120 3 is_stmt 1 view .LVU96
 120:app/drivers/sht3x/sht3x.c ****   return SHT3x_IO.write(SHT3x_IO.i2cAddress, cmd, SHT3x_CMD_SIZE);
 372              		.loc 1 120 18 is_stmt 0 view .LVU97
 373 000e 044B     		ldr	r3, .L27
ARM GAS  /tmp/ccT9rKxR.s 			page 12


 374 0010 5C68     		ldr	r4, [r3, #4]
 120:app/drivers/sht3x/sht3x.c ****   return SHT3x_IO.write(SHT3x_IO.i2cAddress, cmd, SHT3x_CMD_SIZE);
 375              		.loc 1 120 10 view .LVU98
 376 0012 0222     		movs	r2, #2
 377 0014 01A9     		add	r1, sp, #4
 378 0016 1878     		ldrb	r0, [r3]	@ zero_extendqisi2
 379              	.LVL29:
 120:app/drivers/sht3x/sht3x.c ****   return SHT3x_IO.write(SHT3x_IO.i2cAddress, cmd, SHT3x_CMD_SIZE);
 380              		.loc 1 120 10 view .LVU99
 381 0018 A047     		blx	r4
 382              	.LVL30:
 121:app/drivers/sht3x/sht3x.c **** }
 383              		.loc 1 121 1 view .LVU100
 384 001a 02B0     		add	sp, sp, #8
 385              	.LCFI11:
 386              		.cfi_def_cfa_offset 8
 387              		@ sp needed
 388 001c 10BD     		pop	{r4, pc}
 389              	.L28:
 390 001e 00BF     		.align	2
 391              	.L27:
 392 0020 00000000 		.word	.LANCHOR1
 393              		.cfi_endproc
 394              	.LFE141:
 396              		.section	.text.SHT3x_ReadMeasurements,"ax",%progbits
 397              		.align	1
 398              		.global	SHT3x_ReadMeasurements
 399              		.syntax unified
 400              		.thumb
 401              		.thumb_func
 402              		.fpu fpv4-sp-d16
 404              	SHT3x_ReadMeasurements:
 405              	.LVL31:
 406              	.LFB142:
 123:app/drivers/sht3x/sht3x.c **** SHT3x_RESULT SHT3x_ReadMeasurements(int16_t *rawTemperature, uint16_t *rawHumidity) {
 407              		.loc 1 123 85 is_stmt 1 view -0
 408              		.cfi_startproc
 409              		@ args = 0, pretend = 0, frame = 16
 410              		@ frame_needed = 0, uses_anonymous_args = 0
 123:app/drivers/sht3x/sht3x.c **** SHT3x_RESULT SHT3x_ReadMeasurements(int16_t *rawTemperature, uint16_t *rawHumidity) {
 411              		.loc 1 123 85 is_stmt 0 view .LVU102
 412 0000 2DE9F047 		push	{r4, r5, r6, r7, r8, r9, r10, lr}
 413              	.LCFI12:
 414              		.cfi_def_cfa_offset 32
 415              		.cfi_offset 4, -32
 416              		.cfi_offset 5, -28
 417              		.cfi_offset 6, -24
 418              		.cfi_offset 7, -20
 419              		.cfi_offset 8, -16
 420              		.cfi_offset 9, -12
 421              		.cfi_offset 10, -8
 422              		.cfi_offset 14, -4
 423 0004 84B0     		sub	sp, sp, #16
 424              	.LCFI13:
 425              		.cfi_def_cfa_offset 48
 426 0006 0546     		mov	r5, r0
 427 0008 0E46     		mov	r6, r1
ARM GAS  /tmp/ccT9rKxR.s 			page 13


 124:app/drivers/sht3x/sht3x.c ****   uint8_t data[6] = {0x00, 0x00, 0x00, 0x00, 0x00, 0x00};
 428              		.loc 1 124 3 is_stmt 1 view .LVU103
 124:app/drivers/sht3x/sht3x.c ****   uint8_t data[6] = {0x00, 0x00, 0x00, 0x00, 0x00, 0x00};
 429              		.loc 1 124 11 is_stmt 0 view .LVU104
 430 000a 234B     		ldr	r3, .L34
 431 000c 93E80300 		ldm	r3, {r0, r1}
 432              	.LVL32:
 124:app/drivers/sht3x/sht3x.c ****   uint8_t data[6] = {0x00, 0x00, 0x00, 0x00, 0x00, 0x00};
 433              		.loc 1 124 11 view .LVU105
 434 0010 0290     		str	r0, [sp, #8]
 435 0012 ADF80C10 		strh	r1, [sp, #12]	@ movhi
 125:app/drivers/sht3x/sht3x.c ****   uint8_t cmd[] = {SHT3x_READ_MEASUREMENT_CMD_ID >> 8, SHT3x_READ_MEASUREMENT_CMD_ID & 0xFF};
 436              		.loc 1 125 3 is_stmt 1 view .LVU106
 125:app/drivers/sht3x/sht3x.c ****   uint8_t cmd[] = {SHT3x_READ_MEASUREMENT_CMD_ID >> 8, SHT3x_READ_MEASUREMENT_CMD_ID & 0xFF};
 437              		.loc 1 125 11 is_stmt 0 view .LVU107
 438 0016 E023     		movs	r3, #224
 439 0018 ADF80430 		strh	r3, [sp, #4]	@ movhi
 127:app/drivers/sht3x/sht3x.c ****   SHT3x_RESULT result = SHT3x_IO.write(SHT3x_IO.i2cAddress, cmd, SHT3x_CMD_SIZE);
 440              		.loc 1 127 3 is_stmt 1 view .LVU108
 127:app/drivers/sht3x/sht3x.c ****   SHT3x_RESULT result = SHT3x_IO.write(SHT3x_IO.i2cAddress, cmd, SHT3x_CMD_SIZE);
 441              		.loc 1 127 33 is_stmt 0 view .LVU109
 442 001c 1F4B     		ldr	r3, .L34+4
 443 001e 5C68     		ldr	r4, [r3, #4]
 127:app/drivers/sht3x/sht3x.c ****   SHT3x_RESULT result = SHT3x_IO.write(SHT3x_IO.i2cAddress, cmd, SHT3x_CMD_SIZE);
 444              		.loc 1 127 25 view .LVU110
 445 0020 0222     		movs	r2, #2
 446 0022 01A9     		add	r1, sp, #4
 447 0024 1878     		ldrb	r0, [r3]	@ zero_extendqisi2
 448 0026 A047     		blx	r4
 449              	.LVL33:
 129:app/drivers/sht3x/sht3x.c ****   if (result != SHT3x_OK)
 450              		.loc 1 129 3 is_stmt 1 view .LVU111
 129:app/drivers/sht3x/sht3x.c ****   if (result != SHT3x_OK)
 451              		.loc 1 129 6 is_stmt 0 view .LVU112
 452 0028 0446     		mov	r4, r0
 453 002a 58BB     		cbnz	r0, .L29
 133:app/drivers/sht3x/sht3x.c ****   result = SHT3x_IO.read(SHT3x_IO.i2cAddress, data, 6);
 454              		.loc 1 133 3 is_stmt 1 view .LVU113
 133:app/drivers/sht3x/sht3x.c ****   result = SHT3x_IO.read(SHT3x_IO.i2cAddress, data, 6);
 455              		.loc 1 133 20 is_stmt 0 view .LVU114
 456 002c 1B4B     		ldr	r3, .L34+4
 457 002e 9C68     		ldr	r4, [r3, #8]
 133:app/drivers/sht3x/sht3x.c ****   result = SHT3x_IO.read(SHT3x_IO.i2cAddress, data, 6);
 458              		.loc 1 133 12 view .LVU115
 459 0030 0622     		movs	r2, #6
 460 0032 02A9     		add	r1, sp, #8
 461 0034 1878     		ldrb	r0, [r3]	@ zero_extendqisi2
 462              	.LVL34:
 133:app/drivers/sht3x/sht3x.c ****   result = SHT3x_IO.read(SHT3x_IO.i2cAddress, data, 6);
 463              		.loc 1 133 12 view .LVU116
 464 0036 A047     		blx	r4
 465              	.LVL35:
 135:app/drivers/sht3x/sht3x.c ****   if (result != SHT3x_OK)
 466              		.loc 1 135 3 is_stmt 1 view .LVU117
 135:app/drivers/sht3x/sht3x.c ****   if (result != SHT3x_OK)
 467              		.loc 1 135 6 is_stmt 0 view .LVU118
 468 0038 0446     		mov	r4, r0
ARM GAS  /tmp/ccT9rKxR.s 			page 14


 469 003a 18BB     		cbnz	r0, .L29
 139:app/drivers/sht3x/sht3x.c ****   uint8_t temperatureCRC = data[2];
 470              		.loc 1 139 3 is_stmt 1 view .LVU119
 139:app/drivers/sht3x/sht3x.c ****   uint8_t temperatureCRC = data[2];
 471              		.loc 1 139 11 is_stmt 0 view .LVU120
 472 003c 9DF80A80 		ldrb	r8, [sp, #10]	@ zero_extendqisi2
 473              	.LVL36:
 140:app/drivers/sht3x/sht3x.c ****   uint8_t humidityCRC = data[5];
 474              		.loc 1 140 3 is_stmt 1 view .LVU121
 140:app/drivers/sht3x/sht3x.c ****   uint8_t humidityCRC = data[5];
 475              		.loc 1 140 11 is_stmt 0 view .LVU122
 476 0040 9DF80D90 		ldrb	r9, [sp, #13]	@ zero_extendqisi2
 477              	.LVL37:
 141:app/drivers/sht3x/sht3x.c ****   bool temperatureCRCValid = SHT3x_IO.crc8(data, 2) == temperatureCRC;
 478              		.loc 1 141 3 is_stmt 1 view .LVU123
 141:app/drivers/sht3x/sht3x.c ****   bool temperatureCRCValid = SHT3x_IO.crc8(data, 2) == temperatureCRC;
 479              		.loc 1 141 38 is_stmt 0 view .LVU124
 480 0044 DFF854A0 		ldr	r10, .L34+4
 481 0048 DAF81030 		ldr	r3, [r10, #16]
 141:app/drivers/sht3x/sht3x.c ****   bool temperatureCRCValid = SHT3x_IO.crc8(data, 2) == temperatureCRC;
 482              		.loc 1 141 30 view .LVU125
 483 004c 0221     		movs	r1, #2
 484 004e 02A8     		add	r0, sp, #8
 485              	.LVL38:
 141:app/drivers/sht3x/sht3x.c ****   bool temperatureCRCValid = SHT3x_IO.crc8(data, 2) == temperatureCRC;
 486              		.loc 1 141 30 view .LVU126
 487 0050 9847     		blx	r3
 488              	.LVL39:
 489 0052 0746     		mov	r7, r0
 490              	.LVL40:
 142:app/drivers/sht3x/sht3x.c ****   bool humidityCRCValid = SHT3x_IO.crc8(data + 3, 2) == humidityCRC;
 491              		.loc 1 142 3 is_stmt 1 view .LVU127
 142:app/drivers/sht3x/sht3x.c ****   bool humidityCRCValid = SHT3x_IO.crc8(data + 3, 2) == humidityCRC;
 492              		.loc 1 142 35 is_stmt 0 view .LVU128
 493 0054 DAF81030 		ldr	r3, [r10, #16]
 142:app/drivers/sht3x/sht3x.c ****   bool humidityCRCValid = SHT3x_IO.crc8(data + 3, 2) == humidityCRC;
 494              		.loc 1 142 27 view .LVU129
 495 0058 0221     		movs	r1, #2
 496 005a 0DF10B00 		add	r0, sp, #11
 497 005e 9847     		blx	r3
 498              	.LVL41:
 144:app/drivers/sht3x/sht3x.c ****   if (temperatureCRCValid == false || humidityCRCValid == false) {
 499              		.loc 1 144 3 is_stmt 1 view .LVU130
 144:app/drivers/sht3x/sht3x.c ****   if (temperatureCRCValid == false || humidityCRCValid == false) {
 500              		.loc 1 144 6 is_stmt 0 view .LVU131
 501 0060 4745     		cmp	r7, r8
 502 0062 13D1     		bne	.L31
 144:app/drivers/sht3x/sht3x.c ****   if (temperatureCRCValid == false || humidityCRCValid == false) {
 503              		.loc 1 144 36 discriminator 1 view .LVU132
 504 0064 4845     		cmp	r0, r9
 505 0066 14D1     		bne	.L32
 148:app/drivers/sht3x/sht3x.c ****   *rawTemperature = data[0] << 8 | data[1];
 506              		.loc 1 148 3 is_stmt 1 view .LVU133
 148:app/drivers/sht3x/sht3x.c ****   *rawTemperature = data[0] << 8 | data[1];
 507              		.loc 1 148 25 is_stmt 0 view .LVU134
 508 0068 9DF80820 		ldrb	r2, [sp, #8]	@ zero_extendqisi2
 148:app/drivers/sht3x/sht3x.c ****   *rawTemperature = data[0] << 8 | data[1];
ARM GAS  /tmp/ccT9rKxR.s 			page 15


 509              		.loc 1 148 40 view .LVU135
 510 006c 9DF80930 		ldrb	r3, [sp, #9]	@ zero_extendqisi2
 148:app/drivers/sht3x/sht3x.c ****   *rawTemperature = data[0] << 8 | data[1];
 511              		.loc 1 148 34 view .LVU136
 512 0070 43EA0223 		orr	r3, r3, r2, lsl #8
 148:app/drivers/sht3x/sht3x.c ****   *rawTemperature = data[0] << 8 | data[1];
 513              		.loc 1 148 19 view .LVU137
 514 0074 2B80     		strh	r3, [r5]	@ movhi
 149:app/drivers/sht3x/sht3x.c ****   *rawHumidity = data[3] << 8 | data[4];
 515              		.loc 1 149 3 is_stmt 1 view .LVU138
 149:app/drivers/sht3x/sht3x.c ****   *rawHumidity = data[3] << 8 | data[4];
 516              		.loc 1 149 22 is_stmt 0 view .LVU139
 517 0076 9DF80B20 		ldrb	r2, [sp, #11]	@ zero_extendqisi2
 149:app/drivers/sht3x/sht3x.c ****   *rawHumidity = data[3] << 8 | data[4];
 518              		.loc 1 149 37 view .LVU140
 519 007a 9DF80C30 		ldrb	r3, [sp, #12]	@ zero_extendqisi2
 149:app/drivers/sht3x/sht3x.c ****   *rawHumidity = data[3] << 8 | data[4];
 520              		.loc 1 149 31 view .LVU141
 521 007e 43EA0223 		orr	r3, r3, r2, lsl #8
 149:app/drivers/sht3x/sht3x.c ****   *rawHumidity = data[3] << 8 | data[4];
 522              		.loc 1 149 16 view .LVU142
 523 0082 3380     		strh	r3, [r6]	@ movhi
 151:app/drivers/sht3x/sht3x.c ****   return SHT3x_OK;
 524              		.loc 1 151 3 is_stmt 1 view .LVU143
 525              	.LVL42:
 526              	.L29:
 152:app/drivers/sht3x/sht3x.c **** }
 527              		.loc 1 152 1 is_stmt 0 view .LVU144
 528 0084 2046     		mov	r0, r4
 529 0086 04B0     		add	sp, sp, #16
 530              	.LCFI14:
 531              		.cfi_remember_state
 532              		.cfi_def_cfa_offset 32
 533              		@ sp needed
 534 0088 BDE8F087 		pop	{r4, r5, r6, r7, r8, r9, r10, pc}
 535              	.LVL43:
 536              	.L31:
 537              	.LCFI15:
 538              		.cfi_restore_state
 145:app/drivers/sht3x/sht3x.c ****     return SHT3x_CRC_ERROR;
 539              		.loc 1 145 12 view .LVU145
 540 008c 6FF00304 		mvn	r4, #3
 541              	.LVL44:
 145:app/drivers/sht3x/sht3x.c ****     return SHT3x_CRC_ERROR;
 542              		.loc 1 145 12 view .LVU146
 543 0090 F8E7     		b	.L29
 544              	.LVL45:
 545              	.L32:
 145:app/drivers/sht3x/sht3x.c ****     return SHT3x_CRC_ERROR;
 546              		.loc 1 145 12 view .LVU147
 547 0092 6FF00304 		mvn	r4, #3
 548              	.LVL46:
 145:app/drivers/sht3x/sht3x.c ****     return SHT3x_CRC_ERROR;
 549              		.loc 1 145 12 view .LVU148
 550 0096 F5E7     		b	.L29
 551              	.L35:
 552              		.align	2
ARM GAS  /tmp/ccT9rKxR.s 			page 16


 553              	.L34:
 554 0098 00000000 		.word	.LANCHOR2
 555 009c 00000000 		.word	.LANCHOR1
 556              		.cfi_endproc
 557              	.LFE142:
 559              		.section	.text.SHT3x_RawToTemperatureC,"ax",%progbits
 560              		.align	1
 561              		.global	SHT3x_RawToTemperatureC
 562              		.syntax unified
 563              		.thumb
 564              		.thumb_func
 565              		.fpu fpv4-sp-d16
 567              	SHT3x_RawToTemperatureC:
 568              	.LVL47:
 569              	.LFB143:
 154:app/drivers/sht3x/sht3x.c **** float SHT3x_RawToTemperatureC(int16_t rawTemperature) {
 570              		.loc 1 154 55 is_stmt 1 view -0
 571              		.cfi_startproc
 572              		@ args = 0, pretend = 0, frame = 0
 573              		@ frame_needed = 0, uses_anonymous_args = 0
 574              		@ link register save eliminated.
 157:app/drivers/sht3x/sht3x.c ****   int32_t stemp = ((4375 * (int32_t)rawTemperature) >> 14) - 4500;
 575              		.loc 1 157 3 view .LVU150
 157:app/drivers/sht3x/sht3x.c ****   int32_t stemp = ((4375 * (int32_t)rawTemperature) >> 14) - 4500;
 576              		.loc 1 157 26 is_stmt 0 view .LVU151
 577 0000 41F21713 		movw	r3, #4375
 578 0004 03FB00F0 		mul	r0, r3, r0
 579              	.LVL48:
 157:app/drivers/sht3x/sht3x.c ****   int32_t stemp = ((4375 * (int32_t)rawTemperature) >> 14) - 4500;
 580              		.loc 1 157 53 view .LVU152
 581 0008 8013     		asrs	r0, r0, #14
 157:app/drivers/sht3x/sht3x.c ****   int32_t stemp = ((4375 * (int32_t)rawTemperature) >> 14) - 4500;
 582              		.loc 1 157 11 view .LVU153
 583 000a A0F58C50 		sub	r0, r0, #4480
 584 000e 1438     		subs	r0, r0, #20
 585              	.LVL49:
 159:app/drivers/sht3x/sht3x.c ****   return (float)stemp / 100.0f;
 586              		.loc 1 159 3 is_stmt 1 view .LVU154
 159:app/drivers/sht3x/sht3x.c ****   return (float)stemp / 100.0f;
 587              		.loc 1 159 10 is_stmt 0 view .LVU155
 588 0010 07EE900A 		vmov	s15, r0	@ int
 589 0014 F8EEE77A 		vcvt.f32.s32	s15, s15
 160:app/drivers/sht3x/sht3x.c **** }
 590              		.loc 1 160 1 view .LVU156
 591 0018 9FED020A 		vldr.32	s0, .L37
 592 001c 87EE800A 		vdiv.f32	s0, s15, s0
 593 0020 7047     		bx	lr
 594              	.L38:
 595 0022 00BF     		.align	2
 596              	.L37:
 597 0024 0000C842 		.word	1120403456
 598              		.cfi_endproc
 599              	.LFE143:
 601              		.section	.text.SHT3x_RawToHumidityRH,"ax",%progbits
 602              		.align	1
 603              		.global	SHT3x_RawToHumidityRH
 604              		.syntax unified
ARM GAS  /tmp/ccT9rKxR.s 			page 17


 605              		.thumb
 606              		.thumb_func
 607              		.fpu fpv4-sp-d16
 609              	SHT3x_RawToHumidityRH:
 610              	.LVL50:
 611              	.LFB144:
 162:app/drivers/sht3x/sht3x.c **** float SHT3x_RawToHumidityRH(uint16_t rawHumidity) {
 612              		.loc 1 162 51 is_stmt 1 view -0
 613              		.cfi_startproc
 614              		@ args = 0, pretend = 0, frame = 0
 615              		@ frame_needed = 0, uses_anonymous_args = 0
 616              		@ link register save eliminated.
 165:app/drivers/sht3x/sht3x.c ****   uint32_t shum = (625 * (uint32_t)rawHumidity) >> 12;
 617              		.loc 1 165 3 view .LVU158
 165:app/drivers/sht3x/sht3x.c ****   uint32_t shum = (625 * (uint32_t)rawHumidity) >> 12;
 618              		.loc 1 165 24 is_stmt 0 view .LVU159
 619 0000 40F27123 		movw	r3, #625
 620 0004 03FB00F0 		mul	r0, r3, r0
 621              	.LVL51:
 165:app/drivers/sht3x/sht3x.c ****   uint32_t shum = (625 * (uint32_t)rawHumidity) >> 12;
 622              		.loc 1 165 12 view .LVU160
 623 0008 000B     		lsrs	r0, r0, #12
 624              	.LVL52:
 167:app/drivers/sht3x/sht3x.c ****   return (float)shum / 100.0f;
 625              		.loc 1 167 3 is_stmt 1 view .LVU161
 167:app/drivers/sht3x/sht3x.c ****   return (float)shum / 100.0f;
 626              		.loc 1 167 10 is_stmt 0 view .LVU162
 627 000a 07EE900A 		vmov	s15, r0	@ int
 628 000e F8EE677A 		vcvt.f32.u32	s15, s15
 168:app/drivers/sht3x/sht3x.c **** }
 629              		.loc 1 168 1 view .LVU163
 630 0012 9FED020A 		vldr.32	s0, .L40
 631 0016 87EE800A 		vdiv.f32	s0, s15, s0
 632 001a 7047     		bx	lr
 633              	.L41:
 634              		.align	2
 635              	.L40:
 636 001c 0000C842 		.word	1120403456
 637              		.cfi_endproc
 638              	.LFE144:
 640              		.global	SHT3x_IO
 641              		.section	.rodata
 642              		.align	2
 643              		.set	.LANCHOR2,. + 0
 644              	.LC0:
 645 0000 00000000 		.ascii	"\000\000\000\000\000\000"
 645      0000
 646              		.section	.bss.SHT3x_IO,"aw",%nobits
 647              		.align	2
 648              		.set	.LANCHOR1,. + 0
 651              	SHT3x_IO:
 652 0000 00000000 		.space	20
 652      00000000 
 652      00000000 
 652      00000000 
 652      00000000 
 653              		.section	.rodata.crc8LookupTable,"a"
ARM GAS  /tmp/ccT9rKxR.s 			page 18


 654              		.align	2
 655              		.set	.LANCHOR0,. + 0
 658              	crc8LookupTable:
 659 0000 00316253 		.ascii	"\0001bS\304\365\246\227\271\210\333\352}L\037.Cr!\020"
 659      C4F5A697 
 659      B988DBEA 
 659      7D4C1F2E 
 659      43722110 
 660 0014 87B6E5D4 		.ascii	"\207\266\345\324\372\313\230\251>\017\\m\206\267\344"
 660      FACB98A9 
 660      3E0F5C6D 
 660      86B7E4
 661 0023 D5427320 		.ascii	"\325Bs \021?\016]l\373\312\231\250\305\364\247\226\001"
 661      113F0E5D 
 661      6CFBCA99 
 661      A8C5F4A7 
 661      9601
 662 0035 3063527C 		.ascii	"0cR|M\036/\270\211\332\353=\014_n\371\310\233\252\204"
 662      4D1E2FB8 
 662      89DAEB3D 
 662      0C5F6EF9 
 662      C89BAA84 
 663 0049 B5E6D740 		.ascii	"\265\346\327@q\"\023~O\034-\272\213\330\351\307\366"
 663      7122137E 
 663      4F1C2DBA 
 663      8BD8E9C7 
 663      F6
 664 005a A5940332 		.ascii	"\245\224\0032aP\273\212\331\350\177N\035,\0023`Q\306"
 664      6150BB8A 
 664      D9E87F4E 
 664      1D2C0233 
 664      6051C6
 665 006d F7A495F8 		.ascii	"\367\244\225\370\311\232\253<\015^oAp#\022\205\264\347"
 665      C99AAB3C 
 665      0D5E6F41 
 665      70231285 
 665      B4E7
 666 007f D67A4B18 		.ascii	"\326zK\030)\276\217\334\355\303\362\241\220\0076eT9"
 666      29BE8FDC 
 666      EDC3F2A1 
 666      90073665 
 666      5439
 667 0091 085B6AFD 		.ascii	"\010[j\375\314\237\256\200\261\342\323Du&\027\374\315"
 667      CC9FAE80 
 667      B1E2D344 
 667      752617FC 
 667      CD
 668 00a2 9EAF3809 		.ascii	"\236\2578\011ZkEt'\026\201\260\343\322\277\216\335\354"
 668      5A6B4574 
 668      271681B0 
 668      E3D2BF8E 
 668      DDEC
 669 00b4 7B4A1928 		.ascii	"{J\031(\0067dU\302\363\240\221Gv%\024\203\262\341\320"
 669      06376455 
 669      C2F3A091 
 669      47762514 
 669      83B2E1D0 
ARM GAS  /tmp/ccT9rKxR.s 			page 19


 670 00c8 FECF9CAD 		.ascii	"\376\317\234\255:\013Xi\0045fW\300\361\242\223\275\214"
 670      3A0B5869 
 670      04356657 
 670      C0F1A293 
 670      BD8C
 671 00da DFEE7948 		.ascii	"\337\356yH\033*\301\360\243\222\0054gVxI\032+\274\215"
 671      1B2AC1F0 
 671      A3920534 
 671      67567849 
 671      1A2BBC8D 
 672 00ee DEEF82B3 		.ascii	"\336\357\202\263\340\321Fw$\025;\012Yh\377\316\235\254"
 672      E0D14677 
 672      24153B0A 
 672      5968FFCE 
 672      9DAC
 673              		.text
 674              	.Letext0:
 675              		.file 2 "/usr/include/newlib/machine/_default_types.h"
 676              		.file 3 "/usr/include/newlib/sys/_stdint.h"
 677              		.file 4 "app/drivers/sht3x/sht3x.h"
ARM GAS  /tmp/ccT9rKxR.s 			page 20


DEFINED SYMBOLS
                            *ABS*:0000000000000000 sht3x.c
     /tmp/ccT9rKxR.s:18     .text.SHT3x_CRC8:0000000000000000 $t
     /tmp/ccT9rKxR.s:26     .text.SHT3x_CRC8:0000000000000000 SHT3x_CRC8
     /tmp/ccT9rKxR.s:95     .text.SHT3x_CRC8:0000000000000028 $d
     /tmp/ccT9rKxR.s:100    .text.SHT3x_InitIO:0000000000000000 $t
     /tmp/ccT9rKxR.s:107    .text.SHT3x_InitIO:0000000000000000 SHT3x_InitIO
     /tmp/ccT9rKxR.s:168    .text.SHT3x_InitIO:0000000000000020 $d
     /tmp/ccT9rKxR.s:174    .text.SHT3x_ReadDeviceID:0000000000000000 $t
     /tmp/ccT9rKxR.s:181    .text.SHT3x_ReadDeviceID:0000000000000000 SHT3x_ReadDeviceID
     /tmp/ccT9rKxR.s:337    .text.SHT3x_ReadDeviceID:000000000000009c $d
     /tmp/ccT9rKxR.s:343    .text.SHT3x_PeriodicAcquisitionMode:0000000000000000 $t
     /tmp/ccT9rKxR.s:350    .text.SHT3x_PeriodicAcquisitionMode:0000000000000000 SHT3x_PeriodicAcquisitionMode
     /tmp/ccT9rKxR.s:392    .text.SHT3x_PeriodicAcquisitionMode:0000000000000020 $d
     /tmp/ccT9rKxR.s:397    .text.SHT3x_ReadMeasurements:0000000000000000 $t
     /tmp/ccT9rKxR.s:404    .text.SHT3x_ReadMeasurements:0000000000000000 SHT3x_ReadMeasurements
     /tmp/ccT9rKxR.s:554    .text.SHT3x_ReadMeasurements:0000000000000098 $d
     /tmp/ccT9rKxR.s:560    .text.SHT3x_RawToTemperatureC:0000000000000000 $t
     /tmp/ccT9rKxR.s:567    .text.SHT3x_RawToTemperatureC:0000000000000000 SHT3x_RawToTemperatureC
     /tmp/ccT9rKxR.s:597    .text.SHT3x_RawToTemperatureC:0000000000000024 $d
     /tmp/ccT9rKxR.s:602    .text.SHT3x_RawToHumidityRH:0000000000000000 $t
     /tmp/ccT9rKxR.s:609    .text.SHT3x_RawToHumidityRH:0000000000000000 SHT3x_RawToHumidityRH
     /tmp/ccT9rKxR.s:636    .text.SHT3x_RawToHumidityRH:000000000000001c $d
     /tmp/ccT9rKxR.s:651    .bss.SHT3x_IO:0000000000000000 SHT3x_IO
     /tmp/ccT9rKxR.s:642    .rodata:0000000000000000 $d
     /tmp/ccT9rKxR.s:647    .bss.SHT3x_IO:0000000000000000 $d
     /tmp/ccT9rKxR.s:654    .rodata.crc8LookupTable:0000000000000000 $d
     /tmp/ccT9rKxR.s:658    .rodata.crc8LookupTable:0000000000000000 crc8LookupTable

NO UNDEFINED SYMBOLS
