ARM GAS  /tmp/cc49nhBG.s 			page 1


   1              		.cpu cortex-m4
   2              		.eabi_attribute 27, 1
   3              		.eabi_attribute 28, 1
   4              		.eabi_attribute 20, 1
   5              		.eabi_attribute 21, 1
   6              		.eabi_attribute 23, 3
   7              		.eabi_attribute 24, 1
   8              		.eabi_attribute 25, 1
   9              		.eabi_attribute 26, 1
  10              		.eabi_attribute 30, 1
  11              		.eabi_attribute 34, 1
  12              		.eabi_attribute 18, 4
  13              		.file	"stm32l4xx_hal_rtc_ex.c"
  14              		.text
  15              	.Ltext0:
  16              		.cfi_sections	.debug_frame
  17              		.section	.text.HAL_RTCEx_SetTimeStamp,"ax",%progbits
  18              		.align	1
  19              		.global	HAL_RTCEx_SetTimeStamp
  20              		.arch armv7e-m
  21              		.syntax unified
  22              		.thumb
  23              		.thumb_func
  24              		.fpu fpv4-sp-d16
  26              	HAL_RTCEx_SetTimeStamp:
  27              	.LVL0:
  28              	.LFB132:
  29              		.file 1 "Drivers/STM32L4xx_HAL_Driver/Src/stm32l4xx_hal_rtc_ex.c"
   1:Drivers/STM32L4xx_HAL_Driver/Src/stm32l4xx_hal_rtc_ex.c **** /**
   2:Drivers/STM32L4xx_HAL_Driver/Src/stm32l4xx_hal_rtc_ex.c ****   ******************************************************************************
   3:Drivers/STM32L4xx_HAL_Driver/Src/stm32l4xx_hal_rtc_ex.c ****   * @file    stm32l4xx_hal_rtc_ex.c
   4:Drivers/STM32L4xx_HAL_Driver/Src/stm32l4xx_hal_rtc_ex.c ****   * @author  MCD Application Team
   5:Drivers/STM32L4xx_HAL_Driver/Src/stm32l4xx_hal_rtc_ex.c ****   * @brief   Extended RTC HAL module driver.
   6:Drivers/STM32L4xx_HAL_Driver/Src/stm32l4xx_hal_rtc_ex.c ****   *          This file provides firmware functions to manage the following
   7:Drivers/STM32L4xx_HAL_Driver/Src/stm32l4xx_hal_rtc_ex.c ****   *          functionalities of the Real Time Clock (RTC) Extended peripheral:
   8:Drivers/STM32L4xx_HAL_Driver/Src/stm32l4xx_hal_rtc_ex.c ****   *           + RTC Time Stamp functions
   9:Drivers/STM32L4xx_HAL_Driver/Src/stm32l4xx_hal_rtc_ex.c ****   *           + RTC Tamper functions
  10:Drivers/STM32L4xx_HAL_Driver/Src/stm32l4xx_hal_rtc_ex.c ****   *           + RTC Wake-up functions
  11:Drivers/STM32L4xx_HAL_Driver/Src/stm32l4xx_hal_rtc_ex.c ****   *           + Extended Control functions
  12:Drivers/STM32L4xx_HAL_Driver/Src/stm32l4xx_hal_rtc_ex.c ****   *           + Extended RTC features functions
  13:Drivers/STM32L4xx_HAL_Driver/Src/stm32l4xx_hal_rtc_ex.c ****   *
  14:Drivers/STM32L4xx_HAL_Driver/Src/stm32l4xx_hal_rtc_ex.c ****   ******************************************************************************
  15:Drivers/STM32L4xx_HAL_Driver/Src/stm32l4xx_hal_rtc_ex.c ****   * @attention
  16:Drivers/STM32L4xx_HAL_Driver/Src/stm32l4xx_hal_rtc_ex.c ****   *
  17:Drivers/STM32L4xx_HAL_Driver/Src/stm32l4xx_hal_rtc_ex.c ****   * Copyright (c) 2017 STMicroelectronics.
  18:Drivers/STM32L4xx_HAL_Driver/Src/stm32l4xx_hal_rtc_ex.c ****   * All rights reserved.
  19:Drivers/STM32L4xx_HAL_Driver/Src/stm32l4xx_hal_rtc_ex.c ****   *
  20:Drivers/STM32L4xx_HAL_Driver/Src/stm32l4xx_hal_rtc_ex.c ****   * This software is licensed under terms that can be found in the LICENSE file
  21:Drivers/STM32L4xx_HAL_Driver/Src/stm32l4xx_hal_rtc_ex.c ****   * in the root directory of this software component.
  22:Drivers/STM32L4xx_HAL_Driver/Src/stm32l4xx_hal_rtc_ex.c ****   * If no LICENSE file comes with this software, it is provided AS-IS.
  23:Drivers/STM32L4xx_HAL_Driver/Src/stm32l4xx_hal_rtc_ex.c ****   *
  24:Drivers/STM32L4xx_HAL_Driver/Src/stm32l4xx_hal_rtc_ex.c ****   ******************************************************************************
  25:Drivers/STM32L4xx_HAL_Driver/Src/stm32l4xx_hal_rtc_ex.c ****   @verbatim
  26:Drivers/STM32L4xx_HAL_Driver/Src/stm32l4xx_hal_rtc_ex.c ****   ==============================================================================
  27:Drivers/STM32L4xx_HAL_Driver/Src/stm32l4xx_hal_rtc_ex.c ****                   ##### How to use this driver #####
  28:Drivers/STM32L4xx_HAL_Driver/Src/stm32l4xx_hal_rtc_ex.c ****   ==============================================================================
  29:Drivers/STM32L4xx_HAL_Driver/Src/stm32l4xx_hal_rtc_ex.c ****   [..]
ARM GAS  /tmp/cc49nhBG.s 			page 2


  30:Drivers/STM32L4xx_HAL_Driver/Src/stm32l4xx_hal_rtc_ex.c ****     (+) Enable the RTC domain access.
  31:Drivers/STM32L4xx_HAL_Driver/Src/stm32l4xx_hal_rtc_ex.c ****     (+) Configure the RTC Prescaler (Asynchronous and Synchronous) and RTC hour
  32:Drivers/STM32L4xx_HAL_Driver/Src/stm32l4xx_hal_rtc_ex.c ****         format using the HAL_RTC_Init() function.
  33:Drivers/STM32L4xx_HAL_Driver/Src/stm32l4xx_hal_rtc_ex.c **** 
  34:Drivers/STM32L4xx_HAL_Driver/Src/stm32l4xx_hal_rtc_ex.c ****   *** RTC Wakeup configuration ***
  35:Drivers/STM32L4xx_HAL_Driver/Src/stm32l4xx_hal_rtc_ex.c ****   ================================
  36:Drivers/STM32L4xx_HAL_Driver/Src/stm32l4xx_hal_rtc_ex.c ****   [..]
  37:Drivers/STM32L4xx_HAL_Driver/Src/stm32l4xx_hal_rtc_ex.c ****     (+) To configure the RTC Wakeup Clock source and Counter use the HAL_RTCEx_SetWakeUpTimer()
  38:Drivers/STM32L4xx_HAL_Driver/Src/stm32l4xx_hal_rtc_ex.c ****         function. You can also configure the RTC Wakeup timer with interrupt mode
  39:Drivers/STM32L4xx_HAL_Driver/Src/stm32l4xx_hal_rtc_ex.c ****         using the HAL_RTCEx_SetWakeUpTimer_IT() function.
  40:Drivers/STM32L4xx_HAL_Driver/Src/stm32l4xx_hal_rtc_ex.c ****     (+) To read the RTC WakeUp Counter register, use the HAL_RTCEx_GetWakeUpTimer()
  41:Drivers/STM32L4xx_HAL_Driver/Src/stm32l4xx_hal_rtc_ex.c ****         function.
  42:Drivers/STM32L4xx_HAL_Driver/Src/stm32l4xx_hal_rtc_ex.c **** 
  43:Drivers/STM32L4xx_HAL_Driver/Src/stm32l4xx_hal_rtc_ex.c ****   *** Outputs configuration ***
  44:Drivers/STM32L4xx_HAL_Driver/Src/stm32l4xx_hal_rtc_ex.c ****   =============================
  45:Drivers/STM32L4xx_HAL_Driver/Src/stm32l4xx_hal_rtc_ex.c ****   [..]  The RTC has 2 different outputs:
  46:Drivers/STM32L4xx_HAL_Driver/Src/stm32l4xx_hal_rtc_ex.c ****     (+) RTC_ALARM: this output is used to manage the RTC Alarm A, Alarm B
  47:Drivers/STM32L4xx_HAL_Driver/Src/stm32l4xx_hal_rtc_ex.c ****         and WaKeUp signals.
  48:Drivers/STM32L4xx_HAL_Driver/Src/stm32l4xx_hal_rtc_ex.c ****         To output the selected RTC signal, use the HAL_RTC_Init() function.
  49:Drivers/STM32L4xx_HAL_Driver/Src/stm32l4xx_hal_rtc_ex.c ****     (+) RTC_CALIB: this output is 512Hz signal or 1Hz.
  50:Drivers/STM32L4xx_HAL_Driver/Src/stm32l4xx_hal_rtc_ex.c ****         To enable the RTC_CALIB, use the HAL_RTCEx_SetCalibrationOutPut() function.
  51:Drivers/STM32L4xx_HAL_Driver/Src/stm32l4xx_hal_rtc_ex.c ****     (+) Two pins can be used as RTC_ALARM or RTC_CALIB (PC13, PB2) managed on
  52:Drivers/STM32L4xx_HAL_Driver/Src/stm32l4xx_hal_rtc_ex.c ****         the RTC_OR register.
  53:Drivers/STM32L4xx_HAL_Driver/Src/stm32l4xx_hal_rtc_ex.c ****     (+) When the RTC_CALIB or RTC_ALARM output is selected, the RTC_OUT pin is
  54:Drivers/STM32L4xx_HAL_Driver/Src/stm32l4xx_hal_rtc_ex.c ****         automatically configured in output alternate function.
  55:Drivers/STM32L4xx_HAL_Driver/Src/stm32l4xx_hal_rtc_ex.c **** 
  56:Drivers/STM32L4xx_HAL_Driver/Src/stm32l4xx_hal_rtc_ex.c ****   *** Smooth digital Calibration configuration ***
  57:Drivers/STM32L4xx_HAL_Driver/Src/stm32l4xx_hal_rtc_ex.c ****   ================================================
  58:Drivers/STM32L4xx_HAL_Driver/Src/stm32l4xx_hal_rtc_ex.c ****   [..]
  59:Drivers/STM32L4xx_HAL_Driver/Src/stm32l4xx_hal_rtc_ex.c ****     (+) Configure the RTC Original Digital Calibration Value and the corresponding
  60:Drivers/STM32L4xx_HAL_Driver/Src/stm32l4xx_hal_rtc_ex.c ****         calibration cycle period (32s,16s and 8s) using the HAL_RTCEx_SetSmoothCalib()
  61:Drivers/STM32L4xx_HAL_Driver/Src/stm32l4xx_hal_rtc_ex.c ****         function.
  62:Drivers/STM32L4xx_HAL_Driver/Src/stm32l4xx_hal_rtc_ex.c **** 
  63:Drivers/STM32L4xx_HAL_Driver/Src/stm32l4xx_hal_rtc_ex.c ****   *** TimeStamp configuration ***
  64:Drivers/STM32L4xx_HAL_Driver/Src/stm32l4xx_hal_rtc_ex.c ****   ===============================
  65:Drivers/STM32L4xx_HAL_Driver/Src/stm32l4xx_hal_rtc_ex.c ****   [..]
  66:Drivers/STM32L4xx_HAL_Driver/Src/stm32l4xx_hal_rtc_ex.c ****     (+) Enable the RTC TimeStamp using the HAL_RTCEx_SetTimeStamp() function.
  67:Drivers/STM32L4xx_HAL_Driver/Src/stm32l4xx_hal_rtc_ex.c ****         You can also configure the RTC TimeStamp with interrupt mode using the
  68:Drivers/STM32L4xx_HAL_Driver/Src/stm32l4xx_hal_rtc_ex.c ****         HAL_RTCEx_SetTimeStamp_IT() function.
  69:Drivers/STM32L4xx_HAL_Driver/Src/stm32l4xx_hal_rtc_ex.c ****     (+) To read the RTC TimeStamp Time and Date register, use the HAL_RTCEx_GetTimeStamp()
  70:Drivers/STM32L4xx_HAL_Driver/Src/stm32l4xx_hal_rtc_ex.c ****         function.
  71:Drivers/STM32L4xx_HAL_Driver/Src/stm32l4xx_hal_rtc_ex.c **** 
  72:Drivers/STM32L4xx_HAL_Driver/Src/stm32l4xx_hal_rtc_ex.c ****   *** Internal TimeStamp configuration ***
  73:Drivers/STM32L4xx_HAL_Driver/Src/stm32l4xx_hal_rtc_ex.c ****   ===============================
  74:Drivers/STM32L4xx_HAL_Driver/Src/stm32l4xx_hal_rtc_ex.c ****   [..]
  75:Drivers/STM32L4xx_HAL_Driver/Src/stm32l4xx_hal_rtc_ex.c ****     (+) Enable the RTC internal TimeStamp using the HAL_RTCEx_SetInternalTimeStamp() function.
  76:Drivers/STM32L4xx_HAL_Driver/Src/stm32l4xx_hal_rtc_ex.c ****         User has to check internal timestamp occurrence using __HAL_RTC_INTERNAL_TIMESTAMP_GET_FLAG
  77:Drivers/STM32L4xx_HAL_Driver/Src/stm32l4xx_hal_rtc_ex.c ****     (+) To read the RTC TimeStamp Time and Date register, use the HAL_RTCEx_GetTimeStamp()
  78:Drivers/STM32L4xx_HAL_Driver/Src/stm32l4xx_hal_rtc_ex.c ****         function.
  79:Drivers/STM32L4xx_HAL_Driver/Src/stm32l4xx_hal_rtc_ex.c **** 
  80:Drivers/STM32L4xx_HAL_Driver/Src/stm32l4xx_hal_rtc_ex.c ****    *** Tamper configuration ***
  81:Drivers/STM32L4xx_HAL_Driver/Src/stm32l4xx_hal_rtc_ex.c ****    ============================
  82:Drivers/STM32L4xx_HAL_Driver/Src/stm32l4xx_hal_rtc_ex.c ****    [..]
  83:Drivers/STM32L4xx_HAL_Driver/Src/stm32l4xx_hal_rtc_ex.c ****      (+) Enable the RTC Tamper and configure the Tamper filter count, trigger Edge
  84:Drivers/STM32L4xx_HAL_Driver/Src/stm32l4xx_hal_rtc_ex.c ****          or Level according to the Tamper filter (if equal to 0 Edge else Level)
  85:Drivers/STM32L4xx_HAL_Driver/Src/stm32l4xx_hal_rtc_ex.c ****          value, sampling frequency, NoErase, MaskFlag,  precharge or discharge and
  86:Drivers/STM32L4xx_HAL_Driver/Src/stm32l4xx_hal_rtc_ex.c ****          Pull-UP using the HAL_RTCEx_SetTamper() function. You can configure RTC Tamper
ARM GAS  /tmp/cc49nhBG.s 			page 3


  87:Drivers/STM32L4xx_HAL_Driver/Src/stm32l4xx_hal_rtc_ex.c ****          with interrupt mode using HAL_RTCEx_SetTamper_IT() function.
  88:Drivers/STM32L4xx_HAL_Driver/Src/stm32l4xx_hal_rtc_ex.c ****      (+) The default configuration of the Tamper erases the backup registers. To avoid
  89:Drivers/STM32L4xx_HAL_Driver/Src/stm32l4xx_hal_rtc_ex.c ****          erase, enable the NoErase field on the RTC_TAMPCR register.
  90:Drivers/STM32L4xx_HAL_Driver/Src/stm32l4xx_hal_rtc_ex.c ****      (+) STM32L412xx and STM32L422xx only : With new RTC tamper configuration, you have to call HAL
  91:Drivers/STM32L4xx_HAL_Driver/Src/stm32l4xx_hal_rtc_ex.c ****          perform TAMP base address offset calculation.
  92:Drivers/STM32L4xx_HAL_Driver/Src/stm32l4xx_hal_rtc_ex.c ****      (+) STM32L412xx and STM32L422xx only : If you don't intend to have tamper using RTC clock, you
  93:Drivers/STM32L4xx_HAL_Driver/Src/stm32l4xx_hal_rtc_ex.c ****          by setting ClockEnable inti field to RTC_CLOCK_DISABLE.
  94:Drivers/STM32L4xx_HAL_Driver/Src/stm32l4xx_hal_rtc_ex.c ****      (+) STM32L412xx and STM32L422xx only : Enable Internal tamper using HAL_RTCEx_SetInternalTampe
  95:Drivers/STM32L4xx_HAL_Driver/Src/stm32l4xx_hal_rtc_ex.c ****          setting Interrupt field.
  96:Drivers/STM32L4xx_HAL_Driver/Src/stm32l4xx_hal_rtc_ex.c **** 
  97:Drivers/STM32L4xx_HAL_Driver/Src/stm32l4xx_hal_rtc_ex.c ****    *** Backup Data Registers configuration ***
  98:Drivers/STM32L4xx_HAL_Driver/Src/stm32l4xx_hal_rtc_ex.c ****    ===========================================
  99:Drivers/STM32L4xx_HAL_Driver/Src/stm32l4xx_hal_rtc_ex.c ****    [..]
 100:Drivers/STM32L4xx_HAL_Driver/Src/stm32l4xx_hal_rtc_ex.c ****      (+) To write to the RTC Backup Data registers, use the HAL_RTCEx_BKUPWrite()
 101:Drivers/STM32L4xx_HAL_Driver/Src/stm32l4xx_hal_rtc_ex.c ****          function.
 102:Drivers/STM32L4xx_HAL_Driver/Src/stm32l4xx_hal_rtc_ex.c ****      (+) To read the RTC Backup Data registers, use the HAL_RTCEx_BKUPRead()
 103:Drivers/STM32L4xx_HAL_Driver/Src/stm32l4xx_hal_rtc_ex.c ****          function.
 104:Drivers/STM32L4xx_HAL_Driver/Src/stm32l4xx_hal_rtc_ex.c ****      (+) STM32L412xx and STM32L422xx only : Before calling these functions you have to call HAL_RTC
 105:Drivers/STM32L4xx_HAL_Driver/Src/stm32l4xx_hal_rtc_ex.c ****          perform TAMP base address offset calculation.
 106:Drivers/STM32L4xx_HAL_Driver/Src/stm32l4xx_hal_rtc_ex.c **** 
 107:Drivers/STM32L4xx_HAL_Driver/Src/stm32l4xx_hal_rtc_ex.c ****   @endverbatim
 108:Drivers/STM32L4xx_HAL_Driver/Src/stm32l4xx_hal_rtc_ex.c ****   ******************************************************************************
 109:Drivers/STM32L4xx_HAL_Driver/Src/stm32l4xx_hal_rtc_ex.c ****   */
 110:Drivers/STM32L4xx_HAL_Driver/Src/stm32l4xx_hal_rtc_ex.c **** 
 111:Drivers/STM32L4xx_HAL_Driver/Src/stm32l4xx_hal_rtc_ex.c **** /* Includes ------------------------------------------------------------------*/
 112:Drivers/STM32L4xx_HAL_Driver/Src/stm32l4xx_hal_rtc_ex.c **** #include "stm32l4xx_hal.h"
 113:Drivers/STM32L4xx_HAL_Driver/Src/stm32l4xx_hal_rtc_ex.c **** 
 114:Drivers/STM32L4xx_HAL_Driver/Src/stm32l4xx_hal_rtc_ex.c **** /** @addtogroup STM32L4xx_HAL_Driver
 115:Drivers/STM32L4xx_HAL_Driver/Src/stm32l4xx_hal_rtc_ex.c ****   * @{
 116:Drivers/STM32L4xx_HAL_Driver/Src/stm32l4xx_hal_rtc_ex.c ****   */
 117:Drivers/STM32L4xx_HAL_Driver/Src/stm32l4xx_hal_rtc_ex.c **** 
 118:Drivers/STM32L4xx_HAL_Driver/Src/stm32l4xx_hal_rtc_ex.c **** /** @addtogroup RTCEx
 119:Drivers/STM32L4xx_HAL_Driver/Src/stm32l4xx_hal_rtc_ex.c ****   * @brief RTC Extended HAL module driver
 120:Drivers/STM32L4xx_HAL_Driver/Src/stm32l4xx_hal_rtc_ex.c ****   * @{
 121:Drivers/STM32L4xx_HAL_Driver/Src/stm32l4xx_hal_rtc_ex.c ****   */
 122:Drivers/STM32L4xx_HAL_Driver/Src/stm32l4xx_hal_rtc_ex.c **** 
 123:Drivers/STM32L4xx_HAL_Driver/Src/stm32l4xx_hal_rtc_ex.c **** #ifdef HAL_RTC_MODULE_ENABLED
 124:Drivers/STM32L4xx_HAL_Driver/Src/stm32l4xx_hal_rtc_ex.c **** 
 125:Drivers/STM32L4xx_HAL_Driver/Src/stm32l4xx_hal_rtc_ex.c **** /* Private typedef -----------------------------------------------------------*/
 126:Drivers/STM32L4xx_HAL_Driver/Src/stm32l4xx_hal_rtc_ex.c **** /* Private define ------------------------------------------------------------*/
 127:Drivers/STM32L4xx_HAL_Driver/Src/stm32l4xx_hal_rtc_ex.c **** /* Private macro -------------------------------------------------------------*/
 128:Drivers/STM32L4xx_HAL_Driver/Src/stm32l4xx_hal_rtc_ex.c **** /* Private variables ---------------------------------------------------------*/
 129:Drivers/STM32L4xx_HAL_Driver/Src/stm32l4xx_hal_rtc_ex.c **** /* Private function prototypes -----------------------------------------------*/
 130:Drivers/STM32L4xx_HAL_Driver/Src/stm32l4xx_hal_rtc_ex.c **** /* Exported functions --------------------------------------------------------*/
 131:Drivers/STM32L4xx_HAL_Driver/Src/stm32l4xx_hal_rtc_ex.c **** 
 132:Drivers/STM32L4xx_HAL_Driver/Src/stm32l4xx_hal_rtc_ex.c **** /** @addtogroup RTCEx_Exported_Functions
 133:Drivers/STM32L4xx_HAL_Driver/Src/stm32l4xx_hal_rtc_ex.c ****   * @{
 134:Drivers/STM32L4xx_HAL_Driver/Src/stm32l4xx_hal_rtc_ex.c ****   */
 135:Drivers/STM32L4xx_HAL_Driver/Src/stm32l4xx_hal_rtc_ex.c **** 
 136:Drivers/STM32L4xx_HAL_Driver/Src/stm32l4xx_hal_rtc_ex.c **** 
 137:Drivers/STM32L4xx_HAL_Driver/Src/stm32l4xx_hal_rtc_ex.c **** /** @addtogroup RTCEx_Exported_Functions_Group1
 138:Drivers/STM32L4xx_HAL_Driver/Src/stm32l4xx_hal_rtc_ex.c ****   * @brief   RTC TimeStamp and Tamper functions
 139:Drivers/STM32L4xx_HAL_Driver/Src/stm32l4xx_hal_rtc_ex.c ****   *
 140:Drivers/STM32L4xx_HAL_Driver/Src/stm32l4xx_hal_rtc_ex.c **** @verbatim
 141:Drivers/STM32L4xx_HAL_Driver/Src/stm32l4xx_hal_rtc_ex.c ****  ===============================================================================
 142:Drivers/STM32L4xx_HAL_Driver/Src/stm32l4xx_hal_rtc_ex.c ****                  ##### RTC TimeStamp and Tamper functions #####
 143:Drivers/STM32L4xx_HAL_Driver/Src/stm32l4xx_hal_rtc_ex.c ****  ===============================================================================
ARM GAS  /tmp/cc49nhBG.s 			page 4


 144:Drivers/STM32L4xx_HAL_Driver/Src/stm32l4xx_hal_rtc_ex.c **** 
 145:Drivers/STM32L4xx_HAL_Driver/Src/stm32l4xx_hal_rtc_ex.c ****  [..] This section provides functions allowing to configure TimeStamp feature
 146:Drivers/STM32L4xx_HAL_Driver/Src/stm32l4xx_hal_rtc_ex.c **** 
 147:Drivers/STM32L4xx_HAL_Driver/Src/stm32l4xx_hal_rtc_ex.c **** @endverbatim
 148:Drivers/STM32L4xx_HAL_Driver/Src/stm32l4xx_hal_rtc_ex.c ****   * @{
 149:Drivers/STM32L4xx_HAL_Driver/Src/stm32l4xx_hal_rtc_ex.c ****   */
 150:Drivers/STM32L4xx_HAL_Driver/Src/stm32l4xx_hal_rtc_ex.c **** 
 151:Drivers/STM32L4xx_HAL_Driver/Src/stm32l4xx_hal_rtc_ex.c **** /**
 152:Drivers/STM32L4xx_HAL_Driver/Src/stm32l4xx_hal_rtc_ex.c ****   * @brief  Set TimeStamp.
 153:Drivers/STM32L4xx_HAL_Driver/Src/stm32l4xx_hal_rtc_ex.c ****   * @note   This API must be called before enabling the TimeStamp feature.
 154:Drivers/STM32L4xx_HAL_Driver/Src/stm32l4xx_hal_rtc_ex.c ****   * @param  hrtc RTC handle
 155:Drivers/STM32L4xx_HAL_Driver/Src/stm32l4xx_hal_rtc_ex.c ****   * @param  TimeStampEdge Specifies the pin edge on which the TimeStamp is
 156:Drivers/STM32L4xx_HAL_Driver/Src/stm32l4xx_hal_rtc_ex.c ****   *         activated.
 157:Drivers/STM32L4xx_HAL_Driver/Src/stm32l4xx_hal_rtc_ex.c ****   *          This parameter can be one of the following values:
 158:Drivers/STM32L4xx_HAL_Driver/Src/stm32l4xx_hal_rtc_ex.c ****   *             @arg RTC_TIMESTAMPEDGE_RISING: the Time stamp event occurs on the
 159:Drivers/STM32L4xx_HAL_Driver/Src/stm32l4xx_hal_rtc_ex.c ****   *                                        rising edge of the related pin.
 160:Drivers/STM32L4xx_HAL_Driver/Src/stm32l4xx_hal_rtc_ex.c ****   *             @arg RTC_TIMESTAMPEDGE_FALLING: the Time stamp event occurs on the
 161:Drivers/STM32L4xx_HAL_Driver/Src/stm32l4xx_hal_rtc_ex.c ****   *                                         falling edge of the related pin.
 162:Drivers/STM32L4xx_HAL_Driver/Src/stm32l4xx_hal_rtc_ex.c ****   * @param  RTC_TimeStampPin specifies the RTC TimeStamp Pin.
 163:Drivers/STM32L4xx_HAL_Driver/Src/stm32l4xx_hal_rtc_ex.c ****   *          This parameter can be one of the following values:
 164:Drivers/STM32L4xx_HAL_Driver/Src/stm32l4xx_hal_rtc_ex.c ****   *             @arg RTC_TIMESTAMPPIN_DEFAULT: PC13 is selected as RTC TimeStamp Pin.
 165:Drivers/STM32L4xx_HAL_Driver/Src/stm32l4xx_hal_rtc_ex.c ****   *               The RTC TimeStamp Pin is per default PC13, but for reasons of
 166:Drivers/STM32L4xx_HAL_Driver/Src/stm32l4xx_hal_rtc_ex.c ****   *               compatibility, this parameter is required.
 167:Drivers/STM32L4xx_HAL_Driver/Src/stm32l4xx_hal_rtc_ex.c ****   * @retval HAL status
 168:Drivers/STM32L4xx_HAL_Driver/Src/stm32l4xx_hal_rtc_ex.c ****   */
 169:Drivers/STM32L4xx_HAL_Driver/Src/stm32l4xx_hal_rtc_ex.c **** HAL_StatusTypeDef HAL_RTCEx_SetTimeStamp(RTC_HandleTypeDef *hrtc, uint32_t TimeStampEdge, uint32_t 
 170:Drivers/STM32L4xx_HAL_Driver/Src/stm32l4xx_hal_rtc_ex.c **** {
  30              		.loc 1 170 1 view -0
  31              		.cfi_startproc
  32              		@ args = 0, pretend = 0, frame = 0
  33              		@ frame_needed = 0, uses_anonymous_args = 0
  34              		@ link register save eliminated.
 171:Drivers/STM32L4xx_HAL_Driver/Src/stm32l4xx_hal_rtc_ex.c ****   uint32_t tmpreg;
  35              		.loc 1 171 3 view .LVU1
 172:Drivers/STM32L4xx_HAL_Driver/Src/stm32l4xx_hal_rtc_ex.c **** 
 173:Drivers/STM32L4xx_HAL_Driver/Src/stm32l4xx_hal_rtc_ex.c ****   /* Check the parameters */
 174:Drivers/STM32L4xx_HAL_Driver/Src/stm32l4xx_hal_rtc_ex.c ****   assert_param(IS_TIMESTAMP_EDGE(TimeStampEdge));
  36              		.loc 1 174 3 view .LVU2
 175:Drivers/STM32L4xx_HAL_Driver/Src/stm32l4xx_hal_rtc_ex.c ****   assert_param(IS_RTC_TIMESTAMP_PIN(RTC_TimeStampPin));
  37              		.loc 1 175 3 view .LVU3
 176:Drivers/STM32L4xx_HAL_Driver/Src/stm32l4xx_hal_rtc_ex.c **** 
 177:Drivers/STM32L4xx_HAL_Driver/Src/stm32l4xx_hal_rtc_ex.c ****   /* Prevent unused argument(s) compilation warning if no assert_param check */
 178:Drivers/STM32L4xx_HAL_Driver/Src/stm32l4xx_hal_rtc_ex.c ****   UNUSED(RTC_TimeStampPin);
  38              		.loc 1 178 3 view .LVU4
 179:Drivers/STM32L4xx_HAL_Driver/Src/stm32l4xx_hal_rtc_ex.c **** 
 180:Drivers/STM32L4xx_HAL_Driver/Src/stm32l4xx_hal_rtc_ex.c ****   /* Process Locked */
 181:Drivers/STM32L4xx_HAL_Driver/Src/stm32l4xx_hal_rtc_ex.c ****   __HAL_LOCK(hrtc);
  39              		.loc 1 181 3 view .LVU5
  40              		.loc 1 181 3 view .LVU6
  41 0000 90F82830 		ldrb	r3, [r0, #40]	@ zero_extendqisi2
  42 0004 012B     		cmp	r3, #1
  43 0006 26D0     		beq	.L3
 170:Drivers/STM32L4xx_HAL_Driver/Src/stm32l4xx_hal_rtc_ex.c ****   uint32_t tmpreg;
  44              		.loc 1 170 1 is_stmt 0 discriminator 2 view .LVU7
  45 0008 10B4     		push	{r4}
  46              	.LCFI0:
  47              		.cfi_def_cfa_offset 4
ARM GAS  /tmp/cc49nhBG.s 			page 5


  48              		.cfi_offset 4, -4
  49              		.loc 1 181 3 is_stmt 1 discriminator 2 view .LVU8
  50 000a 4FF0010C 		mov	ip, #1
  51 000e 80F828C0 		strb	ip, [r0, #40]
  52              		.loc 1 181 3 discriminator 2 view .LVU9
 182:Drivers/STM32L4xx_HAL_Driver/Src/stm32l4xx_hal_rtc_ex.c **** 
 183:Drivers/STM32L4xx_HAL_Driver/Src/stm32l4xx_hal_rtc_ex.c ****   hrtc->State = HAL_RTC_STATE_BUSY;
  53              		.loc 1 183 3 discriminator 2 view .LVU10
  54              		.loc 1 183 15 is_stmt 0 discriminator 2 view .LVU11
  55 0012 0223     		movs	r3, #2
  56 0014 80F82930 		strb	r3, [r0, #41]
 184:Drivers/STM32L4xx_HAL_Driver/Src/stm32l4xx_hal_rtc_ex.c **** 
 185:Drivers/STM32L4xx_HAL_Driver/Src/stm32l4xx_hal_rtc_ex.c ****   /* Get the RTC_CR register and clear the bits to be configured */
 186:Drivers/STM32L4xx_HAL_Driver/Src/stm32l4xx_hal_rtc_ex.c ****   tmpreg = (uint32_t)(hrtc->Instance->CR & (uint32_t)~(RTC_CR_TSEDGE | RTC_CR_TSE));
  57              		.loc 1 186 3 is_stmt 1 discriminator 2 view .LVU12
  58              		.loc 1 186 27 is_stmt 0 discriminator 2 view .LVU13
  59 0018 0468     		ldr	r4, [r0]
  60              		.loc 1 186 37 discriminator 2 view .LVU14
  61 001a A369     		ldr	r3, [r4, #24]
  62              		.loc 1 186 10 discriminator 2 view .LVU15
  63 001c 23F40063 		bic	r3, r3, #2048
  64 0020 23F00803 		bic	r3, r3, #8
  65              	.LVL1:
 187:Drivers/STM32L4xx_HAL_Driver/Src/stm32l4xx_hal_rtc_ex.c **** 
 188:Drivers/STM32L4xx_HAL_Driver/Src/stm32l4xx_hal_rtc_ex.c ****   tmpreg |= TimeStampEdge;
  66              		.loc 1 188 3 is_stmt 1 discriminator 2 view .LVU16
  67              		.loc 1 188 10 is_stmt 0 discriminator 2 view .LVU17
  68 0024 0B43     		orrs	r3, r3, r1
  69              	.LVL2:
 189:Drivers/STM32L4xx_HAL_Driver/Src/stm32l4xx_hal_rtc_ex.c **** 
 190:Drivers/STM32L4xx_HAL_Driver/Src/stm32l4xx_hal_rtc_ex.c ****   /* Disable the write protection for RTC registers */
 191:Drivers/STM32L4xx_HAL_Driver/Src/stm32l4xx_hal_rtc_ex.c ****   __HAL_RTC_WRITEPROTECTION_DISABLE(hrtc);
  70              		.loc 1 191 3 is_stmt 1 discriminator 2 view .LVU18
  71              		.loc 1 191 3 discriminator 2 view .LVU19
  72 0026 CA22     		movs	r2, #202
  73              	.LVL3:
  74              		.loc 1 191 3 is_stmt 0 discriminator 2 view .LVU20
  75 0028 6262     		str	r2, [r4, #36]
  76              		.loc 1 191 3 is_stmt 1 discriminator 2 view .LVU21
  77 002a 0268     		ldr	r2, [r0]
  78 002c 5321     		movs	r1, #83
  79              	.LVL4:
  80              		.loc 1 191 3 is_stmt 0 discriminator 2 view .LVU22
  81 002e 5162     		str	r1, [r2, #36]
  82              		.loc 1 191 3 is_stmt 1 discriminator 2 view .LVU23
 192:Drivers/STM32L4xx_HAL_Driver/Src/stm32l4xx_hal_rtc_ex.c **** 
 193:Drivers/STM32L4xx_HAL_Driver/Src/stm32l4xx_hal_rtc_ex.c ****   /* Configure the Time Stamp TSEDGE and Enable bits */
 194:Drivers/STM32L4xx_HAL_Driver/Src/stm32l4xx_hal_rtc_ex.c ****   hrtc->Instance->CR = (uint32_t)tmpreg;
  83              		.loc 1 194 3 discriminator 2 view .LVU24
  84              		.loc 1 194 7 is_stmt 0 discriminator 2 view .LVU25
  85 0030 0268     		ldr	r2, [r0]
  86              		.loc 1 194 22 discriminator 2 view .LVU26
  87 0032 9361     		str	r3, [r2, #24]
 195:Drivers/STM32L4xx_HAL_Driver/Src/stm32l4xx_hal_rtc_ex.c **** 
 196:Drivers/STM32L4xx_HAL_Driver/Src/stm32l4xx_hal_rtc_ex.c ****   __HAL_RTC_TIMESTAMP_ENABLE(hrtc);
  88              		.loc 1 196 3 is_stmt 1 discriminator 2 view .LVU27
  89 0034 0268     		ldr	r2, [r0]
ARM GAS  /tmp/cc49nhBG.s 			page 6


  90 0036 9369     		ldr	r3, [r2, #24]
  91              	.LVL5:
  92              		.loc 1 196 3 is_stmt 0 discriminator 2 view .LVU28
  93 0038 43F40063 		orr	r3, r3, #2048
  94 003c 9361     		str	r3, [r2, #24]
 197:Drivers/STM32L4xx_HAL_Driver/Src/stm32l4xx_hal_rtc_ex.c **** 
 198:Drivers/STM32L4xx_HAL_Driver/Src/stm32l4xx_hal_rtc_ex.c ****   /* Enable the write protection for RTC registers */
 199:Drivers/STM32L4xx_HAL_Driver/Src/stm32l4xx_hal_rtc_ex.c ****   __HAL_RTC_WRITEPROTECTION_ENABLE(hrtc);
  95              		.loc 1 199 3 is_stmt 1 discriminator 2 view .LVU29
  96              		.loc 1 199 3 discriminator 2 view .LVU30
  97 003e 0368     		ldr	r3, [r0]
  98 0040 FF22     		movs	r2, #255
  99 0042 5A62     		str	r2, [r3, #36]
 100              		.loc 1 199 3 discriminator 2 view .LVU31
 200:Drivers/STM32L4xx_HAL_Driver/Src/stm32l4xx_hal_rtc_ex.c **** 
 201:Drivers/STM32L4xx_HAL_Driver/Src/stm32l4xx_hal_rtc_ex.c ****   /* Change RTC state */
 202:Drivers/STM32L4xx_HAL_Driver/Src/stm32l4xx_hal_rtc_ex.c ****   hrtc->State = HAL_RTC_STATE_READY;
 101              		.loc 1 202 3 discriminator 2 view .LVU32
 102              		.loc 1 202 15 is_stmt 0 discriminator 2 view .LVU33
 103 0044 80F829C0 		strb	ip, [r0, #41]
 203:Drivers/STM32L4xx_HAL_Driver/Src/stm32l4xx_hal_rtc_ex.c **** 
 204:Drivers/STM32L4xx_HAL_Driver/Src/stm32l4xx_hal_rtc_ex.c ****   /* Process Unlocked */
 205:Drivers/STM32L4xx_HAL_Driver/Src/stm32l4xx_hal_rtc_ex.c ****   __HAL_UNLOCK(hrtc);
 104              		.loc 1 205 3 is_stmt 1 discriminator 2 view .LVU34
 105              		.loc 1 205 3 discriminator 2 view .LVU35
 106 0048 0023     		movs	r3, #0
 107 004a 80F82830 		strb	r3, [r0, #40]
 108              		.loc 1 205 3 discriminator 2 view .LVU36
 206:Drivers/STM32L4xx_HAL_Driver/Src/stm32l4xx_hal_rtc_ex.c **** 
 207:Drivers/STM32L4xx_HAL_Driver/Src/stm32l4xx_hal_rtc_ex.c ****   return HAL_OK;
 109              		.loc 1 207 3 discriminator 2 view .LVU37
 110              		.loc 1 207 10 is_stmt 0 discriminator 2 view .LVU38
 111 004e 1846     		mov	r0, r3
 112              	.LVL6:
 208:Drivers/STM32L4xx_HAL_Driver/Src/stm32l4xx_hal_rtc_ex.c **** }
 113              		.loc 1 208 1 discriminator 2 view .LVU39
 114 0050 5DF8044B 		ldr	r4, [sp], #4
 115              	.LCFI1:
 116              		.cfi_restore 4
 117              		.cfi_def_cfa_offset 0
 118 0054 7047     		bx	lr
 119              	.LVL7:
 120              	.L3:
 181:Drivers/STM32L4xx_HAL_Driver/Src/stm32l4xx_hal_rtc_ex.c **** 
 121              		.loc 1 181 3 view .LVU40
 122 0056 0220     		movs	r0, #2
 123              	.LVL8:
 124              		.loc 1 208 1 view .LVU41
 125 0058 7047     		bx	lr
 126              		.cfi_endproc
 127              	.LFE132:
 129              		.section	.text.HAL_RTCEx_SetTimeStamp_IT,"ax",%progbits
 130              		.align	1
 131              		.global	HAL_RTCEx_SetTimeStamp_IT
 132              		.syntax unified
 133              		.thumb
 134              		.thumb_func
ARM GAS  /tmp/cc49nhBG.s 			page 7


 135              		.fpu fpv4-sp-d16
 137              	HAL_RTCEx_SetTimeStamp_IT:
 138              	.LVL9:
 139              	.LFB133:
 209:Drivers/STM32L4xx_HAL_Driver/Src/stm32l4xx_hal_rtc_ex.c **** 
 210:Drivers/STM32L4xx_HAL_Driver/Src/stm32l4xx_hal_rtc_ex.c **** /**
 211:Drivers/STM32L4xx_HAL_Driver/Src/stm32l4xx_hal_rtc_ex.c ****   * @brief  Set TimeStamp with Interrupt.
 212:Drivers/STM32L4xx_HAL_Driver/Src/stm32l4xx_hal_rtc_ex.c ****   * @note   This API must be called before enabling the TimeStamp feature.
 213:Drivers/STM32L4xx_HAL_Driver/Src/stm32l4xx_hal_rtc_ex.c ****   * @param  hrtc RTC handle
 214:Drivers/STM32L4xx_HAL_Driver/Src/stm32l4xx_hal_rtc_ex.c ****   * @param  TimeStampEdge Specifies the pin edge on which the TimeStamp is
 215:Drivers/STM32L4xx_HAL_Driver/Src/stm32l4xx_hal_rtc_ex.c ****   *         activated.
 216:Drivers/STM32L4xx_HAL_Driver/Src/stm32l4xx_hal_rtc_ex.c ****   *          This parameter can be one of the following values:
 217:Drivers/STM32L4xx_HAL_Driver/Src/stm32l4xx_hal_rtc_ex.c ****   *             @arg RTC_TIMESTAMPEDGE_RISING: the Time stamp event occurs on the
 218:Drivers/STM32L4xx_HAL_Driver/Src/stm32l4xx_hal_rtc_ex.c ****   *                                        rising edge of the related pin.
 219:Drivers/STM32L4xx_HAL_Driver/Src/stm32l4xx_hal_rtc_ex.c ****   *             @arg RTC_TIMESTAMPEDGE_FALLING: the Time stamp event occurs on the
 220:Drivers/STM32L4xx_HAL_Driver/Src/stm32l4xx_hal_rtc_ex.c ****   *                                         falling edge of the related pin.
 221:Drivers/STM32L4xx_HAL_Driver/Src/stm32l4xx_hal_rtc_ex.c ****   * @param  RTC_TimeStampPin Specifies the RTC TimeStamp Pin.
 222:Drivers/STM32L4xx_HAL_Driver/Src/stm32l4xx_hal_rtc_ex.c ****   *          This parameter can be one of the following values:
 223:Drivers/STM32L4xx_HAL_Driver/Src/stm32l4xx_hal_rtc_ex.c ****   *             @arg RTC_TIMESTAMPPIN_DEFAULT: PC13 is selected as RTC TimeStamp Pin.
 224:Drivers/STM32L4xx_HAL_Driver/Src/stm32l4xx_hal_rtc_ex.c ****   *               The RTC TimeStamp Pin is per default PC13, but for reasons of
 225:Drivers/STM32L4xx_HAL_Driver/Src/stm32l4xx_hal_rtc_ex.c ****   *               compatibility, this parameter is required.
 226:Drivers/STM32L4xx_HAL_Driver/Src/stm32l4xx_hal_rtc_ex.c ****   * @retval HAL status
 227:Drivers/STM32L4xx_HAL_Driver/Src/stm32l4xx_hal_rtc_ex.c ****   */
 228:Drivers/STM32L4xx_HAL_Driver/Src/stm32l4xx_hal_rtc_ex.c **** HAL_StatusTypeDef HAL_RTCEx_SetTimeStamp_IT(RTC_HandleTypeDef *hrtc, uint32_t TimeStampEdge, uint32
 229:Drivers/STM32L4xx_HAL_Driver/Src/stm32l4xx_hal_rtc_ex.c **** {
 140              		.loc 1 229 1 is_stmt 1 view -0
 141              		.cfi_startproc
 142              		@ args = 0, pretend = 0, frame = 0
 143              		@ frame_needed = 0, uses_anonymous_args = 0
 144              		@ link register save eliminated.
 230:Drivers/STM32L4xx_HAL_Driver/Src/stm32l4xx_hal_rtc_ex.c ****   uint32_t tmpreg;
 145              		.loc 1 230 3 view .LVU43
 231:Drivers/STM32L4xx_HAL_Driver/Src/stm32l4xx_hal_rtc_ex.c **** 
 232:Drivers/STM32L4xx_HAL_Driver/Src/stm32l4xx_hal_rtc_ex.c ****   /* Check the parameters */
 233:Drivers/STM32L4xx_HAL_Driver/Src/stm32l4xx_hal_rtc_ex.c ****   assert_param(IS_TIMESTAMP_EDGE(TimeStampEdge));
 146              		.loc 1 233 3 view .LVU44
 234:Drivers/STM32L4xx_HAL_Driver/Src/stm32l4xx_hal_rtc_ex.c ****   assert_param(IS_RTC_TIMESTAMP_PIN(RTC_TimeStampPin));
 147              		.loc 1 234 3 view .LVU45
 235:Drivers/STM32L4xx_HAL_Driver/Src/stm32l4xx_hal_rtc_ex.c **** 
 236:Drivers/STM32L4xx_HAL_Driver/Src/stm32l4xx_hal_rtc_ex.c ****   /* Prevent unused argument(s) compilation warning if no assert_param check */
 237:Drivers/STM32L4xx_HAL_Driver/Src/stm32l4xx_hal_rtc_ex.c ****   UNUSED(RTC_TimeStampPin);
 148              		.loc 1 237 3 view .LVU46
 238:Drivers/STM32L4xx_HAL_Driver/Src/stm32l4xx_hal_rtc_ex.c **** 
 239:Drivers/STM32L4xx_HAL_Driver/Src/stm32l4xx_hal_rtc_ex.c ****   /* Process Locked */
 240:Drivers/STM32L4xx_HAL_Driver/Src/stm32l4xx_hal_rtc_ex.c ****   __HAL_LOCK(hrtc);
 149              		.loc 1 240 3 view .LVU47
 150              		.loc 1 240 3 view .LVU48
 151 0000 90F82830 		ldrb	r3, [r0, #40]	@ zero_extendqisi2
 152 0004 012B     		cmp	r3, #1
 153 0006 34D0     		beq	.L10
 229:Drivers/STM32L4xx_HAL_Driver/Src/stm32l4xx_hal_rtc_ex.c ****   uint32_t tmpreg;
 154              		.loc 1 229 1 is_stmt 0 discriminator 2 view .LVU49
 155 0008 10B4     		push	{r4}
 156              	.LCFI2:
 157              		.cfi_def_cfa_offset 4
 158              		.cfi_offset 4, -4
 159              		.loc 1 240 3 is_stmt 1 discriminator 2 view .LVU50
ARM GAS  /tmp/cc49nhBG.s 			page 8


 160 000a 4FF0010C 		mov	ip, #1
 161 000e 80F828C0 		strb	ip, [r0, #40]
 162              		.loc 1 240 3 discriminator 2 view .LVU51
 241:Drivers/STM32L4xx_HAL_Driver/Src/stm32l4xx_hal_rtc_ex.c **** 
 242:Drivers/STM32L4xx_HAL_Driver/Src/stm32l4xx_hal_rtc_ex.c ****   hrtc->State = HAL_RTC_STATE_BUSY;
 163              		.loc 1 242 3 discriminator 2 view .LVU52
 164              		.loc 1 242 15 is_stmt 0 discriminator 2 view .LVU53
 165 0012 0223     		movs	r3, #2
 166 0014 80F82930 		strb	r3, [r0, #41]
 243:Drivers/STM32L4xx_HAL_Driver/Src/stm32l4xx_hal_rtc_ex.c **** 
 244:Drivers/STM32L4xx_HAL_Driver/Src/stm32l4xx_hal_rtc_ex.c ****   /* Get the RTC_CR register and clear the bits to be configured */
 245:Drivers/STM32L4xx_HAL_Driver/Src/stm32l4xx_hal_rtc_ex.c ****   tmpreg = (uint32_t)(hrtc->Instance->CR & (uint32_t)~(RTC_CR_TSEDGE | RTC_CR_TSE));
 167              		.loc 1 245 3 is_stmt 1 discriminator 2 view .LVU54
 168              		.loc 1 245 27 is_stmt 0 discriminator 2 view .LVU55
 169 0018 0468     		ldr	r4, [r0]
 170              		.loc 1 245 37 discriminator 2 view .LVU56
 171 001a A369     		ldr	r3, [r4, #24]
 172              		.loc 1 245 10 discriminator 2 view .LVU57
 173 001c 23F40063 		bic	r3, r3, #2048
 174 0020 23F00803 		bic	r3, r3, #8
 175              	.LVL10:
 246:Drivers/STM32L4xx_HAL_Driver/Src/stm32l4xx_hal_rtc_ex.c **** 
 247:Drivers/STM32L4xx_HAL_Driver/Src/stm32l4xx_hal_rtc_ex.c ****   tmpreg |= TimeStampEdge;
 176              		.loc 1 247 3 is_stmt 1 discriminator 2 view .LVU58
 177              		.loc 1 247 10 is_stmt 0 discriminator 2 view .LVU59
 178 0024 0B43     		orrs	r3, r3, r1
 179              	.LVL11:
 248:Drivers/STM32L4xx_HAL_Driver/Src/stm32l4xx_hal_rtc_ex.c **** 
 249:Drivers/STM32L4xx_HAL_Driver/Src/stm32l4xx_hal_rtc_ex.c ****   /* Disable the write protection for RTC registers */
 250:Drivers/STM32L4xx_HAL_Driver/Src/stm32l4xx_hal_rtc_ex.c ****   __HAL_RTC_WRITEPROTECTION_DISABLE(hrtc);
 180              		.loc 1 250 3 is_stmt 1 discriminator 2 view .LVU60
 181              		.loc 1 250 3 discriminator 2 view .LVU61
 182 0026 CA22     		movs	r2, #202
 183              	.LVL12:
 184              		.loc 1 250 3 is_stmt 0 discriminator 2 view .LVU62
 185 0028 6262     		str	r2, [r4, #36]
 186              		.loc 1 250 3 is_stmt 1 discriminator 2 view .LVU63
 187 002a 0268     		ldr	r2, [r0]
 188 002c 5321     		movs	r1, #83
 189              	.LVL13:
 190              		.loc 1 250 3 is_stmt 0 discriminator 2 view .LVU64
 191 002e 5162     		str	r1, [r2, #36]
 192              		.loc 1 250 3 is_stmt 1 discriminator 2 view .LVU65
 251:Drivers/STM32L4xx_HAL_Driver/Src/stm32l4xx_hal_rtc_ex.c **** 
 252:Drivers/STM32L4xx_HAL_Driver/Src/stm32l4xx_hal_rtc_ex.c ****   /* Configure the Time Stamp TSEDGE and Enable bits */
 253:Drivers/STM32L4xx_HAL_Driver/Src/stm32l4xx_hal_rtc_ex.c ****   hrtc->Instance->CR = (uint32_t)tmpreg;
 193              		.loc 1 253 3 discriminator 2 view .LVU66
 194              		.loc 1 253 7 is_stmt 0 discriminator 2 view .LVU67
 195 0030 0268     		ldr	r2, [r0]
 196              		.loc 1 253 22 discriminator 2 view .LVU68
 197 0032 9361     		str	r3, [r2, #24]
 254:Drivers/STM32L4xx_HAL_Driver/Src/stm32l4xx_hal_rtc_ex.c **** 
 255:Drivers/STM32L4xx_HAL_Driver/Src/stm32l4xx_hal_rtc_ex.c ****   __HAL_RTC_TIMESTAMP_ENABLE(hrtc);
 198              		.loc 1 255 3 is_stmt 1 discriminator 2 view .LVU69
 199 0034 0268     		ldr	r2, [r0]
 200 0036 9369     		ldr	r3, [r2, #24]
 201              	.LVL14:
ARM GAS  /tmp/cc49nhBG.s 			page 9


 202              		.loc 1 255 3 is_stmt 0 discriminator 2 view .LVU70
 203 0038 43F40063 		orr	r3, r3, #2048
 204 003c 9361     		str	r3, [r2, #24]
 256:Drivers/STM32L4xx_HAL_Driver/Src/stm32l4xx_hal_rtc_ex.c **** 
 257:Drivers/STM32L4xx_HAL_Driver/Src/stm32l4xx_hal_rtc_ex.c ****   /* Enable IT timestamp */
 258:Drivers/STM32L4xx_HAL_Driver/Src/stm32l4xx_hal_rtc_ex.c ****   __HAL_RTC_TIMESTAMP_ENABLE_IT(hrtc, RTC_IT_TS);
 205              		.loc 1 258 3 is_stmt 1 discriminator 2 view .LVU71
 206 003e 0268     		ldr	r2, [r0]
 207 0040 9369     		ldr	r3, [r2, #24]
 208 0042 43F40043 		orr	r3, r3, #32768
 209 0046 9361     		str	r3, [r2, #24]
 259:Drivers/STM32L4xx_HAL_Driver/Src/stm32l4xx_hal_rtc_ex.c **** 
 260:Drivers/STM32L4xx_HAL_Driver/Src/stm32l4xx_hal_rtc_ex.c ****   /* RTC timestamp Interrupt Configuration: EXTI configuration */
 261:Drivers/STM32L4xx_HAL_Driver/Src/stm32l4xx_hal_rtc_ex.c ****   __HAL_RTC_TAMPER_TIMESTAMP_EXTI_ENABLE_IT();
 210              		.loc 1 261 3 discriminator 2 view .LVU72
 211 0048 0B4B     		ldr	r3, .L15
 212 004a 1A68     		ldr	r2, [r3]
 213 004c 42F40022 		orr	r2, r2, #524288
 214 0050 1A60     		str	r2, [r3]
 262:Drivers/STM32L4xx_HAL_Driver/Src/stm32l4xx_hal_rtc_ex.c ****   __HAL_RTC_TAMPER_TIMESTAMP_EXTI_ENABLE_RISING_EDGE();
 215              		.loc 1 262 3 discriminator 2 view .LVU73
 216 0052 9A68     		ldr	r2, [r3, #8]
 217 0054 42F40022 		orr	r2, r2, #524288
 218 0058 9A60     		str	r2, [r3, #8]
 263:Drivers/STM32L4xx_HAL_Driver/Src/stm32l4xx_hal_rtc_ex.c **** 
 264:Drivers/STM32L4xx_HAL_Driver/Src/stm32l4xx_hal_rtc_ex.c ****   /* Enable the write protection for RTC registers */
 265:Drivers/STM32L4xx_HAL_Driver/Src/stm32l4xx_hal_rtc_ex.c ****   __HAL_RTC_WRITEPROTECTION_ENABLE(hrtc);
 219              		.loc 1 265 3 discriminator 2 view .LVU74
 220              		.loc 1 265 3 discriminator 2 view .LVU75
 221 005a 0368     		ldr	r3, [r0]
 222 005c FF22     		movs	r2, #255
 223 005e 5A62     		str	r2, [r3, #36]
 224              		.loc 1 265 3 discriminator 2 view .LVU76
 266:Drivers/STM32L4xx_HAL_Driver/Src/stm32l4xx_hal_rtc_ex.c **** 
 267:Drivers/STM32L4xx_HAL_Driver/Src/stm32l4xx_hal_rtc_ex.c ****   hrtc->State = HAL_RTC_STATE_READY;
 225              		.loc 1 267 3 discriminator 2 view .LVU77
 226              		.loc 1 267 15 is_stmt 0 discriminator 2 view .LVU78
 227 0060 80F829C0 		strb	ip, [r0, #41]
 268:Drivers/STM32L4xx_HAL_Driver/Src/stm32l4xx_hal_rtc_ex.c **** 
 269:Drivers/STM32L4xx_HAL_Driver/Src/stm32l4xx_hal_rtc_ex.c ****   /* Process Unlocked */
 270:Drivers/STM32L4xx_HAL_Driver/Src/stm32l4xx_hal_rtc_ex.c ****   __HAL_UNLOCK(hrtc);
 228              		.loc 1 270 3 is_stmt 1 discriminator 2 view .LVU79
 229              		.loc 1 270 3 discriminator 2 view .LVU80
 230 0064 0023     		movs	r3, #0
 231 0066 80F82830 		strb	r3, [r0, #40]
 232              		.loc 1 270 3 discriminator 2 view .LVU81
 271:Drivers/STM32L4xx_HAL_Driver/Src/stm32l4xx_hal_rtc_ex.c **** 
 272:Drivers/STM32L4xx_HAL_Driver/Src/stm32l4xx_hal_rtc_ex.c ****   return HAL_OK;
 233              		.loc 1 272 3 discriminator 2 view .LVU82
 234              		.loc 1 272 10 is_stmt 0 discriminator 2 view .LVU83
 235 006a 1846     		mov	r0, r3
 236              	.LVL15:
 273:Drivers/STM32L4xx_HAL_Driver/Src/stm32l4xx_hal_rtc_ex.c **** }
 237              		.loc 1 273 1 discriminator 2 view .LVU84
 238 006c 5DF8044B 		ldr	r4, [sp], #4
 239              	.LCFI3:
 240              		.cfi_restore 4
ARM GAS  /tmp/cc49nhBG.s 			page 10


 241              		.cfi_def_cfa_offset 0
 242 0070 7047     		bx	lr
 243              	.LVL16:
 244              	.L10:
 240:Drivers/STM32L4xx_HAL_Driver/Src/stm32l4xx_hal_rtc_ex.c **** 
 245              		.loc 1 240 3 view .LVU85
 246 0072 0220     		movs	r0, #2
 247              	.LVL17:
 248              		.loc 1 273 1 view .LVU86
 249 0074 7047     		bx	lr
 250              	.L16:
 251 0076 00BF     		.align	2
 252              	.L15:
 253 0078 00040140 		.word	1073808384
 254              		.cfi_endproc
 255              	.LFE133:
 257              		.section	.text.HAL_RTCEx_DeactivateTimeStamp,"ax",%progbits
 258              		.align	1
 259              		.global	HAL_RTCEx_DeactivateTimeStamp
 260              		.syntax unified
 261              		.thumb
 262              		.thumb_func
 263              		.fpu fpv4-sp-d16
 265              	HAL_RTCEx_DeactivateTimeStamp:
 266              	.LVL18:
 267              	.LFB134:
 274:Drivers/STM32L4xx_HAL_Driver/Src/stm32l4xx_hal_rtc_ex.c **** 
 275:Drivers/STM32L4xx_HAL_Driver/Src/stm32l4xx_hal_rtc_ex.c **** /**
 276:Drivers/STM32L4xx_HAL_Driver/Src/stm32l4xx_hal_rtc_ex.c ****   * @brief  Deactivate TimeStamp.
 277:Drivers/STM32L4xx_HAL_Driver/Src/stm32l4xx_hal_rtc_ex.c ****   * @param  hrtc RTC handle
 278:Drivers/STM32L4xx_HAL_Driver/Src/stm32l4xx_hal_rtc_ex.c ****   * @retval HAL status
 279:Drivers/STM32L4xx_HAL_Driver/Src/stm32l4xx_hal_rtc_ex.c ****   */
 280:Drivers/STM32L4xx_HAL_Driver/Src/stm32l4xx_hal_rtc_ex.c **** HAL_StatusTypeDef HAL_RTCEx_DeactivateTimeStamp(RTC_HandleTypeDef *hrtc)
 281:Drivers/STM32L4xx_HAL_Driver/Src/stm32l4xx_hal_rtc_ex.c **** {
 268              		.loc 1 281 1 is_stmt 1 view -0
 269              		.cfi_startproc
 270              		@ args = 0, pretend = 0, frame = 0
 271              		@ frame_needed = 0, uses_anonymous_args = 0
 272              		@ link register save eliminated.
 282:Drivers/STM32L4xx_HAL_Driver/Src/stm32l4xx_hal_rtc_ex.c ****   uint32_t tmpreg;
 273              		.loc 1 282 3 view .LVU88
 283:Drivers/STM32L4xx_HAL_Driver/Src/stm32l4xx_hal_rtc_ex.c **** 
 284:Drivers/STM32L4xx_HAL_Driver/Src/stm32l4xx_hal_rtc_ex.c ****   /* Process Locked */
 285:Drivers/STM32L4xx_HAL_Driver/Src/stm32l4xx_hal_rtc_ex.c ****   __HAL_LOCK(hrtc);
 274              		.loc 1 285 3 view .LVU89
 275              		.loc 1 285 3 view .LVU90
 276 0000 90F82830 		ldrb	r3, [r0, #40]	@ zero_extendqisi2
 277 0004 012B     		cmp	r3, #1
 278 0006 21D0     		beq	.L19
 279              		.loc 1 285 3 discriminator 2 view .LVU91
 280 0008 0122     		movs	r2, #1
 281 000a 80F82820 		strb	r2, [r0, #40]
 282              		.loc 1 285 3 discriminator 2 view .LVU92
 286:Drivers/STM32L4xx_HAL_Driver/Src/stm32l4xx_hal_rtc_ex.c **** 
 287:Drivers/STM32L4xx_HAL_Driver/Src/stm32l4xx_hal_rtc_ex.c ****   hrtc->State = HAL_RTC_STATE_BUSY;
 283              		.loc 1 287 3 discriminator 2 view .LVU93
 284              		.loc 1 287 15 is_stmt 0 discriminator 2 view .LVU94
ARM GAS  /tmp/cc49nhBG.s 			page 11


 285 000e 0223     		movs	r3, #2
 286 0010 80F82930 		strb	r3, [r0, #41]
 288:Drivers/STM32L4xx_HAL_Driver/Src/stm32l4xx_hal_rtc_ex.c **** 
 289:Drivers/STM32L4xx_HAL_Driver/Src/stm32l4xx_hal_rtc_ex.c ****   /* Disable the write protection for RTC registers */
 290:Drivers/STM32L4xx_HAL_Driver/Src/stm32l4xx_hal_rtc_ex.c ****   __HAL_RTC_WRITEPROTECTION_DISABLE(hrtc);
 287              		.loc 1 290 3 is_stmt 1 discriminator 2 view .LVU95
 288              		.loc 1 290 3 discriminator 2 view .LVU96
 289 0014 0368     		ldr	r3, [r0]
 290 0016 CA21     		movs	r1, #202
 291 0018 5962     		str	r1, [r3, #36]
 292              		.loc 1 290 3 discriminator 2 view .LVU97
 293 001a 0368     		ldr	r3, [r0]
 294 001c 5321     		movs	r1, #83
 295 001e 5962     		str	r1, [r3, #36]
 296              		.loc 1 290 3 discriminator 2 view .LVU98
 291:Drivers/STM32L4xx_HAL_Driver/Src/stm32l4xx_hal_rtc_ex.c **** 
 292:Drivers/STM32L4xx_HAL_Driver/Src/stm32l4xx_hal_rtc_ex.c ****   /* In case of interrupt mode is used, the interrupt source must disabled */
 293:Drivers/STM32L4xx_HAL_Driver/Src/stm32l4xx_hal_rtc_ex.c ****   __HAL_RTC_TIMESTAMP_DISABLE_IT(hrtc, RTC_IT_TS);
 297              		.loc 1 293 3 discriminator 2 view .LVU99
 298 0020 0168     		ldr	r1, [r0]
 299 0022 8B69     		ldr	r3, [r1, #24]
 300 0024 23F40043 		bic	r3, r3, #32768
 301 0028 8B61     		str	r3, [r1, #24]
 294:Drivers/STM32L4xx_HAL_Driver/Src/stm32l4xx_hal_rtc_ex.c **** 
 295:Drivers/STM32L4xx_HAL_Driver/Src/stm32l4xx_hal_rtc_ex.c ****   /* Get the RTC_CR register and clear the bits to be configured */
 296:Drivers/STM32L4xx_HAL_Driver/Src/stm32l4xx_hal_rtc_ex.c ****   tmpreg = (uint32_t)(hrtc->Instance->CR & (uint32_t)~(RTC_CR_TSEDGE | RTC_CR_TSE));
 302              		.loc 1 296 3 discriminator 2 view .LVU100
 303              		.loc 1 296 27 is_stmt 0 discriminator 2 view .LVU101
 304 002a 0168     		ldr	r1, [r0]
 305              		.loc 1 296 37 discriminator 2 view .LVU102
 306 002c 8B69     		ldr	r3, [r1, #24]
 307              		.loc 1 296 10 discriminator 2 view .LVU103
 308 002e 23F40063 		bic	r3, r3, #2048
 309 0032 23F00803 		bic	r3, r3, #8
 310              	.LVL19:
 297:Drivers/STM32L4xx_HAL_Driver/Src/stm32l4xx_hal_rtc_ex.c **** 
 298:Drivers/STM32L4xx_HAL_Driver/Src/stm32l4xx_hal_rtc_ex.c ****   /* Configure the Time Stamp TSEDGE and Enable bits */
 299:Drivers/STM32L4xx_HAL_Driver/Src/stm32l4xx_hal_rtc_ex.c ****   hrtc->Instance->CR = (uint32_t)tmpreg;
 311              		.loc 1 299 3 is_stmt 1 discriminator 2 view .LVU104
 312              		.loc 1 299 22 is_stmt 0 discriminator 2 view .LVU105
 313 0036 8B61     		str	r3, [r1, #24]
 300:Drivers/STM32L4xx_HAL_Driver/Src/stm32l4xx_hal_rtc_ex.c **** 
 301:Drivers/STM32L4xx_HAL_Driver/Src/stm32l4xx_hal_rtc_ex.c ****   /* Enable the write protection for RTC registers */
 302:Drivers/STM32L4xx_HAL_Driver/Src/stm32l4xx_hal_rtc_ex.c ****   __HAL_RTC_WRITEPROTECTION_ENABLE(hrtc);
 314              		.loc 1 302 3 is_stmt 1 discriminator 2 view .LVU106
 315              		.loc 1 302 3 discriminator 2 view .LVU107
 316 0038 0368     		ldr	r3, [r0]
 317              	.LVL20:
 318              		.loc 1 302 3 is_stmt 0 discriminator 2 view .LVU108
 319 003a FF21     		movs	r1, #255
 320              	.LVL21:
 321              		.loc 1 302 3 discriminator 2 view .LVU109
 322 003c 5962     		str	r1, [r3, #36]
 323              		.loc 1 302 3 is_stmt 1 discriminator 2 view .LVU110
 303:Drivers/STM32L4xx_HAL_Driver/Src/stm32l4xx_hal_rtc_ex.c **** 
 304:Drivers/STM32L4xx_HAL_Driver/Src/stm32l4xx_hal_rtc_ex.c ****   hrtc->State = HAL_RTC_STATE_READY;
 324              		.loc 1 304 3 discriminator 2 view .LVU111
ARM GAS  /tmp/cc49nhBG.s 			page 12


 325              		.loc 1 304 15 is_stmt 0 discriminator 2 view .LVU112
 326 003e 80F82920 		strb	r2, [r0, #41]
 305:Drivers/STM32L4xx_HAL_Driver/Src/stm32l4xx_hal_rtc_ex.c **** 
 306:Drivers/STM32L4xx_HAL_Driver/Src/stm32l4xx_hal_rtc_ex.c ****   /* Process Unlocked */
 307:Drivers/STM32L4xx_HAL_Driver/Src/stm32l4xx_hal_rtc_ex.c ****   __HAL_UNLOCK(hrtc);
 327              		.loc 1 307 3 is_stmt 1 discriminator 2 view .LVU113
 328              		.loc 1 307 3 discriminator 2 view .LVU114
 329 0042 0023     		movs	r3, #0
 330 0044 80F82830 		strb	r3, [r0, #40]
 331              		.loc 1 307 3 discriminator 2 view .LVU115
 308:Drivers/STM32L4xx_HAL_Driver/Src/stm32l4xx_hal_rtc_ex.c **** 
 309:Drivers/STM32L4xx_HAL_Driver/Src/stm32l4xx_hal_rtc_ex.c ****   return HAL_OK;
 332              		.loc 1 309 3 discriminator 2 view .LVU116
 333              		.loc 1 309 10 is_stmt 0 discriminator 2 view .LVU117
 334 0048 1846     		mov	r0, r3
 335              	.LVL22:
 336              		.loc 1 309 10 discriminator 2 view .LVU118
 337 004a 7047     		bx	lr
 338              	.LVL23:
 339              	.L19:
 285:Drivers/STM32L4xx_HAL_Driver/Src/stm32l4xx_hal_rtc_ex.c **** 
 340              		.loc 1 285 3 view .LVU119
 341 004c 0220     		movs	r0, #2
 342              	.LVL24:
 310:Drivers/STM32L4xx_HAL_Driver/Src/stm32l4xx_hal_rtc_ex.c **** }
 343              		.loc 1 310 1 view .LVU120
 344 004e 7047     		bx	lr
 345              		.cfi_endproc
 346              	.LFE134:
 348              		.section	.text.HAL_RTCEx_SetInternalTimeStamp,"ax",%progbits
 349              		.align	1
 350              		.global	HAL_RTCEx_SetInternalTimeStamp
 351              		.syntax unified
 352              		.thumb
 353              		.thumb_func
 354              		.fpu fpv4-sp-d16
 356              	HAL_RTCEx_SetInternalTimeStamp:
 357              	.LVL25:
 358              	.LFB135:
 311:Drivers/STM32L4xx_HAL_Driver/Src/stm32l4xx_hal_rtc_ex.c **** 
 312:Drivers/STM32L4xx_HAL_Driver/Src/stm32l4xx_hal_rtc_ex.c **** /**
 313:Drivers/STM32L4xx_HAL_Driver/Src/stm32l4xx_hal_rtc_ex.c ****   * @brief  Set Internal TimeStamp.
 314:Drivers/STM32L4xx_HAL_Driver/Src/stm32l4xx_hal_rtc_ex.c ****   * @note   This API must be called before enabling the internal TimeStamp feature.
 315:Drivers/STM32L4xx_HAL_Driver/Src/stm32l4xx_hal_rtc_ex.c ****   * @param  hrtc RTC handle
 316:Drivers/STM32L4xx_HAL_Driver/Src/stm32l4xx_hal_rtc_ex.c ****   * @retval HAL status
 317:Drivers/STM32L4xx_HAL_Driver/Src/stm32l4xx_hal_rtc_ex.c ****   */
 318:Drivers/STM32L4xx_HAL_Driver/Src/stm32l4xx_hal_rtc_ex.c **** HAL_StatusTypeDef HAL_RTCEx_SetInternalTimeStamp(RTC_HandleTypeDef *hrtc)
 319:Drivers/STM32L4xx_HAL_Driver/Src/stm32l4xx_hal_rtc_ex.c **** {
 359              		.loc 1 319 1 is_stmt 1 view -0
 360              		.cfi_startproc
 361              		@ args = 0, pretend = 0, frame = 0
 362              		@ frame_needed = 0, uses_anonymous_args = 0
 363              		@ link register save eliminated.
 320:Drivers/STM32L4xx_HAL_Driver/Src/stm32l4xx_hal_rtc_ex.c ****   /* Process Locked */
 321:Drivers/STM32L4xx_HAL_Driver/Src/stm32l4xx_hal_rtc_ex.c ****   __HAL_LOCK(hrtc);
 364              		.loc 1 321 3 view .LVU122
 365              		.loc 1 321 3 view .LVU123
ARM GAS  /tmp/cc49nhBG.s 			page 13


 366 0000 90F82830 		ldrb	r3, [r0, #40]	@ zero_extendqisi2
 367 0004 012B     		cmp	r3, #1
 368 0006 1AD0     		beq	.L22
 369              		.loc 1 321 3 discriminator 2 view .LVU124
 370 0008 0122     		movs	r2, #1
 371 000a 80F82820 		strb	r2, [r0, #40]
 372              		.loc 1 321 3 discriminator 2 view .LVU125
 322:Drivers/STM32L4xx_HAL_Driver/Src/stm32l4xx_hal_rtc_ex.c **** 
 323:Drivers/STM32L4xx_HAL_Driver/Src/stm32l4xx_hal_rtc_ex.c ****   hrtc->State = HAL_RTC_STATE_BUSY;
 373              		.loc 1 323 3 discriminator 2 view .LVU126
 374              		.loc 1 323 15 is_stmt 0 discriminator 2 view .LVU127
 375 000e 0223     		movs	r3, #2
 376 0010 80F82930 		strb	r3, [r0, #41]
 324:Drivers/STM32L4xx_HAL_Driver/Src/stm32l4xx_hal_rtc_ex.c **** 
 325:Drivers/STM32L4xx_HAL_Driver/Src/stm32l4xx_hal_rtc_ex.c ****   /* Disable the write protection for RTC registers */
 326:Drivers/STM32L4xx_HAL_Driver/Src/stm32l4xx_hal_rtc_ex.c ****   __HAL_RTC_WRITEPROTECTION_DISABLE(hrtc);
 377              		.loc 1 326 3 is_stmt 1 discriminator 2 view .LVU128
 378              		.loc 1 326 3 discriminator 2 view .LVU129
 379 0014 0368     		ldr	r3, [r0]
 380 0016 CA21     		movs	r1, #202
 381 0018 5962     		str	r1, [r3, #36]
 382              		.loc 1 326 3 discriminator 2 view .LVU130
 383 001a 0368     		ldr	r3, [r0]
 384 001c 5321     		movs	r1, #83
 385 001e 5962     		str	r1, [r3, #36]
 386              		.loc 1 326 3 discriminator 2 view .LVU131
 327:Drivers/STM32L4xx_HAL_Driver/Src/stm32l4xx_hal_rtc_ex.c **** 
 328:Drivers/STM32L4xx_HAL_Driver/Src/stm32l4xx_hal_rtc_ex.c ****   /* Configure the internal Time Stamp Enable bits */
 329:Drivers/STM32L4xx_HAL_Driver/Src/stm32l4xx_hal_rtc_ex.c ****   __HAL_RTC_INTERNAL_TIMESTAMP_ENABLE(hrtc);
 387              		.loc 1 329 3 discriminator 2 view .LVU132
 388 0020 0168     		ldr	r1, [r0]
 389 0022 8B69     		ldr	r3, [r1, #24]
 390 0024 43F08073 		orr	r3, r3, #16777216
 391 0028 8B61     		str	r3, [r1, #24]
 330:Drivers/STM32L4xx_HAL_Driver/Src/stm32l4xx_hal_rtc_ex.c **** 
 331:Drivers/STM32L4xx_HAL_Driver/Src/stm32l4xx_hal_rtc_ex.c ****   /* Enable the write protection for RTC registers */
 332:Drivers/STM32L4xx_HAL_Driver/Src/stm32l4xx_hal_rtc_ex.c ****   __HAL_RTC_WRITEPROTECTION_ENABLE(hrtc);
 392              		.loc 1 332 3 discriminator 2 view .LVU133
 393              		.loc 1 332 3 discriminator 2 view .LVU134
 394 002a 0368     		ldr	r3, [r0]
 395 002c FF21     		movs	r1, #255
 396 002e 5962     		str	r1, [r3, #36]
 397              		.loc 1 332 3 discriminator 2 view .LVU135
 333:Drivers/STM32L4xx_HAL_Driver/Src/stm32l4xx_hal_rtc_ex.c **** 
 334:Drivers/STM32L4xx_HAL_Driver/Src/stm32l4xx_hal_rtc_ex.c ****   /* Change RTC state */
 335:Drivers/STM32L4xx_HAL_Driver/Src/stm32l4xx_hal_rtc_ex.c ****   hrtc->State = HAL_RTC_STATE_READY;
 398              		.loc 1 335 3 discriminator 2 view .LVU136
 399              		.loc 1 335 15 is_stmt 0 discriminator 2 view .LVU137
 400 0030 80F82920 		strb	r2, [r0, #41]
 336:Drivers/STM32L4xx_HAL_Driver/Src/stm32l4xx_hal_rtc_ex.c **** 
 337:Drivers/STM32L4xx_HAL_Driver/Src/stm32l4xx_hal_rtc_ex.c ****   /* Process Unlocked */
 338:Drivers/STM32L4xx_HAL_Driver/Src/stm32l4xx_hal_rtc_ex.c ****   __HAL_UNLOCK(hrtc);
 401              		.loc 1 338 3 is_stmt 1 discriminator 2 view .LVU138
 402              		.loc 1 338 3 discriminator 2 view .LVU139
 403 0034 0023     		movs	r3, #0
 404 0036 80F82830 		strb	r3, [r0, #40]
 405              		.loc 1 338 3 discriminator 2 view .LVU140
ARM GAS  /tmp/cc49nhBG.s 			page 14


 339:Drivers/STM32L4xx_HAL_Driver/Src/stm32l4xx_hal_rtc_ex.c **** 
 340:Drivers/STM32L4xx_HAL_Driver/Src/stm32l4xx_hal_rtc_ex.c ****   return HAL_OK;
 406              		.loc 1 340 3 discriminator 2 view .LVU141
 407              		.loc 1 340 10 is_stmt 0 discriminator 2 view .LVU142
 408 003a 1846     		mov	r0, r3
 409              	.LVL26:
 410              		.loc 1 340 10 discriminator 2 view .LVU143
 411 003c 7047     		bx	lr
 412              	.LVL27:
 413              	.L22:
 321:Drivers/STM32L4xx_HAL_Driver/Src/stm32l4xx_hal_rtc_ex.c **** 
 414              		.loc 1 321 3 view .LVU144
 415 003e 0220     		movs	r0, #2
 416              	.LVL28:
 341:Drivers/STM32L4xx_HAL_Driver/Src/stm32l4xx_hal_rtc_ex.c **** }
 417              		.loc 1 341 1 view .LVU145
 418 0040 7047     		bx	lr
 419              		.cfi_endproc
 420              	.LFE135:
 422              		.section	.text.HAL_RTCEx_DeactivateInternalTimeStamp,"ax",%progbits
 423              		.align	1
 424              		.global	HAL_RTCEx_DeactivateInternalTimeStamp
 425              		.syntax unified
 426              		.thumb
 427              		.thumb_func
 428              		.fpu fpv4-sp-d16
 430              	HAL_RTCEx_DeactivateInternalTimeStamp:
 431              	.LVL29:
 432              	.LFB136:
 342:Drivers/STM32L4xx_HAL_Driver/Src/stm32l4xx_hal_rtc_ex.c **** 
 343:Drivers/STM32L4xx_HAL_Driver/Src/stm32l4xx_hal_rtc_ex.c **** /**
 344:Drivers/STM32L4xx_HAL_Driver/Src/stm32l4xx_hal_rtc_ex.c ****   * @brief  Deactivate Internal TimeStamp.
 345:Drivers/STM32L4xx_HAL_Driver/Src/stm32l4xx_hal_rtc_ex.c ****   * @param  hrtc RTC handle
 346:Drivers/STM32L4xx_HAL_Driver/Src/stm32l4xx_hal_rtc_ex.c ****   * @retval HAL status
 347:Drivers/STM32L4xx_HAL_Driver/Src/stm32l4xx_hal_rtc_ex.c ****   */
 348:Drivers/STM32L4xx_HAL_Driver/Src/stm32l4xx_hal_rtc_ex.c **** HAL_StatusTypeDef HAL_RTCEx_DeactivateInternalTimeStamp(RTC_HandleTypeDef *hrtc)
 349:Drivers/STM32L4xx_HAL_Driver/Src/stm32l4xx_hal_rtc_ex.c **** {
 433              		.loc 1 349 1 is_stmt 1 view -0
 434              		.cfi_startproc
 435              		@ args = 0, pretend = 0, frame = 0
 436              		@ frame_needed = 0, uses_anonymous_args = 0
 437              		@ link register save eliminated.
 350:Drivers/STM32L4xx_HAL_Driver/Src/stm32l4xx_hal_rtc_ex.c ****   /* Process Locked */
 351:Drivers/STM32L4xx_HAL_Driver/Src/stm32l4xx_hal_rtc_ex.c ****   __HAL_LOCK(hrtc);
 438              		.loc 1 351 3 view .LVU147
 439              		.loc 1 351 3 view .LVU148
 440 0000 90F82830 		ldrb	r3, [r0, #40]	@ zero_extendqisi2
 441 0004 012B     		cmp	r3, #1
 442 0006 1AD0     		beq	.L25
 443              		.loc 1 351 3 discriminator 2 view .LVU149
 444 0008 0122     		movs	r2, #1
 445 000a 80F82820 		strb	r2, [r0, #40]
 446              		.loc 1 351 3 discriminator 2 view .LVU150
 352:Drivers/STM32L4xx_HAL_Driver/Src/stm32l4xx_hal_rtc_ex.c **** 
 353:Drivers/STM32L4xx_HAL_Driver/Src/stm32l4xx_hal_rtc_ex.c ****   hrtc->State = HAL_RTC_STATE_BUSY;
 447              		.loc 1 353 3 discriminator 2 view .LVU151
 448              		.loc 1 353 15 is_stmt 0 discriminator 2 view .LVU152
ARM GAS  /tmp/cc49nhBG.s 			page 15


 449 000e 0223     		movs	r3, #2
 450 0010 80F82930 		strb	r3, [r0, #41]
 354:Drivers/STM32L4xx_HAL_Driver/Src/stm32l4xx_hal_rtc_ex.c **** 
 355:Drivers/STM32L4xx_HAL_Driver/Src/stm32l4xx_hal_rtc_ex.c ****   /* Disable the write protection for RTC registers */
 356:Drivers/STM32L4xx_HAL_Driver/Src/stm32l4xx_hal_rtc_ex.c ****   __HAL_RTC_WRITEPROTECTION_DISABLE(hrtc);
 451              		.loc 1 356 3 is_stmt 1 discriminator 2 view .LVU153
 452              		.loc 1 356 3 discriminator 2 view .LVU154
 453 0014 0368     		ldr	r3, [r0]
 454 0016 CA21     		movs	r1, #202
 455 0018 5962     		str	r1, [r3, #36]
 456              		.loc 1 356 3 discriminator 2 view .LVU155
 457 001a 0368     		ldr	r3, [r0]
 458 001c 5321     		movs	r1, #83
 459 001e 5962     		str	r1, [r3, #36]
 460              		.loc 1 356 3 discriminator 2 view .LVU156
 357:Drivers/STM32L4xx_HAL_Driver/Src/stm32l4xx_hal_rtc_ex.c **** 
 358:Drivers/STM32L4xx_HAL_Driver/Src/stm32l4xx_hal_rtc_ex.c ****   /* Configure the internal Time Stamp Enable bits */
 359:Drivers/STM32L4xx_HAL_Driver/Src/stm32l4xx_hal_rtc_ex.c ****   __HAL_RTC_INTERNAL_TIMESTAMP_DISABLE(hrtc);
 461              		.loc 1 359 3 discriminator 2 view .LVU157
 462 0020 0168     		ldr	r1, [r0]
 463 0022 8B69     		ldr	r3, [r1, #24]
 464 0024 23F08073 		bic	r3, r3, #16777216
 465 0028 8B61     		str	r3, [r1, #24]
 360:Drivers/STM32L4xx_HAL_Driver/Src/stm32l4xx_hal_rtc_ex.c **** 
 361:Drivers/STM32L4xx_HAL_Driver/Src/stm32l4xx_hal_rtc_ex.c ****   /* Enable the write protection for RTC registers */
 362:Drivers/STM32L4xx_HAL_Driver/Src/stm32l4xx_hal_rtc_ex.c ****   __HAL_RTC_WRITEPROTECTION_ENABLE(hrtc);
 466              		.loc 1 362 3 discriminator 2 view .LVU158
 467              		.loc 1 362 3 discriminator 2 view .LVU159
 468 002a 0368     		ldr	r3, [r0]
 469 002c FF21     		movs	r1, #255
 470 002e 5962     		str	r1, [r3, #36]
 471              		.loc 1 362 3 discriminator 2 view .LVU160
 363:Drivers/STM32L4xx_HAL_Driver/Src/stm32l4xx_hal_rtc_ex.c **** 
 364:Drivers/STM32L4xx_HAL_Driver/Src/stm32l4xx_hal_rtc_ex.c ****   hrtc->State = HAL_RTC_STATE_READY;
 472              		.loc 1 364 3 discriminator 2 view .LVU161
 473              		.loc 1 364 15 is_stmt 0 discriminator 2 view .LVU162
 474 0030 80F82920 		strb	r2, [r0, #41]
 365:Drivers/STM32L4xx_HAL_Driver/Src/stm32l4xx_hal_rtc_ex.c **** 
 366:Drivers/STM32L4xx_HAL_Driver/Src/stm32l4xx_hal_rtc_ex.c ****   /* Process Unlocked */
 367:Drivers/STM32L4xx_HAL_Driver/Src/stm32l4xx_hal_rtc_ex.c ****   __HAL_UNLOCK(hrtc);
 475              		.loc 1 367 3 is_stmt 1 discriminator 2 view .LVU163
 476              		.loc 1 367 3 discriminator 2 view .LVU164
 477 0034 0023     		movs	r3, #0
 478 0036 80F82830 		strb	r3, [r0, #40]
 479              		.loc 1 367 3 discriminator 2 view .LVU165
 368:Drivers/STM32L4xx_HAL_Driver/Src/stm32l4xx_hal_rtc_ex.c **** 
 369:Drivers/STM32L4xx_HAL_Driver/Src/stm32l4xx_hal_rtc_ex.c ****   return HAL_OK;
 480              		.loc 1 369 3 discriminator 2 view .LVU166
 481              		.loc 1 369 10 is_stmt 0 discriminator 2 view .LVU167
 482 003a 1846     		mov	r0, r3
 483              	.LVL30:
 484              		.loc 1 369 10 discriminator 2 view .LVU168
 485 003c 7047     		bx	lr
 486              	.LVL31:
 487              	.L25:
 351:Drivers/STM32L4xx_HAL_Driver/Src/stm32l4xx_hal_rtc_ex.c **** 
 488              		.loc 1 351 3 view .LVU169
ARM GAS  /tmp/cc49nhBG.s 			page 16


 489 003e 0220     		movs	r0, #2
 490              	.LVL32:
 370:Drivers/STM32L4xx_HAL_Driver/Src/stm32l4xx_hal_rtc_ex.c **** }
 491              		.loc 1 370 1 view .LVU170
 492 0040 7047     		bx	lr
 493              		.cfi_endproc
 494              	.LFE136:
 496              		.section	.text.HAL_RTCEx_GetTimeStamp,"ax",%progbits
 497              		.align	1
 498              		.global	HAL_RTCEx_GetTimeStamp
 499              		.syntax unified
 500              		.thumb
 501              		.thumb_func
 502              		.fpu fpv4-sp-d16
 504              	HAL_RTCEx_GetTimeStamp:
 505              	.LVL33:
 506              	.LFB137:
 371:Drivers/STM32L4xx_HAL_Driver/Src/stm32l4xx_hal_rtc_ex.c **** 
 372:Drivers/STM32L4xx_HAL_Driver/Src/stm32l4xx_hal_rtc_ex.c **** #if defined (STM32L4P5xx) || defined (STM32L4Q5xx)
 373:Drivers/STM32L4xx_HAL_Driver/Src/stm32l4xx_hal_rtc_ex.c **** /**
 374:Drivers/STM32L4xx_HAL_Driver/Src/stm32l4xx_hal_rtc_ex.c ****   * @brief  Get the RTC TimeStamp value.
 375:Drivers/STM32L4xx_HAL_Driver/Src/stm32l4xx_hal_rtc_ex.c ****   * @param  hrtc RTC handle
 376:Drivers/STM32L4xx_HAL_Driver/Src/stm32l4xx_hal_rtc_ex.c ****   * @param  sTimeStamp Pointer to Time structure
 377:Drivers/STM32L4xx_HAL_Driver/Src/stm32l4xx_hal_rtc_ex.c ****   *          if BinMode = RTC_BINARY_ONLY, sTimeStamp->SubSeconds only is used
 378:Drivers/STM32L4xx_HAL_Driver/Src/stm32l4xx_hal_rtc_ex.c ****   * @param  sTimeStampDate Pointer to Date structure
 379:Drivers/STM32L4xx_HAL_Driver/Src/stm32l4xx_hal_rtc_ex.c ****   *          if BinMode = RTC_BINARY_ONLY, this parameter is not used.
 380:Drivers/STM32L4xx_HAL_Driver/Src/stm32l4xx_hal_rtc_ex.c ****   * @param  Format specifies the format of the entered parameters.
 381:Drivers/STM32L4xx_HAL_Driver/Src/stm32l4xx_hal_rtc_ex.c ****   *          if BinMode = RTC_BINARY_ONLY, this parameter is not used
 382:Drivers/STM32L4xx_HAL_Driver/Src/stm32l4xx_hal_rtc_ex.c ****   *          else this parameter can be one of the following values
 383:Drivers/STM32L4xx_HAL_Driver/Src/stm32l4xx_hal_rtc_ex.c ****   *             @arg RTC_FORMAT_BIN: Binary data format
 384:Drivers/STM32L4xx_HAL_Driver/Src/stm32l4xx_hal_rtc_ex.c ****   *             @arg RTC_FORMAT_BCD: BCD data format
 385:Drivers/STM32L4xx_HAL_Driver/Src/stm32l4xx_hal_rtc_ex.c ****   * @retval HAL status
 386:Drivers/STM32L4xx_HAL_Driver/Src/stm32l4xx_hal_rtc_ex.c ****   */
 387:Drivers/STM32L4xx_HAL_Driver/Src/stm32l4xx_hal_rtc_ex.c **** HAL_StatusTypeDef HAL_RTCEx_GetTimeStamp(RTC_HandleTypeDef *hrtc, RTC_TimeTypeDef *sTimeStamp, RTC_
 388:Drivers/STM32L4xx_HAL_Driver/Src/stm32l4xx_hal_rtc_ex.c **** {
 389:Drivers/STM32L4xx_HAL_Driver/Src/stm32l4xx_hal_rtc_ex.c ****   uint32_t tmptime, tmpdate;
 390:Drivers/STM32L4xx_HAL_Driver/Src/stm32l4xx_hal_rtc_ex.c ****   UNUSED(hrtc);
 391:Drivers/STM32L4xx_HAL_Driver/Src/stm32l4xx_hal_rtc_ex.c **** 
 392:Drivers/STM32L4xx_HAL_Driver/Src/stm32l4xx_hal_rtc_ex.c ****   sTimeStamp->SubSeconds = READ_REG(RTC->TSSSR);
 393:Drivers/STM32L4xx_HAL_Driver/Src/stm32l4xx_hal_rtc_ex.c ****   if (READ_BIT(RTC->ICSR, RTC_ICSR_BIN) != RTC_BINARY_ONLY)
 394:Drivers/STM32L4xx_HAL_Driver/Src/stm32l4xx_hal_rtc_ex.c ****   {
 395:Drivers/STM32L4xx_HAL_Driver/Src/stm32l4xx_hal_rtc_ex.c ****     /* Check the parameters */
 396:Drivers/STM32L4xx_HAL_Driver/Src/stm32l4xx_hal_rtc_ex.c ****     assert_param(IS_RTC_FORMAT(Format));
 397:Drivers/STM32L4xx_HAL_Driver/Src/stm32l4xx_hal_rtc_ex.c **** 
 398:Drivers/STM32L4xx_HAL_Driver/Src/stm32l4xx_hal_rtc_ex.c ****     /* Get the TimeStamp time and date registers values */
 399:Drivers/STM32L4xx_HAL_Driver/Src/stm32l4xx_hal_rtc_ex.c ****     tmptime = READ_BIT(RTC->TSTR, RTC_TR_RESERVED_MASK);
 400:Drivers/STM32L4xx_HAL_Driver/Src/stm32l4xx_hal_rtc_ex.c ****     tmpdate = READ_BIT(RTC->TSDR, RTC_DR_RESERVED_MASK);
 401:Drivers/STM32L4xx_HAL_Driver/Src/stm32l4xx_hal_rtc_ex.c **** 
 402:Drivers/STM32L4xx_HAL_Driver/Src/stm32l4xx_hal_rtc_ex.c ****     /* Fill the Time structure fields with the read parameters */
 403:Drivers/STM32L4xx_HAL_Driver/Src/stm32l4xx_hal_rtc_ex.c ****     sTimeStamp->Hours = (uint8_t)((tmptime & (RTC_TSTR_HT | RTC_TSTR_HU)) >> RTC_TSTR_HU_Pos);
 404:Drivers/STM32L4xx_HAL_Driver/Src/stm32l4xx_hal_rtc_ex.c ****     sTimeStamp->Minutes = (uint8_t)((tmptime & (RTC_TSTR_MNT | RTC_TSTR_MNU)) >> RTC_TSTR_MNU_Pos);
 405:Drivers/STM32L4xx_HAL_Driver/Src/stm32l4xx_hal_rtc_ex.c ****     sTimeStamp->Seconds = (uint8_t)((tmptime & (RTC_TSTR_ST | RTC_TSTR_SU)) >> RTC_TSTR_SU_Pos);
 406:Drivers/STM32L4xx_HAL_Driver/Src/stm32l4xx_hal_rtc_ex.c ****     sTimeStamp->TimeFormat = (uint8_t)((tmptime & (RTC_TSTR_PM)) >> RTC_TSTR_PM_Pos);
 407:Drivers/STM32L4xx_HAL_Driver/Src/stm32l4xx_hal_rtc_ex.c ****     sTimeStamp->SubSeconds = READ_BIT(RTC->TSSSR, RTC_TSSSR_SS);
 408:Drivers/STM32L4xx_HAL_Driver/Src/stm32l4xx_hal_rtc_ex.c **** 
 409:Drivers/STM32L4xx_HAL_Driver/Src/stm32l4xx_hal_rtc_ex.c ****     /* Fill the Date structure fields with the read parameters */
 410:Drivers/STM32L4xx_HAL_Driver/Src/stm32l4xx_hal_rtc_ex.c ****     sTimeStampDate->Year = 0U;
ARM GAS  /tmp/cc49nhBG.s 			page 17


 411:Drivers/STM32L4xx_HAL_Driver/Src/stm32l4xx_hal_rtc_ex.c ****     sTimeStampDate->Month = (uint8_t)((tmpdate & (RTC_TSDR_MT | RTC_TSDR_MU)) >> RTC_TSDR_MU_Pos);
 412:Drivers/STM32L4xx_HAL_Driver/Src/stm32l4xx_hal_rtc_ex.c ****     sTimeStampDate->Date = (uint8_t)(tmpdate & (RTC_TSDR_DT | RTC_TSDR_DU));
 413:Drivers/STM32L4xx_HAL_Driver/Src/stm32l4xx_hal_rtc_ex.c ****     sTimeStampDate->WeekDay = (uint8_t)((tmpdate & (RTC_TSDR_WDU)) >> RTC_TSDR_WDU_Pos);
 414:Drivers/STM32L4xx_HAL_Driver/Src/stm32l4xx_hal_rtc_ex.c **** 
 415:Drivers/STM32L4xx_HAL_Driver/Src/stm32l4xx_hal_rtc_ex.c ****     /* Check the input parameters format */
 416:Drivers/STM32L4xx_HAL_Driver/Src/stm32l4xx_hal_rtc_ex.c ****     if (Format == RTC_FORMAT_BIN)
 417:Drivers/STM32L4xx_HAL_Driver/Src/stm32l4xx_hal_rtc_ex.c ****     {
 418:Drivers/STM32L4xx_HAL_Driver/Src/stm32l4xx_hal_rtc_ex.c ****       /* Convert the TimeStamp structure parameters to Binary format */
 419:Drivers/STM32L4xx_HAL_Driver/Src/stm32l4xx_hal_rtc_ex.c ****       sTimeStamp->Hours = (uint8_t)RTC_Bcd2ToByte(sTimeStamp->Hours);
 420:Drivers/STM32L4xx_HAL_Driver/Src/stm32l4xx_hal_rtc_ex.c ****       sTimeStamp->Minutes = (uint8_t)RTC_Bcd2ToByte(sTimeStamp->Minutes);
 421:Drivers/STM32L4xx_HAL_Driver/Src/stm32l4xx_hal_rtc_ex.c ****       sTimeStamp->Seconds = (uint8_t)RTC_Bcd2ToByte(sTimeStamp->Seconds);
 422:Drivers/STM32L4xx_HAL_Driver/Src/stm32l4xx_hal_rtc_ex.c **** 
 423:Drivers/STM32L4xx_HAL_Driver/Src/stm32l4xx_hal_rtc_ex.c ****       /* Convert the DateTimeStamp structure parameters to Binary format */
 424:Drivers/STM32L4xx_HAL_Driver/Src/stm32l4xx_hal_rtc_ex.c ****       sTimeStampDate->Month = (uint8_t)RTC_Bcd2ToByte(sTimeStampDate->Month);
 425:Drivers/STM32L4xx_HAL_Driver/Src/stm32l4xx_hal_rtc_ex.c ****       sTimeStampDate->Date = (uint8_t)RTC_Bcd2ToByte(sTimeStampDate->Date);
 426:Drivers/STM32L4xx_HAL_Driver/Src/stm32l4xx_hal_rtc_ex.c ****       sTimeStampDate->WeekDay = (uint8_t)RTC_Bcd2ToByte(sTimeStampDate->WeekDay);
 427:Drivers/STM32L4xx_HAL_Driver/Src/stm32l4xx_hal_rtc_ex.c ****     }
 428:Drivers/STM32L4xx_HAL_Driver/Src/stm32l4xx_hal_rtc_ex.c ****   }
 429:Drivers/STM32L4xx_HAL_Driver/Src/stm32l4xx_hal_rtc_ex.c **** 
 430:Drivers/STM32L4xx_HAL_Driver/Src/stm32l4xx_hal_rtc_ex.c ****   /* Clear the TIMESTAMP Flags */
 431:Drivers/STM32L4xx_HAL_Driver/Src/stm32l4xx_hal_rtc_ex.c ****   WRITE_REG(RTC->SCR, (RTC_SCR_CITSF | RTC_SCR_CTSF));
 432:Drivers/STM32L4xx_HAL_Driver/Src/stm32l4xx_hal_rtc_ex.c **** 
 433:Drivers/STM32L4xx_HAL_Driver/Src/stm32l4xx_hal_rtc_ex.c ****   return HAL_OK;
 434:Drivers/STM32L4xx_HAL_Driver/Src/stm32l4xx_hal_rtc_ex.c **** }
 435:Drivers/STM32L4xx_HAL_Driver/Src/stm32l4xx_hal_rtc_ex.c **** #else /* #if defined (STM32L4P5xx) || defined (STM32L4Q5xx) */
 436:Drivers/STM32L4xx_HAL_Driver/Src/stm32l4xx_hal_rtc_ex.c **** 
 437:Drivers/STM32L4xx_HAL_Driver/Src/stm32l4xx_hal_rtc_ex.c **** /**
 438:Drivers/STM32L4xx_HAL_Driver/Src/stm32l4xx_hal_rtc_ex.c ****   * @brief  Get the RTC TimeStamp value.
 439:Drivers/STM32L4xx_HAL_Driver/Src/stm32l4xx_hal_rtc_ex.c ****   * @param  hrtc RTC handle
 440:Drivers/STM32L4xx_HAL_Driver/Src/stm32l4xx_hal_rtc_ex.c ****   * @param  sTimeStamp Pointer to Time structure
 441:Drivers/STM32L4xx_HAL_Driver/Src/stm32l4xx_hal_rtc_ex.c ****   * @param  sTimeStampDate Pointer to Date structure
 442:Drivers/STM32L4xx_HAL_Driver/Src/stm32l4xx_hal_rtc_ex.c ****   * @param  Format specifies the format of the entered parameters.
 443:Drivers/STM32L4xx_HAL_Driver/Src/stm32l4xx_hal_rtc_ex.c ****   *          This parameter can be one of the following values:
 444:Drivers/STM32L4xx_HAL_Driver/Src/stm32l4xx_hal_rtc_ex.c ****   *             @arg RTC_FORMAT_BIN: Binary data format
 445:Drivers/STM32L4xx_HAL_Driver/Src/stm32l4xx_hal_rtc_ex.c ****   *             @arg RTC_FORMAT_BCD: BCD data format
 446:Drivers/STM32L4xx_HAL_Driver/Src/stm32l4xx_hal_rtc_ex.c ****   * @retval HAL status
 447:Drivers/STM32L4xx_HAL_Driver/Src/stm32l4xx_hal_rtc_ex.c ****   */
 448:Drivers/STM32L4xx_HAL_Driver/Src/stm32l4xx_hal_rtc_ex.c **** HAL_StatusTypeDef HAL_RTCEx_GetTimeStamp(RTC_HandleTypeDef *hrtc, RTC_TimeTypeDef *sTimeStamp, RTC_
 449:Drivers/STM32L4xx_HAL_Driver/Src/stm32l4xx_hal_rtc_ex.c **** {
 507              		.loc 1 449 1 is_stmt 1 view -0
 508              		.cfi_startproc
 509              		@ args = 0, pretend = 0, frame = 0
 510              		@ frame_needed = 0, uses_anonymous_args = 0
 511              		.loc 1 449 1 is_stmt 0 view .LVU172
 512 0000 70B5     		push	{r4, r5, r6, lr}
 513              	.LCFI4:
 514              		.cfi_def_cfa_offset 16
 515              		.cfi_offset 4, -16
 516              		.cfi_offset 5, -12
 517              		.cfi_offset 6, -8
 518              		.cfi_offset 14, -4
 519 0002 0646     		mov	r6, r0
 520 0004 0C46     		mov	r4, r1
 521 0006 1546     		mov	r5, r2
 450:Drivers/STM32L4xx_HAL_Driver/Src/stm32l4xx_hal_rtc_ex.c ****   uint32_t tmptime, tmpdate;
 522              		.loc 1 450 3 is_stmt 1 view .LVU173
 451:Drivers/STM32L4xx_HAL_Driver/Src/stm32l4xx_hal_rtc_ex.c **** 
ARM GAS  /tmp/cc49nhBG.s 			page 18


 452:Drivers/STM32L4xx_HAL_Driver/Src/stm32l4xx_hal_rtc_ex.c ****   /* Check the parameters */
 453:Drivers/STM32L4xx_HAL_Driver/Src/stm32l4xx_hal_rtc_ex.c ****   assert_param(IS_RTC_FORMAT(Format));
 523              		.loc 1 453 3 view .LVU174
 454:Drivers/STM32L4xx_HAL_Driver/Src/stm32l4xx_hal_rtc_ex.c **** 
 455:Drivers/STM32L4xx_HAL_Driver/Src/stm32l4xx_hal_rtc_ex.c ****   /* Get the TimeStamp time and date registers values */
 456:Drivers/STM32L4xx_HAL_Driver/Src/stm32l4xx_hal_rtc_ex.c ****   tmptime = (uint32_t)(hrtc->Instance->TSTR & RTC_TR_RESERVED_MASK);
 524              		.loc 1 456 3 view .LVU175
 525              		.loc 1 456 28 is_stmt 0 view .LVU176
 526 0008 0168     		ldr	r1, [r0]
 527              	.LVL34:
 528              		.loc 1 456 38 view .LVU177
 529 000a 0A6B     		ldr	r2, [r1, #48]
 530              	.LVL35:
 457:Drivers/STM32L4xx_HAL_Driver/Src/stm32l4xx_hal_rtc_ex.c ****   tmpdate = (uint32_t)(hrtc->Instance->TSDR & RTC_DR_RESERVED_MASK);
 531              		.loc 1 457 3 is_stmt 1 view .LVU178
 532              		.loc 1 457 38 is_stmt 0 view .LVU179
 533 000c 496B     		ldr	r1, [r1, #52]
 534              	.LVL36:
 458:Drivers/STM32L4xx_HAL_Driver/Src/stm32l4xx_hal_rtc_ex.c **** 
 459:Drivers/STM32L4xx_HAL_Driver/Src/stm32l4xx_hal_rtc_ex.c ****   /* Fill the Time structure fields with the read parameters */
 460:Drivers/STM32L4xx_HAL_Driver/Src/stm32l4xx_hal_rtc_ex.c ****   sTimeStamp->Hours = (uint8_t)((tmptime & (RTC_TSTR_HT | RTC_TSTR_HU)) >> RTC_TSTR_HU_Pos);
 535              		.loc 1 460 3 is_stmt 1 view .LVU180
 536              		.loc 1 460 23 is_stmt 0 view .LVU181
 537 000e C2F30540 		ubfx	r0, r2, #16, #6
 538              	.LVL37:
 539              		.loc 1 460 21 view .LVU182
 540 0012 2070     		strb	r0, [r4]
 461:Drivers/STM32L4xx_HAL_Driver/Src/stm32l4xx_hal_rtc_ex.c ****   sTimeStamp->Minutes = (uint8_t)((tmptime & (RTC_TSTR_MNT | RTC_TSTR_MNU)) >> RTC_TSTR_MNU_Pos);
 541              		.loc 1 461 3 is_stmt 1 view .LVU183
 542              		.loc 1 461 25 is_stmt 0 view .LVU184
 543 0014 C2F30620 		ubfx	r0, r2, #8, #7
 544              		.loc 1 461 23 view .LVU185
 545 0018 6070     		strb	r0, [r4, #1]
 462:Drivers/STM32L4xx_HAL_Driver/Src/stm32l4xx_hal_rtc_ex.c ****   sTimeStamp->Seconds = (uint8_t)((tmptime & (RTC_TSTR_ST | RTC_TSTR_SU)) >> RTC_TSTR_SU_Pos);
 546              		.loc 1 462 3 is_stmt 1 view .LVU186
 547              		.loc 1 462 25 is_stmt 0 view .LVU187
 548 001a 02F07F00 		and	r0, r2, #127
 549              		.loc 1 462 23 view .LVU188
 550 001e A070     		strb	r0, [r4, #2]
 463:Drivers/STM32L4xx_HAL_Driver/Src/stm32l4xx_hal_rtc_ex.c ****   sTimeStamp->TimeFormat = (uint8_t)((tmptime & (RTC_TSTR_PM)) >> RTC_TSTR_PM_Pos);
 551              		.loc 1 463 3 is_stmt 1 view .LVU189
 552              		.loc 1 463 28 is_stmt 0 view .LVU190
 553 0020 C2F38052 		ubfx	r2, r2, #22, #1
 554              	.LVL38:
 555              		.loc 1 463 26 view .LVU191
 556 0024 E270     		strb	r2, [r4, #3]
 464:Drivers/STM32L4xx_HAL_Driver/Src/stm32l4xx_hal_rtc_ex.c ****   sTimeStamp->SubSeconds = (uint32_t) hrtc->Instance->TSSSR;
 557              		.loc 1 464 3 is_stmt 1 view .LVU192
 558              		.loc 1 464 43 is_stmt 0 view .LVU193
 559 0026 3268     		ldr	r2, [r6]
 560              		.loc 1 464 53 view .LVU194
 561 0028 926B     		ldr	r2, [r2, #56]
 562              		.loc 1 464 26 view .LVU195
 563 002a 6260     		str	r2, [r4, #4]
 465:Drivers/STM32L4xx_HAL_Driver/Src/stm32l4xx_hal_rtc_ex.c **** 
 466:Drivers/STM32L4xx_HAL_Driver/Src/stm32l4xx_hal_rtc_ex.c ****   /* Fill the Date structure fields with the read parameters */
 467:Drivers/STM32L4xx_HAL_Driver/Src/stm32l4xx_hal_rtc_ex.c ****   sTimeStampDate->Year = 0U;
ARM GAS  /tmp/cc49nhBG.s 			page 19


 564              		.loc 1 467 3 is_stmt 1 view .LVU196
 565              		.loc 1 467 24 is_stmt 0 view .LVU197
 566 002c 0022     		movs	r2, #0
 567 002e EA70     		strb	r2, [r5, #3]
 468:Drivers/STM32L4xx_HAL_Driver/Src/stm32l4xx_hal_rtc_ex.c ****   sTimeStampDate->Month = (uint8_t)((tmpdate & (RTC_TSDR_MT | RTC_TSDR_MU)) >> RTC_TSDR_MU_Pos);
 568              		.loc 1 468 3 is_stmt 1 view .LVU198
 569              		.loc 1 468 27 is_stmt 0 view .LVU199
 570 0030 C1F30422 		ubfx	r2, r1, #8, #5
 571              		.loc 1 468 25 view .LVU200
 572 0034 6A70     		strb	r2, [r5, #1]
 469:Drivers/STM32L4xx_HAL_Driver/Src/stm32l4xx_hal_rtc_ex.c ****   sTimeStampDate->Date = (uint8_t)((tmpdate & (RTC_TSDR_DT | RTC_TSDR_DU)) >> RTC_TSDR_DU_Pos);
 573              		.loc 1 469 3 is_stmt 1 view .LVU201
 574              		.loc 1 469 26 is_stmt 0 view .LVU202
 575 0036 01F03F02 		and	r2, r1, #63
 576              		.loc 1 469 24 view .LVU203
 577 003a AA70     		strb	r2, [r5, #2]
 470:Drivers/STM32L4xx_HAL_Driver/Src/stm32l4xx_hal_rtc_ex.c ****   sTimeStampDate->WeekDay = (uint8_t)((tmpdate & (RTC_TSDR_WDU)) >> RTC_TSDR_WDU_Pos);
 578              		.loc 1 470 3 is_stmt 1 view .LVU204
 579              		.loc 1 470 29 is_stmt 0 view .LVU205
 580 003c C1F34231 		ubfx	r1, r1, #13, #3
 581              	.LVL39:
 582              		.loc 1 470 27 view .LVU206
 583 0040 2970     		strb	r1, [r5]
 471:Drivers/STM32L4xx_HAL_Driver/Src/stm32l4xx_hal_rtc_ex.c **** 
 472:Drivers/STM32L4xx_HAL_Driver/Src/stm32l4xx_hal_rtc_ex.c ****   /* Check the input parameters format */
 473:Drivers/STM32L4xx_HAL_Driver/Src/stm32l4xx_hal_rtc_ex.c ****   if (Format == RTC_FORMAT_BIN)
 584              		.loc 1 473 3 is_stmt 1 view .LVU207
 585              		.loc 1 473 6 is_stmt 0 view .LVU208
 586 0042 43B1     		cbz	r3, .L29
 587              	.LVL40:
 588              	.L27:
 474:Drivers/STM32L4xx_HAL_Driver/Src/stm32l4xx_hal_rtc_ex.c ****   {
 475:Drivers/STM32L4xx_HAL_Driver/Src/stm32l4xx_hal_rtc_ex.c ****     /* Convert the TimeStamp structure parameters to Binary format */
 476:Drivers/STM32L4xx_HAL_Driver/Src/stm32l4xx_hal_rtc_ex.c ****     sTimeStamp->Hours = (uint8_t)RTC_Bcd2ToByte(sTimeStamp->Hours);
 477:Drivers/STM32L4xx_HAL_Driver/Src/stm32l4xx_hal_rtc_ex.c ****     sTimeStamp->Minutes = (uint8_t)RTC_Bcd2ToByte(sTimeStamp->Minutes);
 478:Drivers/STM32L4xx_HAL_Driver/Src/stm32l4xx_hal_rtc_ex.c ****     sTimeStamp->Seconds = (uint8_t)RTC_Bcd2ToByte(sTimeStamp->Seconds);
 479:Drivers/STM32L4xx_HAL_Driver/Src/stm32l4xx_hal_rtc_ex.c **** 
 480:Drivers/STM32L4xx_HAL_Driver/Src/stm32l4xx_hal_rtc_ex.c ****     /* Convert the DateTimeStamp structure parameters to Binary format */
 481:Drivers/STM32L4xx_HAL_Driver/Src/stm32l4xx_hal_rtc_ex.c ****     sTimeStampDate->Month = (uint8_t)RTC_Bcd2ToByte(sTimeStampDate->Month);
 482:Drivers/STM32L4xx_HAL_Driver/Src/stm32l4xx_hal_rtc_ex.c ****     sTimeStampDate->Date = (uint8_t)RTC_Bcd2ToByte(sTimeStampDate->Date);
 483:Drivers/STM32L4xx_HAL_Driver/Src/stm32l4xx_hal_rtc_ex.c ****     sTimeStampDate->WeekDay = (uint8_t)RTC_Bcd2ToByte(sTimeStampDate->WeekDay);
 484:Drivers/STM32L4xx_HAL_Driver/Src/stm32l4xx_hal_rtc_ex.c ****   }
 485:Drivers/STM32L4xx_HAL_Driver/Src/stm32l4xx_hal_rtc_ex.c **** 
 486:Drivers/STM32L4xx_HAL_Driver/Src/stm32l4xx_hal_rtc_ex.c ****   /* Clear the TIMESTAMP Flags */
 487:Drivers/STM32L4xx_HAL_Driver/Src/stm32l4xx_hal_rtc_ex.c ****   __HAL_RTC_INTERNAL_TIMESTAMP_CLEAR_FLAG(hrtc, RTC_FLAG_ITSF);
 589              		.loc 1 487 3 is_stmt 1 view .LVU209
 590 0044 3368     		ldr	r3, [r6]
 591 0046 2022     		movs	r2, #32
 592 0048 DA65     		str	r2, [r3, #92]
 488:Drivers/STM32L4xx_HAL_Driver/Src/stm32l4xx_hal_rtc_ex.c ****   __HAL_RTC_TIMESTAMP_CLEAR_FLAG(hrtc, RTC_FLAG_TSF);
 593              		.loc 1 488 3 view .LVU210
 594 004a 3368     		ldr	r3, [r6]
 595 004c 40F20322 		movw	r2, #515
 596 0050 DA65     		str	r2, [r3, #92]
 489:Drivers/STM32L4xx_HAL_Driver/Src/stm32l4xx_hal_rtc_ex.c **** 
 490:Drivers/STM32L4xx_HAL_Driver/Src/stm32l4xx_hal_rtc_ex.c ****   return HAL_OK;
 597              		.loc 1 490 3 view .LVU211
ARM GAS  /tmp/cc49nhBG.s 			page 20


 491:Drivers/STM32L4xx_HAL_Driver/Src/stm32l4xx_hal_rtc_ex.c **** }
 598              		.loc 1 491 1 is_stmt 0 view .LVU212
 599 0052 0020     		movs	r0, #0
 600 0054 70BD     		pop	{r4, r5, r6, pc}
 601              	.LVL41:
 602              	.L29:
 476:Drivers/STM32L4xx_HAL_Driver/Src/stm32l4xx_hal_rtc_ex.c ****     sTimeStamp->Minutes = (uint8_t)RTC_Bcd2ToByte(sTimeStamp->Minutes);
 603              		.loc 1 476 5 is_stmt 1 view .LVU213
 476:Drivers/STM32L4xx_HAL_Driver/Src/stm32l4xx_hal_rtc_ex.c ****     sTimeStamp->Minutes = (uint8_t)RTC_Bcd2ToByte(sTimeStamp->Minutes);
 604              		.loc 1 476 34 is_stmt 0 view .LVU214
 605 0056 2078     		ldrb	r0, [r4]	@ zero_extendqisi2
 606 0058 FFF7FEFF 		bl	RTC_Bcd2ToByte
 607              	.LVL42:
 476:Drivers/STM32L4xx_HAL_Driver/Src/stm32l4xx_hal_rtc_ex.c ****     sTimeStamp->Minutes = (uint8_t)RTC_Bcd2ToByte(sTimeStamp->Minutes);
 608              		.loc 1 476 23 view .LVU215
 609 005c 2070     		strb	r0, [r4]
 477:Drivers/STM32L4xx_HAL_Driver/Src/stm32l4xx_hal_rtc_ex.c ****     sTimeStamp->Seconds = (uint8_t)RTC_Bcd2ToByte(sTimeStamp->Seconds);
 610              		.loc 1 477 5 is_stmt 1 view .LVU216
 477:Drivers/STM32L4xx_HAL_Driver/Src/stm32l4xx_hal_rtc_ex.c ****     sTimeStamp->Seconds = (uint8_t)RTC_Bcd2ToByte(sTimeStamp->Seconds);
 611              		.loc 1 477 36 is_stmt 0 view .LVU217
 612 005e 6078     		ldrb	r0, [r4, #1]	@ zero_extendqisi2
 613 0060 FFF7FEFF 		bl	RTC_Bcd2ToByte
 614              	.LVL43:
 477:Drivers/STM32L4xx_HAL_Driver/Src/stm32l4xx_hal_rtc_ex.c ****     sTimeStamp->Seconds = (uint8_t)RTC_Bcd2ToByte(sTimeStamp->Seconds);
 615              		.loc 1 477 25 view .LVU218
 616 0064 6070     		strb	r0, [r4, #1]
 478:Drivers/STM32L4xx_HAL_Driver/Src/stm32l4xx_hal_rtc_ex.c **** 
 617              		.loc 1 478 5 is_stmt 1 view .LVU219
 478:Drivers/STM32L4xx_HAL_Driver/Src/stm32l4xx_hal_rtc_ex.c **** 
 618              		.loc 1 478 36 is_stmt 0 view .LVU220
 619 0066 A078     		ldrb	r0, [r4, #2]	@ zero_extendqisi2
 620 0068 FFF7FEFF 		bl	RTC_Bcd2ToByte
 621              	.LVL44:
 478:Drivers/STM32L4xx_HAL_Driver/Src/stm32l4xx_hal_rtc_ex.c **** 
 622              		.loc 1 478 25 view .LVU221
 623 006c A070     		strb	r0, [r4, #2]
 481:Drivers/STM32L4xx_HAL_Driver/Src/stm32l4xx_hal_rtc_ex.c ****     sTimeStampDate->Date = (uint8_t)RTC_Bcd2ToByte(sTimeStampDate->Date);
 624              		.loc 1 481 5 is_stmt 1 view .LVU222
 481:Drivers/STM32L4xx_HAL_Driver/Src/stm32l4xx_hal_rtc_ex.c ****     sTimeStampDate->Date = (uint8_t)RTC_Bcd2ToByte(sTimeStampDate->Date);
 625              		.loc 1 481 38 is_stmt 0 view .LVU223
 626 006e 6878     		ldrb	r0, [r5, #1]	@ zero_extendqisi2
 627 0070 FFF7FEFF 		bl	RTC_Bcd2ToByte
 628              	.LVL45:
 481:Drivers/STM32L4xx_HAL_Driver/Src/stm32l4xx_hal_rtc_ex.c ****     sTimeStampDate->Date = (uint8_t)RTC_Bcd2ToByte(sTimeStampDate->Date);
 629              		.loc 1 481 27 view .LVU224
 630 0074 6870     		strb	r0, [r5, #1]
 482:Drivers/STM32L4xx_HAL_Driver/Src/stm32l4xx_hal_rtc_ex.c ****     sTimeStampDate->WeekDay = (uint8_t)RTC_Bcd2ToByte(sTimeStampDate->WeekDay);
 631              		.loc 1 482 5 is_stmt 1 view .LVU225
 482:Drivers/STM32L4xx_HAL_Driver/Src/stm32l4xx_hal_rtc_ex.c ****     sTimeStampDate->WeekDay = (uint8_t)RTC_Bcd2ToByte(sTimeStampDate->WeekDay);
 632              		.loc 1 482 37 is_stmt 0 view .LVU226
 633 0076 A878     		ldrb	r0, [r5, #2]	@ zero_extendqisi2
 634 0078 FFF7FEFF 		bl	RTC_Bcd2ToByte
 635              	.LVL46:
 482:Drivers/STM32L4xx_HAL_Driver/Src/stm32l4xx_hal_rtc_ex.c ****     sTimeStampDate->WeekDay = (uint8_t)RTC_Bcd2ToByte(sTimeStampDate->WeekDay);
 636              		.loc 1 482 26 view .LVU227
 637 007c A870     		strb	r0, [r5, #2]
 483:Drivers/STM32L4xx_HAL_Driver/Src/stm32l4xx_hal_rtc_ex.c ****   }
ARM GAS  /tmp/cc49nhBG.s 			page 21


 638              		.loc 1 483 5 is_stmt 1 view .LVU228
 483:Drivers/STM32L4xx_HAL_Driver/Src/stm32l4xx_hal_rtc_ex.c ****   }
 639              		.loc 1 483 40 is_stmt 0 view .LVU229
 640 007e 2878     		ldrb	r0, [r5]	@ zero_extendqisi2
 641 0080 FFF7FEFF 		bl	RTC_Bcd2ToByte
 642              	.LVL47:
 483:Drivers/STM32L4xx_HAL_Driver/Src/stm32l4xx_hal_rtc_ex.c ****   }
 643              		.loc 1 483 29 view .LVU230
 644 0084 2870     		strb	r0, [r5]
 645 0086 DDE7     		b	.L27
 646              		.cfi_endproc
 647              	.LFE137:
 649              		.section	.text.HAL_RTCEx_TimeStampEventCallback,"ax",%progbits
 650              		.align	1
 651              		.weak	HAL_RTCEx_TimeStampEventCallback
 652              		.syntax unified
 653              		.thumb
 654              		.thumb_func
 655              		.fpu fpv4-sp-d16
 657              	HAL_RTCEx_TimeStampEventCallback:
 658              	.LVL48:
 659              	.LFB139:
 492:Drivers/STM32L4xx_HAL_Driver/Src/stm32l4xx_hal_rtc_ex.c **** #endif /* #if defined (STM32L4P5xx) || defined (STM32L4Q5xx) */
 493:Drivers/STM32L4xx_HAL_Driver/Src/stm32l4xx_hal_rtc_ex.c **** 
 494:Drivers/STM32L4xx_HAL_Driver/Src/stm32l4xx_hal_rtc_ex.c **** /**
 495:Drivers/STM32L4xx_HAL_Driver/Src/stm32l4xx_hal_rtc_ex.c ****   * @brief  Handle TimeStamp interrupt request.
 496:Drivers/STM32L4xx_HAL_Driver/Src/stm32l4xx_hal_rtc_ex.c ****   * @param  hrtc RTC handle
 497:Drivers/STM32L4xx_HAL_Driver/Src/stm32l4xx_hal_rtc_ex.c ****   * @retval None
 498:Drivers/STM32L4xx_HAL_Driver/Src/stm32l4xx_hal_rtc_ex.c ****   */
 499:Drivers/STM32L4xx_HAL_Driver/Src/stm32l4xx_hal_rtc_ex.c **** #if defined(STM32L412xx) || defined(STM32L422xx) || defined (STM32L4P5xx) || defined (STM32L4Q5xx)
 500:Drivers/STM32L4xx_HAL_Driver/Src/stm32l4xx_hal_rtc_ex.c **** 
 501:Drivers/STM32L4xx_HAL_Driver/Src/stm32l4xx_hal_rtc_ex.c **** void HAL_RTCEx_TamperTimeStampIRQHandler(RTC_HandleTypeDef *hrtc)
 502:Drivers/STM32L4xx_HAL_Driver/Src/stm32l4xx_hal_rtc_ex.c **** {
 503:Drivers/STM32L4xx_HAL_Driver/Src/stm32l4xx_hal_rtc_ex.c **** 
 504:Drivers/STM32L4xx_HAL_Driver/Src/stm32l4xx_hal_rtc_ex.c ****   /* Process TAMP instance pointer */
 505:Drivers/STM32L4xx_HAL_Driver/Src/stm32l4xx_hal_rtc_ex.c ****   TAMP_TypeDef *tamp = (TAMP_TypeDef *)((uint32_t)hrtc->Instance + hrtc->TampOffset);
 506:Drivers/STM32L4xx_HAL_Driver/Src/stm32l4xx_hal_rtc_ex.c **** 
 507:Drivers/STM32L4xx_HAL_Driver/Src/stm32l4xx_hal_rtc_ex.c ****   /* Clear the EXTI's Flag for RTC TimeStamp and Tamper */
 508:Drivers/STM32L4xx_HAL_Driver/Src/stm32l4xx_hal_rtc_ex.c ****   __HAL_RTC_TAMPER_TIMESTAMP_EXTI_CLEAR_FLAG();
 509:Drivers/STM32L4xx_HAL_Driver/Src/stm32l4xx_hal_rtc_ex.c **** 
 510:Drivers/STM32L4xx_HAL_Driver/Src/stm32l4xx_hal_rtc_ex.c ****   if ((hrtc->Instance->MISR & RTC_MISR_TSMF) != 0u)
 511:Drivers/STM32L4xx_HAL_Driver/Src/stm32l4xx_hal_rtc_ex.c ****   {
 512:Drivers/STM32L4xx_HAL_Driver/Src/stm32l4xx_hal_rtc_ex.c **** #if (USE_HAL_RTC_REGISTER_CALLBACKS == 1)
 513:Drivers/STM32L4xx_HAL_Driver/Src/stm32l4xx_hal_rtc_ex.c ****     /* Call TimeStampEvent registered Callback */
 514:Drivers/STM32L4xx_HAL_Driver/Src/stm32l4xx_hal_rtc_ex.c ****     hrtc->TimeStampEventCallback(hrtc);
 515:Drivers/STM32L4xx_HAL_Driver/Src/stm32l4xx_hal_rtc_ex.c **** #else
 516:Drivers/STM32L4xx_HAL_Driver/Src/stm32l4xx_hal_rtc_ex.c ****     HAL_RTCEx_TimeStampEventCallback(hrtc);
 517:Drivers/STM32L4xx_HAL_Driver/Src/stm32l4xx_hal_rtc_ex.c **** #endif
 518:Drivers/STM32L4xx_HAL_Driver/Src/stm32l4xx_hal_rtc_ex.c ****     /* Not immediately clear flags because the content of RTC_TSTR and RTC_TSDR arecleared when TSF
 519:Drivers/STM32L4xx_HAL_Driver/Src/stm32l4xx_hal_rtc_ex.c ****     hrtc->Instance->SCR = RTC_SCR_CTSF;
 520:Drivers/STM32L4xx_HAL_Driver/Src/stm32l4xx_hal_rtc_ex.c ****   }
 521:Drivers/STM32L4xx_HAL_Driver/Src/stm32l4xx_hal_rtc_ex.c **** 
 522:Drivers/STM32L4xx_HAL_Driver/Src/stm32l4xx_hal_rtc_ex.c ****   /* Get interrupt status */
 523:Drivers/STM32L4xx_HAL_Driver/Src/stm32l4xx_hal_rtc_ex.c ****   uint32_t tmp = tamp->MISR;
 524:Drivers/STM32L4xx_HAL_Driver/Src/stm32l4xx_hal_rtc_ex.c **** 
 525:Drivers/STM32L4xx_HAL_Driver/Src/stm32l4xx_hal_rtc_ex.c ****   /* Immediately clear flags */
 526:Drivers/STM32L4xx_HAL_Driver/Src/stm32l4xx_hal_rtc_ex.c ****   tamp->SCR = tmp;
ARM GAS  /tmp/cc49nhBG.s 			page 22


 527:Drivers/STM32L4xx_HAL_Driver/Src/stm32l4xx_hal_rtc_ex.c **** 
 528:Drivers/STM32L4xx_HAL_Driver/Src/stm32l4xx_hal_rtc_ex.c **** #if defined(RTC_TAMPER1_SUPPORT)
 529:Drivers/STM32L4xx_HAL_Driver/Src/stm32l4xx_hal_rtc_ex.c ****   /* Check Tamper1 status */
 530:Drivers/STM32L4xx_HAL_Driver/Src/stm32l4xx_hal_rtc_ex.c ****   if ((tmp & RTC_TAMPER_1) == RTC_TAMPER_1)
 531:Drivers/STM32L4xx_HAL_Driver/Src/stm32l4xx_hal_rtc_ex.c ****   {
 532:Drivers/STM32L4xx_HAL_Driver/Src/stm32l4xx_hal_rtc_ex.c **** #if (USE_HAL_RTC_REGISTER_CALLBACKS == 1)
 533:Drivers/STM32L4xx_HAL_Driver/Src/stm32l4xx_hal_rtc_ex.c ****     /* Call Tamper 1 Event registered Callback */
 534:Drivers/STM32L4xx_HAL_Driver/Src/stm32l4xx_hal_rtc_ex.c ****     hrtc->Tamper1EventCallback(hrtc);
 535:Drivers/STM32L4xx_HAL_Driver/Src/stm32l4xx_hal_rtc_ex.c **** #else
 536:Drivers/STM32L4xx_HAL_Driver/Src/stm32l4xx_hal_rtc_ex.c ****     /* Tamper1 callback */
 537:Drivers/STM32L4xx_HAL_Driver/Src/stm32l4xx_hal_rtc_ex.c ****     HAL_RTCEx_Tamper1EventCallback(hrtc);
 538:Drivers/STM32L4xx_HAL_Driver/Src/stm32l4xx_hal_rtc_ex.c **** #endif
 539:Drivers/STM32L4xx_HAL_Driver/Src/stm32l4xx_hal_rtc_ex.c ****   }
 540:Drivers/STM32L4xx_HAL_Driver/Src/stm32l4xx_hal_rtc_ex.c **** #endif /* RTC_TAMPER1_SUPPORT */
 541:Drivers/STM32L4xx_HAL_Driver/Src/stm32l4xx_hal_rtc_ex.c **** 
 542:Drivers/STM32L4xx_HAL_Driver/Src/stm32l4xx_hal_rtc_ex.c ****   /* Check Tamper2 status */
 543:Drivers/STM32L4xx_HAL_Driver/Src/stm32l4xx_hal_rtc_ex.c ****   if ((tmp & RTC_TAMPER_2) == RTC_TAMPER_2)
 544:Drivers/STM32L4xx_HAL_Driver/Src/stm32l4xx_hal_rtc_ex.c ****   {
 545:Drivers/STM32L4xx_HAL_Driver/Src/stm32l4xx_hal_rtc_ex.c **** #if (USE_HAL_RTC_REGISTER_CALLBACKS == 1)
 546:Drivers/STM32L4xx_HAL_Driver/Src/stm32l4xx_hal_rtc_ex.c ****     /* Call Tamper 2 Event registered Callback */
 547:Drivers/STM32L4xx_HAL_Driver/Src/stm32l4xx_hal_rtc_ex.c ****     hrtc->Tamper2EventCallback(hrtc);
 548:Drivers/STM32L4xx_HAL_Driver/Src/stm32l4xx_hal_rtc_ex.c **** #else
 549:Drivers/STM32L4xx_HAL_Driver/Src/stm32l4xx_hal_rtc_ex.c ****     /* Tamper2 callback */
 550:Drivers/STM32L4xx_HAL_Driver/Src/stm32l4xx_hal_rtc_ex.c ****     HAL_RTCEx_Tamper2EventCallback(hrtc);
 551:Drivers/STM32L4xx_HAL_Driver/Src/stm32l4xx_hal_rtc_ex.c **** #endif
 552:Drivers/STM32L4xx_HAL_Driver/Src/stm32l4xx_hal_rtc_ex.c ****   }
 553:Drivers/STM32L4xx_HAL_Driver/Src/stm32l4xx_hal_rtc_ex.c **** 
 554:Drivers/STM32L4xx_HAL_Driver/Src/stm32l4xx_hal_rtc_ex.c **** #if defined(RTC_TAMPER3_SUPPORT)
 555:Drivers/STM32L4xx_HAL_Driver/Src/stm32l4xx_hal_rtc_ex.c ****   /* Check Tamper3 status */
 556:Drivers/STM32L4xx_HAL_Driver/Src/stm32l4xx_hal_rtc_ex.c ****   if ((tmp & RTC_TAMPER_3) == RTC_TAMPER_3)
 557:Drivers/STM32L4xx_HAL_Driver/Src/stm32l4xx_hal_rtc_ex.c ****   {
 558:Drivers/STM32L4xx_HAL_Driver/Src/stm32l4xx_hal_rtc_ex.c **** #if (USE_HAL_RTC_REGISTER_CALLBACKS == 1)
 559:Drivers/STM32L4xx_HAL_Driver/Src/stm32l4xx_hal_rtc_ex.c ****     /* Call Tamper 3 Event registered Callback */
 560:Drivers/STM32L4xx_HAL_Driver/Src/stm32l4xx_hal_rtc_ex.c ****     hrtc->Tamper3EventCallback(hrtc);
 561:Drivers/STM32L4xx_HAL_Driver/Src/stm32l4xx_hal_rtc_ex.c **** #else
 562:Drivers/STM32L4xx_HAL_Driver/Src/stm32l4xx_hal_rtc_ex.c ****     /* Tamper3 callback */
 563:Drivers/STM32L4xx_HAL_Driver/Src/stm32l4xx_hal_rtc_ex.c ****     HAL_RTCEx_Tamper3EventCallback(hrtc);
 564:Drivers/STM32L4xx_HAL_Driver/Src/stm32l4xx_hal_rtc_ex.c **** #endif
 565:Drivers/STM32L4xx_HAL_Driver/Src/stm32l4xx_hal_rtc_ex.c ****   }
 566:Drivers/STM32L4xx_HAL_Driver/Src/stm32l4xx_hal_rtc_ex.c **** 
 567:Drivers/STM32L4xx_HAL_Driver/Src/stm32l4xx_hal_rtc_ex.c **** #endif /* RTC_TAMPER3_SUPPORT */
 568:Drivers/STM32L4xx_HAL_Driver/Src/stm32l4xx_hal_rtc_ex.c **** 
 569:Drivers/STM32L4xx_HAL_Driver/Src/stm32l4xx_hal_rtc_ex.c ****   /* Change RTC state */
 570:Drivers/STM32L4xx_HAL_Driver/Src/stm32l4xx_hal_rtc_ex.c ****   hrtc->State = HAL_RTC_STATE_READY;
 571:Drivers/STM32L4xx_HAL_Driver/Src/stm32l4xx_hal_rtc_ex.c **** }
 572:Drivers/STM32L4xx_HAL_Driver/Src/stm32l4xx_hal_rtc_ex.c **** 
 573:Drivers/STM32L4xx_HAL_Driver/Src/stm32l4xx_hal_rtc_ex.c **** #else /* #if defined(STM32L412xx) || defined(STM32L422xx) || defined (STM32L4P5xx) || defined (STM3
 574:Drivers/STM32L4xx_HAL_Driver/Src/stm32l4xx_hal_rtc_ex.c **** 
 575:Drivers/STM32L4xx_HAL_Driver/Src/stm32l4xx_hal_rtc_ex.c **** void HAL_RTCEx_TamperTimeStampIRQHandler(RTC_HandleTypeDef *hrtc)
 576:Drivers/STM32L4xx_HAL_Driver/Src/stm32l4xx_hal_rtc_ex.c **** {
 577:Drivers/STM32L4xx_HAL_Driver/Src/stm32l4xx_hal_rtc_ex.c ****   /* Clear the EXTI's Flag for RTC TimeStamp and Tamper */
 578:Drivers/STM32L4xx_HAL_Driver/Src/stm32l4xx_hal_rtc_ex.c ****   __HAL_RTC_TAMPER_TIMESTAMP_EXTI_CLEAR_FLAG();
 579:Drivers/STM32L4xx_HAL_Driver/Src/stm32l4xx_hal_rtc_ex.c **** 
 580:Drivers/STM32L4xx_HAL_Driver/Src/stm32l4xx_hal_rtc_ex.c ****   /* Get the TimeStamp interrupt source enable status and pending flag status */
 581:Drivers/STM32L4xx_HAL_Driver/Src/stm32l4xx_hal_rtc_ex.c ****   if (__HAL_RTC_TIMESTAMP_GET_IT_SOURCE(hrtc, RTC_IT_TS) != 0U)
 582:Drivers/STM32L4xx_HAL_Driver/Src/stm32l4xx_hal_rtc_ex.c ****   {
 583:Drivers/STM32L4xx_HAL_Driver/Src/stm32l4xx_hal_rtc_ex.c ****     if (__HAL_RTC_TIMESTAMP_GET_FLAG(hrtc, RTC_FLAG_TSF) != 0U)
ARM GAS  /tmp/cc49nhBG.s 			page 23


 584:Drivers/STM32L4xx_HAL_Driver/Src/stm32l4xx_hal_rtc_ex.c ****     {
 585:Drivers/STM32L4xx_HAL_Driver/Src/stm32l4xx_hal_rtc_ex.c ****       /* TIMESTAMP callback */
 586:Drivers/STM32L4xx_HAL_Driver/Src/stm32l4xx_hal_rtc_ex.c **** #if (USE_HAL_RTC_REGISTER_CALLBACKS == 1)
 587:Drivers/STM32L4xx_HAL_Driver/Src/stm32l4xx_hal_rtc_ex.c ****       hrtc->TimeStampEventCallback(hrtc);
 588:Drivers/STM32L4xx_HAL_Driver/Src/stm32l4xx_hal_rtc_ex.c **** #else  /* (USE_HAL_RTC_REGISTER_CALLBACKS == 1) */
 589:Drivers/STM32L4xx_HAL_Driver/Src/stm32l4xx_hal_rtc_ex.c ****       HAL_RTCEx_TimeStampEventCallback(hrtc);
 590:Drivers/STM32L4xx_HAL_Driver/Src/stm32l4xx_hal_rtc_ex.c **** #endif /* (USE_HAL_RTC_REGISTER_CALLBACKS == 1) */
 591:Drivers/STM32L4xx_HAL_Driver/Src/stm32l4xx_hal_rtc_ex.c **** 
 592:Drivers/STM32L4xx_HAL_Driver/Src/stm32l4xx_hal_rtc_ex.c ****       /* Clear the TIMESTAMP interrupt pending bit (this will clear timestamp time and date registe
 593:Drivers/STM32L4xx_HAL_Driver/Src/stm32l4xx_hal_rtc_ex.c ****       __HAL_RTC_TIMESTAMP_CLEAR_FLAG(hrtc, RTC_FLAG_TSF);
 594:Drivers/STM32L4xx_HAL_Driver/Src/stm32l4xx_hal_rtc_ex.c ****     }
 595:Drivers/STM32L4xx_HAL_Driver/Src/stm32l4xx_hal_rtc_ex.c ****   }
 596:Drivers/STM32L4xx_HAL_Driver/Src/stm32l4xx_hal_rtc_ex.c **** 
 597:Drivers/STM32L4xx_HAL_Driver/Src/stm32l4xx_hal_rtc_ex.c **** #if defined(RTC_TAMPER1_SUPPORT)
 598:Drivers/STM32L4xx_HAL_Driver/Src/stm32l4xx_hal_rtc_ex.c ****   /* Get the Tamper1 interrupt source enable status and pending flag status */
 599:Drivers/STM32L4xx_HAL_Driver/Src/stm32l4xx_hal_rtc_ex.c ****   if (__HAL_RTC_TAMPER_GET_IT_SOURCE(hrtc, RTC_IT_TAMP | RTC_IT_TAMP1) != 0U)
 600:Drivers/STM32L4xx_HAL_Driver/Src/stm32l4xx_hal_rtc_ex.c ****   {
 601:Drivers/STM32L4xx_HAL_Driver/Src/stm32l4xx_hal_rtc_ex.c ****     if (__HAL_RTC_TAMPER_GET_FLAG(hrtc, RTC_FLAG_TAMP1F) != 0U)
 602:Drivers/STM32L4xx_HAL_Driver/Src/stm32l4xx_hal_rtc_ex.c ****     {
 603:Drivers/STM32L4xx_HAL_Driver/Src/stm32l4xx_hal_rtc_ex.c ****       /* Clear the Tamper1 interrupt pending bit */
 604:Drivers/STM32L4xx_HAL_Driver/Src/stm32l4xx_hal_rtc_ex.c ****       __HAL_RTC_TAMPER_CLEAR_FLAG(hrtc, RTC_FLAG_TAMP1F);
 605:Drivers/STM32L4xx_HAL_Driver/Src/stm32l4xx_hal_rtc_ex.c **** 
 606:Drivers/STM32L4xx_HAL_Driver/Src/stm32l4xx_hal_rtc_ex.c ****       /* Tamper1 callback */
 607:Drivers/STM32L4xx_HAL_Driver/Src/stm32l4xx_hal_rtc_ex.c **** #if (USE_HAL_RTC_REGISTER_CALLBACKS == 1)
 608:Drivers/STM32L4xx_HAL_Driver/Src/stm32l4xx_hal_rtc_ex.c ****       hrtc->Tamper1EventCallback(hrtc);
 609:Drivers/STM32L4xx_HAL_Driver/Src/stm32l4xx_hal_rtc_ex.c **** #else  /* (USE_HAL_RTC_REGISTER_CALLBACKS == 1) */
 610:Drivers/STM32L4xx_HAL_Driver/Src/stm32l4xx_hal_rtc_ex.c ****       HAL_RTCEx_Tamper1EventCallback(hrtc);
 611:Drivers/STM32L4xx_HAL_Driver/Src/stm32l4xx_hal_rtc_ex.c **** #endif /* (USE_HAL_RTC_REGISTER_CALLBACKS == 1) */
 612:Drivers/STM32L4xx_HAL_Driver/Src/stm32l4xx_hal_rtc_ex.c ****     }
 613:Drivers/STM32L4xx_HAL_Driver/Src/stm32l4xx_hal_rtc_ex.c ****   }
 614:Drivers/STM32L4xx_HAL_Driver/Src/stm32l4xx_hal_rtc_ex.c **** #endif /* RTC_TAMPER1_SUPPORT */
 615:Drivers/STM32L4xx_HAL_Driver/Src/stm32l4xx_hal_rtc_ex.c **** 
 616:Drivers/STM32L4xx_HAL_Driver/Src/stm32l4xx_hal_rtc_ex.c ****   /* Get the Tamper2 interrupt source enable status and pending flag status */
 617:Drivers/STM32L4xx_HAL_Driver/Src/stm32l4xx_hal_rtc_ex.c ****   if (__HAL_RTC_TAMPER_GET_IT_SOURCE(hrtc, RTC_IT_TAMP | RTC_IT_TAMP2) != 0U)
 618:Drivers/STM32L4xx_HAL_Driver/Src/stm32l4xx_hal_rtc_ex.c ****   {
 619:Drivers/STM32L4xx_HAL_Driver/Src/stm32l4xx_hal_rtc_ex.c ****     if (__HAL_RTC_TAMPER_GET_FLAG(hrtc, RTC_FLAG_TAMP2F) != 0U)
 620:Drivers/STM32L4xx_HAL_Driver/Src/stm32l4xx_hal_rtc_ex.c ****     {
 621:Drivers/STM32L4xx_HAL_Driver/Src/stm32l4xx_hal_rtc_ex.c ****       /* Clear the Tamper2 interrupt pending bit */
 622:Drivers/STM32L4xx_HAL_Driver/Src/stm32l4xx_hal_rtc_ex.c ****       __HAL_RTC_TAMPER_CLEAR_FLAG(hrtc, RTC_FLAG_TAMP2F);
 623:Drivers/STM32L4xx_HAL_Driver/Src/stm32l4xx_hal_rtc_ex.c **** 
 624:Drivers/STM32L4xx_HAL_Driver/Src/stm32l4xx_hal_rtc_ex.c ****       /* Tamper2 callback */
 625:Drivers/STM32L4xx_HAL_Driver/Src/stm32l4xx_hal_rtc_ex.c **** #if (USE_HAL_RTC_REGISTER_CALLBACKS == 1)
 626:Drivers/STM32L4xx_HAL_Driver/Src/stm32l4xx_hal_rtc_ex.c ****       hrtc->Tamper2EventCallback(hrtc);
 627:Drivers/STM32L4xx_HAL_Driver/Src/stm32l4xx_hal_rtc_ex.c **** #else  /* (USE_HAL_RTC_REGISTER_CALLBACKS == 1) */
 628:Drivers/STM32L4xx_HAL_Driver/Src/stm32l4xx_hal_rtc_ex.c ****       HAL_RTCEx_Tamper2EventCallback(hrtc);
 629:Drivers/STM32L4xx_HAL_Driver/Src/stm32l4xx_hal_rtc_ex.c **** #endif /* (USE_HAL_RTC_REGISTER_CALLBACKS == 1) */
 630:Drivers/STM32L4xx_HAL_Driver/Src/stm32l4xx_hal_rtc_ex.c ****     }
 631:Drivers/STM32L4xx_HAL_Driver/Src/stm32l4xx_hal_rtc_ex.c ****   }
 632:Drivers/STM32L4xx_HAL_Driver/Src/stm32l4xx_hal_rtc_ex.c **** 
 633:Drivers/STM32L4xx_HAL_Driver/Src/stm32l4xx_hal_rtc_ex.c **** #if defined(RTC_TAMPER3_SUPPORT)
 634:Drivers/STM32L4xx_HAL_Driver/Src/stm32l4xx_hal_rtc_ex.c ****   /* Get the Tamper3 interrupts source enable status */
 635:Drivers/STM32L4xx_HAL_Driver/Src/stm32l4xx_hal_rtc_ex.c ****   if (__HAL_RTC_TAMPER_GET_IT_SOURCE(hrtc, RTC_IT_TAMP | RTC_IT_TAMP3) != 0U)
 636:Drivers/STM32L4xx_HAL_Driver/Src/stm32l4xx_hal_rtc_ex.c ****   {
 637:Drivers/STM32L4xx_HAL_Driver/Src/stm32l4xx_hal_rtc_ex.c ****     if (__HAL_RTC_TAMPER_GET_FLAG(hrtc, RTC_FLAG_TAMP3F) != 0U)
 638:Drivers/STM32L4xx_HAL_Driver/Src/stm32l4xx_hal_rtc_ex.c ****     {
 639:Drivers/STM32L4xx_HAL_Driver/Src/stm32l4xx_hal_rtc_ex.c ****       /* Clear the Tamper3 interrupt pending bit */
 640:Drivers/STM32L4xx_HAL_Driver/Src/stm32l4xx_hal_rtc_ex.c ****       __HAL_RTC_TAMPER_CLEAR_FLAG(hrtc, RTC_FLAG_TAMP3F);
ARM GAS  /tmp/cc49nhBG.s 			page 24


 641:Drivers/STM32L4xx_HAL_Driver/Src/stm32l4xx_hal_rtc_ex.c **** 
 642:Drivers/STM32L4xx_HAL_Driver/Src/stm32l4xx_hal_rtc_ex.c ****       /* Tamper3 callback */
 643:Drivers/STM32L4xx_HAL_Driver/Src/stm32l4xx_hal_rtc_ex.c **** #if (USE_HAL_RTC_REGISTER_CALLBACKS == 1)
 644:Drivers/STM32L4xx_HAL_Driver/Src/stm32l4xx_hal_rtc_ex.c ****       hrtc->Tamper3EventCallback(hrtc);
 645:Drivers/STM32L4xx_HAL_Driver/Src/stm32l4xx_hal_rtc_ex.c **** #else
 646:Drivers/STM32L4xx_HAL_Driver/Src/stm32l4xx_hal_rtc_ex.c ****       HAL_RTCEx_Tamper3EventCallback(hrtc);
 647:Drivers/STM32L4xx_HAL_Driver/Src/stm32l4xx_hal_rtc_ex.c **** #endif /* USE_HAL_RTC_REGISTER_CALLBACKS */
 648:Drivers/STM32L4xx_HAL_Driver/Src/stm32l4xx_hal_rtc_ex.c ****     }
 649:Drivers/STM32L4xx_HAL_Driver/Src/stm32l4xx_hal_rtc_ex.c ****   }
 650:Drivers/STM32L4xx_HAL_Driver/Src/stm32l4xx_hal_rtc_ex.c **** #endif /* RTC_TAMPER3_SUPPORT */
 651:Drivers/STM32L4xx_HAL_Driver/Src/stm32l4xx_hal_rtc_ex.c **** 
 652:Drivers/STM32L4xx_HAL_Driver/Src/stm32l4xx_hal_rtc_ex.c ****   /* Change RTC state */
 653:Drivers/STM32L4xx_HAL_Driver/Src/stm32l4xx_hal_rtc_ex.c ****   hrtc->State = HAL_RTC_STATE_READY;
 654:Drivers/STM32L4xx_HAL_Driver/Src/stm32l4xx_hal_rtc_ex.c **** }
 655:Drivers/STM32L4xx_HAL_Driver/Src/stm32l4xx_hal_rtc_ex.c **** #endif /* #if defined(STM32L412xx) || defined(STM32L422xx) || defined (STM32L4P5xx) || defined (STM
 656:Drivers/STM32L4xx_HAL_Driver/Src/stm32l4xx_hal_rtc_ex.c **** 
 657:Drivers/STM32L4xx_HAL_Driver/Src/stm32l4xx_hal_rtc_ex.c **** /**
 658:Drivers/STM32L4xx_HAL_Driver/Src/stm32l4xx_hal_rtc_ex.c ****   * @brief  TimeStamp callback.
 659:Drivers/STM32L4xx_HAL_Driver/Src/stm32l4xx_hal_rtc_ex.c ****   * @param  hrtc RTC handle
 660:Drivers/STM32L4xx_HAL_Driver/Src/stm32l4xx_hal_rtc_ex.c ****   * @retval None
 661:Drivers/STM32L4xx_HAL_Driver/Src/stm32l4xx_hal_rtc_ex.c ****   */
 662:Drivers/STM32L4xx_HAL_Driver/Src/stm32l4xx_hal_rtc_ex.c **** __weak void HAL_RTCEx_TimeStampEventCallback(RTC_HandleTypeDef *hrtc)
 663:Drivers/STM32L4xx_HAL_Driver/Src/stm32l4xx_hal_rtc_ex.c **** {
 660              		.loc 1 663 1 is_stmt 1 view -0
 661              		.cfi_startproc
 662              		@ args = 0, pretend = 0, frame = 0
 663              		@ frame_needed = 0, uses_anonymous_args = 0
 664              		@ link register save eliminated.
 664:Drivers/STM32L4xx_HAL_Driver/Src/stm32l4xx_hal_rtc_ex.c ****   /* Prevent unused argument(s) compilation warning */
 665:Drivers/STM32L4xx_HAL_Driver/Src/stm32l4xx_hal_rtc_ex.c ****   UNUSED(hrtc);
 665              		.loc 1 665 3 view .LVU232
 666:Drivers/STM32L4xx_HAL_Driver/Src/stm32l4xx_hal_rtc_ex.c **** 
 667:Drivers/STM32L4xx_HAL_Driver/Src/stm32l4xx_hal_rtc_ex.c ****   /* NOTE : This function should not be modified, when the callback is needed,
 668:Drivers/STM32L4xx_HAL_Driver/Src/stm32l4xx_hal_rtc_ex.c ****             the HAL_RTCEx_TimeStampEventCallback could be implemented in the user file
 669:Drivers/STM32L4xx_HAL_Driver/Src/stm32l4xx_hal_rtc_ex.c ****    */
 670:Drivers/STM32L4xx_HAL_Driver/Src/stm32l4xx_hal_rtc_ex.c **** }
 666              		.loc 1 670 1 is_stmt 0 view .LVU233
 667 0000 7047     		bx	lr
 668              		.cfi_endproc
 669              	.LFE139:
 671              		.section	.text.HAL_RTCEx_PollForTimeStampEvent,"ax",%progbits
 672              		.align	1
 673              		.global	HAL_RTCEx_PollForTimeStampEvent
 674              		.syntax unified
 675              		.thumb
 676              		.thumb_func
 677              		.fpu fpv4-sp-d16
 679              	HAL_RTCEx_PollForTimeStampEvent:
 680              	.LVL49:
 681              	.LFB140:
 671:Drivers/STM32L4xx_HAL_Driver/Src/stm32l4xx_hal_rtc_ex.c **** 
 672:Drivers/STM32L4xx_HAL_Driver/Src/stm32l4xx_hal_rtc_ex.c **** /**
 673:Drivers/STM32L4xx_HAL_Driver/Src/stm32l4xx_hal_rtc_ex.c ****   * @brief  Handle TimeStamp polling request.
 674:Drivers/STM32L4xx_HAL_Driver/Src/stm32l4xx_hal_rtc_ex.c ****   * @param  hrtc RTC handle
 675:Drivers/STM32L4xx_HAL_Driver/Src/stm32l4xx_hal_rtc_ex.c ****   * @param  Timeout Timeout duration
 676:Drivers/STM32L4xx_HAL_Driver/Src/stm32l4xx_hal_rtc_ex.c ****   * @retval HAL status
 677:Drivers/STM32L4xx_HAL_Driver/Src/stm32l4xx_hal_rtc_ex.c ****   */
ARM GAS  /tmp/cc49nhBG.s 			page 25


 678:Drivers/STM32L4xx_HAL_Driver/Src/stm32l4xx_hal_rtc_ex.c **** HAL_StatusTypeDef HAL_RTCEx_PollForTimeStampEvent(RTC_HandleTypeDef *hrtc, uint32_t Timeout)
 679:Drivers/STM32L4xx_HAL_Driver/Src/stm32l4xx_hal_rtc_ex.c **** {
 682              		.loc 1 679 1 is_stmt 1 view -0
 683              		.cfi_startproc
 684              		@ args = 0, pretend = 0, frame = 0
 685              		@ frame_needed = 0, uses_anonymous_args = 0
 686              		.loc 1 679 1 is_stmt 0 view .LVU235
 687 0000 70B5     		push	{r4, r5, r6, lr}
 688              	.LCFI5:
 689              		.cfi_def_cfa_offset 16
 690              		.cfi_offset 4, -16
 691              		.cfi_offset 5, -12
 692              		.cfi_offset 6, -8
 693              		.cfi_offset 14, -4
 694 0002 0446     		mov	r4, r0
 695 0004 0D46     		mov	r5, r1
 680:Drivers/STM32L4xx_HAL_Driver/Src/stm32l4xx_hal_rtc_ex.c ****   uint32_t tickstart = HAL_GetTick();
 696              		.loc 1 680 3 is_stmt 1 view .LVU236
 697              		.loc 1 680 24 is_stmt 0 view .LVU237
 698 0006 FFF7FEFF 		bl	HAL_GetTick
 699              	.LVL50:
 700              		.loc 1 680 24 view .LVU238
 701 000a 0646     		mov	r6, r0
 702              	.LVL51:
 681:Drivers/STM32L4xx_HAL_Driver/Src/stm32l4xx_hal_rtc_ex.c **** 
 682:Drivers/STM32L4xx_HAL_Driver/Src/stm32l4xx_hal_rtc_ex.c ****   while (__HAL_RTC_TIMESTAMP_GET_FLAG(hrtc, RTC_FLAG_TSF) == 0U)
 703              		.loc 1 682 3 is_stmt 1 view .LVU239
 704              	.L35:
 705              		.loc 1 682 9 view .LVU240
 706              		.loc 1 682 10 is_stmt 0 view .LVU241
 707 000c 2368     		ldr	r3, [r4]
 708 000e 1A6D     		ldr	r2, [r3, #80]
 709              		.loc 1 682 9 view .LVU242
 710 0010 12F0080F 		tst	r2, #8
 711 0014 19D1     		bne	.L39
 683:Drivers/STM32L4xx_HAL_Driver/Src/stm32l4xx_hal_rtc_ex.c ****   {
 684:Drivers/STM32L4xx_HAL_Driver/Src/stm32l4xx_hal_rtc_ex.c ****     if (__HAL_RTC_TIMESTAMP_GET_FLAG(hrtc, RTC_FLAG_TSOVF) != 0U)
 712              		.loc 1 684 5 is_stmt 1 view .LVU243
 713              		.loc 1 684 9 is_stmt 0 view .LVU244
 714 0016 1A6D     		ldr	r2, [r3, #80]
 715              		.loc 1 684 8 view .LVU245
 716 0018 12F0100F 		tst	r2, #16
 717 001c 0DD1     		bne	.L40
 685:Drivers/STM32L4xx_HAL_Driver/Src/stm32l4xx_hal_rtc_ex.c ****     {
 686:Drivers/STM32L4xx_HAL_Driver/Src/stm32l4xx_hal_rtc_ex.c ****       /* Clear the TIMESTAMP OverRun Flag */
 687:Drivers/STM32L4xx_HAL_Driver/Src/stm32l4xx_hal_rtc_ex.c ****       __HAL_RTC_TIMESTAMP_CLEAR_FLAG(hrtc, RTC_FLAG_TSOVF);
 688:Drivers/STM32L4xx_HAL_Driver/Src/stm32l4xx_hal_rtc_ex.c **** 
 689:Drivers/STM32L4xx_HAL_Driver/Src/stm32l4xx_hal_rtc_ex.c ****       /* Change TIMESTAMP state */
 690:Drivers/STM32L4xx_HAL_Driver/Src/stm32l4xx_hal_rtc_ex.c ****       hrtc->State = HAL_RTC_STATE_ERROR;
 691:Drivers/STM32L4xx_HAL_Driver/Src/stm32l4xx_hal_rtc_ex.c **** 
 692:Drivers/STM32L4xx_HAL_Driver/Src/stm32l4xx_hal_rtc_ex.c ****       return HAL_ERROR;
 693:Drivers/STM32L4xx_HAL_Driver/Src/stm32l4xx_hal_rtc_ex.c ****     }
 694:Drivers/STM32L4xx_HAL_Driver/Src/stm32l4xx_hal_rtc_ex.c **** 
 695:Drivers/STM32L4xx_HAL_Driver/Src/stm32l4xx_hal_rtc_ex.c ****     if (Timeout != HAL_MAX_DELAY)
 718              		.loc 1 695 5 is_stmt 1 view .LVU246
 719              		.loc 1 695 8 is_stmt 0 view .LVU247
 720 001e B5F1FF3F 		cmp	r5, #-1
ARM GAS  /tmp/cc49nhBG.s 			page 26


 721 0022 F3D0     		beq	.L35
 696:Drivers/STM32L4xx_HAL_Driver/Src/stm32l4xx_hal_rtc_ex.c ****     {
 697:Drivers/STM32L4xx_HAL_Driver/Src/stm32l4xx_hal_rtc_ex.c ****       if (((HAL_GetTick() - tickstart) > Timeout) || (Timeout == 0U))
 722              		.loc 1 697 7 is_stmt 1 view .LVU248
 723              		.loc 1 697 13 is_stmt 0 view .LVU249
 724 0024 FFF7FEFF 		bl	HAL_GetTick
 725              	.LVL52:
 726              		.loc 1 697 27 view .LVU250
 727 0028 801B     		subs	r0, r0, r6
 728              		.loc 1 697 10 view .LVU251
 729 002a A842     		cmp	r0, r5
 730 002c 01D8     		bhi	.L36
 731              		.loc 1 697 51 discriminator 1 view .LVU252
 732 002e 002D     		cmp	r5, #0
 733 0030 ECD1     		bne	.L35
 734              	.L36:
 698:Drivers/STM32L4xx_HAL_Driver/Src/stm32l4xx_hal_rtc_ex.c ****       {
 699:Drivers/STM32L4xx_HAL_Driver/Src/stm32l4xx_hal_rtc_ex.c ****         hrtc->State = HAL_RTC_STATE_TIMEOUT;
 735              		.loc 1 699 9 is_stmt 1 view .LVU253
 736              		.loc 1 699 21 is_stmt 0 view .LVU254
 737 0032 0320     		movs	r0, #3
 738 0034 84F82900 		strb	r0, [r4, #41]
 700:Drivers/STM32L4xx_HAL_Driver/Src/stm32l4xx_hal_rtc_ex.c ****         return HAL_TIMEOUT;
 739              		.loc 1 700 9 is_stmt 1 view .LVU255
 740              		.loc 1 700 16 is_stmt 0 view .LVU256
 741 0038 0BE0     		b	.L34
 742              	.L40:
 687:Drivers/STM32L4xx_HAL_Driver/Src/stm32l4xx_hal_rtc_ex.c **** 
 743              		.loc 1 687 7 is_stmt 1 view .LVU257
 744 003a 4FF40172 		mov	r2, #516
 745 003e DA65     		str	r2, [r3, #92]
 690:Drivers/STM32L4xx_HAL_Driver/Src/stm32l4xx_hal_rtc_ex.c **** 
 746              		.loc 1 690 7 view .LVU258
 690:Drivers/STM32L4xx_HAL_Driver/Src/stm32l4xx_hal_rtc_ex.c **** 
 747              		.loc 1 690 19 is_stmt 0 view .LVU259
 748 0040 0423     		movs	r3, #4
 749 0042 84F82930 		strb	r3, [r4, #41]
 692:Drivers/STM32L4xx_HAL_Driver/Src/stm32l4xx_hal_rtc_ex.c ****     }
 750              		.loc 1 692 7 is_stmt 1 view .LVU260
 692:Drivers/STM32L4xx_HAL_Driver/Src/stm32l4xx_hal_rtc_ex.c ****     }
 751              		.loc 1 692 14 is_stmt 0 view .LVU261
 752 0046 0120     		movs	r0, #1
 753 0048 03E0     		b	.L34
 754              	.L39:
 701:Drivers/STM32L4xx_HAL_Driver/Src/stm32l4xx_hal_rtc_ex.c ****       }
 702:Drivers/STM32L4xx_HAL_Driver/Src/stm32l4xx_hal_rtc_ex.c ****     }
 703:Drivers/STM32L4xx_HAL_Driver/Src/stm32l4xx_hal_rtc_ex.c ****   }
 704:Drivers/STM32L4xx_HAL_Driver/Src/stm32l4xx_hal_rtc_ex.c **** 
 705:Drivers/STM32L4xx_HAL_Driver/Src/stm32l4xx_hal_rtc_ex.c ****   /* Change RTC state */
 706:Drivers/STM32L4xx_HAL_Driver/Src/stm32l4xx_hal_rtc_ex.c ****   hrtc->State = HAL_RTC_STATE_READY;
 755              		.loc 1 706 3 is_stmt 1 view .LVU262
 756              		.loc 1 706 15 is_stmt 0 view .LVU263
 757 004a 0123     		movs	r3, #1
 758 004c 84F82930 		strb	r3, [r4, #41]
 707:Drivers/STM32L4xx_HAL_Driver/Src/stm32l4xx_hal_rtc_ex.c **** 
 708:Drivers/STM32L4xx_HAL_Driver/Src/stm32l4xx_hal_rtc_ex.c ****   return HAL_OK;
 759              		.loc 1 708 3 is_stmt 1 view .LVU264
ARM GAS  /tmp/cc49nhBG.s 			page 27


 760              		.loc 1 708 10 is_stmt 0 view .LVU265
 761 0050 0020     		movs	r0, #0
 762              	.L34:
 709:Drivers/STM32L4xx_HAL_Driver/Src/stm32l4xx_hal_rtc_ex.c **** }
 763              		.loc 1 709 1 view .LVU266
 764 0052 70BD     		pop	{r4, r5, r6, pc}
 765              		.loc 1 709 1 view .LVU267
 766              		.cfi_endproc
 767              	.LFE140:
 769              		.section	.text.HAL_RTCEx_SetWakeUpTimer,"ax",%progbits
 770              		.align	1
 771              		.global	HAL_RTCEx_SetWakeUpTimer
 772              		.syntax unified
 773              		.thumb
 774              		.thumb_func
 775              		.fpu fpv4-sp-d16
 777              	HAL_RTCEx_SetWakeUpTimer:
 778              	.LVL53:
 779              	.LFB141:
 710:Drivers/STM32L4xx_HAL_Driver/Src/stm32l4xx_hal_rtc_ex.c **** 
 711:Drivers/STM32L4xx_HAL_Driver/Src/stm32l4xx_hal_rtc_ex.c **** /**
 712:Drivers/STM32L4xx_HAL_Driver/Src/stm32l4xx_hal_rtc_ex.c ****   * @}
 713:Drivers/STM32L4xx_HAL_Driver/Src/stm32l4xx_hal_rtc_ex.c ****   */
 714:Drivers/STM32L4xx_HAL_Driver/Src/stm32l4xx_hal_rtc_ex.c **** 
 715:Drivers/STM32L4xx_HAL_Driver/Src/stm32l4xx_hal_rtc_ex.c **** /** @addtogroup RTCEx_Exported_Functions_Group2
 716:Drivers/STM32L4xx_HAL_Driver/Src/stm32l4xx_hal_rtc_ex.c ****   * @brief    RTC Wake-up functions
 717:Drivers/STM32L4xx_HAL_Driver/Src/stm32l4xx_hal_rtc_ex.c ****   *
 718:Drivers/STM32L4xx_HAL_Driver/Src/stm32l4xx_hal_rtc_ex.c **** @verbatim
 719:Drivers/STM32L4xx_HAL_Driver/Src/stm32l4xx_hal_rtc_ex.c ****  ===============================================================================
 720:Drivers/STM32L4xx_HAL_Driver/Src/stm32l4xx_hal_rtc_ex.c ****                         ##### RTC Wake-up functions #####
 721:Drivers/STM32L4xx_HAL_Driver/Src/stm32l4xx_hal_rtc_ex.c ****  ===============================================================================
 722:Drivers/STM32L4xx_HAL_Driver/Src/stm32l4xx_hal_rtc_ex.c **** 
 723:Drivers/STM32L4xx_HAL_Driver/Src/stm32l4xx_hal_rtc_ex.c ****  [..] This section provides functions allowing to configure Wake-up feature
 724:Drivers/STM32L4xx_HAL_Driver/Src/stm32l4xx_hal_rtc_ex.c **** 
 725:Drivers/STM32L4xx_HAL_Driver/Src/stm32l4xx_hal_rtc_ex.c **** @endverbatim
 726:Drivers/STM32L4xx_HAL_Driver/Src/stm32l4xx_hal_rtc_ex.c ****   * @{
 727:Drivers/STM32L4xx_HAL_Driver/Src/stm32l4xx_hal_rtc_ex.c ****   */
 728:Drivers/STM32L4xx_HAL_Driver/Src/stm32l4xx_hal_rtc_ex.c **** 
 729:Drivers/STM32L4xx_HAL_Driver/Src/stm32l4xx_hal_rtc_ex.c **** /**
 730:Drivers/STM32L4xx_HAL_Driver/Src/stm32l4xx_hal_rtc_ex.c ****   * @brief  Set wake up timer.
 731:Drivers/STM32L4xx_HAL_Driver/Src/stm32l4xx_hal_rtc_ex.c ****   * @param  hrtc RTC handle
 732:Drivers/STM32L4xx_HAL_Driver/Src/stm32l4xx_hal_rtc_ex.c ****   * @param  WakeUpCounter Wake up counter
 733:Drivers/STM32L4xx_HAL_Driver/Src/stm32l4xx_hal_rtc_ex.c ****   * @param  WakeUpClock Wake up clock
 734:Drivers/STM32L4xx_HAL_Driver/Src/stm32l4xx_hal_rtc_ex.c ****   * @retval HAL status
 735:Drivers/STM32L4xx_HAL_Driver/Src/stm32l4xx_hal_rtc_ex.c ****   */
 736:Drivers/STM32L4xx_HAL_Driver/Src/stm32l4xx_hal_rtc_ex.c **** HAL_StatusTypeDef HAL_RTCEx_SetWakeUpTimer(RTC_HandleTypeDef *hrtc, uint32_t WakeUpCounter, uint32_
 737:Drivers/STM32L4xx_HAL_Driver/Src/stm32l4xx_hal_rtc_ex.c **** {
 780              		.loc 1 737 1 is_stmt 1 view -0
 781              		.cfi_startproc
 782              		@ args = 0, pretend = 0, frame = 0
 783              		@ frame_needed = 0, uses_anonymous_args = 0
 784              		.loc 1 737 1 is_stmt 0 view .LVU269
 785 0000 F8B5     		push	{r3, r4, r5, r6, r7, lr}
 786              	.LCFI6:
 787              		.cfi_def_cfa_offset 24
 788              		.cfi_offset 3, -24
 789              		.cfi_offset 4, -20
ARM GAS  /tmp/cc49nhBG.s 			page 28


 790              		.cfi_offset 5, -16
 791              		.cfi_offset 6, -12
 792              		.cfi_offset 7, -8
 793              		.cfi_offset 14, -4
 738:Drivers/STM32L4xx_HAL_Driver/Src/stm32l4xx_hal_rtc_ex.c ****   uint32_t tickstart;
 794              		.loc 1 738 3 is_stmt 1 view .LVU270
 739:Drivers/STM32L4xx_HAL_Driver/Src/stm32l4xx_hal_rtc_ex.c **** 
 740:Drivers/STM32L4xx_HAL_Driver/Src/stm32l4xx_hal_rtc_ex.c ****   /* Check the parameters */
 741:Drivers/STM32L4xx_HAL_Driver/Src/stm32l4xx_hal_rtc_ex.c ****   assert_param(IS_RTC_WAKEUP_CLOCK(WakeUpClock));
 795              		.loc 1 741 3 view .LVU271
 742:Drivers/STM32L4xx_HAL_Driver/Src/stm32l4xx_hal_rtc_ex.c ****   assert_param(IS_RTC_WAKEUP_COUNTER(WakeUpCounter));
 796              		.loc 1 742 3 view .LVU272
 743:Drivers/STM32L4xx_HAL_Driver/Src/stm32l4xx_hal_rtc_ex.c **** 
 744:Drivers/STM32L4xx_HAL_Driver/Src/stm32l4xx_hal_rtc_ex.c ****   /* Process Locked */
 745:Drivers/STM32L4xx_HAL_Driver/Src/stm32l4xx_hal_rtc_ex.c ****   __HAL_LOCK(hrtc);
 797              		.loc 1 745 3 view .LVU273
 798              		.loc 1 745 3 view .LVU274
 799 0002 90F82830 		ldrb	r3, [r0, #40]	@ zero_extendqisi2
 800 0006 012B     		cmp	r3, #1
 801 0008 47D0     		beq	.L46
 802 000a 0446     		mov	r4, r0
 803 000c 0D46     		mov	r5, r1
 804 000e 1646     		mov	r6, r2
 805              		.loc 1 745 3 discriminator 2 view .LVU275
 806 0010 0123     		movs	r3, #1
 807 0012 80F82830 		strb	r3, [r0, #40]
 808              		.loc 1 745 3 discriminator 2 view .LVU276
 746:Drivers/STM32L4xx_HAL_Driver/Src/stm32l4xx_hal_rtc_ex.c **** 
 747:Drivers/STM32L4xx_HAL_Driver/Src/stm32l4xx_hal_rtc_ex.c ****   hrtc->State = HAL_RTC_STATE_BUSY;
 809              		.loc 1 747 3 discriminator 2 view .LVU277
 810              		.loc 1 747 15 is_stmt 0 discriminator 2 view .LVU278
 811 0016 0223     		movs	r3, #2
 812 0018 80F82930 		strb	r3, [r0, #41]
 748:Drivers/STM32L4xx_HAL_Driver/Src/stm32l4xx_hal_rtc_ex.c **** 
 749:Drivers/STM32L4xx_HAL_Driver/Src/stm32l4xx_hal_rtc_ex.c ****   /* Disable the write protection for RTC registers */
 750:Drivers/STM32L4xx_HAL_Driver/Src/stm32l4xx_hal_rtc_ex.c ****   __HAL_RTC_WRITEPROTECTION_DISABLE(hrtc);
 813              		.loc 1 750 3 is_stmt 1 discriminator 2 view .LVU279
 814              		.loc 1 750 3 discriminator 2 view .LVU280
 815 001c 0368     		ldr	r3, [r0]
 816 001e CA22     		movs	r2, #202
 817              	.LVL54:
 818              		.loc 1 750 3 is_stmt 0 discriminator 2 view .LVU281
 819 0020 5A62     		str	r2, [r3, #36]
 820              		.loc 1 750 3 is_stmt 1 discriminator 2 view .LVU282
 821 0022 0368     		ldr	r3, [r0]
 822 0024 5322     		movs	r2, #83
 823 0026 5A62     		str	r2, [r3, #36]
 824              		.loc 1 750 3 discriminator 2 view .LVU283
 751:Drivers/STM32L4xx_HAL_Driver/Src/stm32l4xx_hal_rtc_ex.c **** 
 752:Drivers/STM32L4xx_HAL_Driver/Src/stm32l4xx_hal_rtc_ex.c ****   /* Clear WUTE in RTC_CR to disable the wakeup timer */
 753:Drivers/STM32L4xx_HAL_Driver/Src/stm32l4xx_hal_rtc_ex.c ****   CLEAR_BIT(hrtc->Instance->CR, RTC_CR_WUTE);
 825              		.loc 1 753 3 discriminator 2 view .LVU284
 826 0028 0268     		ldr	r2, [r0]
 827 002a 9369     		ldr	r3, [r2, #24]
 828 002c 23F48063 		bic	r3, r3, #1024
 829 0030 9361     		str	r3, [r2, #24]
 754:Drivers/STM32L4xx_HAL_Driver/Src/stm32l4xx_hal_rtc_ex.c **** 
ARM GAS  /tmp/cc49nhBG.s 			page 29


 755:Drivers/STM32L4xx_HAL_Driver/Src/stm32l4xx_hal_rtc_ex.c ****   /* Poll WUTWF until it is set in RTC_ICSR to make sure the access to wakeup autoreload
 756:Drivers/STM32L4xx_HAL_Driver/Src/stm32l4xx_hal_rtc_ex.c ****      counter and to WUCKSEL[2:0] bits is allowed. This step must be skipped in
 757:Drivers/STM32L4xx_HAL_Driver/Src/stm32l4xx_hal_rtc_ex.c ****      calendar initialization mode. */
 758:Drivers/STM32L4xx_HAL_Driver/Src/stm32l4xx_hal_rtc_ex.c **** #if defined(STM32L412xx) || defined(STM32L422xx) || defined (STM32L4P5xx) || defined (STM32L4Q5xx)
 759:Drivers/STM32L4xx_HAL_Driver/Src/stm32l4xx_hal_rtc_ex.c ****   if (READ_BIT(hrtc->Instance->ICSR, RTC_ICSR_INITF) == 0U)
 830              		.loc 1 759 3 discriminator 2 view .LVU285
 831              		.loc 1 759 7 is_stmt 0 discriminator 2 view .LVU286
 832 0032 0368     		ldr	r3, [r0]
 833 0034 DB68     		ldr	r3, [r3, #12]
 834              		.loc 1 759 6 discriminator 2 view .LVU287
 835 0036 13F0400F 		tst	r3, #64
 836 003a 16D0     		beq	.L48
 837              	.LVL55:
 838              	.L43:
 760:Drivers/STM32L4xx_HAL_Driver/Src/stm32l4xx_hal_rtc_ex.c **** #else
 761:Drivers/STM32L4xx_HAL_Driver/Src/stm32l4xx_hal_rtc_ex.c ****   if (READ_BIT(hrtc->Instance->ISR, RTC_ISR_INITF) == 0U)
 762:Drivers/STM32L4xx_HAL_Driver/Src/stm32l4xx_hal_rtc_ex.c **** #endif
 763:Drivers/STM32L4xx_HAL_Driver/Src/stm32l4xx_hal_rtc_ex.c ****   {
 764:Drivers/STM32L4xx_HAL_Driver/Src/stm32l4xx_hal_rtc_ex.c ****     tickstart = HAL_GetTick();
 765:Drivers/STM32L4xx_HAL_Driver/Src/stm32l4xx_hal_rtc_ex.c **** #if defined(STM32L412xx) || defined(STM32L422xx) || defined (STM32L4P5xx) || defined (STM32L4Q5xx)
 766:Drivers/STM32L4xx_HAL_Driver/Src/stm32l4xx_hal_rtc_ex.c ****     while (READ_BIT(hrtc->Instance->ICSR, RTC_ICSR_WUTWF) == 0U)
 767:Drivers/STM32L4xx_HAL_Driver/Src/stm32l4xx_hal_rtc_ex.c **** #else
 768:Drivers/STM32L4xx_HAL_Driver/Src/stm32l4xx_hal_rtc_ex.c ****     while (READ_BIT(hrtc->Instance->ISR, RTC_ISR_WUTWF) == 0U)
 769:Drivers/STM32L4xx_HAL_Driver/Src/stm32l4xx_hal_rtc_ex.c **** #endif
 770:Drivers/STM32L4xx_HAL_Driver/Src/stm32l4xx_hal_rtc_ex.c ****     {
 771:Drivers/STM32L4xx_HAL_Driver/Src/stm32l4xx_hal_rtc_ex.c ****       if ((HAL_GetTick() - tickstart) > RTC_TIMEOUT_VALUE)
 772:Drivers/STM32L4xx_HAL_Driver/Src/stm32l4xx_hal_rtc_ex.c ****       {
 773:Drivers/STM32L4xx_HAL_Driver/Src/stm32l4xx_hal_rtc_ex.c ****         /* Enable the write protection for RTC registers */
 774:Drivers/STM32L4xx_HAL_Driver/Src/stm32l4xx_hal_rtc_ex.c ****         __HAL_RTC_WRITEPROTECTION_ENABLE(hrtc);
 775:Drivers/STM32L4xx_HAL_Driver/Src/stm32l4xx_hal_rtc_ex.c **** 
 776:Drivers/STM32L4xx_HAL_Driver/Src/stm32l4xx_hal_rtc_ex.c ****         hrtc->State = HAL_RTC_STATE_TIMEOUT;
 777:Drivers/STM32L4xx_HAL_Driver/Src/stm32l4xx_hal_rtc_ex.c **** 
 778:Drivers/STM32L4xx_HAL_Driver/Src/stm32l4xx_hal_rtc_ex.c ****         /* Process Unlocked */
 779:Drivers/STM32L4xx_HAL_Driver/Src/stm32l4xx_hal_rtc_ex.c ****         __HAL_UNLOCK(hrtc);
 780:Drivers/STM32L4xx_HAL_Driver/Src/stm32l4xx_hal_rtc_ex.c **** 
 781:Drivers/STM32L4xx_HAL_Driver/Src/stm32l4xx_hal_rtc_ex.c ****         return HAL_TIMEOUT;
 782:Drivers/STM32L4xx_HAL_Driver/Src/stm32l4xx_hal_rtc_ex.c ****       }
 783:Drivers/STM32L4xx_HAL_Driver/Src/stm32l4xx_hal_rtc_ex.c ****     }
 784:Drivers/STM32L4xx_HAL_Driver/Src/stm32l4xx_hal_rtc_ex.c ****   }
 785:Drivers/STM32L4xx_HAL_Driver/Src/stm32l4xx_hal_rtc_ex.c **** 
 786:Drivers/STM32L4xx_HAL_Driver/Src/stm32l4xx_hal_rtc_ex.c ****   /* Configure the clock source */
 787:Drivers/STM32L4xx_HAL_Driver/Src/stm32l4xx_hal_rtc_ex.c ****   MODIFY_REG(hrtc->Instance->CR, RTC_CR_WUCKSEL, (uint32_t)WakeUpClock);
 839              		.loc 1 787 3 is_stmt 1 view .LVU288
 840 003c 2168     		ldr	r1, [r4]
 841 003e 8B69     		ldr	r3, [r1, #24]
 842 0040 23F00703 		bic	r3, r3, #7
 843 0044 3343     		orrs	r3, r3, r6
 844 0046 8B61     		str	r3, [r1, #24]
 788:Drivers/STM32L4xx_HAL_Driver/Src/stm32l4xx_hal_rtc_ex.c **** 
 789:Drivers/STM32L4xx_HAL_Driver/Src/stm32l4xx_hal_rtc_ex.c ****   /* Configure the Wakeup Timer counter */
 790:Drivers/STM32L4xx_HAL_Driver/Src/stm32l4xx_hal_rtc_ex.c ****   WRITE_REG(hrtc->Instance->WUTR, (uint32_t)WakeUpCounter);
 845              		.loc 1 790 3 view .LVU289
 846 0048 2368     		ldr	r3, [r4]
 847 004a 5D61     		str	r5, [r3, #20]
 791:Drivers/STM32L4xx_HAL_Driver/Src/stm32l4xx_hal_rtc_ex.c **** 
 792:Drivers/STM32L4xx_HAL_Driver/Src/stm32l4xx_hal_rtc_ex.c ****   /* Enable the Wakeup Timer */
 793:Drivers/STM32L4xx_HAL_Driver/Src/stm32l4xx_hal_rtc_ex.c ****   SET_BIT(hrtc->Instance->CR, RTC_CR_WUTE);
ARM GAS  /tmp/cc49nhBG.s 			page 30


 848              		.loc 1 793 3 view .LVU290
 849 004c 2268     		ldr	r2, [r4]
 850 004e 9369     		ldr	r3, [r2, #24]
 851 0050 43F48063 		orr	r3, r3, #1024
 852 0054 9361     		str	r3, [r2, #24]
 794:Drivers/STM32L4xx_HAL_Driver/Src/stm32l4xx_hal_rtc_ex.c **** 
 795:Drivers/STM32L4xx_HAL_Driver/Src/stm32l4xx_hal_rtc_ex.c ****   /* Enable the write protection for RTC registers */
 796:Drivers/STM32L4xx_HAL_Driver/Src/stm32l4xx_hal_rtc_ex.c ****   __HAL_RTC_WRITEPROTECTION_ENABLE(hrtc);
 853              		.loc 1 796 3 view .LVU291
 854              		.loc 1 796 3 view .LVU292
 855 0056 2368     		ldr	r3, [r4]
 856 0058 FF22     		movs	r2, #255
 857 005a 5A62     		str	r2, [r3, #36]
 858              		.loc 1 796 3 view .LVU293
 797:Drivers/STM32L4xx_HAL_Driver/Src/stm32l4xx_hal_rtc_ex.c **** 
 798:Drivers/STM32L4xx_HAL_Driver/Src/stm32l4xx_hal_rtc_ex.c ****   hrtc->State = HAL_RTC_STATE_READY;
 859              		.loc 1 798 3 view .LVU294
 860              		.loc 1 798 15 is_stmt 0 view .LVU295
 861 005c 0123     		movs	r3, #1
 862 005e 84F82930 		strb	r3, [r4, #41]
 799:Drivers/STM32L4xx_HAL_Driver/Src/stm32l4xx_hal_rtc_ex.c **** 
 800:Drivers/STM32L4xx_HAL_Driver/Src/stm32l4xx_hal_rtc_ex.c ****   /* Process Unlocked */
 801:Drivers/STM32L4xx_HAL_Driver/Src/stm32l4xx_hal_rtc_ex.c ****   __HAL_UNLOCK(hrtc);
 863              		.loc 1 801 3 is_stmt 1 view .LVU296
 864              		.loc 1 801 3 view .LVU297
 865 0062 0020     		movs	r0, #0
 866 0064 84F82800 		strb	r0, [r4, #40]
 867              		.loc 1 801 3 view .LVU298
 802:Drivers/STM32L4xx_HAL_Driver/Src/stm32l4xx_hal_rtc_ex.c **** 
 803:Drivers/STM32L4xx_HAL_Driver/Src/stm32l4xx_hal_rtc_ex.c ****   return HAL_OK;
 868              		.loc 1 803 3 view .LVU299
 869              	.LVL56:
 870              	.L42:
 804:Drivers/STM32L4xx_HAL_Driver/Src/stm32l4xx_hal_rtc_ex.c **** }
 871              		.loc 1 804 1 is_stmt 0 view .LVU300
 872 0068 F8BD     		pop	{r3, r4, r5, r6, r7, pc}
 873              	.LVL57:
 874              	.L48:
 764:Drivers/STM32L4xx_HAL_Driver/Src/stm32l4xx_hal_rtc_ex.c **** #if defined(STM32L412xx) || defined(STM32L422xx) || defined (STM32L4P5xx) || defined (STM32L4Q5xx)
 875              		.loc 1 764 5 is_stmt 1 view .LVU301
 764:Drivers/STM32L4xx_HAL_Driver/Src/stm32l4xx_hal_rtc_ex.c **** #if defined(STM32L412xx) || defined(STM32L422xx) || defined (STM32L4P5xx) || defined (STM32L4Q5xx)
 876              		.loc 1 764 17 is_stmt 0 view .LVU302
 877 006a FFF7FEFF 		bl	HAL_GetTick
 878              	.LVL58:
 764:Drivers/STM32L4xx_HAL_Driver/Src/stm32l4xx_hal_rtc_ex.c **** #if defined(STM32L412xx) || defined(STM32L422xx) || defined (STM32L4P5xx) || defined (STM32L4Q5xx)
 879              		.loc 1 764 17 view .LVU303
 880 006e 0746     		mov	r7, r0
 881              	.LVL59:
 766:Drivers/STM32L4xx_HAL_Driver/Src/stm32l4xx_hal_rtc_ex.c **** #else
 882              		.loc 1 766 5 is_stmt 1 view .LVU304
 883              	.L44:
 766:Drivers/STM32L4xx_HAL_Driver/Src/stm32l4xx_hal_rtc_ex.c **** #else
 884              		.loc 1 766 11 view .LVU305
 766:Drivers/STM32L4xx_HAL_Driver/Src/stm32l4xx_hal_rtc_ex.c **** #else
 885              		.loc 1 766 12 is_stmt 0 view .LVU306
 886 0070 2368     		ldr	r3, [r4]
 887 0072 DB68     		ldr	r3, [r3, #12]
ARM GAS  /tmp/cc49nhBG.s 			page 31


 766:Drivers/STM32L4xx_HAL_Driver/Src/stm32l4xx_hal_rtc_ex.c **** #else
 888              		.loc 1 766 11 view .LVU307
 889 0074 13F0040F 		tst	r3, #4
 890 0078 E0D1     		bne	.L43
 771:Drivers/STM32L4xx_HAL_Driver/Src/stm32l4xx_hal_rtc_ex.c ****       {
 891              		.loc 1 771 7 is_stmt 1 view .LVU308
 771:Drivers/STM32L4xx_HAL_Driver/Src/stm32l4xx_hal_rtc_ex.c ****       {
 892              		.loc 1 771 12 is_stmt 0 view .LVU309
 893 007a FFF7FEFF 		bl	HAL_GetTick
 894              	.LVL60:
 771:Drivers/STM32L4xx_HAL_Driver/Src/stm32l4xx_hal_rtc_ex.c ****       {
 895              		.loc 1 771 26 view .LVU310
 896 007e C01B     		subs	r0, r0, r7
 771:Drivers/STM32L4xx_HAL_Driver/Src/stm32l4xx_hal_rtc_ex.c ****       {
 897              		.loc 1 771 10 view .LVU311
 898 0080 B0F57A7F 		cmp	r0, #1000
 899 0084 F4D9     		bls	.L44
 774:Drivers/STM32L4xx_HAL_Driver/Src/stm32l4xx_hal_rtc_ex.c **** 
 900              		.loc 1 774 9 is_stmt 1 view .LVU312
 774:Drivers/STM32L4xx_HAL_Driver/Src/stm32l4xx_hal_rtc_ex.c **** 
 901              		.loc 1 774 9 view .LVU313
 902 0086 2368     		ldr	r3, [r4]
 903 0088 FF22     		movs	r2, #255
 904 008a 5A62     		str	r2, [r3, #36]
 774:Drivers/STM32L4xx_HAL_Driver/Src/stm32l4xx_hal_rtc_ex.c **** 
 905              		.loc 1 774 9 view .LVU314
 776:Drivers/STM32L4xx_HAL_Driver/Src/stm32l4xx_hal_rtc_ex.c **** 
 906              		.loc 1 776 9 view .LVU315
 776:Drivers/STM32L4xx_HAL_Driver/Src/stm32l4xx_hal_rtc_ex.c **** 
 907              		.loc 1 776 21 is_stmt 0 view .LVU316
 908 008c 0320     		movs	r0, #3
 909 008e 84F82900 		strb	r0, [r4, #41]
 779:Drivers/STM32L4xx_HAL_Driver/Src/stm32l4xx_hal_rtc_ex.c **** 
 910              		.loc 1 779 9 is_stmt 1 view .LVU317
 779:Drivers/STM32L4xx_HAL_Driver/Src/stm32l4xx_hal_rtc_ex.c **** 
 911              		.loc 1 779 9 view .LVU318
 912 0092 0023     		movs	r3, #0
 913 0094 84F82830 		strb	r3, [r4, #40]
 779:Drivers/STM32L4xx_HAL_Driver/Src/stm32l4xx_hal_rtc_ex.c **** 
 914              		.loc 1 779 9 view .LVU319
 781:Drivers/STM32L4xx_HAL_Driver/Src/stm32l4xx_hal_rtc_ex.c ****       }
 915              		.loc 1 781 9 view .LVU320
 781:Drivers/STM32L4xx_HAL_Driver/Src/stm32l4xx_hal_rtc_ex.c ****       }
 916              		.loc 1 781 16 is_stmt 0 view .LVU321
 917 0098 E6E7     		b	.L42
 918              	.LVL61:
 919              	.L46:
 745:Drivers/STM32L4xx_HAL_Driver/Src/stm32l4xx_hal_rtc_ex.c **** 
 920              		.loc 1 745 3 view .LVU322
 921 009a 0220     		movs	r0, #2
 922              	.LVL62:
 745:Drivers/STM32L4xx_HAL_Driver/Src/stm32l4xx_hal_rtc_ex.c **** 
 923              		.loc 1 745 3 view .LVU323
 924 009c E4E7     		b	.L42
 925              		.cfi_endproc
 926              	.LFE141:
 928              		.section	.text.HAL_RTCEx_SetWakeUpTimer_IT,"ax",%progbits
ARM GAS  /tmp/cc49nhBG.s 			page 32


 929              		.align	1
 930              		.global	HAL_RTCEx_SetWakeUpTimer_IT
 931              		.syntax unified
 932              		.thumb
 933              		.thumb_func
 934              		.fpu fpv4-sp-d16
 936              	HAL_RTCEx_SetWakeUpTimer_IT:
 937              	.LVL63:
 938              	.LFB142:
 805:Drivers/STM32L4xx_HAL_Driver/Src/stm32l4xx_hal_rtc_ex.c **** 
 806:Drivers/STM32L4xx_HAL_Driver/Src/stm32l4xx_hal_rtc_ex.c **** /**
 807:Drivers/STM32L4xx_HAL_Driver/Src/stm32l4xx_hal_rtc_ex.c ****   * @brief  Set wake up timer with interrupt.
 808:Drivers/STM32L4xx_HAL_Driver/Src/stm32l4xx_hal_rtc_ex.c ****   * @param  hrtc RTC handle
 809:Drivers/STM32L4xx_HAL_Driver/Src/stm32l4xx_hal_rtc_ex.c ****   * @param  WakeUpCounter Wake up counter
 810:Drivers/STM32L4xx_HAL_Driver/Src/stm32l4xx_hal_rtc_ex.c ****   * @param  WakeUpClock Wake up clock
 811:Drivers/STM32L4xx_HAL_Driver/Src/stm32l4xx_hal_rtc_ex.c ****   * @param  WakeUpAutoClr Wake up auto clear value (look at WUTOCLR in reference manual)
 812:Drivers/STM32L4xx_HAL_Driver/Src/stm32l4xx_hal_rtc_ex.c ****   *                       - Only available for STM32L412xx and STM32L422xx
 813:Drivers/STM32L4xx_HAL_Driver/Src/stm32l4xx_hal_rtc_ex.c ****   *                       - No effect if WakeUpAutoClr is set to zero
 814:Drivers/STM32L4xx_HAL_Driver/Src/stm32l4xx_hal_rtc_ex.c ****   *                       - This feature is meaningful in case of Low power mode to avoid any RTC s
 815:Drivers/STM32L4xx_HAL_Driver/Src/stm32l4xx_hal_rtc_ex.c ****   *                         That is why when WakeUpAutoClr is set, EXTI is configured as EVENT inst
 816:Drivers/STM32L4xx_HAL_Driver/Src/stm32l4xx_hal_rtc_ex.c ****   * @retval HAL status
 817:Drivers/STM32L4xx_HAL_Driver/Src/stm32l4xx_hal_rtc_ex.c ****   */
 818:Drivers/STM32L4xx_HAL_Driver/Src/stm32l4xx_hal_rtc_ex.c **** #if defined(STM32L412xx) || defined(STM32L422xx) || defined (STM32L4P5xx) || defined (STM32L4Q5xx)
 819:Drivers/STM32L4xx_HAL_Driver/Src/stm32l4xx_hal_rtc_ex.c **** HAL_StatusTypeDef HAL_RTCEx_SetWakeUpTimer_IT(RTC_HandleTypeDef *hrtc, uint32_t WakeUpCounter, uint
 820:Drivers/STM32L4xx_HAL_Driver/Src/stm32l4xx_hal_rtc_ex.c **** #else
 821:Drivers/STM32L4xx_HAL_Driver/Src/stm32l4xx_hal_rtc_ex.c **** HAL_StatusTypeDef HAL_RTCEx_SetWakeUpTimer_IT(RTC_HandleTypeDef *hrtc, uint32_t WakeUpCounter, uint
 822:Drivers/STM32L4xx_HAL_Driver/Src/stm32l4xx_hal_rtc_ex.c **** #endif
 823:Drivers/STM32L4xx_HAL_Driver/Src/stm32l4xx_hal_rtc_ex.c **** {
 939              		.loc 1 823 1 is_stmt 1 view -0
 940              		.cfi_startproc
 941              		@ args = 0, pretend = 0, frame = 0
 942              		@ frame_needed = 0, uses_anonymous_args = 0
 943              		.loc 1 823 1 is_stmt 0 view .LVU325
 944 0000 2DE9F843 		push	{r3, r4, r5, r6, r7, r8, r9, lr}
 945              	.LCFI7:
 946              		.cfi_def_cfa_offset 32
 947              		.cfi_offset 3, -32
 948              		.cfi_offset 4, -28
 949              		.cfi_offset 5, -24
 950              		.cfi_offset 6, -20
 951              		.cfi_offset 7, -16
 952              		.cfi_offset 8, -12
 953              		.cfi_offset 9, -8
 954              		.cfi_offset 14, -4
 955 0004 1F46     		mov	r7, r3
 824:Drivers/STM32L4xx_HAL_Driver/Src/stm32l4xx_hal_rtc_ex.c ****   uint32_t tickstart;
 956              		.loc 1 824 3 is_stmt 1 view .LVU326
 825:Drivers/STM32L4xx_HAL_Driver/Src/stm32l4xx_hal_rtc_ex.c **** 
 826:Drivers/STM32L4xx_HAL_Driver/Src/stm32l4xx_hal_rtc_ex.c ****   /* Check the parameters */
 827:Drivers/STM32L4xx_HAL_Driver/Src/stm32l4xx_hal_rtc_ex.c ****   assert_param(IS_RTC_WAKEUP_CLOCK(WakeUpClock));
 957              		.loc 1 827 3 view .LVU327
 828:Drivers/STM32L4xx_HAL_Driver/Src/stm32l4xx_hal_rtc_ex.c ****   assert_param(IS_RTC_WAKEUP_COUNTER(WakeUpCounter));
 958              		.loc 1 828 3 view .LVU328
 829:Drivers/STM32L4xx_HAL_Driver/Src/stm32l4xx_hal_rtc_ex.c **** #if defined(STM32L412xx) || defined(STM32L422xx) || defined (STM32L4P5xx) || defined (STM32L4Q5xx)
 830:Drivers/STM32L4xx_HAL_Driver/Src/stm32l4xx_hal_rtc_ex.c ****   /* (0x0000<=WUTOCLR<=WUT) */
 831:Drivers/STM32L4xx_HAL_Driver/Src/stm32l4xx_hal_rtc_ex.c ****   assert_param(WakeUpAutoClr <= WakeUpCounter);
 959              		.loc 1 831 3 view .LVU329
ARM GAS  /tmp/cc49nhBG.s 			page 33


 832:Drivers/STM32L4xx_HAL_Driver/Src/stm32l4xx_hal_rtc_ex.c **** #endif
 833:Drivers/STM32L4xx_HAL_Driver/Src/stm32l4xx_hal_rtc_ex.c **** 
 834:Drivers/STM32L4xx_HAL_Driver/Src/stm32l4xx_hal_rtc_ex.c ****   /* Process Locked */
 835:Drivers/STM32L4xx_HAL_Driver/Src/stm32l4xx_hal_rtc_ex.c ****   __HAL_LOCK(hrtc);
 960              		.loc 1 835 3 view .LVU330
 961              		.loc 1 835 3 view .LVU331
 962 0006 90F82830 		ldrb	r3, [r0, #40]	@ zero_extendqisi2
 963              	.LVL64:
 964              		.loc 1 835 3 is_stmt 0 view .LVU332
 965 000a 012B     		cmp	r3, #1
 966 000c 66D0     		beq	.L56
 967 000e 0446     		mov	r4, r0
 968 0010 0E46     		mov	r6, r1
 969 0012 9046     		mov	r8, r2
 970              		.loc 1 835 3 is_stmt 1 discriminator 2 view .LVU333
 971 0014 0123     		movs	r3, #1
 972 0016 80F82830 		strb	r3, [r0, #40]
 973              		.loc 1 835 3 discriminator 2 view .LVU334
 836:Drivers/STM32L4xx_HAL_Driver/Src/stm32l4xx_hal_rtc_ex.c **** 
 837:Drivers/STM32L4xx_HAL_Driver/Src/stm32l4xx_hal_rtc_ex.c ****   hrtc->State = HAL_RTC_STATE_BUSY;
 974              		.loc 1 837 3 discriminator 2 view .LVU335
 975              		.loc 1 837 15 is_stmt 0 discriminator 2 view .LVU336
 976 001a 0223     		movs	r3, #2
 977 001c 80F82930 		strb	r3, [r0, #41]
 838:Drivers/STM32L4xx_HAL_Driver/Src/stm32l4xx_hal_rtc_ex.c **** 
 839:Drivers/STM32L4xx_HAL_Driver/Src/stm32l4xx_hal_rtc_ex.c ****   /* Disable the write protection for RTC registers */
 840:Drivers/STM32L4xx_HAL_Driver/Src/stm32l4xx_hal_rtc_ex.c ****   __HAL_RTC_WRITEPROTECTION_DISABLE(hrtc);
 978              		.loc 1 840 3 is_stmt 1 discriminator 2 view .LVU337
 979              		.loc 1 840 3 discriminator 2 view .LVU338
 980 0020 0368     		ldr	r3, [r0]
 981 0022 CA22     		movs	r2, #202
 982              	.LVL65:
 983              		.loc 1 840 3 is_stmt 0 discriminator 2 view .LVU339
 984 0024 5A62     		str	r2, [r3, #36]
 985              		.loc 1 840 3 is_stmt 1 discriminator 2 view .LVU340
 986 0026 0368     		ldr	r3, [r0]
 987 0028 5322     		movs	r2, #83
 988 002a 5A62     		str	r2, [r3, #36]
 989              		.loc 1 840 3 discriminator 2 view .LVU341
 841:Drivers/STM32L4xx_HAL_Driver/Src/stm32l4xx_hal_rtc_ex.c **** 
 842:Drivers/STM32L4xx_HAL_Driver/Src/stm32l4xx_hal_rtc_ex.c ****   /* Clear WUTE in RTC_CR to disable the wakeup timer */
 843:Drivers/STM32L4xx_HAL_Driver/Src/stm32l4xx_hal_rtc_ex.c ****   CLEAR_BIT(hrtc->Instance->CR, RTC_CR_WUTE);
 990              		.loc 1 843 3 discriminator 2 view .LVU342
 991 002c 0268     		ldr	r2, [r0]
 992 002e 9369     		ldr	r3, [r2, #24]
 993 0030 23F48063 		bic	r3, r3, #1024
 994 0034 9361     		str	r3, [r2, #24]
 844:Drivers/STM32L4xx_HAL_Driver/Src/stm32l4xx_hal_rtc_ex.c **** 
 845:Drivers/STM32L4xx_HAL_Driver/Src/stm32l4xx_hal_rtc_ex.c ****   /* Clear flag Wake-Up */
 846:Drivers/STM32L4xx_HAL_Driver/Src/stm32l4xx_hal_rtc_ex.c ****   __HAL_RTC_WAKEUPTIMER_CLEAR_FLAG(hrtc, RTC_FLAG_WUTF);
 995              		.loc 1 846 3 discriminator 2 view .LVU343
 996 0036 0368     		ldr	r3, [r0]
 997 0038 0422     		movs	r2, #4
 998 003a DA65     		str	r2, [r3, #92]
 847:Drivers/STM32L4xx_HAL_Driver/Src/stm32l4xx_hal_rtc_ex.c **** 
 848:Drivers/STM32L4xx_HAL_Driver/Src/stm32l4xx_hal_rtc_ex.c ****   /* Poll WUTWF until it is set in RTC_ICSR to make sure the access to wakeup autoreload
 849:Drivers/STM32L4xx_HAL_Driver/Src/stm32l4xx_hal_rtc_ex.c ****      counter and to WUCKSEL[2:0] bits is allowed. This step must be skipped in
ARM GAS  /tmp/cc49nhBG.s 			page 34


 850:Drivers/STM32L4xx_HAL_Driver/Src/stm32l4xx_hal_rtc_ex.c ****      calendar initialization mode. */
 851:Drivers/STM32L4xx_HAL_Driver/Src/stm32l4xx_hal_rtc_ex.c **** #if defined(STM32L412xx) || defined(STM32L422xx) || defined (STM32L4P5xx) || defined (STM32L4Q5xx)
 852:Drivers/STM32L4xx_HAL_Driver/Src/stm32l4xx_hal_rtc_ex.c ****   if (READ_BIT(hrtc->Instance->ICSR, RTC_ICSR_INITF) == 0U)
 999              		.loc 1 852 3 discriminator 2 view .LVU344
 1000              		.loc 1 852 7 is_stmt 0 discriminator 2 view .LVU345
 1001 003c 0368     		ldr	r3, [r0]
 1002 003e DB68     		ldr	r3, [r3, #12]
 1003              		.loc 1 852 6 discriminator 2 view .LVU346
 1004 0040 13F0400F 		tst	r3, #64
 1005 0044 2BD0     		beq	.L58
 1006              	.LVL66:
 1007              	.L51:
 853:Drivers/STM32L4xx_HAL_Driver/Src/stm32l4xx_hal_rtc_ex.c **** #else
 854:Drivers/STM32L4xx_HAL_Driver/Src/stm32l4xx_hal_rtc_ex.c ****   if (READ_BIT(hrtc->Instance->ISR, RTC_ISR_INITF) == 0U)
 855:Drivers/STM32L4xx_HAL_Driver/Src/stm32l4xx_hal_rtc_ex.c **** #endif
 856:Drivers/STM32L4xx_HAL_Driver/Src/stm32l4xx_hal_rtc_ex.c ****   {
 857:Drivers/STM32L4xx_HAL_Driver/Src/stm32l4xx_hal_rtc_ex.c ****     tickstart = HAL_GetTick();
 858:Drivers/STM32L4xx_HAL_Driver/Src/stm32l4xx_hal_rtc_ex.c **** #if defined(STM32L412xx) || defined(STM32L422xx) || defined (STM32L4P5xx) || defined (STM32L4Q5xx)
 859:Drivers/STM32L4xx_HAL_Driver/Src/stm32l4xx_hal_rtc_ex.c ****     while (READ_BIT(hrtc->Instance->ICSR, RTC_ICSR_WUTWF) == 0U)
 860:Drivers/STM32L4xx_HAL_Driver/Src/stm32l4xx_hal_rtc_ex.c **** #else
 861:Drivers/STM32L4xx_HAL_Driver/Src/stm32l4xx_hal_rtc_ex.c ****     while (READ_BIT(hrtc->Instance->ISR, RTC_ISR_WUTWF) == 0U)
 862:Drivers/STM32L4xx_HAL_Driver/Src/stm32l4xx_hal_rtc_ex.c **** #endif
 863:Drivers/STM32L4xx_HAL_Driver/Src/stm32l4xx_hal_rtc_ex.c ****     {
 864:Drivers/STM32L4xx_HAL_Driver/Src/stm32l4xx_hal_rtc_ex.c ****       if ((HAL_GetTick() - tickstart) > RTC_TIMEOUT_VALUE)
 865:Drivers/STM32L4xx_HAL_Driver/Src/stm32l4xx_hal_rtc_ex.c ****       {
 866:Drivers/STM32L4xx_HAL_Driver/Src/stm32l4xx_hal_rtc_ex.c ****         /* Enable the write protection for RTC registers */
 867:Drivers/STM32L4xx_HAL_Driver/Src/stm32l4xx_hal_rtc_ex.c ****         __HAL_RTC_WRITEPROTECTION_ENABLE(hrtc);
 868:Drivers/STM32L4xx_HAL_Driver/Src/stm32l4xx_hal_rtc_ex.c **** 
 869:Drivers/STM32L4xx_HAL_Driver/Src/stm32l4xx_hal_rtc_ex.c ****         hrtc->State = HAL_RTC_STATE_TIMEOUT;
 870:Drivers/STM32L4xx_HAL_Driver/Src/stm32l4xx_hal_rtc_ex.c **** 
 871:Drivers/STM32L4xx_HAL_Driver/Src/stm32l4xx_hal_rtc_ex.c ****         /* Process Unlocked */
 872:Drivers/STM32L4xx_HAL_Driver/Src/stm32l4xx_hal_rtc_ex.c ****         __HAL_UNLOCK(hrtc);
 873:Drivers/STM32L4xx_HAL_Driver/Src/stm32l4xx_hal_rtc_ex.c **** 
 874:Drivers/STM32L4xx_HAL_Driver/Src/stm32l4xx_hal_rtc_ex.c ****         return HAL_TIMEOUT;
 875:Drivers/STM32L4xx_HAL_Driver/Src/stm32l4xx_hal_rtc_ex.c ****       }
 876:Drivers/STM32L4xx_HAL_Driver/Src/stm32l4xx_hal_rtc_ex.c ****     }
 877:Drivers/STM32L4xx_HAL_Driver/Src/stm32l4xx_hal_rtc_ex.c ****   }
 878:Drivers/STM32L4xx_HAL_Driver/Src/stm32l4xx_hal_rtc_ex.c **** 
 879:Drivers/STM32L4xx_HAL_Driver/Src/stm32l4xx_hal_rtc_ex.c **** #if defined(STM32L412xx) || defined(STM32L422xx) || defined (STM32L4P5xx) || defined (STM32L4Q5xx)
 880:Drivers/STM32L4xx_HAL_Driver/Src/stm32l4xx_hal_rtc_ex.c ****   /* Configure the Wakeup Timer counter and auto clear value */
 881:Drivers/STM32L4xx_HAL_Driver/Src/stm32l4xx_hal_rtc_ex.c ****   hrtc->Instance->WUTR = (uint32_t)(WakeUpCounter | (WakeUpAutoClr << RTC_WUTR_WUTOCLR_Pos));
 1008              		.loc 1 881 3 is_stmt 1 view .LVU347
 1009              		.loc 1 881 7 is_stmt 0 view .LVU348
 1010 0046 2368     		ldr	r3, [r4]
 1011              		.loc 1 881 51 view .LVU349
 1012 0048 46EA0746 		orr	r6, r6, r7, lsl #16
 1013              	.LVL67:
 1014              		.loc 1 881 24 view .LVU350
 1015 004c 5E61     		str	r6, [r3, #20]
 882:Drivers/STM32L4xx_HAL_Driver/Src/stm32l4xx_hal_rtc_ex.c **** #else
 883:Drivers/STM32L4xx_HAL_Driver/Src/stm32l4xx_hal_rtc_ex.c ****   /* Configure the Wakeup Timer counter */
 884:Drivers/STM32L4xx_HAL_Driver/Src/stm32l4xx_hal_rtc_ex.c ****   hrtc->Instance->WUTR = (uint32_t)WakeUpCounter;
 885:Drivers/STM32L4xx_HAL_Driver/Src/stm32l4xx_hal_rtc_ex.c **** #endif
 886:Drivers/STM32L4xx_HAL_Driver/Src/stm32l4xx_hal_rtc_ex.c **** 
 887:Drivers/STM32L4xx_HAL_Driver/Src/stm32l4xx_hal_rtc_ex.c ****   /* Configure the clock source */
 888:Drivers/STM32L4xx_HAL_Driver/Src/stm32l4xx_hal_rtc_ex.c ****   MODIFY_REG(hrtc->Instance->CR, RTC_CR_WUCKSEL, (uint32_t)WakeUpClock);
 1016              		.loc 1 888 3 is_stmt 1 view .LVU351
ARM GAS  /tmp/cc49nhBG.s 			page 35


 1017 004e 2368     		ldr	r3, [r4]
 1018 0050 9A69     		ldr	r2, [r3, #24]
 1019 0052 22F00702 		bic	r2, r2, #7
 1020 0056 42EA0802 		orr	r2, r2, r8
 1021 005a 9A61     		str	r2, [r3, #24]
 889:Drivers/STM32L4xx_HAL_Driver/Src/stm32l4xx_hal_rtc_ex.c **** 
 890:Drivers/STM32L4xx_HAL_Driver/Src/stm32l4xx_hal_rtc_ex.c **** #if defined(STM32L412xx) || defined(STM32L422xx) || defined (STM32L4P5xx) || defined (STM32L4Q5xx)
 891:Drivers/STM32L4xx_HAL_Driver/Src/stm32l4xx_hal_rtc_ex.c ****   /* In case of WUT autoclr, the IRQ handler should not be called */
 892:Drivers/STM32L4xx_HAL_Driver/Src/stm32l4xx_hal_rtc_ex.c ****   if (WakeUpAutoClr != 0u)
 1022              		.loc 1 892 3 view .LVU352
 1023              		.loc 1 892 6 is_stmt 0 view .LVU353
 1024 005c 002F     		cmp	r7, #0
 1025 005e 37D0     		beq	.L54
 893:Drivers/STM32L4xx_HAL_Driver/Src/stm32l4xx_hal_rtc_ex.c ****   {
 894:Drivers/STM32L4xx_HAL_Driver/Src/stm32l4xx_hal_rtc_ex.c ****     /* RTC WakeUpTimer EXTI Configuration: Event configuration */
 895:Drivers/STM32L4xx_HAL_Driver/Src/stm32l4xx_hal_rtc_ex.c ****     __HAL_RTC_WAKEUPTIMER_EXTI_ENABLE_EVENT();
 1026              		.loc 1 895 5 is_stmt 1 view .LVU354
 1027 0060 1F4A     		ldr	r2, .L59
 1028 0062 5368     		ldr	r3, [r2, #4]
 1029 0064 43F48013 		orr	r3, r3, #1048576
 1030 0068 5360     		str	r3, [r2, #4]
 1031              	.L55:
 896:Drivers/STM32L4xx_HAL_Driver/Src/stm32l4xx_hal_rtc_ex.c ****   }
 897:Drivers/STM32L4xx_HAL_Driver/Src/stm32l4xx_hal_rtc_ex.c ****   else
 898:Drivers/STM32L4xx_HAL_Driver/Src/stm32l4xx_hal_rtc_ex.c ****   {
 899:Drivers/STM32L4xx_HAL_Driver/Src/stm32l4xx_hal_rtc_ex.c ****     /* RTC WakeUpTimer EXTI Configuration: Interrupt configuration */
 900:Drivers/STM32L4xx_HAL_Driver/Src/stm32l4xx_hal_rtc_ex.c ****     __HAL_RTC_WAKEUPTIMER_EXTI_ENABLE_IT();
 901:Drivers/STM32L4xx_HAL_Driver/Src/stm32l4xx_hal_rtc_ex.c ****   }
 902:Drivers/STM32L4xx_HAL_Driver/Src/stm32l4xx_hal_rtc_ex.c **** #else /* defined(STM32L412xx) || defined(STM32L422xx) || defined (STM32L4P5xx) || defined (STM32L4Q
 903:Drivers/STM32L4xx_HAL_Driver/Src/stm32l4xx_hal_rtc_ex.c ****   __HAL_RTC_WAKEUPTIMER_EXTI_ENABLE_IT();
 904:Drivers/STM32L4xx_HAL_Driver/Src/stm32l4xx_hal_rtc_ex.c **** #endif /* defined(STM32L412xx) || defined(STM32L422xx) || defined (STM32L4P5xx) || defined (STM32L4
 905:Drivers/STM32L4xx_HAL_Driver/Src/stm32l4xx_hal_rtc_ex.c **** 
 906:Drivers/STM32L4xx_HAL_Driver/Src/stm32l4xx_hal_rtc_ex.c ****   __HAL_RTC_WAKEUPTIMER_EXTI_ENABLE_RISING_EDGE();
 1032              		.loc 1 906 3 view .LVU355
 1033 006a 1D4A     		ldr	r2, .L59
 1034 006c 9368     		ldr	r3, [r2, #8]
 1035 006e 43F48013 		orr	r3, r3, #1048576
 1036 0072 9360     		str	r3, [r2, #8]
 907:Drivers/STM32L4xx_HAL_Driver/Src/stm32l4xx_hal_rtc_ex.c **** 
 908:Drivers/STM32L4xx_HAL_Driver/Src/stm32l4xx_hal_rtc_ex.c ****   /* Configure the Interrupt in the RTC_CR register */
 909:Drivers/STM32L4xx_HAL_Driver/Src/stm32l4xx_hal_rtc_ex.c ****   __HAL_RTC_WAKEUPTIMER_ENABLE_IT(hrtc, RTC_IT_WUT);
 1037              		.loc 1 909 3 view .LVU356
 1038 0074 2268     		ldr	r2, [r4]
 1039 0076 9369     		ldr	r3, [r2, #24]
 1040 0078 43F48043 		orr	r3, r3, #16384
 1041 007c 9361     		str	r3, [r2, #24]
 910:Drivers/STM32L4xx_HAL_Driver/Src/stm32l4xx_hal_rtc_ex.c **** 
 911:Drivers/STM32L4xx_HAL_Driver/Src/stm32l4xx_hal_rtc_ex.c ****   /* Enable the Wakeup Timer */
 912:Drivers/STM32L4xx_HAL_Driver/Src/stm32l4xx_hal_rtc_ex.c ****   __HAL_RTC_WAKEUPTIMER_ENABLE(hrtc);
 1042              		.loc 1 912 3 view .LVU357
 1043 007e 2268     		ldr	r2, [r4]
 1044 0080 9369     		ldr	r3, [r2, #24]
 1045 0082 43F48063 		orr	r3, r3, #1024
 1046 0086 9361     		str	r3, [r2, #24]
 913:Drivers/STM32L4xx_HAL_Driver/Src/stm32l4xx_hal_rtc_ex.c **** 
 914:Drivers/STM32L4xx_HAL_Driver/Src/stm32l4xx_hal_rtc_ex.c ****   /* Enable the write protection for RTC registers */
 915:Drivers/STM32L4xx_HAL_Driver/Src/stm32l4xx_hal_rtc_ex.c ****   __HAL_RTC_WRITEPROTECTION_ENABLE(hrtc);
ARM GAS  /tmp/cc49nhBG.s 			page 36


 1047              		.loc 1 915 3 view .LVU358
 1048              		.loc 1 915 3 view .LVU359
 1049 0088 2368     		ldr	r3, [r4]
 1050 008a FF22     		movs	r2, #255
 1051 008c 5A62     		str	r2, [r3, #36]
 1052              		.loc 1 915 3 view .LVU360
 916:Drivers/STM32L4xx_HAL_Driver/Src/stm32l4xx_hal_rtc_ex.c **** 
 917:Drivers/STM32L4xx_HAL_Driver/Src/stm32l4xx_hal_rtc_ex.c ****   hrtc->State = HAL_RTC_STATE_READY;
 1053              		.loc 1 917 3 view .LVU361
 1054              		.loc 1 917 15 is_stmt 0 view .LVU362
 1055 008e 0123     		movs	r3, #1
 1056 0090 84F82930 		strb	r3, [r4, #41]
 918:Drivers/STM32L4xx_HAL_Driver/Src/stm32l4xx_hal_rtc_ex.c **** 
 919:Drivers/STM32L4xx_HAL_Driver/Src/stm32l4xx_hal_rtc_ex.c ****   /* Process Unlocked */
 920:Drivers/STM32L4xx_HAL_Driver/Src/stm32l4xx_hal_rtc_ex.c ****   __HAL_UNLOCK(hrtc);
 1057              		.loc 1 920 3 is_stmt 1 view .LVU363
 1058              		.loc 1 920 3 view .LVU364
 1059 0094 0020     		movs	r0, #0
 1060 0096 84F82800 		strb	r0, [r4, #40]
 1061              		.loc 1 920 3 view .LVU365
 921:Drivers/STM32L4xx_HAL_Driver/Src/stm32l4xx_hal_rtc_ex.c **** 
 922:Drivers/STM32L4xx_HAL_Driver/Src/stm32l4xx_hal_rtc_ex.c ****   return HAL_OK;
 1062              		.loc 1 922 3 view .LVU366
 1063              	.LVL68:
 1064              	.L50:
 923:Drivers/STM32L4xx_HAL_Driver/Src/stm32l4xx_hal_rtc_ex.c **** }
 1065              		.loc 1 923 1 is_stmt 0 view .LVU367
 1066 009a BDE8F883 		pop	{r3, r4, r5, r6, r7, r8, r9, pc}
 1067              	.LVL69:
 1068              	.L58:
 857:Drivers/STM32L4xx_HAL_Driver/Src/stm32l4xx_hal_rtc_ex.c **** #if defined(STM32L412xx) || defined(STM32L422xx) || defined (STM32L4P5xx) || defined (STM32L4Q5xx)
 1069              		.loc 1 857 5 is_stmt 1 view .LVU368
 857:Drivers/STM32L4xx_HAL_Driver/Src/stm32l4xx_hal_rtc_ex.c **** #if defined(STM32L412xx) || defined(STM32L422xx) || defined (STM32L4P5xx) || defined (STM32L4Q5xx)
 1070              		.loc 1 857 17 is_stmt 0 view .LVU369
 1071 009e FFF7FEFF 		bl	HAL_GetTick
 1072              	.LVL70:
 857:Drivers/STM32L4xx_HAL_Driver/Src/stm32l4xx_hal_rtc_ex.c **** #if defined(STM32L412xx) || defined(STM32L422xx) || defined (STM32L4P5xx) || defined (STM32L4Q5xx)
 1073              		.loc 1 857 17 view .LVU370
 1074 00a2 8146     		mov	r9, r0
 1075              	.LVL71:
 859:Drivers/STM32L4xx_HAL_Driver/Src/stm32l4xx_hal_rtc_ex.c **** #else
 1076              		.loc 1 859 5 is_stmt 1 view .LVU371
 1077              	.L52:
 859:Drivers/STM32L4xx_HAL_Driver/Src/stm32l4xx_hal_rtc_ex.c **** #else
 1078              		.loc 1 859 11 view .LVU372
 859:Drivers/STM32L4xx_HAL_Driver/Src/stm32l4xx_hal_rtc_ex.c **** #else
 1079              		.loc 1 859 12 is_stmt 0 view .LVU373
 1080 00a4 2368     		ldr	r3, [r4]
 1081 00a6 DD68     		ldr	r5, [r3, #12]
 859:Drivers/STM32L4xx_HAL_Driver/Src/stm32l4xx_hal_rtc_ex.c **** #else
 1082              		.loc 1 859 11 view .LVU374
 1083 00a8 15F0040F 		tst	r5, #4
 1084 00ac CBD1     		bne	.L51
 864:Drivers/STM32L4xx_HAL_Driver/Src/stm32l4xx_hal_rtc_ex.c ****       {
 1085              		.loc 1 864 7 is_stmt 1 view .LVU375
 864:Drivers/STM32L4xx_HAL_Driver/Src/stm32l4xx_hal_rtc_ex.c ****       {
 1086              		.loc 1 864 12 is_stmt 0 view .LVU376
ARM GAS  /tmp/cc49nhBG.s 			page 37


 1087 00ae FFF7FEFF 		bl	HAL_GetTick
 1088              	.LVL72:
 864:Drivers/STM32L4xx_HAL_Driver/Src/stm32l4xx_hal_rtc_ex.c ****       {
 1089              		.loc 1 864 26 view .LVU377
 1090 00b2 A0EB0900 		sub	r0, r0, r9
 864:Drivers/STM32L4xx_HAL_Driver/Src/stm32l4xx_hal_rtc_ex.c ****       {
 1091              		.loc 1 864 10 view .LVU378
 1092 00b6 B0F57A7F 		cmp	r0, #1000
 1093 00ba F3D9     		bls	.L52
 867:Drivers/STM32L4xx_HAL_Driver/Src/stm32l4xx_hal_rtc_ex.c **** 
 1094              		.loc 1 867 9 is_stmt 1 view .LVU379
 867:Drivers/STM32L4xx_HAL_Driver/Src/stm32l4xx_hal_rtc_ex.c **** 
 1095              		.loc 1 867 9 view .LVU380
 1096 00bc 2368     		ldr	r3, [r4]
 1097 00be FF22     		movs	r2, #255
 1098 00c0 5A62     		str	r2, [r3, #36]
 867:Drivers/STM32L4xx_HAL_Driver/Src/stm32l4xx_hal_rtc_ex.c **** 
 1099              		.loc 1 867 9 view .LVU381
 869:Drivers/STM32L4xx_HAL_Driver/Src/stm32l4xx_hal_rtc_ex.c **** 
 1100              		.loc 1 869 9 view .LVU382
 869:Drivers/STM32L4xx_HAL_Driver/Src/stm32l4xx_hal_rtc_ex.c **** 
 1101              		.loc 1 869 21 is_stmt 0 view .LVU383
 1102 00c2 0320     		movs	r0, #3
 1103 00c4 84F82900 		strb	r0, [r4, #41]
 872:Drivers/STM32L4xx_HAL_Driver/Src/stm32l4xx_hal_rtc_ex.c **** 
 1104              		.loc 1 872 9 is_stmt 1 view .LVU384
 872:Drivers/STM32L4xx_HAL_Driver/Src/stm32l4xx_hal_rtc_ex.c **** 
 1105              		.loc 1 872 9 view .LVU385
 1106 00c8 0023     		movs	r3, #0
 1107 00ca 84F82830 		strb	r3, [r4, #40]
 872:Drivers/STM32L4xx_HAL_Driver/Src/stm32l4xx_hal_rtc_ex.c **** 
 1108              		.loc 1 872 9 view .LVU386
 874:Drivers/STM32L4xx_HAL_Driver/Src/stm32l4xx_hal_rtc_ex.c ****       }
 1109              		.loc 1 874 9 view .LVU387
 874:Drivers/STM32L4xx_HAL_Driver/Src/stm32l4xx_hal_rtc_ex.c ****       }
 1110              		.loc 1 874 16 is_stmt 0 view .LVU388
 1111 00ce E4E7     		b	.L50
 1112              	.LVL73:
 1113              	.L54:
 900:Drivers/STM32L4xx_HAL_Driver/Src/stm32l4xx_hal_rtc_ex.c ****   }
 1114              		.loc 1 900 5 is_stmt 1 view .LVU389
 1115 00d0 034A     		ldr	r2, .L59
 1116 00d2 1368     		ldr	r3, [r2]
 1117 00d4 43F48013 		orr	r3, r3, #1048576
 1118 00d8 1360     		str	r3, [r2]
 1119 00da C6E7     		b	.L55
 1120              	.LVL74:
 1121              	.L56:
 835:Drivers/STM32L4xx_HAL_Driver/Src/stm32l4xx_hal_rtc_ex.c **** 
 1122              		.loc 1 835 3 is_stmt 0 view .LVU390
 1123 00dc 0220     		movs	r0, #2
 1124              	.LVL75:
 835:Drivers/STM32L4xx_HAL_Driver/Src/stm32l4xx_hal_rtc_ex.c **** 
 1125              		.loc 1 835 3 view .LVU391
 1126 00de DCE7     		b	.L50
 1127              	.L60:
 1128              		.align	2
ARM GAS  /tmp/cc49nhBG.s 			page 38


 1129              	.L59:
 1130 00e0 00040140 		.word	1073808384
 1131              		.cfi_endproc
 1132              	.LFE142:
 1134              		.section	.text.HAL_RTCEx_DeactivateWakeUpTimer,"ax",%progbits
 1135              		.align	1
 1136              		.global	HAL_RTCEx_DeactivateWakeUpTimer
 1137              		.syntax unified
 1138              		.thumb
 1139              		.thumb_func
 1140              		.fpu fpv4-sp-d16
 1142              	HAL_RTCEx_DeactivateWakeUpTimer:
 1143              	.LVL76:
 1144              	.LFB143:
 924:Drivers/STM32L4xx_HAL_Driver/Src/stm32l4xx_hal_rtc_ex.c **** 
 925:Drivers/STM32L4xx_HAL_Driver/Src/stm32l4xx_hal_rtc_ex.c **** /**
 926:Drivers/STM32L4xx_HAL_Driver/Src/stm32l4xx_hal_rtc_ex.c ****   * @brief  Deactivate wake up timer counter.
 927:Drivers/STM32L4xx_HAL_Driver/Src/stm32l4xx_hal_rtc_ex.c ****   * @param  hrtc RTC handle
 928:Drivers/STM32L4xx_HAL_Driver/Src/stm32l4xx_hal_rtc_ex.c ****   * @retval HAL status
 929:Drivers/STM32L4xx_HAL_Driver/Src/stm32l4xx_hal_rtc_ex.c ****   */
 930:Drivers/STM32L4xx_HAL_Driver/Src/stm32l4xx_hal_rtc_ex.c **** HAL_StatusTypeDef HAL_RTCEx_DeactivateWakeUpTimer(RTC_HandleTypeDef *hrtc)
 931:Drivers/STM32L4xx_HAL_Driver/Src/stm32l4xx_hal_rtc_ex.c **** {
 1145              		.loc 1 931 1 is_stmt 1 view -0
 1146              		.cfi_startproc
 1147              		@ args = 0, pretend = 0, frame = 0
 1148              		@ frame_needed = 0, uses_anonymous_args = 0
 1149              		.loc 1 931 1 is_stmt 0 view .LVU393
 1150 0000 38B5     		push	{r3, r4, r5, lr}
 1151              	.LCFI8:
 1152              		.cfi_def_cfa_offset 16
 1153              		.cfi_offset 3, -16
 1154              		.cfi_offset 4, -12
 1155              		.cfi_offset 5, -8
 1156              		.cfi_offset 14, -4
 932:Drivers/STM32L4xx_HAL_Driver/Src/stm32l4xx_hal_rtc_ex.c ****   uint32_t tickstart;
 1157              		.loc 1 932 3 is_stmt 1 view .LVU394
 933:Drivers/STM32L4xx_HAL_Driver/Src/stm32l4xx_hal_rtc_ex.c **** 
 934:Drivers/STM32L4xx_HAL_Driver/Src/stm32l4xx_hal_rtc_ex.c ****   /* Process Locked */
 935:Drivers/STM32L4xx_HAL_Driver/Src/stm32l4xx_hal_rtc_ex.c ****   __HAL_LOCK(hrtc);
 1158              		.loc 1 935 3 view .LVU395
 1159              		.loc 1 935 3 view .LVU396
 1160 0002 90F82830 		ldrb	r3, [r0, #40]	@ zero_extendqisi2
 1161 0006 012B     		cmp	r3, #1
 1162 0008 37D0     		beq	.L65
 1163 000a 0446     		mov	r4, r0
 1164              		.loc 1 935 3 discriminator 2 view .LVU397
 1165 000c 0123     		movs	r3, #1
 1166 000e 80F82830 		strb	r3, [r0, #40]
 1167              		.loc 1 935 3 discriminator 2 view .LVU398
 936:Drivers/STM32L4xx_HAL_Driver/Src/stm32l4xx_hal_rtc_ex.c **** 
 937:Drivers/STM32L4xx_HAL_Driver/Src/stm32l4xx_hal_rtc_ex.c ****   hrtc->State = HAL_RTC_STATE_BUSY;
 1168              		.loc 1 937 3 discriminator 2 view .LVU399
 1169              		.loc 1 937 15 is_stmt 0 discriminator 2 view .LVU400
 1170 0012 0223     		movs	r3, #2
 1171 0014 80F82930 		strb	r3, [r0, #41]
 938:Drivers/STM32L4xx_HAL_Driver/Src/stm32l4xx_hal_rtc_ex.c **** 
 939:Drivers/STM32L4xx_HAL_Driver/Src/stm32l4xx_hal_rtc_ex.c ****   /* Disable the write protection for RTC registers */
ARM GAS  /tmp/cc49nhBG.s 			page 39


 940:Drivers/STM32L4xx_HAL_Driver/Src/stm32l4xx_hal_rtc_ex.c ****   __HAL_RTC_WRITEPROTECTION_DISABLE(hrtc);
 1172              		.loc 1 940 3 is_stmt 1 discriminator 2 view .LVU401
 1173              		.loc 1 940 3 discriminator 2 view .LVU402
 1174 0018 0368     		ldr	r3, [r0]
 1175 001a CA22     		movs	r2, #202
 1176 001c 5A62     		str	r2, [r3, #36]
 1177              		.loc 1 940 3 discriminator 2 view .LVU403
 1178 001e 0368     		ldr	r3, [r0]
 1179 0020 5322     		movs	r2, #83
 1180 0022 5A62     		str	r2, [r3, #36]
 1181              		.loc 1 940 3 discriminator 2 view .LVU404
 941:Drivers/STM32L4xx_HAL_Driver/Src/stm32l4xx_hal_rtc_ex.c **** 
 942:Drivers/STM32L4xx_HAL_Driver/Src/stm32l4xx_hal_rtc_ex.c ****   /* Disable the Wakeup Timer */
 943:Drivers/STM32L4xx_HAL_Driver/Src/stm32l4xx_hal_rtc_ex.c ****   __HAL_RTC_WAKEUPTIMER_DISABLE(hrtc);
 1182              		.loc 1 943 3 discriminator 2 view .LVU405
 1183 0024 0268     		ldr	r2, [r0]
 1184 0026 9369     		ldr	r3, [r2, #24]
 1185 0028 23F48063 		bic	r3, r3, #1024
 1186 002c 9361     		str	r3, [r2, #24]
 944:Drivers/STM32L4xx_HAL_Driver/Src/stm32l4xx_hal_rtc_ex.c **** 
 945:Drivers/STM32L4xx_HAL_Driver/Src/stm32l4xx_hal_rtc_ex.c ****   /* In case of interrupt mode is used, the interrupt source must disabled */
 946:Drivers/STM32L4xx_HAL_Driver/Src/stm32l4xx_hal_rtc_ex.c ****   __HAL_RTC_WAKEUPTIMER_DISABLE_IT(hrtc, RTC_IT_WUT);
 1187              		.loc 1 946 3 discriminator 2 view .LVU406
 1188 002e 0268     		ldr	r2, [r0]
 1189 0030 9369     		ldr	r3, [r2, #24]
 1190 0032 23F48043 		bic	r3, r3, #16384
 1191 0036 9361     		str	r3, [r2, #24]
 947:Drivers/STM32L4xx_HAL_Driver/Src/stm32l4xx_hal_rtc_ex.c **** 
 948:Drivers/STM32L4xx_HAL_Driver/Src/stm32l4xx_hal_rtc_ex.c ****   tickstart = HAL_GetTick();
 1192              		.loc 1 948 3 discriminator 2 view .LVU407
 1193              		.loc 1 948 15 is_stmt 0 discriminator 2 view .LVU408
 1194 0038 FFF7FEFF 		bl	HAL_GetTick
 1195              	.LVL77:
 1196              		.loc 1 948 15 discriminator 2 view .LVU409
 1197 003c 0546     		mov	r5, r0
 1198              	.LVL78:
 949:Drivers/STM32L4xx_HAL_Driver/Src/stm32l4xx_hal_rtc_ex.c ****   /* Wait till RTC WUTWF flag is set and if Time out is reached exit */
 950:Drivers/STM32L4xx_HAL_Driver/Src/stm32l4xx_hal_rtc_ex.c ****   while (__HAL_RTC_WAKEUPTIMER_GET_FLAG(hrtc, RTC_FLAG_WUTWF) == 0U)
 1199              		.loc 1 950 3 is_stmt 1 discriminator 2 view .LVU410
 1200              	.L63:
 1201              		.loc 1 950 9 view .LVU411
 1202              		.loc 1 950 10 is_stmt 0 view .LVU412
 1203 003e 2368     		ldr	r3, [r4]
 1204 0040 DA68     		ldr	r2, [r3, #12]
 1205              		.loc 1 950 9 view .LVU413
 1206 0042 12F0040F 		tst	r2, #4
 1207 0046 0FD1     		bne	.L67
 951:Drivers/STM32L4xx_HAL_Driver/Src/stm32l4xx_hal_rtc_ex.c ****   {
 952:Drivers/STM32L4xx_HAL_Driver/Src/stm32l4xx_hal_rtc_ex.c ****     if ((HAL_GetTick() - tickstart) > RTC_TIMEOUT_VALUE)
 1208              		.loc 1 952 5 is_stmt 1 view .LVU414
 1209              		.loc 1 952 10 is_stmt 0 view .LVU415
 1210 0048 FFF7FEFF 		bl	HAL_GetTick
 1211              	.LVL79:
 1212              		.loc 1 952 24 view .LVU416
 1213 004c 431B     		subs	r3, r0, r5
 1214              		.loc 1 952 8 view .LVU417
 1215 004e B3F57A7F 		cmp	r3, #1000
ARM GAS  /tmp/cc49nhBG.s 			page 40


 1216 0052 F4D9     		bls	.L63
 953:Drivers/STM32L4xx_HAL_Driver/Src/stm32l4xx_hal_rtc_ex.c ****     {
 954:Drivers/STM32L4xx_HAL_Driver/Src/stm32l4xx_hal_rtc_ex.c ****       /* Enable the write protection for RTC registers */
 955:Drivers/STM32L4xx_HAL_Driver/Src/stm32l4xx_hal_rtc_ex.c ****       __HAL_RTC_WRITEPROTECTION_ENABLE(hrtc);
 1217              		.loc 1 955 7 is_stmt 1 view .LVU418
 1218              		.loc 1 955 7 view .LVU419
 1219 0054 2368     		ldr	r3, [r4]
 1220 0056 FF22     		movs	r2, #255
 1221 0058 5A62     		str	r2, [r3, #36]
 1222              		.loc 1 955 7 view .LVU420
 956:Drivers/STM32L4xx_HAL_Driver/Src/stm32l4xx_hal_rtc_ex.c **** 
 957:Drivers/STM32L4xx_HAL_Driver/Src/stm32l4xx_hal_rtc_ex.c ****       hrtc->State = HAL_RTC_STATE_TIMEOUT;
 1223              		.loc 1 957 7 view .LVU421
 1224              		.loc 1 957 19 is_stmt 0 view .LVU422
 1225 005a 0320     		movs	r0, #3
 1226 005c 84F82900 		strb	r0, [r4, #41]
 958:Drivers/STM32L4xx_HAL_Driver/Src/stm32l4xx_hal_rtc_ex.c **** 
 959:Drivers/STM32L4xx_HAL_Driver/Src/stm32l4xx_hal_rtc_ex.c ****       /* Process Unlocked */
 960:Drivers/STM32L4xx_HAL_Driver/Src/stm32l4xx_hal_rtc_ex.c ****       __HAL_UNLOCK(hrtc);
 1227              		.loc 1 960 7 is_stmt 1 view .LVU423
 1228              		.loc 1 960 7 view .LVU424
 1229 0060 0023     		movs	r3, #0
 1230 0062 84F82830 		strb	r3, [r4, #40]
 1231              		.loc 1 960 7 view .LVU425
 961:Drivers/STM32L4xx_HAL_Driver/Src/stm32l4xx_hal_rtc_ex.c **** 
 962:Drivers/STM32L4xx_HAL_Driver/Src/stm32l4xx_hal_rtc_ex.c ****       return HAL_TIMEOUT;
 1232              		.loc 1 962 7 view .LVU426
 1233              		.loc 1 962 14 is_stmt 0 view .LVU427
 1234 0066 07E0     		b	.L62
 1235              	.L67:
 963:Drivers/STM32L4xx_HAL_Driver/Src/stm32l4xx_hal_rtc_ex.c ****     }
 964:Drivers/STM32L4xx_HAL_Driver/Src/stm32l4xx_hal_rtc_ex.c ****   }
 965:Drivers/STM32L4xx_HAL_Driver/Src/stm32l4xx_hal_rtc_ex.c **** 
 966:Drivers/STM32L4xx_HAL_Driver/Src/stm32l4xx_hal_rtc_ex.c ****   /* Enable the write protection for RTC registers */
 967:Drivers/STM32L4xx_HAL_Driver/Src/stm32l4xx_hal_rtc_ex.c ****   __HAL_RTC_WRITEPROTECTION_ENABLE(hrtc);
 1236              		.loc 1 967 3 is_stmt 1 view .LVU428
 1237              		.loc 1 967 3 view .LVU429
 1238 0068 FF22     		movs	r2, #255
 1239 006a 5A62     		str	r2, [r3, #36]
 1240              		.loc 1 967 3 view .LVU430
 968:Drivers/STM32L4xx_HAL_Driver/Src/stm32l4xx_hal_rtc_ex.c **** 
 969:Drivers/STM32L4xx_HAL_Driver/Src/stm32l4xx_hal_rtc_ex.c ****   hrtc->State = HAL_RTC_STATE_READY;
 1241              		.loc 1 969 3 view .LVU431
 1242              		.loc 1 969 15 is_stmt 0 view .LVU432
 1243 006c 0123     		movs	r3, #1
 1244 006e 84F82930 		strb	r3, [r4, #41]
 970:Drivers/STM32L4xx_HAL_Driver/Src/stm32l4xx_hal_rtc_ex.c **** 
 971:Drivers/STM32L4xx_HAL_Driver/Src/stm32l4xx_hal_rtc_ex.c ****   /* Process Unlocked */
 972:Drivers/STM32L4xx_HAL_Driver/Src/stm32l4xx_hal_rtc_ex.c ****   __HAL_UNLOCK(hrtc);
 1245              		.loc 1 972 3 is_stmt 1 view .LVU433
 1246              		.loc 1 972 3 view .LVU434
 1247 0072 0020     		movs	r0, #0
 1248 0074 84F82800 		strb	r0, [r4, #40]
 1249              		.loc 1 972 3 view .LVU435
 973:Drivers/STM32L4xx_HAL_Driver/Src/stm32l4xx_hal_rtc_ex.c **** 
 974:Drivers/STM32L4xx_HAL_Driver/Src/stm32l4xx_hal_rtc_ex.c ****   return HAL_OK;
 1250              		.loc 1 974 3 view .LVU436
ARM GAS  /tmp/cc49nhBG.s 			page 41


 1251              	.LVL80:
 1252              	.L62:
 975:Drivers/STM32L4xx_HAL_Driver/Src/stm32l4xx_hal_rtc_ex.c **** }
 1253              		.loc 1 975 1 is_stmt 0 view .LVU437
 1254 0078 38BD     		pop	{r3, r4, r5, pc}
 1255              	.LVL81:
 1256              	.L65:
 935:Drivers/STM32L4xx_HAL_Driver/Src/stm32l4xx_hal_rtc_ex.c **** 
 1257              		.loc 1 935 3 view .LVU438
 1258 007a 0220     		movs	r0, #2
 1259              	.LVL82:
 935:Drivers/STM32L4xx_HAL_Driver/Src/stm32l4xx_hal_rtc_ex.c **** 
 1260              		.loc 1 935 3 view .LVU439
 1261 007c FCE7     		b	.L62
 1262              		.cfi_endproc
 1263              	.LFE143:
 1265              		.section	.text.HAL_RTCEx_GetWakeUpTimer,"ax",%progbits
 1266              		.align	1
 1267              		.global	HAL_RTCEx_GetWakeUpTimer
 1268              		.syntax unified
 1269              		.thumb
 1270              		.thumb_func
 1271              		.fpu fpv4-sp-d16
 1273              	HAL_RTCEx_GetWakeUpTimer:
 1274              	.LVL83:
 1275              	.LFB144:
 976:Drivers/STM32L4xx_HAL_Driver/Src/stm32l4xx_hal_rtc_ex.c **** 
 977:Drivers/STM32L4xx_HAL_Driver/Src/stm32l4xx_hal_rtc_ex.c **** /**
 978:Drivers/STM32L4xx_HAL_Driver/Src/stm32l4xx_hal_rtc_ex.c ****   * @brief  Get wake up timer counter.
 979:Drivers/STM32L4xx_HAL_Driver/Src/stm32l4xx_hal_rtc_ex.c ****   * @param  hrtc RTC handle
 980:Drivers/STM32L4xx_HAL_Driver/Src/stm32l4xx_hal_rtc_ex.c ****   * @retval Counter value
 981:Drivers/STM32L4xx_HAL_Driver/Src/stm32l4xx_hal_rtc_ex.c ****   */
 982:Drivers/STM32L4xx_HAL_Driver/Src/stm32l4xx_hal_rtc_ex.c **** uint32_t HAL_RTCEx_GetWakeUpTimer(RTC_HandleTypeDef *hrtc)
 983:Drivers/STM32L4xx_HAL_Driver/Src/stm32l4xx_hal_rtc_ex.c **** {
 1276              		.loc 1 983 1 is_stmt 1 view -0
 1277              		.cfi_startproc
 1278              		@ args = 0, pretend = 0, frame = 0
 1279              		@ frame_needed = 0, uses_anonymous_args = 0
 1280              		@ link register save eliminated.
 984:Drivers/STM32L4xx_HAL_Driver/Src/stm32l4xx_hal_rtc_ex.c ****   /* Get the counter value */
 985:Drivers/STM32L4xx_HAL_Driver/Src/stm32l4xx_hal_rtc_ex.c ****   return ((uint32_t)(hrtc->Instance->WUTR & RTC_WUTR_WUT));
 1281              		.loc 1 985 3 view .LVU441
 1282              		.loc 1 985 26 is_stmt 0 view .LVU442
 1283 0000 0368     		ldr	r3, [r0]
 1284              		.loc 1 985 36 view .LVU443
 1285 0002 5869     		ldr	r0, [r3, #20]
 1286              	.LVL84:
 986:Drivers/STM32L4xx_HAL_Driver/Src/stm32l4xx_hal_rtc_ex.c **** }
 1287              		.loc 1 986 1 view .LVU444
 1288 0004 80B2     		uxth	r0, r0
 1289 0006 7047     		bx	lr
 1290              		.cfi_endproc
 1291              	.LFE144:
 1293              		.section	.text.HAL_RTCEx_WakeUpTimerEventCallback,"ax",%progbits
 1294              		.align	1
 1295              		.weak	HAL_RTCEx_WakeUpTimerEventCallback
 1296              		.syntax unified
ARM GAS  /tmp/cc49nhBG.s 			page 42


 1297              		.thumb
 1298              		.thumb_func
 1299              		.fpu fpv4-sp-d16
 1301              	HAL_RTCEx_WakeUpTimerEventCallback:
 1302              	.LVL85:
 1303              	.LFB146:
 987:Drivers/STM32L4xx_HAL_Driver/Src/stm32l4xx_hal_rtc_ex.c **** 
 988:Drivers/STM32L4xx_HAL_Driver/Src/stm32l4xx_hal_rtc_ex.c **** /**
 989:Drivers/STM32L4xx_HAL_Driver/Src/stm32l4xx_hal_rtc_ex.c ****   * @brief  Handle Wake Up Timer interrupt request.
 990:Drivers/STM32L4xx_HAL_Driver/Src/stm32l4xx_hal_rtc_ex.c ****   * @param  hrtc RTC handle
 991:Drivers/STM32L4xx_HAL_Driver/Src/stm32l4xx_hal_rtc_ex.c ****   * @retval None
 992:Drivers/STM32L4xx_HAL_Driver/Src/stm32l4xx_hal_rtc_ex.c ****   */
 993:Drivers/STM32L4xx_HAL_Driver/Src/stm32l4xx_hal_rtc_ex.c **** void HAL_RTCEx_WakeUpTimerIRQHandler(RTC_HandleTypeDef *hrtc)
 994:Drivers/STM32L4xx_HAL_Driver/Src/stm32l4xx_hal_rtc_ex.c **** {
 995:Drivers/STM32L4xx_HAL_Driver/Src/stm32l4xx_hal_rtc_ex.c ****   /* Clear the EXTI's line Flag for RTC WakeUpTimer */
 996:Drivers/STM32L4xx_HAL_Driver/Src/stm32l4xx_hal_rtc_ex.c ****   __HAL_RTC_WAKEUPTIMER_EXTI_CLEAR_FLAG();
 997:Drivers/STM32L4xx_HAL_Driver/Src/stm32l4xx_hal_rtc_ex.c **** 
 998:Drivers/STM32L4xx_HAL_Driver/Src/stm32l4xx_hal_rtc_ex.c **** 
 999:Drivers/STM32L4xx_HAL_Driver/Src/stm32l4xx_hal_rtc_ex.c **** #if defined(STM32L412xx) || defined(STM32L422xx) || defined (STM32L4P5xx) || defined (STM32L4Q5xx)
1000:Drivers/STM32L4xx_HAL_Driver/Src/stm32l4xx_hal_rtc_ex.c ****   if ((hrtc->Instance->MISR & RTC_MISR_WUTMF) != 0u)
1001:Drivers/STM32L4xx_HAL_Driver/Src/stm32l4xx_hal_rtc_ex.c ****   {
1002:Drivers/STM32L4xx_HAL_Driver/Src/stm32l4xx_hal_rtc_ex.c ****     /* Immediately clear flags */
1003:Drivers/STM32L4xx_HAL_Driver/Src/stm32l4xx_hal_rtc_ex.c ****     hrtc->Instance->SCR = RTC_SCR_CWUTF;
1004:Drivers/STM32L4xx_HAL_Driver/Src/stm32l4xx_hal_rtc_ex.c **** #else
1005:Drivers/STM32L4xx_HAL_Driver/Src/stm32l4xx_hal_rtc_ex.c ****   /* Get the pending status of the WAKEUPTIMER Interrupt */
1006:Drivers/STM32L4xx_HAL_Driver/Src/stm32l4xx_hal_rtc_ex.c ****   if (__HAL_RTC_WAKEUPTIMER_GET_FLAG(hrtc, RTC_FLAG_WUTF) != 0U)
1007:Drivers/STM32L4xx_HAL_Driver/Src/stm32l4xx_hal_rtc_ex.c ****   {
1008:Drivers/STM32L4xx_HAL_Driver/Src/stm32l4xx_hal_rtc_ex.c ****     /* Clear the WAKEUPTIMER interrupt pending bit */
1009:Drivers/STM32L4xx_HAL_Driver/Src/stm32l4xx_hal_rtc_ex.c ****     __HAL_RTC_WAKEUPTIMER_CLEAR_FLAG(hrtc, RTC_FLAG_WUTF);
1010:Drivers/STM32L4xx_HAL_Driver/Src/stm32l4xx_hal_rtc_ex.c **** #endif
1011:Drivers/STM32L4xx_HAL_Driver/Src/stm32l4xx_hal_rtc_ex.c **** 
1012:Drivers/STM32L4xx_HAL_Driver/Src/stm32l4xx_hal_rtc_ex.c ****     /* WAKEUPTIMER callback */
1013:Drivers/STM32L4xx_HAL_Driver/Src/stm32l4xx_hal_rtc_ex.c **** #if (USE_HAL_RTC_REGISTER_CALLBACKS == 1)
1014:Drivers/STM32L4xx_HAL_Driver/Src/stm32l4xx_hal_rtc_ex.c ****     /* Call WakeUpTimerEvent registered Callback */
1015:Drivers/STM32L4xx_HAL_Driver/Src/stm32l4xx_hal_rtc_ex.c ****     hrtc->WakeUpTimerEventCallback(hrtc);
1016:Drivers/STM32L4xx_HAL_Driver/Src/stm32l4xx_hal_rtc_ex.c **** #else
1017:Drivers/STM32L4xx_HAL_Driver/Src/stm32l4xx_hal_rtc_ex.c ****     HAL_RTCEx_WakeUpTimerEventCallback(hrtc);
1018:Drivers/STM32L4xx_HAL_Driver/Src/stm32l4xx_hal_rtc_ex.c **** #endif /* USE_HAL_RTC_REGISTER_CALLBACKS */
1019:Drivers/STM32L4xx_HAL_Driver/Src/stm32l4xx_hal_rtc_ex.c ****   }
1020:Drivers/STM32L4xx_HAL_Driver/Src/stm32l4xx_hal_rtc_ex.c **** 
1021:Drivers/STM32L4xx_HAL_Driver/Src/stm32l4xx_hal_rtc_ex.c ****   /* Change RTC state */
1022:Drivers/STM32L4xx_HAL_Driver/Src/stm32l4xx_hal_rtc_ex.c ****   hrtc->State = HAL_RTC_STATE_READY;
1023:Drivers/STM32L4xx_HAL_Driver/Src/stm32l4xx_hal_rtc_ex.c **** }
1024:Drivers/STM32L4xx_HAL_Driver/Src/stm32l4xx_hal_rtc_ex.c **** 
1025:Drivers/STM32L4xx_HAL_Driver/Src/stm32l4xx_hal_rtc_ex.c **** /**
1026:Drivers/STM32L4xx_HAL_Driver/Src/stm32l4xx_hal_rtc_ex.c ****   * @brief  Wake Up Timer callback.
1027:Drivers/STM32L4xx_HAL_Driver/Src/stm32l4xx_hal_rtc_ex.c ****   * @param  hrtc RTC handle
1028:Drivers/STM32L4xx_HAL_Driver/Src/stm32l4xx_hal_rtc_ex.c ****   * @retval None
1029:Drivers/STM32L4xx_HAL_Driver/Src/stm32l4xx_hal_rtc_ex.c ****   */
1030:Drivers/STM32L4xx_HAL_Driver/Src/stm32l4xx_hal_rtc_ex.c **** __weak void HAL_RTCEx_WakeUpTimerEventCallback(RTC_HandleTypeDef *hrtc)
1031:Drivers/STM32L4xx_HAL_Driver/Src/stm32l4xx_hal_rtc_ex.c **** {
 1304              		.loc 1 1031 1 is_stmt 1 view -0
 1305              		.cfi_startproc
 1306              		@ args = 0, pretend = 0, frame = 0
 1307              		@ frame_needed = 0, uses_anonymous_args = 0
 1308              		@ link register save eliminated.
1032:Drivers/STM32L4xx_HAL_Driver/Src/stm32l4xx_hal_rtc_ex.c ****   /* Prevent unused argument(s) compilation warning */
ARM GAS  /tmp/cc49nhBG.s 			page 43


1033:Drivers/STM32L4xx_HAL_Driver/Src/stm32l4xx_hal_rtc_ex.c ****   UNUSED(hrtc);
 1309              		.loc 1 1033 3 view .LVU446
1034:Drivers/STM32L4xx_HAL_Driver/Src/stm32l4xx_hal_rtc_ex.c **** 
1035:Drivers/STM32L4xx_HAL_Driver/Src/stm32l4xx_hal_rtc_ex.c ****   /* NOTE : This function should not be modified, when the callback is needed,
1036:Drivers/STM32L4xx_HAL_Driver/Src/stm32l4xx_hal_rtc_ex.c ****             the HAL_RTCEx_WakeUpTimerEventCallback could be implemented in the user file
1037:Drivers/STM32L4xx_HAL_Driver/Src/stm32l4xx_hal_rtc_ex.c ****    */
1038:Drivers/STM32L4xx_HAL_Driver/Src/stm32l4xx_hal_rtc_ex.c **** }
 1310              		.loc 1 1038 1 is_stmt 0 view .LVU447
 1311 0000 7047     		bx	lr
 1312              		.cfi_endproc
 1313              	.LFE146:
 1315              		.section	.text.HAL_RTCEx_WakeUpTimerIRQHandler,"ax",%progbits
 1316              		.align	1
 1317              		.global	HAL_RTCEx_WakeUpTimerIRQHandler
 1318              		.syntax unified
 1319              		.thumb
 1320              		.thumb_func
 1321              		.fpu fpv4-sp-d16
 1323              	HAL_RTCEx_WakeUpTimerIRQHandler:
 1324              	.LVL86:
 1325              	.LFB145:
 994:Drivers/STM32L4xx_HAL_Driver/Src/stm32l4xx_hal_rtc_ex.c ****   /* Clear the EXTI's line Flag for RTC WakeUpTimer */
 1326              		.loc 1 994 1 is_stmt 1 view -0
 1327              		.cfi_startproc
 1328              		@ args = 0, pretend = 0, frame = 0
 1329              		@ frame_needed = 0, uses_anonymous_args = 0
 994:Drivers/STM32L4xx_HAL_Driver/Src/stm32l4xx_hal_rtc_ex.c ****   /* Clear the EXTI's line Flag for RTC WakeUpTimer */
 1330              		.loc 1 994 1 is_stmt 0 view .LVU449
 1331 0000 10B5     		push	{r4, lr}
 1332              	.LCFI9:
 1333              		.cfi_def_cfa_offset 8
 1334              		.cfi_offset 4, -8
 1335              		.cfi_offset 14, -4
 1336 0002 0446     		mov	r4, r0
 996:Drivers/STM32L4xx_HAL_Driver/Src/stm32l4xx_hal_rtc_ex.c **** 
 1337              		.loc 1 996 3 is_stmt 1 view .LVU450
 1338 0004 084B     		ldr	r3, .L74
 1339 0006 4FF48012 		mov	r2, #1048576
 1340 000a 5A61     		str	r2, [r3, #20]
1000:Drivers/STM32L4xx_HAL_Driver/Src/stm32l4xx_hal_rtc_ex.c ****   {
 1341              		.loc 1 1000 3 view .LVU451
1000:Drivers/STM32L4xx_HAL_Driver/Src/stm32l4xx_hal_rtc_ex.c ****   {
 1342              		.loc 1 1000 12 is_stmt 0 view .LVU452
 1343 000c 0368     		ldr	r3, [r0]
1000:Drivers/STM32L4xx_HAL_Driver/Src/stm32l4xx_hal_rtc_ex.c ****   {
 1344              		.loc 1 1000 22 view .LVU453
 1345 000e 5A6D     		ldr	r2, [r3, #84]
1000:Drivers/STM32L4xx_HAL_Driver/Src/stm32l4xx_hal_rtc_ex.c ****   {
 1346              		.loc 1 1000 6 view .LVU454
 1347 0010 12F0040F 		tst	r2, #4
 1348 0014 03D1     		bne	.L73
 1349              	.LVL87:
 1350              	.L71:
1022:Drivers/STM32L4xx_HAL_Driver/Src/stm32l4xx_hal_rtc_ex.c **** }
 1351              		.loc 1 1022 3 is_stmt 1 view .LVU455
1022:Drivers/STM32L4xx_HAL_Driver/Src/stm32l4xx_hal_rtc_ex.c **** }
 1352              		.loc 1 1022 15 is_stmt 0 view .LVU456
ARM GAS  /tmp/cc49nhBG.s 			page 44


 1353 0016 0123     		movs	r3, #1
 1354 0018 84F82930 		strb	r3, [r4, #41]
1023:Drivers/STM32L4xx_HAL_Driver/Src/stm32l4xx_hal_rtc_ex.c **** 
 1355              		.loc 1 1023 1 view .LVU457
 1356 001c 10BD     		pop	{r4, pc}
 1357              	.LVL88:
 1358              	.L73:
1003:Drivers/STM32L4xx_HAL_Driver/Src/stm32l4xx_hal_rtc_ex.c **** #else
 1359              		.loc 1 1003 5 is_stmt 1 view .LVU458
1003:Drivers/STM32L4xx_HAL_Driver/Src/stm32l4xx_hal_rtc_ex.c **** #else
 1360              		.loc 1 1003 25 is_stmt 0 view .LVU459
 1361 001e 0422     		movs	r2, #4
 1362 0020 DA65     		str	r2, [r3, #92]
1017:Drivers/STM32L4xx_HAL_Driver/Src/stm32l4xx_hal_rtc_ex.c **** #endif /* USE_HAL_RTC_REGISTER_CALLBACKS */
 1363              		.loc 1 1017 5 is_stmt 1 view .LVU460
 1364 0022 FFF7FEFF 		bl	HAL_RTCEx_WakeUpTimerEventCallback
 1365              	.LVL89:
1017:Drivers/STM32L4xx_HAL_Driver/Src/stm32l4xx_hal_rtc_ex.c **** #endif /* USE_HAL_RTC_REGISTER_CALLBACKS */
 1366              		.loc 1 1017 5 is_stmt 0 view .LVU461
 1367 0026 F6E7     		b	.L71
 1368              	.L75:
 1369              		.align	2
 1370              	.L74:
 1371 0028 00040140 		.word	1073808384
 1372              		.cfi_endproc
 1373              	.LFE145:
 1375              		.section	.text.HAL_RTCEx_PollForWakeUpTimerEvent,"ax",%progbits
 1376              		.align	1
 1377              		.global	HAL_RTCEx_PollForWakeUpTimerEvent
 1378              		.syntax unified
 1379              		.thumb
 1380              		.thumb_func
 1381              		.fpu fpv4-sp-d16
 1383              	HAL_RTCEx_PollForWakeUpTimerEvent:
 1384              	.LVL90:
 1385              	.LFB147:
1039:Drivers/STM32L4xx_HAL_Driver/Src/stm32l4xx_hal_rtc_ex.c **** 
1040:Drivers/STM32L4xx_HAL_Driver/Src/stm32l4xx_hal_rtc_ex.c **** 
1041:Drivers/STM32L4xx_HAL_Driver/Src/stm32l4xx_hal_rtc_ex.c **** /**
1042:Drivers/STM32L4xx_HAL_Driver/Src/stm32l4xx_hal_rtc_ex.c ****   * @brief  Handle Wake Up Timer Polling.
1043:Drivers/STM32L4xx_HAL_Driver/Src/stm32l4xx_hal_rtc_ex.c ****   * @param  hrtc RTC handle
1044:Drivers/STM32L4xx_HAL_Driver/Src/stm32l4xx_hal_rtc_ex.c ****   * @param  Timeout Timeout duration
1045:Drivers/STM32L4xx_HAL_Driver/Src/stm32l4xx_hal_rtc_ex.c ****   * @retval HAL status
1046:Drivers/STM32L4xx_HAL_Driver/Src/stm32l4xx_hal_rtc_ex.c ****   */
1047:Drivers/STM32L4xx_HAL_Driver/Src/stm32l4xx_hal_rtc_ex.c **** HAL_StatusTypeDef HAL_RTCEx_PollForWakeUpTimerEvent(RTC_HandleTypeDef *hrtc, uint32_t Timeout)
1048:Drivers/STM32L4xx_HAL_Driver/Src/stm32l4xx_hal_rtc_ex.c **** {
 1386              		.loc 1 1048 1 is_stmt 1 view -0
 1387              		.cfi_startproc
 1388              		@ args = 0, pretend = 0, frame = 0
 1389              		@ frame_needed = 0, uses_anonymous_args = 0
 1390              		.loc 1 1048 1 is_stmt 0 view .LVU463
 1391 0000 70B5     		push	{r4, r5, r6, lr}
 1392              	.LCFI10:
 1393              		.cfi_def_cfa_offset 16
 1394              		.cfi_offset 4, -16
 1395              		.cfi_offset 5, -12
 1396              		.cfi_offset 6, -8
ARM GAS  /tmp/cc49nhBG.s 			page 45


 1397              		.cfi_offset 14, -4
 1398 0002 0446     		mov	r4, r0
 1399 0004 0D46     		mov	r5, r1
1049:Drivers/STM32L4xx_HAL_Driver/Src/stm32l4xx_hal_rtc_ex.c ****   uint32_t tickstart = HAL_GetTick();
 1400              		.loc 1 1049 3 is_stmt 1 view .LVU464
 1401              		.loc 1 1049 24 is_stmt 0 view .LVU465
 1402 0006 FFF7FEFF 		bl	HAL_GetTick
 1403              	.LVL91:
 1404              		.loc 1 1049 24 view .LVU466
 1405 000a 0646     		mov	r6, r0
 1406              	.LVL92:
1050:Drivers/STM32L4xx_HAL_Driver/Src/stm32l4xx_hal_rtc_ex.c **** 
1051:Drivers/STM32L4xx_HAL_Driver/Src/stm32l4xx_hal_rtc_ex.c ****   while (__HAL_RTC_WAKEUPTIMER_GET_FLAG(hrtc, RTC_FLAG_WUTF) == 0U)
 1407              		.loc 1 1051 3 is_stmt 1 view .LVU467
 1408              	.L78:
 1409              		.loc 1 1051 9 view .LVU468
 1410              		.loc 1 1051 10 is_stmt 0 view .LVU469
 1411 000c 2368     		ldr	r3, [r4]
 1412 000e 1A6D     		ldr	r2, [r3, #80]
 1413              		.loc 1 1051 9 view .LVU470
 1414 0010 12F0040F 		tst	r2, #4
 1415 0014 0DD1     		bne	.L83
1052:Drivers/STM32L4xx_HAL_Driver/Src/stm32l4xx_hal_rtc_ex.c ****   {
1053:Drivers/STM32L4xx_HAL_Driver/Src/stm32l4xx_hal_rtc_ex.c ****     if (Timeout != HAL_MAX_DELAY)
 1416              		.loc 1 1053 5 is_stmt 1 view .LVU471
 1417              		.loc 1 1053 8 is_stmt 0 view .LVU472
 1418 0016 B5F1FF3F 		cmp	r5, #-1
 1419 001a F7D0     		beq	.L78
1054:Drivers/STM32L4xx_HAL_Driver/Src/stm32l4xx_hal_rtc_ex.c ****     {
1055:Drivers/STM32L4xx_HAL_Driver/Src/stm32l4xx_hal_rtc_ex.c ****       if (((HAL_GetTick() - tickstart) > Timeout) || (Timeout == 0U))
 1420              		.loc 1 1055 7 is_stmt 1 view .LVU473
 1421              		.loc 1 1055 13 is_stmt 0 view .LVU474
 1422 001c FFF7FEFF 		bl	HAL_GetTick
 1423              	.LVL93:
 1424              		.loc 1 1055 27 view .LVU475
 1425 0020 801B     		subs	r0, r0, r6
 1426              		.loc 1 1055 10 view .LVU476
 1427 0022 A842     		cmp	r0, r5
 1428 0024 01D8     		bhi	.L79
 1429              		.loc 1 1055 51 discriminator 1 view .LVU477
 1430 0026 002D     		cmp	r5, #0
 1431 0028 F0D1     		bne	.L78
 1432              	.L79:
1056:Drivers/STM32L4xx_HAL_Driver/Src/stm32l4xx_hal_rtc_ex.c ****       {
1057:Drivers/STM32L4xx_HAL_Driver/Src/stm32l4xx_hal_rtc_ex.c ****         hrtc->State = HAL_RTC_STATE_TIMEOUT;
 1433              		.loc 1 1057 9 is_stmt 1 view .LVU478
 1434              		.loc 1 1057 21 is_stmt 0 view .LVU479
 1435 002a 0320     		movs	r0, #3
 1436 002c 84F82900 		strb	r0, [r4, #41]
1058:Drivers/STM32L4xx_HAL_Driver/Src/stm32l4xx_hal_rtc_ex.c ****         return HAL_TIMEOUT;
 1437              		.loc 1 1058 9 is_stmt 1 view .LVU480
 1438              		.loc 1 1058 16 is_stmt 0 view .LVU481
 1439 0030 05E0     		b	.L80
 1440              	.L83:
1059:Drivers/STM32L4xx_HAL_Driver/Src/stm32l4xx_hal_rtc_ex.c ****       }
1060:Drivers/STM32L4xx_HAL_Driver/Src/stm32l4xx_hal_rtc_ex.c ****     }
1061:Drivers/STM32L4xx_HAL_Driver/Src/stm32l4xx_hal_rtc_ex.c ****   }
ARM GAS  /tmp/cc49nhBG.s 			page 46


1062:Drivers/STM32L4xx_HAL_Driver/Src/stm32l4xx_hal_rtc_ex.c **** 
1063:Drivers/STM32L4xx_HAL_Driver/Src/stm32l4xx_hal_rtc_ex.c ****   /* Clear the WAKEUPTIMER Flag */
1064:Drivers/STM32L4xx_HAL_Driver/Src/stm32l4xx_hal_rtc_ex.c ****   __HAL_RTC_WAKEUPTIMER_CLEAR_FLAG(hrtc, RTC_FLAG_WUTF);
 1441              		.loc 1 1064 3 is_stmt 1 view .LVU482
 1442 0032 0422     		movs	r2, #4
 1443 0034 DA65     		str	r2, [r3, #92]
1065:Drivers/STM32L4xx_HAL_Driver/Src/stm32l4xx_hal_rtc_ex.c **** 
1066:Drivers/STM32L4xx_HAL_Driver/Src/stm32l4xx_hal_rtc_ex.c ****   /* Change RTC state */
1067:Drivers/STM32L4xx_HAL_Driver/Src/stm32l4xx_hal_rtc_ex.c ****   hrtc->State = HAL_RTC_STATE_READY;
 1444              		.loc 1 1067 3 view .LVU483
 1445              		.loc 1 1067 15 is_stmt 0 view .LVU484
 1446 0036 0123     		movs	r3, #1
 1447 0038 84F82930 		strb	r3, [r4, #41]
1068:Drivers/STM32L4xx_HAL_Driver/Src/stm32l4xx_hal_rtc_ex.c **** 
1069:Drivers/STM32L4xx_HAL_Driver/Src/stm32l4xx_hal_rtc_ex.c ****   return HAL_OK;
 1448              		.loc 1 1069 3 is_stmt 1 view .LVU485
 1449              		.loc 1 1069 10 is_stmt 0 view .LVU486
 1450 003c 0020     		movs	r0, #0
 1451              	.L80:
1070:Drivers/STM32L4xx_HAL_Driver/Src/stm32l4xx_hal_rtc_ex.c **** }
 1452              		.loc 1 1070 1 view .LVU487
 1453 003e 70BD     		pop	{r4, r5, r6, pc}
 1454              		.loc 1 1070 1 view .LVU488
 1455              		.cfi_endproc
 1456              	.LFE147:
 1458              		.section	.text.HAL_RTCEx_SetSmoothCalib,"ax",%progbits
 1459              		.align	1
 1460              		.global	HAL_RTCEx_SetSmoothCalib
 1461              		.syntax unified
 1462              		.thumb
 1463              		.thumb_func
 1464              		.fpu fpv4-sp-d16
 1466              	HAL_RTCEx_SetSmoothCalib:
 1467              	.LVL94:
 1468              	.LFB148:
1071:Drivers/STM32L4xx_HAL_Driver/Src/stm32l4xx_hal_rtc_ex.c **** 
1072:Drivers/STM32L4xx_HAL_Driver/Src/stm32l4xx_hal_rtc_ex.c **** /**
1073:Drivers/STM32L4xx_HAL_Driver/Src/stm32l4xx_hal_rtc_ex.c ****   * @}
1074:Drivers/STM32L4xx_HAL_Driver/Src/stm32l4xx_hal_rtc_ex.c ****   */
1075:Drivers/STM32L4xx_HAL_Driver/Src/stm32l4xx_hal_rtc_ex.c **** 
1076:Drivers/STM32L4xx_HAL_Driver/Src/stm32l4xx_hal_rtc_ex.c **** 
1077:Drivers/STM32L4xx_HAL_Driver/Src/stm32l4xx_hal_rtc_ex.c **** /** @addtogroup RTCEx_Exported_Functions_Group3
1078:Drivers/STM32L4xx_HAL_Driver/Src/stm32l4xx_hal_rtc_ex.c ****   * @brief    Extended Peripheral Control functions
1079:Drivers/STM32L4xx_HAL_Driver/Src/stm32l4xx_hal_rtc_ex.c ****   *
1080:Drivers/STM32L4xx_HAL_Driver/Src/stm32l4xx_hal_rtc_ex.c **** @verbatim
1081:Drivers/STM32L4xx_HAL_Driver/Src/stm32l4xx_hal_rtc_ex.c ****  ===============================================================================
1082:Drivers/STM32L4xx_HAL_Driver/Src/stm32l4xx_hal_rtc_ex.c ****               ##### Extended Peripheral Control functions #####
1083:Drivers/STM32L4xx_HAL_Driver/Src/stm32l4xx_hal_rtc_ex.c ****  ===============================================================================
1084:Drivers/STM32L4xx_HAL_Driver/Src/stm32l4xx_hal_rtc_ex.c ****     [..]
1085:Drivers/STM32L4xx_HAL_Driver/Src/stm32l4xx_hal_rtc_ex.c ****     This subsection provides functions allowing to
1086:Drivers/STM32L4xx_HAL_Driver/Src/stm32l4xx_hal_rtc_ex.c ****       (+) Write a data in a specified RTC Backup data register
1087:Drivers/STM32L4xx_HAL_Driver/Src/stm32l4xx_hal_rtc_ex.c ****       (+) Read a data in a specified RTC Backup data register
1088:Drivers/STM32L4xx_HAL_Driver/Src/stm32l4xx_hal_rtc_ex.c ****       (+) Set the Coarse calibration parameters.
1089:Drivers/STM32L4xx_HAL_Driver/Src/stm32l4xx_hal_rtc_ex.c ****       (+) Deactivate the Coarse calibration parameters
1090:Drivers/STM32L4xx_HAL_Driver/Src/stm32l4xx_hal_rtc_ex.c ****       (+) Set the Smooth calibration parameters.
1091:Drivers/STM32L4xx_HAL_Driver/Src/stm32l4xx_hal_rtc_ex.c ****       (+) STM32L412xx and STM32L422xx only : Set Low Power calibration parameter.
1092:Drivers/STM32L4xx_HAL_Driver/Src/stm32l4xx_hal_rtc_ex.c ****       (+) Configure the Synchronization Shift Control Settings.
ARM GAS  /tmp/cc49nhBG.s 			page 47


1093:Drivers/STM32L4xx_HAL_Driver/Src/stm32l4xx_hal_rtc_ex.c ****       (+) Configure the Calibration Pinout (RTC_CALIB) Selection (1Hz or 512Hz).
1094:Drivers/STM32L4xx_HAL_Driver/Src/stm32l4xx_hal_rtc_ex.c ****       (+) Deactivate the Calibration Pinout (RTC_CALIB) Selection (1Hz or 512Hz).
1095:Drivers/STM32L4xx_HAL_Driver/Src/stm32l4xx_hal_rtc_ex.c ****       (+) Enable the RTC reference clock detection.
1096:Drivers/STM32L4xx_HAL_Driver/Src/stm32l4xx_hal_rtc_ex.c ****       (+) Disable the RTC reference clock detection.
1097:Drivers/STM32L4xx_HAL_Driver/Src/stm32l4xx_hal_rtc_ex.c ****       (+) Enable the Bypass Shadow feature.
1098:Drivers/STM32L4xx_HAL_Driver/Src/stm32l4xx_hal_rtc_ex.c ****       (+) Disable the Bypass Shadow feature.
1099:Drivers/STM32L4xx_HAL_Driver/Src/stm32l4xx_hal_rtc_ex.c **** 
1100:Drivers/STM32L4xx_HAL_Driver/Src/stm32l4xx_hal_rtc_ex.c **** @endverbatim
1101:Drivers/STM32L4xx_HAL_Driver/Src/stm32l4xx_hal_rtc_ex.c ****   * @{
1102:Drivers/STM32L4xx_HAL_Driver/Src/stm32l4xx_hal_rtc_ex.c ****   */
1103:Drivers/STM32L4xx_HAL_Driver/Src/stm32l4xx_hal_rtc_ex.c **** 
1104:Drivers/STM32L4xx_HAL_Driver/Src/stm32l4xx_hal_rtc_ex.c **** 
1105:Drivers/STM32L4xx_HAL_Driver/Src/stm32l4xx_hal_rtc_ex.c **** /**
1106:Drivers/STM32L4xx_HAL_Driver/Src/stm32l4xx_hal_rtc_ex.c ****   * @brief  Set the Smooth calibration parameters.
1107:Drivers/STM32L4xx_HAL_Driver/Src/stm32l4xx_hal_rtc_ex.c ****   * @param  hrtc RTC handle
1108:Drivers/STM32L4xx_HAL_Driver/Src/stm32l4xx_hal_rtc_ex.c ****   * @param  SmoothCalibPeriod Select the Smooth Calibration Period.
1109:Drivers/STM32L4xx_HAL_Driver/Src/stm32l4xx_hal_rtc_ex.c ****   *          This parameter can be can be one of the following values :
1110:Drivers/STM32L4xx_HAL_Driver/Src/stm32l4xx_hal_rtc_ex.c ****   *             @arg RTC_SMOOTHCALIB_PERIOD_32SEC: The smooth calibration period is 32s.
1111:Drivers/STM32L4xx_HAL_Driver/Src/stm32l4xx_hal_rtc_ex.c ****   *             @arg RTC_SMOOTHCALIB_PERIOD_16SEC: The smooth calibration period is 16s.
1112:Drivers/STM32L4xx_HAL_Driver/Src/stm32l4xx_hal_rtc_ex.c ****   *             @arg RTC_SMOOTHCALIB_PERIOD_8SEC: The smooth calibration period is 8s.
1113:Drivers/STM32L4xx_HAL_Driver/Src/stm32l4xx_hal_rtc_ex.c ****   * @param  SmoothCalibPlusPulses Select to Set or reset the CALP bit.
1114:Drivers/STM32L4xx_HAL_Driver/Src/stm32l4xx_hal_rtc_ex.c ****   *          This parameter can be one of the following values:
1115:Drivers/STM32L4xx_HAL_Driver/Src/stm32l4xx_hal_rtc_ex.c ****   *             @arg RTC_SMOOTHCALIB_PLUSPULSES_SET: Add one RTCCLK pulse every 2*11 pulses.
1116:Drivers/STM32L4xx_HAL_Driver/Src/stm32l4xx_hal_rtc_ex.c ****   *             @arg RTC_SMOOTHCALIB_PLUSPULSES_RESET: No RTCCLK pulses are added.
1117:Drivers/STM32L4xx_HAL_Driver/Src/stm32l4xx_hal_rtc_ex.c ****   * @param  SmoothCalibMinusPulsesValue Select the value of CALM[8:0] bits.
1118:Drivers/STM32L4xx_HAL_Driver/Src/stm32l4xx_hal_rtc_ex.c ****   *          This parameter can be one any value from 0 to 0x000001FF.
1119:Drivers/STM32L4xx_HAL_Driver/Src/stm32l4xx_hal_rtc_ex.c ****   * @note   To deactivate the smooth calibration, the field SmoothCalibPlusPulses
1120:Drivers/STM32L4xx_HAL_Driver/Src/stm32l4xx_hal_rtc_ex.c ****   *         must be equal to SMOOTHCALIB_PLUSPULSES_RESET and the field
1121:Drivers/STM32L4xx_HAL_Driver/Src/stm32l4xx_hal_rtc_ex.c ****   *         SmoothCalibMinusPulsesValue must be equal to 0.
1122:Drivers/STM32L4xx_HAL_Driver/Src/stm32l4xx_hal_rtc_ex.c ****   * @retval HAL status
1123:Drivers/STM32L4xx_HAL_Driver/Src/stm32l4xx_hal_rtc_ex.c ****   */
1124:Drivers/STM32L4xx_HAL_Driver/Src/stm32l4xx_hal_rtc_ex.c **** HAL_StatusTypeDef HAL_RTCEx_SetSmoothCalib(RTC_HandleTypeDef *hrtc, uint32_t SmoothCalibPeriod, uin
1125:Drivers/STM32L4xx_HAL_Driver/Src/stm32l4xx_hal_rtc_ex.c **** {
 1469              		.loc 1 1125 1 is_stmt 1 view -0
 1470              		.cfi_startproc
 1471              		@ args = 0, pretend = 0, frame = 0
 1472              		@ frame_needed = 0, uses_anonymous_args = 0
 1473              		.loc 1 1125 1 is_stmt 0 view .LVU490
 1474 0000 2DE9F041 		push	{r4, r5, r6, r7, r8, lr}
 1475              	.LCFI11:
 1476              		.cfi_def_cfa_offset 24
 1477              		.cfi_offset 4, -24
 1478              		.cfi_offset 5, -20
 1479              		.cfi_offset 6, -16
 1480              		.cfi_offset 7, -12
 1481              		.cfi_offset 8, -8
 1482              		.cfi_offset 14, -4
 1483 0004 1E46     		mov	r6, r3
1126:Drivers/STM32L4xx_HAL_Driver/Src/stm32l4xx_hal_rtc_ex.c ****   uint32_t tickstart;
 1484              		.loc 1 1126 3 is_stmt 1 view .LVU491
1127:Drivers/STM32L4xx_HAL_Driver/Src/stm32l4xx_hal_rtc_ex.c **** 
1128:Drivers/STM32L4xx_HAL_Driver/Src/stm32l4xx_hal_rtc_ex.c ****   /* Check the parameters */
1129:Drivers/STM32L4xx_HAL_Driver/Src/stm32l4xx_hal_rtc_ex.c ****   assert_param(IS_RTC_SMOOTH_CALIB_PERIOD(SmoothCalibPeriod));
 1485              		.loc 1 1129 3 view .LVU492
1130:Drivers/STM32L4xx_HAL_Driver/Src/stm32l4xx_hal_rtc_ex.c ****   assert_param(IS_RTC_SMOOTH_CALIB_PLUS(SmoothCalibPlusPulses));
 1486              		.loc 1 1130 3 view .LVU493
1131:Drivers/STM32L4xx_HAL_Driver/Src/stm32l4xx_hal_rtc_ex.c ****   assert_param(IS_RTC_SMOOTH_CALIB_MINUS(SmoothCalibMinusPulsesValue));
ARM GAS  /tmp/cc49nhBG.s 			page 48


 1487              		.loc 1 1131 3 view .LVU494
1132:Drivers/STM32L4xx_HAL_Driver/Src/stm32l4xx_hal_rtc_ex.c **** 
1133:Drivers/STM32L4xx_HAL_Driver/Src/stm32l4xx_hal_rtc_ex.c ****   /* Process Locked */
1134:Drivers/STM32L4xx_HAL_Driver/Src/stm32l4xx_hal_rtc_ex.c ****   __HAL_LOCK(hrtc);
 1488              		.loc 1 1134 3 view .LVU495
 1489              		.loc 1 1134 3 view .LVU496
 1490 0006 90F82830 		ldrb	r3, [r0, #40]	@ zero_extendqisi2
 1491              	.LVL95:
 1492              		.loc 1 1134 3 is_stmt 0 view .LVU497
 1493 000a 012B     		cmp	r3, #1
 1494 000c 41D0     		beq	.L89
 1495 000e 0446     		mov	r4, r0
 1496 0010 0D46     		mov	r5, r1
 1497 0012 1746     		mov	r7, r2
 1498              		.loc 1 1134 3 is_stmt 1 discriminator 2 view .LVU498
 1499 0014 0123     		movs	r3, #1
 1500 0016 80F82830 		strb	r3, [r0, #40]
 1501              		.loc 1 1134 3 discriminator 2 view .LVU499
1135:Drivers/STM32L4xx_HAL_Driver/Src/stm32l4xx_hal_rtc_ex.c **** 
1136:Drivers/STM32L4xx_HAL_Driver/Src/stm32l4xx_hal_rtc_ex.c ****   hrtc->State = HAL_RTC_STATE_BUSY;
 1502              		.loc 1 1136 3 discriminator 2 view .LVU500
 1503              		.loc 1 1136 15 is_stmt 0 discriminator 2 view .LVU501
 1504 001a 0223     		movs	r3, #2
 1505 001c 80F82930 		strb	r3, [r0, #41]
1137:Drivers/STM32L4xx_HAL_Driver/Src/stm32l4xx_hal_rtc_ex.c **** 
1138:Drivers/STM32L4xx_HAL_Driver/Src/stm32l4xx_hal_rtc_ex.c ****   /* Disable the write protection for RTC registers */
1139:Drivers/STM32L4xx_HAL_Driver/Src/stm32l4xx_hal_rtc_ex.c ****   __HAL_RTC_WRITEPROTECTION_DISABLE(hrtc);
 1506              		.loc 1 1139 3 is_stmt 1 discriminator 2 view .LVU502
 1507              		.loc 1 1139 3 discriminator 2 view .LVU503
 1508 0020 0368     		ldr	r3, [r0]
 1509 0022 CA22     		movs	r2, #202
 1510              	.LVL96:
 1511              		.loc 1 1139 3 is_stmt 0 discriminator 2 view .LVU504
 1512 0024 5A62     		str	r2, [r3, #36]
 1513              		.loc 1 1139 3 is_stmt 1 discriminator 2 view .LVU505
 1514 0026 0368     		ldr	r3, [r0]
 1515 0028 5322     		movs	r2, #83
 1516 002a 5A62     		str	r2, [r3, #36]
 1517              		.loc 1 1139 3 discriminator 2 view .LVU506
1140:Drivers/STM32L4xx_HAL_Driver/Src/stm32l4xx_hal_rtc_ex.c **** 
1141:Drivers/STM32L4xx_HAL_Driver/Src/stm32l4xx_hal_rtc_ex.c ****   /* check if a calibration is pending*/
1142:Drivers/STM32L4xx_HAL_Driver/Src/stm32l4xx_hal_rtc_ex.c **** #if defined(STM32L412xx) || defined(STM32L422xx) || defined (STM32L4P5xx) || defined (STM32L4Q5xx)
1143:Drivers/STM32L4xx_HAL_Driver/Src/stm32l4xx_hal_rtc_ex.c ****   if ((hrtc->Instance->ICSR & RTC_ICSR_RECALPF) != 0U)
 1518              		.loc 1 1143 3 discriminator 2 view .LVU507
 1519              		.loc 1 1143 12 is_stmt 0 discriminator 2 view .LVU508
 1520 002c 0368     		ldr	r3, [r0]
 1521              		.loc 1 1143 22 discriminator 2 view .LVU509
 1522 002e DB68     		ldr	r3, [r3, #12]
 1523              		.loc 1 1143 6 discriminator 2 view .LVU510
 1524 0030 13F4803F 		tst	r3, #65536
 1525 0034 14D1     		bne	.L91
 1526              	.LVL97:
 1527              	.L86:
1144:Drivers/STM32L4xx_HAL_Driver/Src/stm32l4xx_hal_rtc_ex.c **** #else
1145:Drivers/STM32L4xx_HAL_Driver/Src/stm32l4xx_hal_rtc_ex.c ****   if ((hrtc->Instance->ISR & RTC_ISR_RECALPF) != 0U)
1146:Drivers/STM32L4xx_HAL_Driver/Src/stm32l4xx_hal_rtc_ex.c **** #endif
1147:Drivers/STM32L4xx_HAL_Driver/Src/stm32l4xx_hal_rtc_ex.c ****   {
ARM GAS  /tmp/cc49nhBG.s 			page 49


1148:Drivers/STM32L4xx_HAL_Driver/Src/stm32l4xx_hal_rtc_ex.c ****     tickstart = HAL_GetTick();
1149:Drivers/STM32L4xx_HAL_Driver/Src/stm32l4xx_hal_rtc_ex.c **** 
1150:Drivers/STM32L4xx_HAL_Driver/Src/stm32l4xx_hal_rtc_ex.c ****     /* check if a calibration is pending*/
1151:Drivers/STM32L4xx_HAL_Driver/Src/stm32l4xx_hal_rtc_ex.c **** #if defined(STM32L412xx) || defined(STM32L422xx) || defined (STM32L4P5xx) || defined (STM32L4Q5xx)
1152:Drivers/STM32L4xx_HAL_Driver/Src/stm32l4xx_hal_rtc_ex.c ****     while ((hrtc->Instance->ICSR & RTC_ICSR_RECALPF) != 0U)
1153:Drivers/STM32L4xx_HAL_Driver/Src/stm32l4xx_hal_rtc_ex.c **** #else
1154:Drivers/STM32L4xx_HAL_Driver/Src/stm32l4xx_hal_rtc_ex.c ****     while ((hrtc->Instance->ISR & RTC_ISR_RECALPF) != 0U)
1155:Drivers/STM32L4xx_HAL_Driver/Src/stm32l4xx_hal_rtc_ex.c **** #endif
1156:Drivers/STM32L4xx_HAL_Driver/Src/stm32l4xx_hal_rtc_ex.c ****     {
1157:Drivers/STM32L4xx_HAL_Driver/Src/stm32l4xx_hal_rtc_ex.c ****       if ((HAL_GetTick() - tickstart) > RTC_TIMEOUT_VALUE)
1158:Drivers/STM32L4xx_HAL_Driver/Src/stm32l4xx_hal_rtc_ex.c ****       {
1159:Drivers/STM32L4xx_HAL_Driver/Src/stm32l4xx_hal_rtc_ex.c ****         /* Enable the write protection for RTC registers */
1160:Drivers/STM32L4xx_HAL_Driver/Src/stm32l4xx_hal_rtc_ex.c ****         __HAL_RTC_WRITEPROTECTION_ENABLE(hrtc);
1161:Drivers/STM32L4xx_HAL_Driver/Src/stm32l4xx_hal_rtc_ex.c **** 
1162:Drivers/STM32L4xx_HAL_Driver/Src/stm32l4xx_hal_rtc_ex.c ****         /* Change RTC state */
1163:Drivers/STM32L4xx_HAL_Driver/Src/stm32l4xx_hal_rtc_ex.c ****         hrtc->State = HAL_RTC_STATE_TIMEOUT;
1164:Drivers/STM32L4xx_HAL_Driver/Src/stm32l4xx_hal_rtc_ex.c **** 
1165:Drivers/STM32L4xx_HAL_Driver/Src/stm32l4xx_hal_rtc_ex.c ****         /* Process Unlocked */
1166:Drivers/STM32L4xx_HAL_Driver/Src/stm32l4xx_hal_rtc_ex.c ****         __HAL_UNLOCK(hrtc);
1167:Drivers/STM32L4xx_HAL_Driver/Src/stm32l4xx_hal_rtc_ex.c **** 
1168:Drivers/STM32L4xx_HAL_Driver/Src/stm32l4xx_hal_rtc_ex.c ****         return HAL_TIMEOUT;
1169:Drivers/STM32L4xx_HAL_Driver/Src/stm32l4xx_hal_rtc_ex.c ****       }
1170:Drivers/STM32L4xx_HAL_Driver/Src/stm32l4xx_hal_rtc_ex.c ****     }
1171:Drivers/STM32L4xx_HAL_Driver/Src/stm32l4xx_hal_rtc_ex.c ****   }
1172:Drivers/STM32L4xx_HAL_Driver/Src/stm32l4xx_hal_rtc_ex.c **** 
1173:Drivers/STM32L4xx_HAL_Driver/Src/stm32l4xx_hal_rtc_ex.c ****   /* Configure the Smooth calibration settings */
1174:Drivers/STM32L4xx_HAL_Driver/Src/stm32l4xx_hal_rtc_ex.c ****   MODIFY_REG(hrtc->Instance->CALR, (RTC_CALR_CALP | RTC_CALR_CALW8 | RTC_CALR_CALW16 | RTC_CALR_CAL
 1528              		.loc 1 1174 3 is_stmt 1 view .LVU511
 1529 0036 2368     		ldr	r3, [r4]
 1530 0038 986A     		ldr	r0, [r3, #40]
 1531 003a 20F46140 		bic	r0, r0, #57600
 1532 003e 20F0FF00 		bic	r0, r0, #255
 1533 0042 3D43     		orrs	r5, r5, r7
 1534              	.LVL98:
 1535              		.loc 1 1174 3 is_stmt 0 view .LVU512
 1536 0044 2E43     		orrs	r6, r6, r5
 1537              	.LVL99:
 1538              		.loc 1 1174 3 view .LVU513
 1539 0046 3043     		orrs	r0, r0, r6
 1540 0048 9862     		str	r0, [r3, #40]
1175:Drivers/STM32L4xx_HAL_Driver/Src/stm32l4xx_hal_rtc_ex.c **** 
1176:Drivers/STM32L4xx_HAL_Driver/Src/stm32l4xx_hal_rtc_ex.c ****   /* Enable the write protection for RTC registers */
1177:Drivers/STM32L4xx_HAL_Driver/Src/stm32l4xx_hal_rtc_ex.c ****   __HAL_RTC_WRITEPROTECTION_ENABLE(hrtc);
 1541              		.loc 1 1177 3 is_stmt 1 view .LVU514
 1542              		.loc 1 1177 3 view .LVU515
 1543 004a 2368     		ldr	r3, [r4]
 1544 004c FF22     		movs	r2, #255
 1545 004e 5A62     		str	r2, [r3, #36]
 1546              		.loc 1 1177 3 view .LVU516
1178:Drivers/STM32L4xx_HAL_Driver/Src/stm32l4xx_hal_rtc_ex.c **** 
1179:Drivers/STM32L4xx_HAL_Driver/Src/stm32l4xx_hal_rtc_ex.c ****   /* Change RTC state */
1180:Drivers/STM32L4xx_HAL_Driver/Src/stm32l4xx_hal_rtc_ex.c ****   hrtc->State = HAL_RTC_STATE_READY;
 1547              		.loc 1 1180 3 view .LVU517
 1548              		.loc 1 1180 15 is_stmt 0 view .LVU518
 1549 0050 0123     		movs	r3, #1
 1550 0052 84F82930 		strb	r3, [r4, #41]
1181:Drivers/STM32L4xx_HAL_Driver/Src/stm32l4xx_hal_rtc_ex.c **** 
ARM GAS  /tmp/cc49nhBG.s 			page 50


1182:Drivers/STM32L4xx_HAL_Driver/Src/stm32l4xx_hal_rtc_ex.c ****   /* Process Unlocked */
1183:Drivers/STM32L4xx_HAL_Driver/Src/stm32l4xx_hal_rtc_ex.c ****   __HAL_UNLOCK(hrtc);
 1551              		.loc 1 1183 3 is_stmt 1 view .LVU519
 1552              		.loc 1 1183 3 view .LVU520
 1553 0056 0020     		movs	r0, #0
 1554 0058 84F82800 		strb	r0, [r4, #40]
 1555              		.loc 1 1183 3 view .LVU521
1184:Drivers/STM32L4xx_HAL_Driver/Src/stm32l4xx_hal_rtc_ex.c **** 
1185:Drivers/STM32L4xx_HAL_Driver/Src/stm32l4xx_hal_rtc_ex.c ****   return HAL_OK;
 1556              		.loc 1 1185 3 view .LVU522
 1557              	.LVL100:
 1558              	.L85:
1186:Drivers/STM32L4xx_HAL_Driver/Src/stm32l4xx_hal_rtc_ex.c **** }
 1559              		.loc 1 1186 1 is_stmt 0 view .LVU523
 1560 005c BDE8F081 		pop	{r4, r5, r6, r7, r8, pc}
 1561              	.LVL101:
 1562              	.L91:
1148:Drivers/STM32L4xx_HAL_Driver/Src/stm32l4xx_hal_rtc_ex.c **** 
 1563              		.loc 1 1148 5 is_stmt 1 view .LVU524
1148:Drivers/STM32L4xx_HAL_Driver/Src/stm32l4xx_hal_rtc_ex.c **** 
 1564              		.loc 1 1148 17 is_stmt 0 view .LVU525
 1565 0060 FFF7FEFF 		bl	HAL_GetTick
 1566              	.LVL102:
1148:Drivers/STM32L4xx_HAL_Driver/Src/stm32l4xx_hal_rtc_ex.c **** 
 1567              		.loc 1 1148 17 view .LVU526
 1568 0064 8046     		mov	r8, r0
 1569              	.LVL103:
1152:Drivers/STM32L4xx_HAL_Driver/Src/stm32l4xx_hal_rtc_ex.c **** #else
 1570              		.loc 1 1152 5 is_stmt 1 view .LVU527
 1571              	.L87:
1152:Drivers/STM32L4xx_HAL_Driver/Src/stm32l4xx_hal_rtc_ex.c **** #else
 1572              		.loc 1 1152 11 view .LVU528
1152:Drivers/STM32L4xx_HAL_Driver/Src/stm32l4xx_hal_rtc_ex.c **** #else
 1573              		.loc 1 1152 17 is_stmt 0 view .LVU529
 1574 0066 2368     		ldr	r3, [r4]
1152:Drivers/STM32L4xx_HAL_Driver/Src/stm32l4xx_hal_rtc_ex.c **** #else
 1575              		.loc 1 1152 27 view .LVU530
 1576 0068 DB68     		ldr	r3, [r3, #12]
1152:Drivers/STM32L4xx_HAL_Driver/Src/stm32l4xx_hal_rtc_ex.c **** #else
 1577              		.loc 1 1152 11 view .LVU531
 1578 006a 13F4803F 		tst	r3, #65536
 1579 006e E2D0     		beq	.L86
1157:Drivers/STM32L4xx_HAL_Driver/Src/stm32l4xx_hal_rtc_ex.c ****       {
 1580              		.loc 1 1157 7 is_stmt 1 view .LVU532
1157:Drivers/STM32L4xx_HAL_Driver/Src/stm32l4xx_hal_rtc_ex.c ****       {
 1581              		.loc 1 1157 12 is_stmt 0 view .LVU533
 1582 0070 FFF7FEFF 		bl	HAL_GetTick
 1583              	.LVL104:
1157:Drivers/STM32L4xx_HAL_Driver/Src/stm32l4xx_hal_rtc_ex.c ****       {
 1584              		.loc 1 1157 26 view .LVU534
 1585 0074 A0EB0800 		sub	r0, r0, r8
1157:Drivers/STM32L4xx_HAL_Driver/Src/stm32l4xx_hal_rtc_ex.c ****       {
 1586              		.loc 1 1157 10 view .LVU535
 1587 0078 B0F57A7F 		cmp	r0, #1000
 1588 007c F3D9     		bls	.L87
1160:Drivers/STM32L4xx_HAL_Driver/Src/stm32l4xx_hal_rtc_ex.c **** 
 1589              		.loc 1 1160 9 is_stmt 1 view .LVU536
ARM GAS  /tmp/cc49nhBG.s 			page 51


1160:Drivers/STM32L4xx_HAL_Driver/Src/stm32l4xx_hal_rtc_ex.c **** 
 1590              		.loc 1 1160 9 view .LVU537
 1591 007e 2368     		ldr	r3, [r4]
 1592 0080 FF22     		movs	r2, #255
 1593 0082 5A62     		str	r2, [r3, #36]
1160:Drivers/STM32L4xx_HAL_Driver/Src/stm32l4xx_hal_rtc_ex.c **** 
 1594              		.loc 1 1160 9 view .LVU538
1163:Drivers/STM32L4xx_HAL_Driver/Src/stm32l4xx_hal_rtc_ex.c **** 
 1595              		.loc 1 1163 9 view .LVU539
1163:Drivers/STM32L4xx_HAL_Driver/Src/stm32l4xx_hal_rtc_ex.c **** 
 1596              		.loc 1 1163 21 is_stmt 0 view .LVU540
 1597 0084 0320     		movs	r0, #3
 1598 0086 84F82900 		strb	r0, [r4, #41]
1166:Drivers/STM32L4xx_HAL_Driver/Src/stm32l4xx_hal_rtc_ex.c **** 
 1599              		.loc 1 1166 9 is_stmt 1 view .LVU541
1166:Drivers/STM32L4xx_HAL_Driver/Src/stm32l4xx_hal_rtc_ex.c **** 
 1600              		.loc 1 1166 9 view .LVU542
 1601 008a 0023     		movs	r3, #0
 1602 008c 84F82830 		strb	r3, [r4, #40]
1166:Drivers/STM32L4xx_HAL_Driver/Src/stm32l4xx_hal_rtc_ex.c **** 
 1603              		.loc 1 1166 9 view .LVU543
1168:Drivers/STM32L4xx_HAL_Driver/Src/stm32l4xx_hal_rtc_ex.c ****       }
 1604              		.loc 1 1168 9 view .LVU544
1168:Drivers/STM32L4xx_HAL_Driver/Src/stm32l4xx_hal_rtc_ex.c ****       }
 1605              		.loc 1 1168 16 is_stmt 0 view .LVU545
 1606 0090 E4E7     		b	.L85
 1607              	.LVL105:
 1608              	.L89:
1134:Drivers/STM32L4xx_HAL_Driver/Src/stm32l4xx_hal_rtc_ex.c **** 
 1609              		.loc 1 1134 3 view .LVU546
 1610 0092 0220     		movs	r0, #2
 1611              	.LVL106:
1134:Drivers/STM32L4xx_HAL_Driver/Src/stm32l4xx_hal_rtc_ex.c **** 
 1612              		.loc 1 1134 3 view .LVU547
 1613 0094 E2E7     		b	.L85
 1614              		.cfi_endproc
 1615              	.LFE148:
 1617              		.section	.text.HAL_RTCEx_SetLowPowerCalib,"ax",%progbits
 1618              		.align	1
 1619              		.global	HAL_RTCEx_SetLowPowerCalib
 1620              		.syntax unified
 1621              		.thumb
 1622              		.thumb_func
 1623              		.fpu fpv4-sp-d16
 1625              	HAL_RTCEx_SetLowPowerCalib:
 1626              	.LVL107:
 1627              	.LFB149:
1187:Drivers/STM32L4xx_HAL_Driver/Src/stm32l4xx_hal_rtc_ex.c **** 
1188:Drivers/STM32L4xx_HAL_Driver/Src/stm32l4xx_hal_rtc_ex.c **** #if defined(STM32L412xx) || defined(STM32L422xx) || defined (STM32L4P5xx) || defined (STM32L4Q5xx)
1189:Drivers/STM32L4xx_HAL_Driver/Src/stm32l4xx_hal_rtc_ex.c **** /**
1190:Drivers/STM32L4xx_HAL_Driver/Src/stm32l4xx_hal_rtc_ex.c ****   * @brief  Select the low power Calibration mode.
1191:Drivers/STM32L4xx_HAL_Driver/Src/stm32l4xx_hal_rtc_ex.c ****   * @param  hrtc RTC handle
1192:Drivers/STM32L4xx_HAL_Driver/Src/stm32l4xx_hal_rtc_ex.c ****   * @param  LowPowerCalib Low power Calibration mode.
1193:Drivers/STM32L4xx_HAL_Driver/Src/stm32l4xx_hal_rtc_ex.c ****   *          This parameter can be can be one of the following values :
1194:Drivers/STM32L4xx_HAL_Driver/Src/stm32l4xx_hal_rtc_ex.c ****   *             @arg RTC_LPCAL_SET: Low power mode.
1195:Drivers/STM32L4xx_HAL_Driver/Src/stm32l4xx_hal_rtc_ex.c ****   *             @arg RTC_LPCAL_RESET: High consumption mode.
1196:Drivers/STM32L4xx_HAL_Driver/Src/stm32l4xx_hal_rtc_ex.c ****   * @retval HAL status
ARM GAS  /tmp/cc49nhBG.s 			page 52


1197:Drivers/STM32L4xx_HAL_Driver/Src/stm32l4xx_hal_rtc_ex.c ****   */
1198:Drivers/STM32L4xx_HAL_Driver/Src/stm32l4xx_hal_rtc_ex.c **** HAL_StatusTypeDef HAL_RTCEx_SetLowPowerCalib(RTC_HandleTypeDef *hrtc, uint32_t LowPowerCalib)
1199:Drivers/STM32L4xx_HAL_Driver/Src/stm32l4xx_hal_rtc_ex.c **** {
 1628              		.loc 1 1199 1 is_stmt 1 view -0
 1629              		.cfi_startproc
 1630              		@ args = 0, pretend = 0, frame = 0
 1631              		@ frame_needed = 0, uses_anonymous_args = 0
 1632              		@ link register save eliminated.
1200:Drivers/STM32L4xx_HAL_Driver/Src/stm32l4xx_hal_rtc_ex.c ****   /* Check the parameters */
1201:Drivers/STM32L4xx_HAL_Driver/Src/stm32l4xx_hal_rtc_ex.c ****   assert_param(IS_RTC_LOW_POWER_CALIB(LowPowerCalib));
 1633              		.loc 1 1201 3 view .LVU549
1202:Drivers/STM32L4xx_HAL_Driver/Src/stm32l4xx_hal_rtc_ex.c **** 
1203:Drivers/STM32L4xx_HAL_Driver/Src/stm32l4xx_hal_rtc_ex.c ****   /* Process Locked */
1204:Drivers/STM32L4xx_HAL_Driver/Src/stm32l4xx_hal_rtc_ex.c ****   __HAL_LOCK(hrtc);
 1634              		.loc 1 1204 3 view .LVU550
 1635              		.loc 1 1204 3 view .LVU551
 1636 0000 90F82830 		ldrb	r3, [r0, #40]	@ zero_extendqisi2
 1637 0004 012B     		cmp	r3, #1
 1638 0006 1ED0     		beq	.L94
1199:Drivers/STM32L4xx_HAL_Driver/Src/stm32l4xx_hal_rtc_ex.c ****   /* Check the parameters */
 1639              		.loc 1 1199 1 is_stmt 0 discriminator 2 view .LVU552
 1640 0008 10B4     		push	{r4}
 1641              	.LCFI12:
 1642              		.cfi_def_cfa_offset 4
 1643              		.cfi_offset 4, -4
 1644              		.loc 1 1204 3 is_stmt 1 discriminator 2 view .LVU553
 1645 000a 0122     		movs	r2, #1
 1646 000c 80F82820 		strb	r2, [r0, #40]
 1647              		.loc 1 1204 3 discriminator 2 view .LVU554
1205:Drivers/STM32L4xx_HAL_Driver/Src/stm32l4xx_hal_rtc_ex.c **** 
1206:Drivers/STM32L4xx_HAL_Driver/Src/stm32l4xx_hal_rtc_ex.c ****   hrtc->State = HAL_RTC_STATE_BUSY;
 1648              		.loc 1 1206 3 discriminator 2 view .LVU555
 1649              		.loc 1 1206 15 is_stmt 0 discriminator 2 view .LVU556
 1650 0010 0223     		movs	r3, #2
 1651 0012 80F82930 		strb	r3, [r0, #41]
1207:Drivers/STM32L4xx_HAL_Driver/Src/stm32l4xx_hal_rtc_ex.c **** 
1208:Drivers/STM32L4xx_HAL_Driver/Src/stm32l4xx_hal_rtc_ex.c ****   /* Disable the write protection for RTC registers */
1209:Drivers/STM32L4xx_HAL_Driver/Src/stm32l4xx_hal_rtc_ex.c ****   __HAL_RTC_WRITEPROTECTION_DISABLE(hrtc);
 1652              		.loc 1 1209 3 is_stmt 1 discriminator 2 view .LVU557
 1653              		.loc 1 1209 3 discriminator 2 view .LVU558
 1654 0016 0368     		ldr	r3, [r0]
 1655 0018 CA24     		movs	r4, #202
 1656 001a 5C62     		str	r4, [r3, #36]
 1657              		.loc 1 1209 3 discriminator 2 view .LVU559
 1658 001c 0368     		ldr	r3, [r0]
 1659 001e 5324     		movs	r4, #83
 1660 0020 5C62     		str	r4, [r3, #36]
 1661              		.loc 1 1209 3 discriminator 2 view .LVU560
1210:Drivers/STM32L4xx_HAL_Driver/Src/stm32l4xx_hal_rtc_ex.c **** 
1211:Drivers/STM32L4xx_HAL_Driver/Src/stm32l4xx_hal_rtc_ex.c ****   /* Configure the Smooth calibration settings */
1212:Drivers/STM32L4xx_HAL_Driver/Src/stm32l4xx_hal_rtc_ex.c ****   MODIFY_REG(hrtc->Instance->CALR, RTC_CALR_LPCAL, LowPowerCalib);
 1662              		.loc 1 1212 3 discriminator 2 view .LVU561
 1663 0022 0468     		ldr	r4, [r0]
 1664 0024 A36A     		ldr	r3, [r4, #40]
 1665 0026 23F48053 		bic	r3, r3, #4096
 1666 002a 1943     		orrs	r1, r1, r3
 1667              	.LVL108:
ARM GAS  /tmp/cc49nhBG.s 			page 53


 1668              		.loc 1 1212 3 is_stmt 0 discriminator 2 view .LVU562
 1669 002c A162     		str	r1, [r4, #40]
1213:Drivers/STM32L4xx_HAL_Driver/Src/stm32l4xx_hal_rtc_ex.c **** 
1214:Drivers/STM32L4xx_HAL_Driver/Src/stm32l4xx_hal_rtc_ex.c ****   /* Enable the write protection for RTC registers */
1215:Drivers/STM32L4xx_HAL_Driver/Src/stm32l4xx_hal_rtc_ex.c ****   __HAL_RTC_WRITEPROTECTION_ENABLE(hrtc);
 1670              		.loc 1 1215 3 is_stmt 1 discriminator 2 view .LVU563
 1671              		.loc 1 1215 3 discriminator 2 view .LVU564
 1672 002e 0368     		ldr	r3, [r0]
 1673 0030 FF21     		movs	r1, #255
 1674 0032 5962     		str	r1, [r3, #36]
 1675              		.loc 1 1215 3 discriminator 2 view .LVU565
1216:Drivers/STM32L4xx_HAL_Driver/Src/stm32l4xx_hal_rtc_ex.c **** 
1217:Drivers/STM32L4xx_HAL_Driver/Src/stm32l4xx_hal_rtc_ex.c ****   /* Change RTC state */
1218:Drivers/STM32L4xx_HAL_Driver/Src/stm32l4xx_hal_rtc_ex.c ****   hrtc->State = HAL_RTC_STATE_READY;
 1676              		.loc 1 1218 3 discriminator 2 view .LVU566
 1677              		.loc 1 1218 15 is_stmt 0 discriminator 2 view .LVU567
 1678 0034 80F82920 		strb	r2, [r0, #41]
1219:Drivers/STM32L4xx_HAL_Driver/Src/stm32l4xx_hal_rtc_ex.c **** 
1220:Drivers/STM32L4xx_HAL_Driver/Src/stm32l4xx_hal_rtc_ex.c ****   /* Process Unlocked */
1221:Drivers/STM32L4xx_HAL_Driver/Src/stm32l4xx_hal_rtc_ex.c ****   __HAL_UNLOCK(hrtc);
 1679              		.loc 1 1221 3 is_stmt 1 discriminator 2 view .LVU568
 1680              		.loc 1 1221 3 discriminator 2 view .LVU569
 1681 0038 0023     		movs	r3, #0
 1682 003a 80F82830 		strb	r3, [r0, #40]
 1683              		.loc 1 1221 3 discriminator 2 view .LVU570
1222:Drivers/STM32L4xx_HAL_Driver/Src/stm32l4xx_hal_rtc_ex.c **** 
1223:Drivers/STM32L4xx_HAL_Driver/Src/stm32l4xx_hal_rtc_ex.c ****   return HAL_OK;
 1684              		.loc 1 1223 3 discriminator 2 view .LVU571
 1685              		.loc 1 1223 10 is_stmt 0 discriminator 2 view .LVU572
 1686 003e 1846     		mov	r0, r3
 1687              	.LVL109:
1224:Drivers/STM32L4xx_HAL_Driver/Src/stm32l4xx_hal_rtc_ex.c **** }
 1688              		.loc 1 1224 1 discriminator 2 view .LVU573
 1689 0040 5DF8044B 		ldr	r4, [sp], #4
 1690              	.LCFI13:
 1691              		.cfi_restore 4
 1692              		.cfi_def_cfa_offset 0
 1693 0044 7047     		bx	lr
 1694              	.LVL110:
 1695              	.L94:
1204:Drivers/STM32L4xx_HAL_Driver/Src/stm32l4xx_hal_rtc_ex.c **** 
 1696              		.loc 1 1204 3 view .LVU574
 1697 0046 0220     		movs	r0, #2
 1698              	.LVL111:
 1699              		.loc 1 1224 1 view .LVU575
 1700 0048 7047     		bx	lr
 1701              		.cfi_endproc
 1702              	.LFE149:
 1704              		.section	.text.HAL_RTCEx_SetSynchroShift,"ax",%progbits
 1705              		.align	1
 1706              		.global	HAL_RTCEx_SetSynchroShift
 1707              		.syntax unified
 1708              		.thumb
 1709              		.thumb_func
 1710              		.fpu fpv4-sp-d16
 1712              	HAL_RTCEx_SetSynchroShift:
 1713              	.LVL112:
ARM GAS  /tmp/cc49nhBG.s 			page 54


 1714              	.LFB150:
1225:Drivers/STM32L4xx_HAL_Driver/Src/stm32l4xx_hal_rtc_ex.c **** #endif /* #if defined(STM32L412xx) || defined(STM32L422xx) || defined (STM32L4P5xx) || defined (STM
1226:Drivers/STM32L4xx_HAL_Driver/Src/stm32l4xx_hal_rtc_ex.c **** 
1227:Drivers/STM32L4xx_HAL_Driver/Src/stm32l4xx_hal_rtc_ex.c **** /**
1228:Drivers/STM32L4xx_HAL_Driver/Src/stm32l4xx_hal_rtc_ex.c ****   * @brief  Configure the Synchronization Shift Control Settings.
1229:Drivers/STM32L4xx_HAL_Driver/Src/stm32l4xx_hal_rtc_ex.c ****   * @note   When REFCKON is set, firmware must not write to Shift control register.
1230:Drivers/STM32L4xx_HAL_Driver/Src/stm32l4xx_hal_rtc_ex.c ****   * @param  hrtc RTC handle
1231:Drivers/STM32L4xx_HAL_Driver/Src/stm32l4xx_hal_rtc_ex.c ****   * @param  ShiftAdd1S Select to add or not 1 second to the time calendar.
1232:Drivers/STM32L4xx_HAL_Driver/Src/stm32l4xx_hal_rtc_ex.c ****   *          This parameter can be one of the following values:
1233:Drivers/STM32L4xx_HAL_Driver/Src/stm32l4xx_hal_rtc_ex.c ****   *             @arg RTC_SHIFTADD1S_SET: Add one second to the clock calendar.
1234:Drivers/STM32L4xx_HAL_Driver/Src/stm32l4xx_hal_rtc_ex.c ****   *             @arg RTC_SHIFTADD1S_RESET: No effect.
1235:Drivers/STM32L4xx_HAL_Driver/Src/stm32l4xx_hal_rtc_ex.c ****   * @param  ShiftSubFS Select the number of Second Fractions to substitute.
1236:Drivers/STM32L4xx_HAL_Driver/Src/stm32l4xx_hal_rtc_ex.c ****   *          This parameter can be one any value from 0 to 0x7FFF.
1237:Drivers/STM32L4xx_HAL_Driver/Src/stm32l4xx_hal_rtc_ex.c ****   * @retval HAL status
1238:Drivers/STM32L4xx_HAL_Driver/Src/stm32l4xx_hal_rtc_ex.c ****   */
1239:Drivers/STM32L4xx_HAL_Driver/Src/stm32l4xx_hal_rtc_ex.c **** HAL_StatusTypeDef HAL_RTCEx_SetSynchroShift(RTC_HandleTypeDef *hrtc, uint32_t ShiftAdd1S, uint32_t 
1240:Drivers/STM32L4xx_HAL_Driver/Src/stm32l4xx_hal_rtc_ex.c **** {
 1715              		.loc 1 1240 1 is_stmt 1 view -0
 1716              		.cfi_startproc
 1717              		@ args = 0, pretend = 0, frame = 0
 1718              		@ frame_needed = 0, uses_anonymous_args = 0
1241:Drivers/STM32L4xx_HAL_Driver/Src/stm32l4xx_hal_rtc_ex.c ****   uint32_t tickstart;
 1719              		.loc 1 1241 3 view .LVU577
1242:Drivers/STM32L4xx_HAL_Driver/Src/stm32l4xx_hal_rtc_ex.c **** 
1243:Drivers/STM32L4xx_HAL_Driver/Src/stm32l4xx_hal_rtc_ex.c ****   /* Check the parameters */
1244:Drivers/STM32L4xx_HAL_Driver/Src/stm32l4xx_hal_rtc_ex.c ****   assert_param(IS_RTC_SHIFT_ADD1S(ShiftAdd1S));
 1720              		.loc 1 1244 3 view .LVU578
1245:Drivers/STM32L4xx_HAL_Driver/Src/stm32l4xx_hal_rtc_ex.c ****   assert_param(IS_RTC_SHIFT_SUBFS(ShiftSubFS));
 1721              		.loc 1 1245 3 view .LVU579
1246:Drivers/STM32L4xx_HAL_Driver/Src/stm32l4xx_hal_rtc_ex.c **** 
1247:Drivers/STM32L4xx_HAL_Driver/Src/stm32l4xx_hal_rtc_ex.c ****   /* Process Locked */
1248:Drivers/STM32L4xx_HAL_Driver/Src/stm32l4xx_hal_rtc_ex.c ****   __HAL_LOCK(hrtc);
 1722              		.loc 1 1248 3 view .LVU580
 1723              		.loc 1 1248 3 view .LVU581
 1724 0000 90F82830 		ldrb	r3, [r0, #40]	@ zero_extendqisi2
 1725 0004 012B     		cmp	r3, #1
 1726 0006 59D0     		beq	.L105
1240:Drivers/STM32L4xx_HAL_Driver/Src/stm32l4xx_hal_rtc_ex.c ****   uint32_t tickstart;
 1727              		.loc 1 1240 1 is_stmt 0 discriminator 2 view .LVU582
 1728 0008 2DE9F041 		push	{r4, r5, r6, r7, r8, lr}
 1729              	.LCFI14:
 1730              		.cfi_def_cfa_offset 24
 1731              		.cfi_offset 4, -24
 1732              		.cfi_offset 5, -20
 1733              		.cfi_offset 6, -16
 1734              		.cfi_offset 7, -12
 1735              		.cfi_offset 8, -8
 1736              		.cfi_offset 14, -4
 1737 000c 0446     		mov	r4, r0
 1738 000e 8846     		mov	r8, r1
 1739 0010 1746     		mov	r7, r2
 1740              		.loc 1 1248 3 is_stmt 1 discriminator 2 view .LVU583
 1741 0012 0123     		movs	r3, #1
 1742 0014 80F82830 		strb	r3, [r0, #40]
 1743              		.loc 1 1248 3 discriminator 2 view .LVU584
1249:Drivers/STM32L4xx_HAL_Driver/Src/stm32l4xx_hal_rtc_ex.c **** 
1250:Drivers/STM32L4xx_HAL_Driver/Src/stm32l4xx_hal_rtc_ex.c ****   hrtc->State = HAL_RTC_STATE_BUSY;
ARM GAS  /tmp/cc49nhBG.s 			page 55


 1744              		.loc 1 1250 3 discriminator 2 view .LVU585
 1745              		.loc 1 1250 15 is_stmt 0 discriminator 2 view .LVU586
 1746 0018 0223     		movs	r3, #2
 1747 001a 80F82930 		strb	r3, [r0, #41]
1251:Drivers/STM32L4xx_HAL_Driver/Src/stm32l4xx_hal_rtc_ex.c **** 
1252:Drivers/STM32L4xx_HAL_Driver/Src/stm32l4xx_hal_rtc_ex.c ****   /* Disable the write protection for RTC registers */
1253:Drivers/STM32L4xx_HAL_Driver/Src/stm32l4xx_hal_rtc_ex.c ****   __HAL_RTC_WRITEPROTECTION_DISABLE(hrtc);
 1748              		.loc 1 1253 3 is_stmt 1 discriminator 2 view .LVU587
 1749              		.loc 1 1253 3 discriminator 2 view .LVU588
 1750 001e 0368     		ldr	r3, [r0]
 1751 0020 CA22     		movs	r2, #202
 1752              	.LVL113:
 1753              		.loc 1 1253 3 is_stmt 0 discriminator 2 view .LVU589
 1754 0022 5A62     		str	r2, [r3, #36]
 1755              		.loc 1 1253 3 is_stmt 1 discriminator 2 view .LVU590
 1756 0024 0368     		ldr	r3, [r0]
 1757 0026 5322     		movs	r2, #83
 1758 0028 5A62     		str	r2, [r3, #36]
 1759              		.loc 1 1253 3 discriminator 2 view .LVU591
1254:Drivers/STM32L4xx_HAL_Driver/Src/stm32l4xx_hal_rtc_ex.c **** 
1255:Drivers/STM32L4xx_HAL_Driver/Src/stm32l4xx_hal_rtc_ex.c ****   tickstart = HAL_GetTick();
 1760              		.loc 1 1255 3 discriminator 2 view .LVU592
 1761              		.loc 1 1255 15 is_stmt 0 discriminator 2 view .LVU593
 1762 002a FFF7FEFF 		bl	HAL_GetTick
 1763              	.LVL114:
 1764              		.loc 1 1255 15 discriminator 2 view .LVU594
 1765 002e 0646     		mov	r6, r0
 1766              	.LVL115:
1256:Drivers/STM32L4xx_HAL_Driver/Src/stm32l4xx_hal_rtc_ex.c **** 
1257:Drivers/STM32L4xx_HAL_Driver/Src/stm32l4xx_hal_rtc_ex.c ****   /* Wait until the shift is completed*/
1258:Drivers/STM32L4xx_HAL_Driver/Src/stm32l4xx_hal_rtc_ex.c **** #if defined(STM32L412xx) || defined(STM32L422xx) || defined (STM32L4P5xx) || defined (STM32L4Q5xx)
1259:Drivers/STM32L4xx_HAL_Driver/Src/stm32l4xx_hal_rtc_ex.c ****   while ((hrtc->Instance->ICSR & RTC_ICSR_SHPF) != 0U)
 1767              		.loc 1 1259 3 is_stmt 1 discriminator 2 view .LVU595
 1768              	.L101:
 1769              		.loc 1 1259 9 view .LVU596
 1770              		.loc 1 1259 15 is_stmt 0 view .LVU597
 1771 0030 2368     		ldr	r3, [r4]
 1772              		.loc 1 1259 25 view .LVU598
 1773 0032 DD68     		ldr	r5, [r3, #12]
 1774              		.loc 1 1259 9 view .LVU599
 1775 0034 15F0080F 		tst	r5, #8
 1776 0038 10D0     		beq	.L110
1260:Drivers/STM32L4xx_HAL_Driver/Src/stm32l4xx_hal_rtc_ex.c **** #else
1261:Drivers/STM32L4xx_HAL_Driver/Src/stm32l4xx_hal_rtc_ex.c ****   while ((hrtc->Instance->ISR & RTC_ISR_SHPF) != 0U)
1262:Drivers/STM32L4xx_HAL_Driver/Src/stm32l4xx_hal_rtc_ex.c **** #endif
1263:Drivers/STM32L4xx_HAL_Driver/Src/stm32l4xx_hal_rtc_ex.c ****   {
1264:Drivers/STM32L4xx_HAL_Driver/Src/stm32l4xx_hal_rtc_ex.c ****     if ((HAL_GetTick() - tickstart) > RTC_TIMEOUT_VALUE)
 1777              		.loc 1 1264 5 is_stmt 1 view .LVU600
 1778              		.loc 1 1264 10 is_stmt 0 view .LVU601
 1779 003a FFF7FEFF 		bl	HAL_GetTick
 1780              	.LVL116:
 1781              		.loc 1 1264 24 view .LVU602
 1782 003e 831B     		subs	r3, r0, r6
 1783              		.loc 1 1264 8 view .LVU603
 1784 0040 B3F57A7F 		cmp	r3, #1000
 1785 0044 F4D9     		bls	.L101
1265:Drivers/STM32L4xx_HAL_Driver/Src/stm32l4xx_hal_rtc_ex.c ****     {
ARM GAS  /tmp/cc49nhBG.s 			page 56


1266:Drivers/STM32L4xx_HAL_Driver/Src/stm32l4xx_hal_rtc_ex.c ****       /* Enable the write protection for RTC registers */
1267:Drivers/STM32L4xx_HAL_Driver/Src/stm32l4xx_hal_rtc_ex.c ****       __HAL_RTC_WRITEPROTECTION_ENABLE(hrtc);
 1786              		.loc 1 1267 7 is_stmt 1 view .LVU604
 1787              		.loc 1 1267 7 view .LVU605
 1788 0046 2368     		ldr	r3, [r4]
 1789 0048 FF22     		movs	r2, #255
 1790 004a 5A62     		str	r2, [r3, #36]
 1791              		.loc 1 1267 7 view .LVU606
1268:Drivers/STM32L4xx_HAL_Driver/Src/stm32l4xx_hal_rtc_ex.c **** 
1269:Drivers/STM32L4xx_HAL_Driver/Src/stm32l4xx_hal_rtc_ex.c ****       hrtc->State = HAL_RTC_STATE_TIMEOUT;
 1792              		.loc 1 1269 7 view .LVU607
 1793              		.loc 1 1269 19 is_stmt 0 view .LVU608
 1794 004c 0320     		movs	r0, #3
 1795 004e 84F82900 		strb	r0, [r4, #41]
1270:Drivers/STM32L4xx_HAL_Driver/Src/stm32l4xx_hal_rtc_ex.c **** 
1271:Drivers/STM32L4xx_HAL_Driver/Src/stm32l4xx_hal_rtc_ex.c ****       /* Process Unlocked */
1272:Drivers/STM32L4xx_HAL_Driver/Src/stm32l4xx_hal_rtc_ex.c ****       __HAL_UNLOCK(hrtc);
 1796              		.loc 1 1272 7 is_stmt 1 view .LVU609
 1797              		.loc 1 1272 7 view .LVU610
 1798 0052 0023     		movs	r3, #0
 1799 0054 84F82830 		strb	r3, [r4, #40]
 1800              		.loc 1 1272 7 view .LVU611
1273:Drivers/STM32L4xx_HAL_Driver/Src/stm32l4xx_hal_rtc_ex.c **** 
1274:Drivers/STM32L4xx_HAL_Driver/Src/stm32l4xx_hal_rtc_ex.c ****       return HAL_TIMEOUT;
 1801              		.loc 1 1274 7 view .LVU612
 1802              	.LVL117:
 1803              	.L100:
1275:Drivers/STM32L4xx_HAL_Driver/Src/stm32l4xx_hal_rtc_ex.c ****     }
1276:Drivers/STM32L4xx_HAL_Driver/Src/stm32l4xx_hal_rtc_ex.c ****   }
1277:Drivers/STM32L4xx_HAL_Driver/Src/stm32l4xx_hal_rtc_ex.c **** 
1278:Drivers/STM32L4xx_HAL_Driver/Src/stm32l4xx_hal_rtc_ex.c ****   /* Check if the reference clock detection is disabled */
1279:Drivers/STM32L4xx_HAL_Driver/Src/stm32l4xx_hal_rtc_ex.c ****   if ((hrtc->Instance->CR & RTC_CR_REFCKON) == 0U)
1280:Drivers/STM32L4xx_HAL_Driver/Src/stm32l4xx_hal_rtc_ex.c ****   {
1281:Drivers/STM32L4xx_HAL_Driver/Src/stm32l4xx_hal_rtc_ex.c ****     /* Configure the Shift settings */
1282:Drivers/STM32L4xx_HAL_Driver/Src/stm32l4xx_hal_rtc_ex.c ****     hrtc->Instance->SHIFTR = (uint32_t)(uint32_t)(ShiftSubFS) | (uint32_t)(ShiftAdd1S);
1283:Drivers/STM32L4xx_HAL_Driver/Src/stm32l4xx_hal_rtc_ex.c **** 
1284:Drivers/STM32L4xx_HAL_Driver/Src/stm32l4xx_hal_rtc_ex.c ****     /* If  RTC_CR_BYPSHAD bit = 0, wait for synchro else this check is not needed */
1285:Drivers/STM32L4xx_HAL_Driver/Src/stm32l4xx_hal_rtc_ex.c ****     if ((hrtc->Instance->CR & RTC_CR_BYPSHAD) == 0U)
1286:Drivers/STM32L4xx_HAL_Driver/Src/stm32l4xx_hal_rtc_ex.c ****     {
1287:Drivers/STM32L4xx_HAL_Driver/Src/stm32l4xx_hal_rtc_ex.c ****       if (HAL_RTC_WaitForSynchro(hrtc) != HAL_OK)
1288:Drivers/STM32L4xx_HAL_Driver/Src/stm32l4xx_hal_rtc_ex.c ****       {
1289:Drivers/STM32L4xx_HAL_Driver/Src/stm32l4xx_hal_rtc_ex.c ****         /* Enable the write protection for RTC registers */
1290:Drivers/STM32L4xx_HAL_Driver/Src/stm32l4xx_hal_rtc_ex.c ****         __HAL_RTC_WRITEPROTECTION_ENABLE(hrtc);
1291:Drivers/STM32L4xx_HAL_Driver/Src/stm32l4xx_hal_rtc_ex.c **** 
1292:Drivers/STM32L4xx_HAL_Driver/Src/stm32l4xx_hal_rtc_ex.c ****         hrtc->State = HAL_RTC_STATE_ERROR;
1293:Drivers/STM32L4xx_HAL_Driver/Src/stm32l4xx_hal_rtc_ex.c **** 
1294:Drivers/STM32L4xx_HAL_Driver/Src/stm32l4xx_hal_rtc_ex.c ****         /* Process Unlocked */
1295:Drivers/STM32L4xx_HAL_Driver/Src/stm32l4xx_hal_rtc_ex.c ****         __HAL_UNLOCK(hrtc);
1296:Drivers/STM32L4xx_HAL_Driver/Src/stm32l4xx_hal_rtc_ex.c **** 
1297:Drivers/STM32L4xx_HAL_Driver/Src/stm32l4xx_hal_rtc_ex.c ****         return HAL_ERROR;
1298:Drivers/STM32L4xx_HAL_Driver/Src/stm32l4xx_hal_rtc_ex.c ****       }
1299:Drivers/STM32L4xx_HAL_Driver/Src/stm32l4xx_hal_rtc_ex.c ****     }
1300:Drivers/STM32L4xx_HAL_Driver/Src/stm32l4xx_hal_rtc_ex.c ****   }
1301:Drivers/STM32L4xx_HAL_Driver/Src/stm32l4xx_hal_rtc_ex.c ****   else
1302:Drivers/STM32L4xx_HAL_Driver/Src/stm32l4xx_hal_rtc_ex.c ****   {
1303:Drivers/STM32L4xx_HAL_Driver/Src/stm32l4xx_hal_rtc_ex.c ****     /* Enable the write protection for RTC registers */
1304:Drivers/STM32L4xx_HAL_Driver/Src/stm32l4xx_hal_rtc_ex.c ****     __HAL_RTC_WRITEPROTECTION_ENABLE(hrtc);
ARM GAS  /tmp/cc49nhBG.s 			page 57


1305:Drivers/STM32L4xx_HAL_Driver/Src/stm32l4xx_hal_rtc_ex.c **** 
1306:Drivers/STM32L4xx_HAL_Driver/Src/stm32l4xx_hal_rtc_ex.c ****     /* Change RTC state */
1307:Drivers/STM32L4xx_HAL_Driver/Src/stm32l4xx_hal_rtc_ex.c ****     hrtc->State = HAL_RTC_STATE_ERROR;
1308:Drivers/STM32L4xx_HAL_Driver/Src/stm32l4xx_hal_rtc_ex.c **** 
1309:Drivers/STM32L4xx_HAL_Driver/Src/stm32l4xx_hal_rtc_ex.c ****     /* Process Unlocked */
1310:Drivers/STM32L4xx_HAL_Driver/Src/stm32l4xx_hal_rtc_ex.c ****     __HAL_UNLOCK(hrtc);
1311:Drivers/STM32L4xx_HAL_Driver/Src/stm32l4xx_hal_rtc_ex.c **** 
1312:Drivers/STM32L4xx_HAL_Driver/Src/stm32l4xx_hal_rtc_ex.c ****     return HAL_ERROR;
1313:Drivers/STM32L4xx_HAL_Driver/Src/stm32l4xx_hal_rtc_ex.c ****   }
1314:Drivers/STM32L4xx_HAL_Driver/Src/stm32l4xx_hal_rtc_ex.c **** 
1315:Drivers/STM32L4xx_HAL_Driver/Src/stm32l4xx_hal_rtc_ex.c ****   /* Enable the write protection for RTC registers */
1316:Drivers/STM32L4xx_HAL_Driver/Src/stm32l4xx_hal_rtc_ex.c ****   __HAL_RTC_WRITEPROTECTION_ENABLE(hrtc);
1317:Drivers/STM32L4xx_HAL_Driver/Src/stm32l4xx_hal_rtc_ex.c **** 
1318:Drivers/STM32L4xx_HAL_Driver/Src/stm32l4xx_hal_rtc_ex.c ****   /* Change RTC state */
1319:Drivers/STM32L4xx_HAL_Driver/Src/stm32l4xx_hal_rtc_ex.c ****   hrtc->State = HAL_RTC_STATE_READY;
1320:Drivers/STM32L4xx_HAL_Driver/Src/stm32l4xx_hal_rtc_ex.c **** 
1321:Drivers/STM32L4xx_HAL_Driver/Src/stm32l4xx_hal_rtc_ex.c ****   /* Process Unlocked */
1322:Drivers/STM32L4xx_HAL_Driver/Src/stm32l4xx_hal_rtc_ex.c ****   __HAL_UNLOCK(hrtc);
1323:Drivers/STM32L4xx_HAL_Driver/Src/stm32l4xx_hal_rtc_ex.c **** 
1324:Drivers/STM32L4xx_HAL_Driver/Src/stm32l4xx_hal_rtc_ex.c ****   return HAL_OK;
1325:Drivers/STM32L4xx_HAL_Driver/Src/stm32l4xx_hal_rtc_ex.c **** }
 1804              		.loc 1 1325 1 is_stmt 0 view .LVU613
 1805 0058 BDE8F081 		pop	{r4, r5, r6, r7, r8, pc}
 1806              	.LVL118:
 1807              	.L110:
1279:Drivers/STM32L4xx_HAL_Driver/Src/stm32l4xx_hal_rtc_ex.c ****   {
 1808              		.loc 1 1279 3 is_stmt 1 view .LVU614
1279:Drivers/STM32L4xx_HAL_Driver/Src/stm32l4xx_hal_rtc_ex.c ****   {
 1809              		.loc 1 1279 22 is_stmt 0 view .LVU615
 1810 005c 9A69     		ldr	r2, [r3, #24]
1279:Drivers/STM32L4xx_HAL_Driver/Src/stm32l4xx_hal_rtc_ex.c ****   {
 1811              		.loc 1 1279 6 view .LVU616
 1812 005e 12F0100F 		tst	r2, #16
 1813 0062 21D1     		bne	.L103
1282:Drivers/STM32L4xx_HAL_Driver/Src/stm32l4xx_hal_rtc_ex.c **** 
 1814              		.loc 1 1282 5 is_stmt 1 view .LVU617
1282:Drivers/STM32L4xx_HAL_Driver/Src/stm32l4xx_hal_rtc_ex.c **** 
 1815              		.loc 1 1282 63 is_stmt 0 view .LVU618
 1816 0064 47EA0807 		orr	r7, r7, r8
 1817              	.LVL119:
1282:Drivers/STM32L4xx_HAL_Driver/Src/stm32l4xx_hal_rtc_ex.c **** 
 1818              		.loc 1 1282 28 view .LVU619
 1819 0068 DF62     		str	r7, [r3, #44]
1285:Drivers/STM32L4xx_HAL_Driver/Src/stm32l4xx_hal_rtc_ex.c ****     {
 1820              		.loc 1 1285 5 is_stmt 1 view .LVU620
1285:Drivers/STM32L4xx_HAL_Driver/Src/stm32l4xx_hal_rtc_ex.c ****     {
 1821              		.loc 1 1285 14 is_stmt 0 view .LVU621
 1822 006a 2368     		ldr	r3, [r4]
1285:Drivers/STM32L4xx_HAL_Driver/Src/stm32l4xx_hal_rtc_ex.c ****     {
 1823              		.loc 1 1285 24 view .LVU622
 1824 006c 9B69     		ldr	r3, [r3, #24]
1285:Drivers/STM32L4xx_HAL_Driver/Src/stm32l4xx_hal_rtc_ex.c ****     {
 1825              		.loc 1 1285 8 view .LVU623
 1826 006e 13F0200F 		tst	r3, #32
 1827 0072 09D0     		beq	.L111
 1828              	.L104:
1316:Drivers/STM32L4xx_HAL_Driver/Src/stm32l4xx_hal_rtc_ex.c **** 
ARM GAS  /tmp/cc49nhBG.s 			page 58


 1829              		.loc 1 1316 3 is_stmt 1 view .LVU624
1316:Drivers/STM32L4xx_HAL_Driver/Src/stm32l4xx_hal_rtc_ex.c **** 
 1830              		.loc 1 1316 3 view .LVU625
 1831 0074 2368     		ldr	r3, [r4]
 1832 0076 FF22     		movs	r2, #255
 1833 0078 5A62     		str	r2, [r3, #36]
1316:Drivers/STM32L4xx_HAL_Driver/Src/stm32l4xx_hal_rtc_ex.c **** 
 1834              		.loc 1 1316 3 view .LVU626
1319:Drivers/STM32L4xx_HAL_Driver/Src/stm32l4xx_hal_rtc_ex.c **** 
 1835              		.loc 1 1319 3 view .LVU627
1319:Drivers/STM32L4xx_HAL_Driver/Src/stm32l4xx_hal_rtc_ex.c **** 
 1836              		.loc 1 1319 15 is_stmt 0 view .LVU628
 1837 007a 0123     		movs	r3, #1
 1838 007c 84F82930 		strb	r3, [r4, #41]
1322:Drivers/STM32L4xx_HAL_Driver/Src/stm32l4xx_hal_rtc_ex.c **** 
 1839              		.loc 1 1322 3 is_stmt 1 view .LVU629
1322:Drivers/STM32L4xx_HAL_Driver/Src/stm32l4xx_hal_rtc_ex.c **** 
 1840              		.loc 1 1322 3 view .LVU630
 1841 0080 0020     		movs	r0, #0
 1842 0082 84F82800 		strb	r0, [r4, #40]
1322:Drivers/STM32L4xx_HAL_Driver/Src/stm32l4xx_hal_rtc_ex.c **** 
 1843              		.loc 1 1322 3 view .LVU631
1324:Drivers/STM32L4xx_HAL_Driver/Src/stm32l4xx_hal_rtc_ex.c **** }
 1844              		.loc 1 1324 3 view .LVU632
1324:Drivers/STM32L4xx_HAL_Driver/Src/stm32l4xx_hal_rtc_ex.c **** }
 1845              		.loc 1 1324 10 is_stmt 0 view .LVU633
 1846 0086 E7E7     		b	.L100
 1847              	.L111:
1287:Drivers/STM32L4xx_HAL_Driver/Src/stm32l4xx_hal_rtc_ex.c ****       {
 1848              		.loc 1 1287 7 is_stmt 1 view .LVU634
1287:Drivers/STM32L4xx_HAL_Driver/Src/stm32l4xx_hal_rtc_ex.c ****       {
 1849              		.loc 1 1287 11 is_stmt 0 view .LVU635
 1850 0088 2046     		mov	r0, r4
 1851 008a FFF7FEFF 		bl	HAL_RTC_WaitForSynchro
 1852              	.LVL120:
1287:Drivers/STM32L4xx_HAL_Driver/Src/stm32l4xx_hal_rtc_ex.c ****       {
 1853              		.loc 1 1287 10 view .LVU636
 1854 008e 0028     		cmp	r0, #0
 1855 0090 F0D0     		beq	.L104
1290:Drivers/STM32L4xx_HAL_Driver/Src/stm32l4xx_hal_rtc_ex.c **** 
 1856              		.loc 1 1290 9 is_stmt 1 view .LVU637
1290:Drivers/STM32L4xx_HAL_Driver/Src/stm32l4xx_hal_rtc_ex.c **** 
 1857              		.loc 1 1290 9 view .LVU638
 1858 0092 2368     		ldr	r3, [r4]
 1859 0094 FF22     		movs	r2, #255
 1860 0096 5A62     		str	r2, [r3, #36]
1290:Drivers/STM32L4xx_HAL_Driver/Src/stm32l4xx_hal_rtc_ex.c **** 
 1861              		.loc 1 1290 9 view .LVU639
1292:Drivers/STM32L4xx_HAL_Driver/Src/stm32l4xx_hal_rtc_ex.c **** 
 1862              		.loc 1 1292 9 view .LVU640
1292:Drivers/STM32L4xx_HAL_Driver/Src/stm32l4xx_hal_rtc_ex.c **** 
 1863              		.loc 1 1292 21 is_stmt 0 view .LVU641
 1864 0098 0423     		movs	r3, #4
 1865 009a 84F82930 		strb	r3, [r4, #41]
1295:Drivers/STM32L4xx_HAL_Driver/Src/stm32l4xx_hal_rtc_ex.c **** 
 1866              		.loc 1 1295 9 is_stmt 1 view .LVU642
1295:Drivers/STM32L4xx_HAL_Driver/Src/stm32l4xx_hal_rtc_ex.c **** 
ARM GAS  /tmp/cc49nhBG.s 			page 59


 1867              		.loc 1 1295 9 view .LVU643
 1868 009e 0023     		movs	r3, #0
 1869 00a0 84F82830 		strb	r3, [r4, #40]
1295:Drivers/STM32L4xx_HAL_Driver/Src/stm32l4xx_hal_rtc_ex.c **** 
 1870              		.loc 1 1295 9 view .LVU644
1297:Drivers/STM32L4xx_HAL_Driver/Src/stm32l4xx_hal_rtc_ex.c ****       }
 1871              		.loc 1 1297 9 view .LVU645
1297:Drivers/STM32L4xx_HAL_Driver/Src/stm32l4xx_hal_rtc_ex.c ****       }
 1872              		.loc 1 1297 16 is_stmt 0 view .LVU646
 1873 00a4 0120     		movs	r0, #1
 1874 00a6 D7E7     		b	.L100
 1875              	.LVL121:
 1876              	.L103:
1304:Drivers/STM32L4xx_HAL_Driver/Src/stm32l4xx_hal_rtc_ex.c **** 
 1877              		.loc 1 1304 5 is_stmt 1 view .LVU647
1304:Drivers/STM32L4xx_HAL_Driver/Src/stm32l4xx_hal_rtc_ex.c **** 
 1878              		.loc 1 1304 5 view .LVU648
 1879 00a8 FF22     		movs	r2, #255
 1880 00aa 5A62     		str	r2, [r3, #36]
1304:Drivers/STM32L4xx_HAL_Driver/Src/stm32l4xx_hal_rtc_ex.c **** 
 1881              		.loc 1 1304 5 view .LVU649
1307:Drivers/STM32L4xx_HAL_Driver/Src/stm32l4xx_hal_rtc_ex.c **** 
 1882              		.loc 1 1307 5 view .LVU650
1307:Drivers/STM32L4xx_HAL_Driver/Src/stm32l4xx_hal_rtc_ex.c **** 
 1883              		.loc 1 1307 17 is_stmt 0 view .LVU651
 1884 00ac 0423     		movs	r3, #4
 1885 00ae 84F82930 		strb	r3, [r4, #41]
1310:Drivers/STM32L4xx_HAL_Driver/Src/stm32l4xx_hal_rtc_ex.c **** 
 1886              		.loc 1 1310 5 is_stmt 1 view .LVU652
1310:Drivers/STM32L4xx_HAL_Driver/Src/stm32l4xx_hal_rtc_ex.c **** 
 1887              		.loc 1 1310 5 view .LVU653
 1888 00b2 0023     		movs	r3, #0
 1889 00b4 84F82830 		strb	r3, [r4, #40]
1310:Drivers/STM32L4xx_HAL_Driver/Src/stm32l4xx_hal_rtc_ex.c **** 
 1890              		.loc 1 1310 5 view .LVU654
1312:Drivers/STM32L4xx_HAL_Driver/Src/stm32l4xx_hal_rtc_ex.c ****   }
 1891              		.loc 1 1312 5 view .LVU655
1312:Drivers/STM32L4xx_HAL_Driver/Src/stm32l4xx_hal_rtc_ex.c ****   }
 1892              		.loc 1 1312 12 is_stmt 0 view .LVU656
 1893 00b8 0120     		movs	r0, #1
 1894 00ba CDE7     		b	.L100
 1895              	.LVL122:
 1896              	.L105:
 1897              	.LCFI15:
 1898              		.cfi_def_cfa_offset 0
 1899              		.cfi_restore 4
 1900              		.cfi_restore 5
 1901              		.cfi_restore 6
 1902              		.cfi_restore 7
 1903              		.cfi_restore 8
 1904              		.cfi_restore 14
1248:Drivers/STM32L4xx_HAL_Driver/Src/stm32l4xx_hal_rtc_ex.c **** 
 1905              		.loc 1 1248 3 view .LVU657
 1906 00bc 0220     		movs	r0, #2
 1907              	.LVL123:
 1908              		.loc 1 1325 1 view .LVU658
 1909 00be 7047     		bx	lr
ARM GAS  /tmp/cc49nhBG.s 			page 60


 1910              		.cfi_endproc
 1911              	.LFE150:
 1913              		.section	.text.HAL_RTCEx_SetCalibrationOutPut,"ax",%progbits
 1914              		.align	1
 1915              		.global	HAL_RTCEx_SetCalibrationOutPut
 1916              		.syntax unified
 1917              		.thumb
 1918              		.thumb_func
 1919              		.fpu fpv4-sp-d16
 1921              	HAL_RTCEx_SetCalibrationOutPut:
 1922              	.LVL124:
 1923              	.LFB151:
1326:Drivers/STM32L4xx_HAL_Driver/Src/stm32l4xx_hal_rtc_ex.c **** 
1327:Drivers/STM32L4xx_HAL_Driver/Src/stm32l4xx_hal_rtc_ex.c **** /**
1328:Drivers/STM32L4xx_HAL_Driver/Src/stm32l4xx_hal_rtc_ex.c ****   * @brief  Configure the Calibration Pinout (RTC_CALIB) Selection (1Hz or 512Hz).
1329:Drivers/STM32L4xx_HAL_Driver/Src/stm32l4xx_hal_rtc_ex.c ****   * @param  hrtc RTC handle
1330:Drivers/STM32L4xx_HAL_Driver/Src/stm32l4xx_hal_rtc_ex.c ****   * @param  CalibOutput Select the Calibration output Selection .
1331:Drivers/STM32L4xx_HAL_Driver/Src/stm32l4xx_hal_rtc_ex.c ****   *          This parameter can be one of the following values:
1332:Drivers/STM32L4xx_HAL_Driver/Src/stm32l4xx_hal_rtc_ex.c ****   *             @arg RTC_CALIBOUTPUT_512HZ: A signal has a regular waveform at 512Hz.
1333:Drivers/STM32L4xx_HAL_Driver/Src/stm32l4xx_hal_rtc_ex.c ****   *             @arg RTC_CALIBOUTPUT_1HZ: A signal has a regular waveform at 1Hz.
1334:Drivers/STM32L4xx_HAL_Driver/Src/stm32l4xx_hal_rtc_ex.c ****   * @retval HAL status
1335:Drivers/STM32L4xx_HAL_Driver/Src/stm32l4xx_hal_rtc_ex.c ****   */
1336:Drivers/STM32L4xx_HAL_Driver/Src/stm32l4xx_hal_rtc_ex.c **** HAL_StatusTypeDef HAL_RTCEx_SetCalibrationOutPut(RTC_HandleTypeDef *hrtc, uint32_t CalibOutput)
1337:Drivers/STM32L4xx_HAL_Driver/Src/stm32l4xx_hal_rtc_ex.c **** {
 1924              		.loc 1 1337 1 is_stmt 1 view -0
 1925              		.cfi_startproc
 1926              		@ args = 0, pretend = 0, frame = 0
 1927              		@ frame_needed = 0, uses_anonymous_args = 0
 1928              		@ link register save eliminated.
1338:Drivers/STM32L4xx_HAL_Driver/Src/stm32l4xx_hal_rtc_ex.c ****   /* Check the parameters */
1339:Drivers/STM32L4xx_HAL_Driver/Src/stm32l4xx_hal_rtc_ex.c ****   assert_param(IS_RTC_CALIB_OUTPUT(CalibOutput));
 1929              		.loc 1 1339 3 view .LVU660
1340:Drivers/STM32L4xx_HAL_Driver/Src/stm32l4xx_hal_rtc_ex.c **** 
1341:Drivers/STM32L4xx_HAL_Driver/Src/stm32l4xx_hal_rtc_ex.c ****   /* Process Locked */
1342:Drivers/STM32L4xx_HAL_Driver/Src/stm32l4xx_hal_rtc_ex.c ****   __HAL_LOCK(hrtc);
 1930              		.loc 1 1342 3 view .LVU661
 1931              		.loc 1 1342 3 view .LVU662
 1932 0000 90F82830 		ldrb	r3, [r0, #40]	@ zero_extendqisi2
 1933 0004 012B     		cmp	r3, #1
 1934 0006 26D0     		beq	.L114
1337:Drivers/STM32L4xx_HAL_Driver/Src/stm32l4xx_hal_rtc_ex.c ****   /* Check the parameters */
 1935              		.loc 1 1337 1 is_stmt 0 discriminator 2 view .LVU663
 1936 0008 10B4     		push	{r4}
 1937              	.LCFI16:
 1938              		.cfi_def_cfa_offset 4
 1939              		.cfi_offset 4, -4
 1940              		.loc 1 1342 3 is_stmt 1 discriminator 2 view .LVU664
 1941 000a 0122     		movs	r2, #1
 1942 000c 80F82820 		strb	r2, [r0, #40]
 1943              		.loc 1 1342 3 discriminator 2 view .LVU665
1343:Drivers/STM32L4xx_HAL_Driver/Src/stm32l4xx_hal_rtc_ex.c **** 
1344:Drivers/STM32L4xx_HAL_Driver/Src/stm32l4xx_hal_rtc_ex.c ****   hrtc->State = HAL_RTC_STATE_BUSY;
 1944              		.loc 1 1344 3 discriminator 2 view .LVU666
 1945              		.loc 1 1344 15 is_stmt 0 discriminator 2 view .LVU667
 1946 0010 0223     		movs	r3, #2
 1947 0012 80F82930 		strb	r3, [r0, #41]
1345:Drivers/STM32L4xx_HAL_Driver/Src/stm32l4xx_hal_rtc_ex.c **** 
ARM GAS  /tmp/cc49nhBG.s 			page 61


1346:Drivers/STM32L4xx_HAL_Driver/Src/stm32l4xx_hal_rtc_ex.c ****   /* Disable the write protection for RTC registers */
1347:Drivers/STM32L4xx_HAL_Driver/Src/stm32l4xx_hal_rtc_ex.c ****   __HAL_RTC_WRITEPROTECTION_DISABLE(hrtc);
 1948              		.loc 1 1347 3 is_stmt 1 discriminator 2 view .LVU668
 1949              		.loc 1 1347 3 discriminator 2 view .LVU669
 1950 0016 0368     		ldr	r3, [r0]
 1951 0018 CA24     		movs	r4, #202
 1952 001a 5C62     		str	r4, [r3, #36]
 1953              		.loc 1 1347 3 discriminator 2 view .LVU670
 1954 001c 0368     		ldr	r3, [r0]
 1955 001e 5324     		movs	r4, #83
 1956 0020 5C62     		str	r4, [r3, #36]
 1957              		.loc 1 1347 3 discriminator 2 view .LVU671
1348:Drivers/STM32L4xx_HAL_Driver/Src/stm32l4xx_hal_rtc_ex.c **** 
1349:Drivers/STM32L4xx_HAL_Driver/Src/stm32l4xx_hal_rtc_ex.c ****   /* Clear flags before config */
1350:Drivers/STM32L4xx_HAL_Driver/Src/stm32l4xx_hal_rtc_ex.c ****   hrtc->Instance->CR &= (uint32_t)~RTC_CR_COSEL;
 1958              		.loc 1 1350 3 discriminator 2 view .LVU672
 1959              		.loc 1 1350 7 is_stmt 0 discriminator 2 view .LVU673
 1960 0022 0468     		ldr	r4, [r0]
 1961              		.loc 1 1350 22 discriminator 2 view .LVU674
 1962 0024 A369     		ldr	r3, [r4, #24]
 1963 0026 23F40023 		bic	r3, r3, #524288
 1964 002a A361     		str	r3, [r4, #24]
1351:Drivers/STM32L4xx_HAL_Driver/Src/stm32l4xx_hal_rtc_ex.c **** 
1352:Drivers/STM32L4xx_HAL_Driver/Src/stm32l4xx_hal_rtc_ex.c ****   /* Configure the RTC_CR register */
1353:Drivers/STM32L4xx_HAL_Driver/Src/stm32l4xx_hal_rtc_ex.c ****   hrtc->Instance->CR |= (uint32_t)CalibOutput;
 1965              		.loc 1 1353 3 is_stmt 1 discriminator 2 view .LVU675
 1966              		.loc 1 1353 7 is_stmt 0 discriminator 2 view .LVU676
 1967 002c 0468     		ldr	r4, [r0]
 1968              		.loc 1 1353 22 discriminator 2 view .LVU677
 1969 002e A369     		ldr	r3, [r4, #24]
 1970 0030 1943     		orrs	r1, r1, r3
 1971              	.LVL125:
 1972              		.loc 1 1353 22 discriminator 2 view .LVU678
 1973 0032 A161     		str	r1, [r4, #24]
1354:Drivers/STM32L4xx_HAL_Driver/Src/stm32l4xx_hal_rtc_ex.c **** 
1355:Drivers/STM32L4xx_HAL_Driver/Src/stm32l4xx_hal_rtc_ex.c ****   __HAL_RTC_CALIBRATION_OUTPUT_ENABLE(hrtc);
 1974              		.loc 1 1355 3 is_stmt 1 discriminator 2 view .LVU679
 1975 0034 0168     		ldr	r1, [r0]
 1976 0036 8B69     		ldr	r3, [r1, #24]
 1977 0038 43F40003 		orr	r3, r3, #8388608
 1978 003c 8B61     		str	r3, [r1, #24]
1356:Drivers/STM32L4xx_HAL_Driver/Src/stm32l4xx_hal_rtc_ex.c **** 
1357:Drivers/STM32L4xx_HAL_Driver/Src/stm32l4xx_hal_rtc_ex.c ****   /* Enable the write protection for RTC registers */
1358:Drivers/STM32L4xx_HAL_Driver/Src/stm32l4xx_hal_rtc_ex.c ****   __HAL_RTC_WRITEPROTECTION_ENABLE(hrtc);
 1979              		.loc 1 1358 3 discriminator 2 view .LVU680
 1980              		.loc 1 1358 3 discriminator 2 view .LVU681
 1981 003e 0368     		ldr	r3, [r0]
 1982 0040 FF21     		movs	r1, #255
 1983 0042 5962     		str	r1, [r3, #36]
 1984              		.loc 1 1358 3 discriminator 2 view .LVU682
1359:Drivers/STM32L4xx_HAL_Driver/Src/stm32l4xx_hal_rtc_ex.c **** 
1360:Drivers/STM32L4xx_HAL_Driver/Src/stm32l4xx_hal_rtc_ex.c ****   /* Change RTC state */
1361:Drivers/STM32L4xx_HAL_Driver/Src/stm32l4xx_hal_rtc_ex.c ****   hrtc->State = HAL_RTC_STATE_READY;
 1985              		.loc 1 1361 3 discriminator 2 view .LVU683
 1986              		.loc 1 1361 15 is_stmt 0 discriminator 2 view .LVU684
 1987 0044 80F82920 		strb	r2, [r0, #41]
1362:Drivers/STM32L4xx_HAL_Driver/Src/stm32l4xx_hal_rtc_ex.c **** 
ARM GAS  /tmp/cc49nhBG.s 			page 62


1363:Drivers/STM32L4xx_HAL_Driver/Src/stm32l4xx_hal_rtc_ex.c ****   /* Process Unlocked */
1364:Drivers/STM32L4xx_HAL_Driver/Src/stm32l4xx_hal_rtc_ex.c ****   __HAL_UNLOCK(hrtc);
 1988              		.loc 1 1364 3 is_stmt 1 discriminator 2 view .LVU685
 1989              		.loc 1 1364 3 discriminator 2 view .LVU686
 1990 0048 0023     		movs	r3, #0
 1991 004a 80F82830 		strb	r3, [r0, #40]
 1992              		.loc 1 1364 3 discriminator 2 view .LVU687
1365:Drivers/STM32L4xx_HAL_Driver/Src/stm32l4xx_hal_rtc_ex.c **** 
1366:Drivers/STM32L4xx_HAL_Driver/Src/stm32l4xx_hal_rtc_ex.c ****   return HAL_OK;
 1993              		.loc 1 1366 3 discriminator 2 view .LVU688
 1994              		.loc 1 1366 10 is_stmt 0 discriminator 2 view .LVU689
 1995 004e 1846     		mov	r0, r3
 1996              	.LVL126:
1367:Drivers/STM32L4xx_HAL_Driver/Src/stm32l4xx_hal_rtc_ex.c **** }
 1997              		.loc 1 1367 1 discriminator 2 view .LVU690
 1998 0050 5DF8044B 		ldr	r4, [sp], #4
 1999              	.LCFI17:
 2000              		.cfi_restore 4
 2001              		.cfi_def_cfa_offset 0
 2002 0054 7047     		bx	lr
 2003              	.LVL127:
 2004              	.L114:
1342:Drivers/STM32L4xx_HAL_Driver/Src/stm32l4xx_hal_rtc_ex.c **** 
 2005              		.loc 1 1342 3 view .LVU691
 2006 0056 0220     		movs	r0, #2
 2007              	.LVL128:
 2008              		.loc 1 1367 1 view .LVU692
 2009 0058 7047     		bx	lr
 2010              		.cfi_endproc
 2011              	.LFE151:
 2013              		.section	.text.HAL_RTCEx_DeactivateCalibrationOutPut,"ax",%progbits
 2014              		.align	1
 2015              		.global	HAL_RTCEx_DeactivateCalibrationOutPut
 2016              		.syntax unified
 2017              		.thumb
 2018              		.thumb_func
 2019              		.fpu fpv4-sp-d16
 2021              	HAL_RTCEx_DeactivateCalibrationOutPut:
 2022              	.LVL129:
 2023              	.LFB152:
1368:Drivers/STM32L4xx_HAL_Driver/Src/stm32l4xx_hal_rtc_ex.c **** 
1369:Drivers/STM32L4xx_HAL_Driver/Src/stm32l4xx_hal_rtc_ex.c **** /**
1370:Drivers/STM32L4xx_HAL_Driver/Src/stm32l4xx_hal_rtc_ex.c ****   * @brief  Deactivate the Calibration Pinout (RTC_CALIB) Selection (1Hz or 512Hz).
1371:Drivers/STM32L4xx_HAL_Driver/Src/stm32l4xx_hal_rtc_ex.c ****   * @param  hrtc RTC handle
1372:Drivers/STM32L4xx_HAL_Driver/Src/stm32l4xx_hal_rtc_ex.c ****   * @retval HAL status
1373:Drivers/STM32L4xx_HAL_Driver/Src/stm32l4xx_hal_rtc_ex.c ****   */
1374:Drivers/STM32L4xx_HAL_Driver/Src/stm32l4xx_hal_rtc_ex.c **** HAL_StatusTypeDef HAL_RTCEx_DeactivateCalibrationOutPut(RTC_HandleTypeDef *hrtc)
1375:Drivers/STM32L4xx_HAL_Driver/Src/stm32l4xx_hal_rtc_ex.c **** {
 2024              		.loc 1 1375 1 is_stmt 1 view -0
 2025              		.cfi_startproc
 2026              		@ args = 0, pretend = 0, frame = 0
 2027              		@ frame_needed = 0, uses_anonymous_args = 0
 2028              		@ link register save eliminated.
1376:Drivers/STM32L4xx_HAL_Driver/Src/stm32l4xx_hal_rtc_ex.c ****   /* Process Locked */
1377:Drivers/STM32L4xx_HAL_Driver/Src/stm32l4xx_hal_rtc_ex.c ****   __HAL_LOCK(hrtc);
 2029              		.loc 1 1377 3 view .LVU694
 2030              		.loc 1 1377 3 view .LVU695
ARM GAS  /tmp/cc49nhBG.s 			page 63


 2031 0000 90F82830 		ldrb	r3, [r0, #40]	@ zero_extendqisi2
 2032 0004 012B     		cmp	r3, #1
 2033 0006 1AD0     		beq	.L121
 2034              		.loc 1 1377 3 discriminator 2 view .LVU696
 2035 0008 0122     		movs	r2, #1
 2036 000a 80F82820 		strb	r2, [r0, #40]
 2037              		.loc 1 1377 3 discriminator 2 view .LVU697
1378:Drivers/STM32L4xx_HAL_Driver/Src/stm32l4xx_hal_rtc_ex.c **** 
1379:Drivers/STM32L4xx_HAL_Driver/Src/stm32l4xx_hal_rtc_ex.c ****   hrtc->State = HAL_RTC_STATE_BUSY;
 2038              		.loc 1 1379 3 discriminator 2 view .LVU698
 2039              		.loc 1 1379 15 is_stmt 0 discriminator 2 view .LVU699
 2040 000e 0223     		movs	r3, #2
 2041 0010 80F82930 		strb	r3, [r0, #41]
1380:Drivers/STM32L4xx_HAL_Driver/Src/stm32l4xx_hal_rtc_ex.c **** 
1381:Drivers/STM32L4xx_HAL_Driver/Src/stm32l4xx_hal_rtc_ex.c ****   /* Disable the write protection for RTC registers */
1382:Drivers/STM32L4xx_HAL_Driver/Src/stm32l4xx_hal_rtc_ex.c ****   __HAL_RTC_WRITEPROTECTION_DISABLE(hrtc);
 2042              		.loc 1 1382 3 is_stmt 1 discriminator 2 view .LVU700
 2043              		.loc 1 1382 3 discriminator 2 view .LVU701
 2044 0014 0368     		ldr	r3, [r0]
 2045 0016 CA21     		movs	r1, #202
 2046 0018 5962     		str	r1, [r3, #36]
 2047              		.loc 1 1382 3 discriminator 2 view .LVU702
 2048 001a 0368     		ldr	r3, [r0]
 2049 001c 5321     		movs	r1, #83
 2050 001e 5962     		str	r1, [r3, #36]
 2051              		.loc 1 1382 3 discriminator 2 view .LVU703
1383:Drivers/STM32L4xx_HAL_Driver/Src/stm32l4xx_hal_rtc_ex.c **** 
1384:Drivers/STM32L4xx_HAL_Driver/Src/stm32l4xx_hal_rtc_ex.c ****   __HAL_RTC_CALIBRATION_OUTPUT_DISABLE(hrtc);
 2052              		.loc 1 1384 3 discriminator 2 view .LVU704
 2053 0020 0168     		ldr	r1, [r0]
 2054 0022 8B69     		ldr	r3, [r1, #24]
 2055 0024 23F40003 		bic	r3, r3, #8388608
 2056 0028 8B61     		str	r3, [r1, #24]
1385:Drivers/STM32L4xx_HAL_Driver/Src/stm32l4xx_hal_rtc_ex.c **** 
1386:Drivers/STM32L4xx_HAL_Driver/Src/stm32l4xx_hal_rtc_ex.c ****   /* Enable the write protection for RTC registers */
1387:Drivers/STM32L4xx_HAL_Driver/Src/stm32l4xx_hal_rtc_ex.c ****   __HAL_RTC_WRITEPROTECTION_ENABLE(hrtc);
 2057              		.loc 1 1387 3 discriminator 2 view .LVU705
 2058              		.loc 1 1387 3 discriminator 2 view .LVU706
 2059 002a 0368     		ldr	r3, [r0]
 2060 002c FF21     		movs	r1, #255
 2061 002e 5962     		str	r1, [r3, #36]
 2062              		.loc 1 1387 3 discriminator 2 view .LVU707
1388:Drivers/STM32L4xx_HAL_Driver/Src/stm32l4xx_hal_rtc_ex.c **** 
1389:Drivers/STM32L4xx_HAL_Driver/Src/stm32l4xx_hal_rtc_ex.c ****   /* Change RTC state */
1390:Drivers/STM32L4xx_HAL_Driver/Src/stm32l4xx_hal_rtc_ex.c ****   hrtc->State = HAL_RTC_STATE_READY;
 2063              		.loc 1 1390 3 discriminator 2 view .LVU708
 2064              		.loc 1 1390 15 is_stmt 0 discriminator 2 view .LVU709
 2065 0030 80F82920 		strb	r2, [r0, #41]
1391:Drivers/STM32L4xx_HAL_Driver/Src/stm32l4xx_hal_rtc_ex.c **** 
1392:Drivers/STM32L4xx_HAL_Driver/Src/stm32l4xx_hal_rtc_ex.c ****   /* Process Unlocked */
1393:Drivers/STM32L4xx_HAL_Driver/Src/stm32l4xx_hal_rtc_ex.c ****   __HAL_UNLOCK(hrtc);
 2066              		.loc 1 1393 3 is_stmt 1 discriminator 2 view .LVU710
 2067              		.loc 1 1393 3 discriminator 2 view .LVU711
 2068 0034 0023     		movs	r3, #0
 2069 0036 80F82830 		strb	r3, [r0, #40]
 2070              		.loc 1 1393 3 discriminator 2 view .LVU712
1394:Drivers/STM32L4xx_HAL_Driver/Src/stm32l4xx_hal_rtc_ex.c **** 
ARM GAS  /tmp/cc49nhBG.s 			page 64


1395:Drivers/STM32L4xx_HAL_Driver/Src/stm32l4xx_hal_rtc_ex.c ****   return HAL_OK;
 2071              		.loc 1 1395 3 discriminator 2 view .LVU713
 2072              		.loc 1 1395 10 is_stmt 0 discriminator 2 view .LVU714
 2073 003a 1846     		mov	r0, r3
 2074              	.LVL130:
 2075              		.loc 1 1395 10 discriminator 2 view .LVU715
 2076 003c 7047     		bx	lr
 2077              	.LVL131:
 2078              	.L121:
1377:Drivers/STM32L4xx_HAL_Driver/Src/stm32l4xx_hal_rtc_ex.c **** 
 2079              		.loc 1 1377 3 view .LVU716
 2080 003e 0220     		movs	r0, #2
 2081              	.LVL132:
1396:Drivers/STM32L4xx_HAL_Driver/Src/stm32l4xx_hal_rtc_ex.c **** }
 2082              		.loc 1 1396 1 view .LVU717
 2083 0040 7047     		bx	lr
 2084              		.cfi_endproc
 2085              	.LFE152:
 2087              		.section	.text.HAL_RTCEx_SetRefClock,"ax",%progbits
 2088              		.align	1
 2089              		.global	HAL_RTCEx_SetRefClock
 2090              		.syntax unified
 2091              		.thumb
 2092              		.thumb_func
 2093              		.fpu fpv4-sp-d16
 2095              	HAL_RTCEx_SetRefClock:
 2096              	.LVL133:
 2097              	.LFB153:
1397:Drivers/STM32L4xx_HAL_Driver/Src/stm32l4xx_hal_rtc_ex.c **** 
1398:Drivers/STM32L4xx_HAL_Driver/Src/stm32l4xx_hal_rtc_ex.c **** /**
1399:Drivers/STM32L4xx_HAL_Driver/Src/stm32l4xx_hal_rtc_ex.c ****   * @brief  Enable the RTC reference clock detection.
1400:Drivers/STM32L4xx_HAL_Driver/Src/stm32l4xx_hal_rtc_ex.c ****   * @param  hrtc RTC handle
1401:Drivers/STM32L4xx_HAL_Driver/Src/stm32l4xx_hal_rtc_ex.c ****   * @retval HAL status
1402:Drivers/STM32L4xx_HAL_Driver/Src/stm32l4xx_hal_rtc_ex.c ****   */
1403:Drivers/STM32L4xx_HAL_Driver/Src/stm32l4xx_hal_rtc_ex.c **** HAL_StatusTypeDef HAL_RTCEx_SetRefClock(RTC_HandleTypeDef *hrtc)
1404:Drivers/STM32L4xx_HAL_Driver/Src/stm32l4xx_hal_rtc_ex.c **** {
 2098              		.loc 1 1404 1 is_stmt 1 view -0
 2099              		.cfi_startproc
 2100              		@ args = 0, pretend = 0, frame = 0
 2101              		@ frame_needed = 0, uses_anonymous_args = 0
1405:Drivers/STM32L4xx_HAL_Driver/Src/stm32l4xx_hal_rtc_ex.c ****   HAL_StatusTypeDef status;
 2102              		.loc 1 1405 3 view .LVU719
1406:Drivers/STM32L4xx_HAL_Driver/Src/stm32l4xx_hal_rtc_ex.c **** 
1407:Drivers/STM32L4xx_HAL_Driver/Src/stm32l4xx_hal_rtc_ex.c ****   /* Process Locked */
1408:Drivers/STM32L4xx_HAL_Driver/Src/stm32l4xx_hal_rtc_ex.c ****   __HAL_LOCK(hrtc);
 2103              		.loc 1 1408 3 view .LVU720
 2104              		.loc 1 1408 3 view .LVU721
 2105 0000 90F82830 		ldrb	r3, [r0, #40]	@ zero_extendqisi2
 2106 0004 012B     		cmp	r3, #1
 2107 0006 24D0     		beq	.L126
1404:Drivers/STM32L4xx_HAL_Driver/Src/stm32l4xx_hal_rtc_ex.c ****   HAL_StatusTypeDef status;
 2108              		.loc 1 1404 1 is_stmt 0 discriminator 2 view .LVU722
 2109 0008 10B5     		push	{r4, lr}
 2110              	.LCFI18:
 2111              		.cfi_def_cfa_offset 8
 2112              		.cfi_offset 4, -8
 2113              		.cfi_offset 14, -4
ARM GAS  /tmp/cc49nhBG.s 			page 65


 2114 000a 0446     		mov	r4, r0
 2115              		.loc 1 1408 3 is_stmt 1 discriminator 2 view .LVU723
 2116 000c 0123     		movs	r3, #1
 2117 000e 80F82830 		strb	r3, [r0, #40]
 2118              		.loc 1 1408 3 discriminator 2 view .LVU724
1409:Drivers/STM32L4xx_HAL_Driver/Src/stm32l4xx_hal_rtc_ex.c **** 
1410:Drivers/STM32L4xx_HAL_Driver/Src/stm32l4xx_hal_rtc_ex.c ****   hrtc->State = HAL_RTC_STATE_BUSY;
 2119              		.loc 1 1410 3 discriminator 2 view .LVU725
 2120              		.loc 1 1410 15 is_stmt 0 discriminator 2 view .LVU726
 2121 0012 0223     		movs	r3, #2
 2122 0014 80F82930 		strb	r3, [r0, #41]
1411:Drivers/STM32L4xx_HAL_Driver/Src/stm32l4xx_hal_rtc_ex.c **** 
1412:Drivers/STM32L4xx_HAL_Driver/Src/stm32l4xx_hal_rtc_ex.c ****   /* Disable the write protection for RTC registers */
1413:Drivers/STM32L4xx_HAL_Driver/Src/stm32l4xx_hal_rtc_ex.c ****   __HAL_RTC_WRITEPROTECTION_DISABLE(hrtc);
 2123              		.loc 1 1413 3 is_stmt 1 discriminator 2 view .LVU727
 2124              		.loc 1 1413 3 discriminator 2 view .LVU728
 2125 0018 0368     		ldr	r3, [r0]
 2126 001a CA22     		movs	r2, #202
 2127 001c 5A62     		str	r2, [r3, #36]
 2128              		.loc 1 1413 3 discriminator 2 view .LVU729
 2129 001e 0368     		ldr	r3, [r0]
 2130 0020 5322     		movs	r2, #83
 2131 0022 5A62     		str	r2, [r3, #36]
 2132              		.loc 1 1413 3 discriminator 2 view .LVU730
1414:Drivers/STM32L4xx_HAL_Driver/Src/stm32l4xx_hal_rtc_ex.c **** 
1415:Drivers/STM32L4xx_HAL_Driver/Src/stm32l4xx_hal_rtc_ex.c ****   /* Enter Initialization mode */
1416:Drivers/STM32L4xx_HAL_Driver/Src/stm32l4xx_hal_rtc_ex.c ****   status = RTC_EnterInitMode(hrtc);
 2133              		.loc 1 1416 3 discriminator 2 view .LVU731
 2134              		.loc 1 1416 12 is_stmt 0 discriminator 2 view .LVU732
 2135 0024 FFF7FEFF 		bl	RTC_EnterInitMode
 2136              	.LVL134:
1417:Drivers/STM32L4xx_HAL_Driver/Src/stm32l4xx_hal_rtc_ex.c ****   if (status == HAL_OK)
 2137              		.loc 1 1417 3 is_stmt 1 discriminator 2 view .LVU733
 2138              		.loc 1 1417 6 is_stmt 0 discriminator 2 view .LVU734
 2139 0028 50B1     		cbz	r0, .L131
 2140              	.L124:
1418:Drivers/STM32L4xx_HAL_Driver/Src/stm32l4xx_hal_rtc_ex.c ****   {
1419:Drivers/STM32L4xx_HAL_Driver/Src/stm32l4xx_hal_rtc_ex.c ****     __HAL_RTC_CLOCKREF_DETECTION_ENABLE(hrtc);
1420:Drivers/STM32L4xx_HAL_Driver/Src/stm32l4xx_hal_rtc_ex.c **** 
1421:Drivers/STM32L4xx_HAL_Driver/Src/stm32l4xx_hal_rtc_ex.c ****     /* Exit Initialization mode */
1422:Drivers/STM32L4xx_HAL_Driver/Src/stm32l4xx_hal_rtc_ex.c ****     status = RTC_ExitInitMode(hrtc);
1423:Drivers/STM32L4xx_HAL_Driver/Src/stm32l4xx_hal_rtc_ex.c ****   }
1424:Drivers/STM32L4xx_HAL_Driver/Src/stm32l4xx_hal_rtc_ex.c **** 
1425:Drivers/STM32L4xx_HAL_Driver/Src/stm32l4xx_hal_rtc_ex.c ****   /* Enable the write protection for RTC registers */
1426:Drivers/STM32L4xx_HAL_Driver/Src/stm32l4xx_hal_rtc_ex.c ****   __HAL_RTC_WRITEPROTECTION_ENABLE(hrtc);
 2141              		.loc 1 1426 3 is_stmt 1 view .LVU735
 2142              		.loc 1 1426 3 view .LVU736
 2143 002a 2368     		ldr	r3, [r4]
 2144 002c FF22     		movs	r2, #255
 2145 002e 5A62     		str	r2, [r3, #36]
 2146              		.loc 1 1426 3 view .LVU737
1427:Drivers/STM32L4xx_HAL_Driver/Src/stm32l4xx_hal_rtc_ex.c **** 
1428:Drivers/STM32L4xx_HAL_Driver/Src/stm32l4xx_hal_rtc_ex.c ****   if (status == HAL_OK)
 2147              		.loc 1 1428 3 view .LVU738
 2148              		.loc 1 1428 6 is_stmt 0 view .LVU739
 2149 0030 10B9     		cbnz	r0, .L125
1429:Drivers/STM32L4xx_HAL_Driver/Src/stm32l4xx_hal_rtc_ex.c ****   {
ARM GAS  /tmp/cc49nhBG.s 			page 66


1430:Drivers/STM32L4xx_HAL_Driver/Src/stm32l4xx_hal_rtc_ex.c ****     hrtc->State = HAL_RTC_STATE_READY;
 2150              		.loc 1 1430 5 is_stmt 1 view .LVU740
 2151              		.loc 1 1430 17 is_stmt 0 view .LVU741
 2152 0032 0123     		movs	r3, #1
 2153 0034 84F82930 		strb	r3, [r4, #41]
 2154              	.L125:
1431:Drivers/STM32L4xx_HAL_Driver/Src/stm32l4xx_hal_rtc_ex.c ****   }
1432:Drivers/STM32L4xx_HAL_Driver/Src/stm32l4xx_hal_rtc_ex.c **** 
1433:Drivers/STM32L4xx_HAL_Driver/Src/stm32l4xx_hal_rtc_ex.c ****   /* Process Unlocked */
1434:Drivers/STM32L4xx_HAL_Driver/Src/stm32l4xx_hal_rtc_ex.c ****   __HAL_UNLOCK(hrtc);
 2155              		.loc 1 1434 3 is_stmt 1 view .LVU742
 2156              		.loc 1 1434 3 view .LVU743
 2157 0038 0023     		movs	r3, #0
 2158 003a 84F82830 		strb	r3, [r4, #40]
 2159              		.loc 1 1434 3 view .LVU744
1435:Drivers/STM32L4xx_HAL_Driver/Src/stm32l4xx_hal_rtc_ex.c **** 
1436:Drivers/STM32L4xx_HAL_Driver/Src/stm32l4xx_hal_rtc_ex.c ****   return status;
 2160              		.loc 1 1436 3 view .LVU745
1437:Drivers/STM32L4xx_HAL_Driver/Src/stm32l4xx_hal_rtc_ex.c **** }
 2161              		.loc 1 1437 1 is_stmt 0 view .LVU746
 2162 003e 10BD     		pop	{r4, pc}
 2163              	.LVL135:
 2164              	.L131:
1419:Drivers/STM32L4xx_HAL_Driver/Src/stm32l4xx_hal_rtc_ex.c **** 
 2165              		.loc 1 1419 5 is_stmt 1 view .LVU747
 2166 0040 2268     		ldr	r2, [r4]
 2167 0042 9369     		ldr	r3, [r2, #24]
 2168 0044 43F01003 		orr	r3, r3, #16
 2169 0048 9361     		str	r3, [r2, #24]
1422:Drivers/STM32L4xx_HAL_Driver/Src/stm32l4xx_hal_rtc_ex.c ****   }
 2170              		.loc 1 1422 5 view .LVU748
1422:Drivers/STM32L4xx_HAL_Driver/Src/stm32l4xx_hal_rtc_ex.c ****   }
 2171              		.loc 1 1422 14 is_stmt 0 view .LVU749
 2172 004a 2046     		mov	r0, r4
 2173              	.LVL136:
1422:Drivers/STM32L4xx_HAL_Driver/Src/stm32l4xx_hal_rtc_ex.c ****   }
 2174              		.loc 1 1422 14 view .LVU750
 2175 004c FFF7FEFF 		bl	RTC_ExitInitMode
 2176              	.LVL137:
1422:Drivers/STM32L4xx_HAL_Driver/Src/stm32l4xx_hal_rtc_ex.c ****   }
 2177              		.loc 1 1422 14 view .LVU751
 2178 0050 EBE7     		b	.L124
 2179              	.LVL138:
 2180              	.L126:
 2181              	.LCFI19:
 2182              		.cfi_def_cfa_offset 0
 2183              		.cfi_restore 4
 2184              		.cfi_restore 14
1408:Drivers/STM32L4xx_HAL_Driver/Src/stm32l4xx_hal_rtc_ex.c **** 
 2185              		.loc 1 1408 3 view .LVU752
 2186 0052 0220     		movs	r0, #2
 2187              	.LVL139:
 2188              		.loc 1 1437 1 view .LVU753
 2189 0054 7047     		bx	lr
 2190              		.cfi_endproc
 2191              	.LFE153:
 2193              		.section	.text.HAL_RTCEx_DeactivateRefClock,"ax",%progbits
ARM GAS  /tmp/cc49nhBG.s 			page 67


 2194              		.align	1
 2195              		.global	HAL_RTCEx_DeactivateRefClock
 2196              		.syntax unified
 2197              		.thumb
 2198              		.thumb_func
 2199              		.fpu fpv4-sp-d16
 2201              	HAL_RTCEx_DeactivateRefClock:
 2202              	.LVL140:
 2203              	.LFB154:
1438:Drivers/STM32L4xx_HAL_Driver/Src/stm32l4xx_hal_rtc_ex.c **** 
1439:Drivers/STM32L4xx_HAL_Driver/Src/stm32l4xx_hal_rtc_ex.c **** /**
1440:Drivers/STM32L4xx_HAL_Driver/Src/stm32l4xx_hal_rtc_ex.c ****   * @brief  Disable the RTC reference clock detection.
1441:Drivers/STM32L4xx_HAL_Driver/Src/stm32l4xx_hal_rtc_ex.c ****   * @param  hrtc RTC handle
1442:Drivers/STM32L4xx_HAL_Driver/Src/stm32l4xx_hal_rtc_ex.c ****   * @retval HAL status
1443:Drivers/STM32L4xx_HAL_Driver/Src/stm32l4xx_hal_rtc_ex.c ****   */
1444:Drivers/STM32L4xx_HAL_Driver/Src/stm32l4xx_hal_rtc_ex.c **** HAL_StatusTypeDef HAL_RTCEx_DeactivateRefClock(RTC_HandleTypeDef *hrtc)
1445:Drivers/STM32L4xx_HAL_Driver/Src/stm32l4xx_hal_rtc_ex.c **** {
 2204              		.loc 1 1445 1 is_stmt 1 view -0
 2205              		.cfi_startproc
 2206              		@ args = 0, pretend = 0, frame = 0
 2207              		@ frame_needed = 0, uses_anonymous_args = 0
1446:Drivers/STM32L4xx_HAL_Driver/Src/stm32l4xx_hal_rtc_ex.c ****   HAL_StatusTypeDef status;
 2208              		.loc 1 1446 3 view .LVU755
1447:Drivers/STM32L4xx_HAL_Driver/Src/stm32l4xx_hal_rtc_ex.c **** 
1448:Drivers/STM32L4xx_HAL_Driver/Src/stm32l4xx_hal_rtc_ex.c ****   /* Process Locked */
1449:Drivers/STM32L4xx_HAL_Driver/Src/stm32l4xx_hal_rtc_ex.c ****   __HAL_LOCK(hrtc);
 2209              		.loc 1 1449 3 view .LVU756
 2210              		.loc 1 1449 3 view .LVU757
 2211 0000 90F82830 		ldrb	r3, [r0, #40]	@ zero_extendqisi2
 2212 0004 012B     		cmp	r3, #1
 2213 0006 24D0     		beq	.L136
1445:Drivers/STM32L4xx_HAL_Driver/Src/stm32l4xx_hal_rtc_ex.c ****   HAL_StatusTypeDef status;
 2214              		.loc 1 1445 1 is_stmt 0 discriminator 2 view .LVU758
 2215 0008 10B5     		push	{r4, lr}
 2216              	.LCFI20:
 2217              		.cfi_def_cfa_offset 8
 2218              		.cfi_offset 4, -8
 2219              		.cfi_offset 14, -4
 2220 000a 0446     		mov	r4, r0
 2221              		.loc 1 1449 3 is_stmt 1 discriminator 2 view .LVU759
 2222 000c 0123     		movs	r3, #1
 2223 000e 80F82830 		strb	r3, [r0, #40]
 2224              		.loc 1 1449 3 discriminator 2 view .LVU760
1450:Drivers/STM32L4xx_HAL_Driver/Src/stm32l4xx_hal_rtc_ex.c **** 
1451:Drivers/STM32L4xx_HAL_Driver/Src/stm32l4xx_hal_rtc_ex.c ****   hrtc->State = HAL_RTC_STATE_BUSY;
 2225              		.loc 1 1451 3 discriminator 2 view .LVU761
 2226              		.loc 1 1451 15 is_stmt 0 discriminator 2 view .LVU762
 2227 0012 0223     		movs	r3, #2
 2228 0014 80F82930 		strb	r3, [r0, #41]
1452:Drivers/STM32L4xx_HAL_Driver/Src/stm32l4xx_hal_rtc_ex.c **** 
1453:Drivers/STM32L4xx_HAL_Driver/Src/stm32l4xx_hal_rtc_ex.c ****   /* Disable the write protection for RTC registers */
1454:Drivers/STM32L4xx_HAL_Driver/Src/stm32l4xx_hal_rtc_ex.c ****   __HAL_RTC_WRITEPROTECTION_DISABLE(hrtc);
 2229              		.loc 1 1454 3 is_stmt 1 discriminator 2 view .LVU763
 2230              		.loc 1 1454 3 discriminator 2 view .LVU764
 2231 0018 0368     		ldr	r3, [r0]
 2232 001a CA22     		movs	r2, #202
 2233 001c 5A62     		str	r2, [r3, #36]
ARM GAS  /tmp/cc49nhBG.s 			page 68


 2234              		.loc 1 1454 3 discriminator 2 view .LVU765
 2235 001e 0368     		ldr	r3, [r0]
 2236 0020 5322     		movs	r2, #83
 2237 0022 5A62     		str	r2, [r3, #36]
 2238              		.loc 1 1454 3 discriminator 2 view .LVU766
1455:Drivers/STM32L4xx_HAL_Driver/Src/stm32l4xx_hal_rtc_ex.c **** 
1456:Drivers/STM32L4xx_HAL_Driver/Src/stm32l4xx_hal_rtc_ex.c ****   /* Enter Initialization mode */
1457:Drivers/STM32L4xx_HAL_Driver/Src/stm32l4xx_hal_rtc_ex.c ****   status = RTC_EnterInitMode(hrtc);
 2239              		.loc 1 1457 3 discriminator 2 view .LVU767
 2240              		.loc 1 1457 12 is_stmt 0 discriminator 2 view .LVU768
 2241 0024 FFF7FEFF 		bl	RTC_EnterInitMode
 2242              	.LVL141:
1458:Drivers/STM32L4xx_HAL_Driver/Src/stm32l4xx_hal_rtc_ex.c ****   if (status == HAL_OK)
 2243              		.loc 1 1458 3 is_stmt 1 discriminator 2 view .LVU769
 2244              		.loc 1 1458 6 is_stmt 0 discriminator 2 view .LVU770
 2245 0028 50B1     		cbz	r0, .L141
 2246              	.L134:
1459:Drivers/STM32L4xx_HAL_Driver/Src/stm32l4xx_hal_rtc_ex.c ****   {
1460:Drivers/STM32L4xx_HAL_Driver/Src/stm32l4xx_hal_rtc_ex.c ****     __HAL_RTC_CLOCKREF_DETECTION_DISABLE(hrtc);
1461:Drivers/STM32L4xx_HAL_Driver/Src/stm32l4xx_hal_rtc_ex.c **** 
1462:Drivers/STM32L4xx_HAL_Driver/Src/stm32l4xx_hal_rtc_ex.c ****     /* Exit Initialization mode */
1463:Drivers/STM32L4xx_HAL_Driver/Src/stm32l4xx_hal_rtc_ex.c ****     status = RTC_ExitInitMode(hrtc);
1464:Drivers/STM32L4xx_HAL_Driver/Src/stm32l4xx_hal_rtc_ex.c ****   }
1465:Drivers/STM32L4xx_HAL_Driver/Src/stm32l4xx_hal_rtc_ex.c **** 
1466:Drivers/STM32L4xx_HAL_Driver/Src/stm32l4xx_hal_rtc_ex.c ****   /* Enable the write protection for RTC registers */
1467:Drivers/STM32L4xx_HAL_Driver/Src/stm32l4xx_hal_rtc_ex.c ****   __HAL_RTC_WRITEPROTECTION_ENABLE(hrtc);
 2247              		.loc 1 1467 3 is_stmt 1 view .LVU771
 2248              		.loc 1 1467 3 view .LVU772
 2249 002a 2368     		ldr	r3, [r4]
 2250 002c FF22     		movs	r2, #255
 2251 002e 5A62     		str	r2, [r3, #36]
 2252              		.loc 1 1467 3 view .LVU773
1468:Drivers/STM32L4xx_HAL_Driver/Src/stm32l4xx_hal_rtc_ex.c **** 
1469:Drivers/STM32L4xx_HAL_Driver/Src/stm32l4xx_hal_rtc_ex.c ****   if (status == HAL_OK)
 2253              		.loc 1 1469 3 view .LVU774
 2254              		.loc 1 1469 6 is_stmt 0 view .LVU775
 2255 0030 10B9     		cbnz	r0, .L135
1470:Drivers/STM32L4xx_HAL_Driver/Src/stm32l4xx_hal_rtc_ex.c ****   {
1471:Drivers/STM32L4xx_HAL_Driver/Src/stm32l4xx_hal_rtc_ex.c ****     hrtc->State = HAL_RTC_STATE_READY;
 2256              		.loc 1 1471 5 is_stmt 1 view .LVU776
 2257              		.loc 1 1471 17 is_stmt 0 view .LVU777
 2258 0032 0123     		movs	r3, #1
 2259 0034 84F82930 		strb	r3, [r4, #41]
 2260              	.L135:
1472:Drivers/STM32L4xx_HAL_Driver/Src/stm32l4xx_hal_rtc_ex.c ****   }
1473:Drivers/STM32L4xx_HAL_Driver/Src/stm32l4xx_hal_rtc_ex.c **** 
1474:Drivers/STM32L4xx_HAL_Driver/Src/stm32l4xx_hal_rtc_ex.c ****   /* Process Unlocked */
1475:Drivers/STM32L4xx_HAL_Driver/Src/stm32l4xx_hal_rtc_ex.c ****   __HAL_UNLOCK(hrtc);
 2261              		.loc 1 1475 3 is_stmt 1 view .LVU778
 2262              		.loc 1 1475 3 view .LVU779
 2263 0038 0023     		movs	r3, #0
 2264 003a 84F82830 		strb	r3, [r4, #40]
 2265              		.loc 1 1475 3 view .LVU780
1476:Drivers/STM32L4xx_HAL_Driver/Src/stm32l4xx_hal_rtc_ex.c **** 
1477:Drivers/STM32L4xx_HAL_Driver/Src/stm32l4xx_hal_rtc_ex.c ****   return status;
 2266              		.loc 1 1477 3 view .LVU781
1478:Drivers/STM32L4xx_HAL_Driver/Src/stm32l4xx_hal_rtc_ex.c **** }
ARM GAS  /tmp/cc49nhBG.s 			page 69


 2267              		.loc 1 1478 1 is_stmt 0 view .LVU782
 2268 003e 10BD     		pop	{r4, pc}
 2269              	.LVL142:
 2270              	.L141:
1460:Drivers/STM32L4xx_HAL_Driver/Src/stm32l4xx_hal_rtc_ex.c **** 
 2271              		.loc 1 1460 5 is_stmt 1 view .LVU783
 2272 0040 2268     		ldr	r2, [r4]
 2273 0042 9369     		ldr	r3, [r2, #24]
 2274 0044 23F01003 		bic	r3, r3, #16
 2275 0048 9361     		str	r3, [r2, #24]
1463:Drivers/STM32L4xx_HAL_Driver/Src/stm32l4xx_hal_rtc_ex.c ****   }
 2276              		.loc 1 1463 5 view .LVU784
1463:Drivers/STM32L4xx_HAL_Driver/Src/stm32l4xx_hal_rtc_ex.c ****   }
 2277              		.loc 1 1463 14 is_stmt 0 view .LVU785
 2278 004a 2046     		mov	r0, r4
 2279              	.LVL143:
1463:Drivers/STM32L4xx_HAL_Driver/Src/stm32l4xx_hal_rtc_ex.c ****   }
 2280              		.loc 1 1463 14 view .LVU786
 2281 004c FFF7FEFF 		bl	RTC_ExitInitMode
 2282              	.LVL144:
1463:Drivers/STM32L4xx_HAL_Driver/Src/stm32l4xx_hal_rtc_ex.c ****   }
 2283              		.loc 1 1463 14 view .LVU787
 2284 0050 EBE7     		b	.L134
 2285              	.LVL145:
 2286              	.L136:
 2287              	.LCFI21:
 2288              		.cfi_def_cfa_offset 0
 2289              		.cfi_restore 4
 2290              		.cfi_restore 14
1449:Drivers/STM32L4xx_HAL_Driver/Src/stm32l4xx_hal_rtc_ex.c **** 
 2291              		.loc 1 1449 3 view .LVU788
 2292 0052 0220     		movs	r0, #2
 2293              	.LVL146:
 2294              		.loc 1 1478 1 view .LVU789
 2295 0054 7047     		bx	lr
 2296              		.cfi_endproc
 2297              	.LFE154:
 2299              		.section	.text.HAL_RTCEx_EnableBypassShadow,"ax",%progbits
 2300              		.align	1
 2301              		.global	HAL_RTCEx_EnableBypassShadow
 2302              		.syntax unified
 2303              		.thumb
 2304              		.thumb_func
 2305              		.fpu fpv4-sp-d16
 2307              	HAL_RTCEx_EnableBypassShadow:
 2308              	.LVL147:
 2309              	.LFB155:
1479:Drivers/STM32L4xx_HAL_Driver/Src/stm32l4xx_hal_rtc_ex.c **** 
1480:Drivers/STM32L4xx_HAL_Driver/Src/stm32l4xx_hal_rtc_ex.c **** /**
1481:Drivers/STM32L4xx_HAL_Driver/Src/stm32l4xx_hal_rtc_ex.c ****   * @brief  Enable the Bypass Shadow feature.
1482:Drivers/STM32L4xx_HAL_Driver/Src/stm32l4xx_hal_rtc_ex.c ****   * @note   When the Bypass Shadow is enabled the calendar value are taken
1483:Drivers/STM32L4xx_HAL_Driver/Src/stm32l4xx_hal_rtc_ex.c ****   *         directly from the Calendar counter.
1484:Drivers/STM32L4xx_HAL_Driver/Src/stm32l4xx_hal_rtc_ex.c ****   * @param  hrtc RTC handle
1485:Drivers/STM32L4xx_HAL_Driver/Src/stm32l4xx_hal_rtc_ex.c ****   * @retval HAL status
1486:Drivers/STM32L4xx_HAL_Driver/Src/stm32l4xx_hal_rtc_ex.c ****   */
1487:Drivers/STM32L4xx_HAL_Driver/Src/stm32l4xx_hal_rtc_ex.c **** HAL_StatusTypeDef HAL_RTCEx_EnableBypassShadow(RTC_HandleTypeDef *hrtc)
1488:Drivers/STM32L4xx_HAL_Driver/Src/stm32l4xx_hal_rtc_ex.c **** {
ARM GAS  /tmp/cc49nhBG.s 			page 70


 2310              		.loc 1 1488 1 is_stmt 1 view -0
 2311              		.cfi_startproc
 2312              		@ args = 0, pretend = 0, frame = 0
 2313              		@ frame_needed = 0, uses_anonymous_args = 0
 2314              		@ link register save eliminated.
1489:Drivers/STM32L4xx_HAL_Driver/Src/stm32l4xx_hal_rtc_ex.c ****   /* Process Locked */
1490:Drivers/STM32L4xx_HAL_Driver/Src/stm32l4xx_hal_rtc_ex.c ****   __HAL_LOCK(hrtc);
 2315              		.loc 1 1490 3 view .LVU791
 2316              		.loc 1 1490 3 view .LVU792
 2317 0000 90F82830 		ldrb	r3, [r0, #40]	@ zero_extendqisi2
 2318 0004 012B     		cmp	r3, #1
 2319 0006 1AD0     		beq	.L144
 2320              		.loc 1 1490 3 discriminator 2 view .LVU793
 2321 0008 0122     		movs	r2, #1
 2322 000a 80F82820 		strb	r2, [r0, #40]
 2323              		.loc 1 1490 3 discriminator 2 view .LVU794
1491:Drivers/STM32L4xx_HAL_Driver/Src/stm32l4xx_hal_rtc_ex.c **** 
1492:Drivers/STM32L4xx_HAL_Driver/Src/stm32l4xx_hal_rtc_ex.c ****   hrtc->State = HAL_RTC_STATE_BUSY;
 2324              		.loc 1 1492 3 discriminator 2 view .LVU795
 2325              		.loc 1 1492 15 is_stmt 0 discriminator 2 view .LVU796
 2326 000e 0223     		movs	r3, #2
 2327 0010 80F82930 		strb	r3, [r0, #41]
1493:Drivers/STM32L4xx_HAL_Driver/Src/stm32l4xx_hal_rtc_ex.c **** 
1494:Drivers/STM32L4xx_HAL_Driver/Src/stm32l4xx_hal_rtc_ex.c ****   /* Disable the write protection for RTC registers */
1495:Drivers/STM32L4xx_HAL_Driver/Src/stm32l4xx_hal_rtc_ex.c ****   __HAL_RTC_WRITEPROTECTION_DISABLE(hrtc);
 2328              		.loc 1 1495 3 is_stmt 1 discriminator 2 view .LVU797
 2329              		.loc 1 1495 3 discriminator 2 view .LVU798
 2330 0014 0368     		ldr	r3, [r0]
 2331 0016 CA21     		movs	r1, #202
 2332 0018 5962     		str	r1, [r3, #36]
 2333              		.loc 1 1495 3 discriminator 2 view .LVU799
 2334 001a 0368     		ldr	r3, [r0]
 2335 001c 5321     		movs	r1, #83
 2336 001e 5962     		str	r1, [r3, #36]
 2337              		.loc 1 1495 3 discriminator 2 view .LVU800
1496:Drivers/STM32L4xx_HAL_Driver/Src/stm32l4xx_hal_rtc_ex.c **** 
1497:Drivers/STM32L4xx_HAL_Driver/Src/stm32l4xx_hal_rtc_ex.c ****   /* Set the BYPSHAD bit */
1498:Drivers/STM32L4xx_HAL_Driver/Src/stm32l4xx_hal_rtc_ex.c ****   SET_BIT(hrtc->Instance->CR, RTC_CR_BYPSHAD);
 2338              		.loc 1 1498 3 discriminator 2 view .LVU801
 2339 0020 0168     		ldr	r1, [r0]
 2340 0022 8B69     		ldr	r3, [r1, #24]
 2341 0024 43F02003 		orr	r3, r3, #32
 2342 0028 8B61     		str	r3, [r1, #24]
1499:Drivers/STM32L4xx_HAL_Driver/Src/stm32l4xx_hal_rtc_ex.c **** 
1500:Drivers/STM32L4xx_HAL_Driver/Src/stm32l4xx_hal_rtc_ex.c ****   /* Enable the write protection for RTC registers */
1501:Drivers/STM32L4xx_HAL_Driver/Src/stm32l4xx_hal_rtc_ex.c ****   __HAL_RTC_WRITEPROTECTION_ENABLE(hrtc);
 2343              		.loc 1 1501 3 discriminator 2 view .LVU802
 2344              		.loc 1 1501 3 discriminator 2 view .LVU803
 2345 002a 0368     		ldr	r3, [r0]
 2346 002c FF21     		movs	r1, #255
 2347 002e 5962     		str	r1, [r3, #36]
 2348              		.loc 1 1501 3 discriminator 2 view .LVU804
1502:Drivers/STM32L4xx_HAL_Driver/Src/stm32l4xx_hal_rtc_ex.c **** 
1503:Drivers/STM32L4xx_HAL_Driver/Src/stm32l4xx_hal_rtc_ex.c ****   /* Change RTC state */
1504:Drivers/STM32L4xx_HAL_Driver/Src/stm32l4xx_hal_rtc_ex.c ****   hrtc->State = HAL_RTC_STATE_READY;
 2349              		.loc 1 1504 3 discriminator 2 view .LVU805
 2350              		.loc 1 1504 15 is_stmt 0 discriminator 2 view .LVU806
ARM GAS  /tmp/cc49nhBG.s 			page 71


 2351 0030 80F82920 		strb	r2, [r0, #41]
1505:Drivers/STM32L4xx_HAL_Driver/Src/stm32l4xx_hal_rtc_ex.c **** 
1506:Drivers/STM32L4xx_HAL_Driver/Src/stm32l4xx_hal_rtc_ex.c ****   /* Process Unlocked */
1507:Drivers/STM32L4xx_HAL_Driver/Src/stm32l4xx_hal_rtc_ex.c ****   __HAL_UNLOCK(hrtc);
 2352              		.loc 1 1507 3 is_stmt 1 discriminator 2 view .LVU807
 2353              		.loc 1 1507 3 discriminator 2 view .LVU808
 2354 0034 0023     		movs	r3, #0
 2355 0036 80F82830 		strb	r3, [r0, #40]
 2356              		.loc 1 1507 3 discriminator 2 view .LVU809
1508:Drivers/STM32L4xx_HAL_Driver/Src/stm32l4xx_hal_rtc_ex.c **** 
1509:Drivers/STM32L4xx_HAL_Driver/Src/stm32l4xx_hal_rtc_ex.c ****   return HAL_OK;
 2357              		.loc 1 1509 3 discriminator 2 view .LVU810
 2358              		.loc 1 1509 10 is_stmt 0 discriminator 2 view .LVU811
 2359 003a 1846     		mov	r0, r3
 2360              	.LVL148:
 2361              		.loc 1 1509 10 discriminator 2 view .LVU812
 2362 003c 7047     		bx	lr
 2363              	.LVL149:
 2364              	.L144:
1490:Drivers/STM32L4xx_HAL_Driver/Src/stm32l4xx_hal_rtc_ex.c **** 
 2365              		.loc 1 1490 3 view .LVU813
 2366 003e 0220     		movs	r0, #2
 2367              	.LVL150:
1510:Drivers/STM32L4xx_HAL_Driver/Src/stm32l4xx_hal_rtc_ex.c **** }
 2368              		.loc 1 1510 1 view .LVU814
 2369 0040 7047     		bx	lr
 2370              		.cfi_endproc
 2371              	.LFE155:
 2373              		.section	.text.HAL_RTCEx_DisableBypassShadow,"ax",%progbits
 2374              		.align	1
 2375              		.global	HAL_RTCEx_DisableBypassShadow
 2376              		.syntax unified
 2377              		.thumb
 2378              		.thumb_func
 2379              		.fpu fpv4-sp-d16
 2381              	HAL_RTCEx_DisableBypassShadow:
 2382              	.LVL151:
 2383              	.LFB156:
1511:Drivers/STM32L4xx_HAL_Driver/Src/stm32l4xx_hal_rtc_ex.c **** 
1512:Drivers/STM32L4xx_HAL_Driver/Src/stm32l4xx_hal_rtc_ex.c **** /**
1513:Drivers/STM32L4xx_HAL_Driver/Src/stm32l4xx_hal_rtc_ex.c ****   * @brief  Disable the Bypass Shadow feature.
1514:Drivers/STM32L4xx_HAL_Driver/Src/stm32l4xx_hal_rtc_ex.c ****   * @note   When the Bypass Shadow is enabled the calendar value are taken
1515:Drivers/STM32L4xx_HAL_Driver/Src/stm32l4xx_hal_rtc_ex.c ****   *         directly from the Calendar counter.
1516:Drivers/STM32L4xx_HAL_Driver/Src/stm32l4xx_hal_rtc_ex.c ****   * @param  hrtc RTC handle
1517:Drivers/STM32L4xx_HAL_Driver/Src/stm32l4xx_hal_rtc_ex.c ****   * @retval HAL status
1518:Drivers/STM32L4xx_HAL_Driver/Src/stm32l4xx_hal_rtc_ex.c ****   */
1519:Drivers/STM32L4xx_HAL_Driver/Src/stm32l4xx_hal_rtc_ex.c **** HAL_StatusTypeDef HAL_RTCEx_DisableBypassShadow(RTC_HandleTypeDef *hrtc)
1520:Drivers/STM32L4xx_HAL_Driver/Src/stm32l4xx_hal_rtc_ex.c **** {
 2384              		.loc 1 1520 1 is_stmt 1 view -0
 2385              		.cfi_startproc
 2386              		@ args = 0, pretend = 0, frame = 0
 2387              		@ frame_needed = 0, uses_anonymous_args = 0
 2388              		@ link register save eliminated.
1521:Drivers/STM32L4xx_HAL_Driver/Src/stm32l4xx_hal_rtc_ex.c ****   /* Process Locked */
1522:Drivers/STM32L4xx_HAL_Driver/Src/stm32l4xx_hal_rtc_ex.c ****   __HAL_LOCK(hrtc);
 2389              		.loc 1 1522 3 view .LVU816
 2390              		.loc 1 1522 3 view .LVU817
ARM GAS  /tmp/cc49nhBG.s 			page 72


 2391 0000 90F82830 		ldrb	r3, [r0, #40]	@ zero_extendqisi2
 2392 0004 012B     		cmp	r3, #1
 2393 0006 1AD0     		beq	.L147
 2394              		.loc 1 1522 3 discriminator 2 view .LVU818
 2395 0008 0122     		movs	r2, #1
 2396 000a 80F82820 		strb	r2, [r0, #40]
 2397              		.loc 1 1522 3 discriminator 2 view .LVU819
1523:Drivers/STM32L4xx_HAL_Driver/Src/stm32l4xx_hal_rtc_ex.c **** 
1524:Drivers/STM32L4xx_HAL_Driver/Src/stm32l4xx_hal_rtc_ex.c ****   hrtc->State = HAL_RTC_STATE_BUSY;
 2398              		.loc 1 1524 3 discriminator 2 view .LVU820
 2399              		.loc 1 1524 15 is_stmt 0 discriminator 2 view .LVU821
 2400 000e 0223     		movs	r3, #2
 2401 0010 80F82930 		strb	r3, [r0, #41]
1525:Drivers/STM32L4xx_HAL_Driver/Src/stm32l4xx_hal_rtc_ex.c **** 
1526:Drivers/STM32L4xx_HAL_Driver/Src/stm32l4xx_hal_rtc_ex.c ****   /* Disable the write protection for RTC registers */
1527:Drivers/STM32L4xx_HAL_Driver/Src/stm32l4xx_hal_rtc_ex.c ****   __HAL_RTC_WRITEPROTECTION_DISABLE(hrtc);
 2402              		.loc 1 1527 3 is_stmt 1 discriminator 2 view .LVU822
 2403              		.loc 1 1527 3 discriminator 2 view .LVU823
 2404 0014 0368     		ldr	r3, [r0]
 2405 0016 CA21     		movs	r1, #202
 2406 0018 5962     		str	r1, [r3, #36]
 2407              		.loc 1 1527 3 discriminator 2 view .LVU824
 2408 001a 0368     		ldr	r3, [r0]
 2409 001c 5321     		movs	r1, #83
 2410 001e 5962     		str	r1, [r3, #36]
 2411              		.loc 1 1527 3 discriminator 2 view .LVU825
1528:Drivers/STM32L4xx_HAL_Driver/Src/stm32l4xx_hal_rtc_ex.c **** 
1529:Drivers/STM32L4xx_HAL_Driver/Src/stm32l4xx_hal_rtc_ex.c ****   /* Clear the BYPSHAD bit */
1530:Drivers/STM32L4xx_HAL_Driver/Src/stm32l4xx_hal_rtc_ex.c ****   CLEAR_BIT(RTC->CR, RTC_CR_BYPSHAD);
 2412              		.loc 1 1530 3 discriminator 2 view .LVU826
 2413 0020 0849     		ldr	r1, .L148
 2414 0022 8B69     		ldr	r3, [r1, #24]
 2415 0024 23F02003 		bic	r3, r3, #32
 2416 0028 8B61     		str	r3, [r1, #24]
1531:Drivers/STM32L4xx_HAL_Driver/Src/stm32l4xx_hal_rtc_ex.c **** 
1532:Drivers/STM32L4xx_HAL_Driver/Src/stm32l4xx_hal_rtc_ex.c ****   /* Enable the write protection for RTC registers */
1533:Drivers/STM32L4xx_HAL_Driver/Src/stm32l4xx_hal_rtc_ex.c ****   __HAL_RTC_WRITEPROTECTION_ENABLE(hrtc);
 2417              		.loc 1 1533 3 discriminator 2 view .LVU827
 2418              		.loc 1 1533 3 discriminator 2 view .LVU828
 2419 002a 0368     		ldr	r3, [r0]
 2420 002c FF21     		movs	r1, #255
 2421 002e 5962     		str	r1, [r3, #36]
 2422              		.loc 1 1533 3 discriminator 2 view .LVU829
1534:Drivers/STM32L4xx_HAL_Driver/Src/stm32l4xx_hal_rtc_ex.c **** 
1535:Drivers/STM32L4xx_HAL_Driver/Src/stm32l4xx_hal_rtc_ex.c ****   /* Change RTC state */
1536:Drivers/STM32L4xx_HAL_Driver/Src/stm32l4xx_hal_rtc_ex.c ****   hrtc->State = HAL_RTC_STATE_READY;
 2423              		.loc 1 1536 3 discriminator 2 view .LVU830
 2424              		.loc 1 1536 15 is_stmt 0 discriminator 2 view .LVU831
 2425 0030 80F82920 		strb	r2, [r0, #41]
1537:Drivers/STM32L4xx_HAL_Driver/Src/stm32l4xx_hal_rtc_ex.c **** 
1538:Drivers/STM32L4xx_HAL_Driver/Src/stm32l4xx_hal_rtc_ex.c ****   /* Process Unlocked */
1539:Drivers/STM32L4xx_HAL_Driver/Src/stm32l4xx_hal_rtc_ex.c ****   __HAL_UNLOCK(hrtc);
 2426              		.loc 1 1539 3 is_stmt 1 discriminator 2 view .LVU832
 2427              		.loc 1 1539 3 discriminator 2 view .LVU833
 2428 0034 0023     		movs	r3, #0
 2429 0036 80F82830 		strb	r3, [r0, #40]
 2430              		.loc 1 1539 3 discriminator 2 view .LVU834
ARM GAS  /tmp/cc49nhBG.s 			page 73


1540:Drivers/STM32L4xx_HAL_Driver/Src/stm32l4xx_hal_rtc_ex.c **** 
1541:Drivers/STM32L4xx_HAL_Driver/Src/stm32l4xx_hal_rtc_ex.c ****   return HAL_OK;
 2431              		.loc 1 1541 3 discriminator 2 view .LVU835
 2432              		.loc 1 1541 10 is_stmt 0 discriminator 2 view .LVU836
 2433 003a 1846     		mov	r0, r3
 2434              	.LVL152:
 2435              		.loc 1 1541 10 discriminator 2 view .LVU837
 2436 003c 7047     		bx	lr
 2437              	.LVL153:
 2438              	.L147:
1522:Drivers/STM32L4xx_HAL_Driver/Src/stm32l4xx_hal_rtc_ex.c **** 
 2439              		.loc 1 1522 3 view .LVU838
 2440 003e 0220     		movs	r0, #2
 2441              	.LVL154:
1542:Drivers/STM32L4xx_HAL_Driver/Src/stm32l4xx_hal_rtc_ex.c **** }
 2442              		.loc 1 1542 1 view .LVU839
 2443 0040 7047     		bx	lr
 2444              	.L149:
 2445 0042 00BF     		.align	2
 2446              	.L148:
 2447 0044 00280040 		.word	1073752064
 2448              		.cfi_endproc
 2449              	.LFE156:
 2451              		.section	.text.HAL_RTCEx_AlarmBEventCallback,"ax",%progbits
 2452              		.align	1
 2453              		.weak	HAL_RTCEx_AlarmBEventCallback
 2454              		.syntax unified
 2455              		.thumb
 2456              		.thumb_func
 2457              		.fpu fpv4-sp-d16
 2459              	HAL_RTCEx_AlarmBEventCallback:
 2460              	.LVL155:
 2461              	.LFB157:
1543:Drivers/STM32L4xx_HAL_Driver/Src/stm32l4xx_hal_rtc_ex.c **** 
1544:Drivers/STM32L4xx_HAL_Driver/Src/stm32l4xx_hal_rtc_ex.c **** #if defined (STM32L4P5xx) || defined (STM32L4Q5xx)
1545:Drivers/STM32L4xx_HAL_Driver/Src/stm32l4xx_hal_rtc_ex.c **** /**
1546:Drivers/STM32L4xx_HAL_Driver/Src/stm32l4xx_hal_rtc_ex.c ****   * @brief  Set SSR Underflow detection with Interrupt.
1547:Drivers/STM32L4xx_HAL_Driver/Src/stm32l4xx_hal_rtc_ex.c ****   * @param  hrtc RTC handle
1548:Drivers/STM32L4xx_HAL_Driver/Src/stm32l4xx_hal_rtc_ex.c ****   * @retval HAL status
1549:Drivers/STM32L4xx_HAL_Driver/Src/stm32l4xx_hal_rtc_ex.c ****   */
1550:Drivers/STM32L4xx_HAL_Driver/Src/stm32l4xx_hal_rtc_ex.c **** HAL_StatusTypeDef HAL_RTCEx_SetSSRU_IT(RTC_HandleTypeDef *hrtc)
1551:Drivers/STM32L4xx_HAL_Driver/Src/stm32l4xx_hal_rtc_ex.c **** {
1552:Drivers/STM32L4xx_HAL_Driver/Src/stm32l4xx_hal_rtc_ex.c ****   /* Process Locked */
1553:Drivers/STM32L4xx_HAL_Driver/Src/stm32l4xx_hal_rtc_ex.c ****   __HAL_LOCK(hrtc);
1554:Drivers/STM32L4xx_HAL_Driver/Src/stm32l4xx_hal_rtc_ex.c **** 
1555:Drivers/STM32L4xx_HAL_Driver/Src/stm32l4xx_hal_rtc_ex.c ****   hrtc->State = HAL_RTC_STATE_BUSY;
1556:Drivers/STM32L4xx_HAL_Driver/Src/stm32l4xx_hal_rtc_ex.c **** 
1557:Drivers/STM32L4xx_HAL_Driver/Src/stm32l4xx_hal_rtc_ex.c ****   /* Disable the write protection for RTC registers */
1558:Drivers/STM32L4xx_HAL_Driver/Src/stm32l4xx_hal_rtc_ex.c ****   __HAL_RTC_WRITEPROTECTION_DISABLE(hrtc);
1559:Drivers/STM32L4xx_HAL_Driver/Src/stm32l4xx_hal_rtc_ex.c **** 
1560:Drivers/STM32L4xx_HAL_Driver/Src/stm32l4xx_hal_rtc_ex.c ****   /* Enable IT SSRU */
1561:Drivers/STM32L4xx_HAL_Driver/Src/stm32l4xx_hal_rtc_ex.c ****   __HAL_RTC_SSRU_ENABLE_IT(hrtc, RTC_IT_SSRU);
1562:Drivers/STM32L4xx_HAL_Driver/Src/stm32l4xx_hal_rtc_ex.c **** 
1563:Drivers/STM32L4xx_HAL_Driver/Src/stm32l4xx_hal_rtc_ex.c ****   /* RTC SSRU Interrupt Configuration: EXTI configuration */
1564:Drivers/STM32L4xx_HAL_Driver/Src/stm32l4xx_hal_rtc_ex.c ****   __HAL_RTC_SSRU_EXTI_ENABLE_IT();
1565:Drivers/STM32L4xx_HAL_Driver/Src/stm32l4xx_hal_rtc_ex.c ****   __HAL_RTC_ALARM_EXTI_ENABLE_RISING_EDGE();
1566:Drivers/STM32L4xx_HAL_Driver/Src/stm32l4xx_hal_rtc_ex.c **** 
ARM GAS  /tmp/cc49nhBG.s 			page 74


1567:Drivers/STM32L4xx_HAL_Driver/Src/stm32l4xx_hal_rtc_ex.c ****   /* Enable the write protection for RTC registers */
1568:Drivers/STM32L4xx_HAL_Driver/Src/stm32l4xx_hal_rtc_ex.c ****   __HAL_RTC_WRITEPROTECTION_ENABLE(hrtc);
1569:Drivers/STM32L4xx_HAL_Driver/Src/stm32l4xx_hal_rtc_ex.c **** 
1570:Drivers/STM32L4xx_HAL_Driver/Src/stm32l4xx_hal_rtc_ex.c ****   hrtc->State = HAL_RTC_STATE_READY;
1571:Drivers/STM32L4xx_HAL_Driver/Src/stm32l4xx_hal_rtc_ex.c **** 
1572:Drivers/STM32L4xx_HAL_Driver/Src/stm32l4xx_hal_rtc_ex.c ****   /* Process Unlocked */
1573:Drivers/STM32L4xx_HAL_Driver/Src/stm32l4xx_hal_rtc_ex.c ****   __HAL_UNLOCK(hrtc);
1574:Drivers/STM32L4xx_HAL_Driver/Src/stm32l4xx_hal_rtc_ex.c **** 
1575:Drivers/STM32L4xx_HAL_Driver/Src/stm32l4xx_hal_rtc_ex.c ****   return HAL_OK;
1576:Drivers/STM32L4xx_HAL_Driver/Src/stm32l4xx_hal_rtc_ex.c **** }
1577:Drivers/STM32L4xx_HAL_Driver/Src/stm32l4xx_hal_rtc_ex.c **** 
1578:Drivers/STM32L4xx_HAL_Driver/Src/stm32l4xx_hal_rtc_ex.c **** /**
1579:Drivers/STM32L4xx_HAL_Driver/Src/stm32l4xx_hal_rtc_ex.c ****   * @brief  Deactivate SSR Underflow.
1580:Drivers/STM32L4xx_HAL_Driver/Src/stm32l4xx_hal_rtc_ex.c ****   * @param  hrtc RTC handle
1581:Drivers/STM32L4xx_HAL_Driver/Src/stm32l4xx_hal_rtc_ex.c ****   * @retval HAL status
1582:Drivers/STM32L4xx_HAL_Driver/Src/stm32l4xx_hal_rtc_ex.c ****   */
1583:Drivers/STM32L4xx_HAL_Driver/Src/stm32l4xx_hal_rtc_ex.c **** HAL_StatusTypeDef HAL_RTCEx_DeactivateSSRU(RTC_HandleTypeDef *hrtc)
1584:Drivers/STM32L4xx_HAL_Driver/Src/stm32l4xx_hal_rtc_ex.c **** {
1585:Drivers/STM32L4xx_HAL_Driver/Src/stm32l4xx_hal_rtc_ex.c ****   /* Process Locked */
1586:Drivers/STM32L4xx_HAL_Driver/Src/stm32l4xx_hal_rtc_ex.c ****   __HAL_LOCK(hrtc);
1587:Drivers/STM32L4xx_HAL_Driver/Src/stm32l4xx_hal_rtc_ex.c **** 
1588:Drivers/STM32L4xx_HAL_Driver/Src/stm32l4xx_hal_rtc_ex.c ****   hrtc->State = HAL_RTC_STATE_BUSY;
1589:Drivers/STM32L4xx_HAL_Driver/Src/stm32l4xx_hal_rtc_ex.c **** 
1590:Drivers/STM32L4xx_HAL_Driver/Src/stm32l4xx_hal_rtc_ex.c ****   /* Disable the write protection for RTC registers */
1591:Drivers/STM32L4xx_HAL_Driver/Src/stm32l4xx_hal_rtc_ex.c ****   __HAL_RTC_WRITEPROTECTION_DISABLE(hrtc);
1592:Drivers/STM32L4xx_HAL_Driver/Src/stm32l4xx_hal_rtc_ex.c **** 
1593:Drivers/STM32L4xx_HAL_Driver/Src/stm32l4xx_hal_rtc_ex.c ****   /* In case of interrupt mode is used, the interrupt source must disabled */
1594:Drivers/STM32L4xx_HAL_Driver/Src/stm32l4xx_hal_rtc_ex.c ****   __HAL_RTC_SSRU_DISABLE_IT(hrtc, RTC_IT_TS);
1595:Drivers/STM32L4xx_HAL_Driver/Src/stm32l4xx_hal_rtc_ex.c **** 
1596:Drivers/STM32L4xx_HAL_Driver/Src/stm32l4xx_hal_rtc_ex.c ****   /* Enable the write protection for RTC registers */
1597:Drivers/STM32L4xx_HAL_Driver/Src/stm32l4xx_hal_rtc_ex.c ****   __HAL_RTC_WRITEPROTECTION_ENABLE(hrtc);
1598:Drivers/STM32L4xx_HAL_Driver/Src/stm32l4xx_hal_rtc_ex.c **** 
1599:Drivers/STM32L4xx_HAL_Driver/Src/stm32l4xx_hal_rtc_ex.c ****   hrtc->State = HAL_RTC_STATE_READY;
1600:Drivers/STM32L4xx_HAL_Driver/Src/stm32l4xx_hal_rtc_ex.c **** 
1601:Drivers/STM32L4xx_HAL_Driver/Src/stm32l4xx_hal_rtc_ex.c ****   /* Process Unlocked */
1602:Drivers/STM32L4xx_HAL_Driver/Src/stm32l4xx_hal_rtc_ex.c ****   __HAL_UNLOCK(hrtc);
1603:Drivers/STM32L4xx_HAL_Driver/Src/stm32l4xx_hal_rtc_ex.c **** 
1604:Drivers/STM32L4xx_HAL_Driver/Src/stm32l4xx_hal_rtc_ex.c ****   return HAL_OK;
1605:Drivers/STM32L4xx_HAL_Driver/Src/stm32l4xx_hal_rtc_ex.c **** }
1606:Drivers/STM32L4xx_HAL_Driver/Src/stm32l4xx_hal_rtc_ex.c **** 
1607:Drivers/STM32L4xx_HAL_Driver/Src/stm32l4xx_hal_rtc_ex.c **** /**
1608:Drivers/STM32L4xx_HAL_Driver/Src/stm32l4xx_hal_rtc_ex.c ****   * @brief  Handle SSR underflow interrupt request.
1609:Drivers/STM32L4xx_HAL_Driver/Src/stm32l4xx_hal_rtc_ex.c ****   * @param  hrtc RTC handle
1610:Drivers/STM32L4xx_HAL_Driver/Src/stm32l4xx_hal_rtc_ex.c ****   * @retval None
1611:Drivers/STM32L4xx_HAL_Driver/Src/stm32l4xx_hal_rtc_ex.c ****   */
1612:Drivers/STM32L4xx_HAL_Driver/Src/stm32l4xx_hal_rtc_ex.c **** void HAL_RTCEx_SSRUIRQHandler(RTC_HandleTypeDef *hrtc)
1613:Drivers/STM32L4xx_HAL_Driver/Src/stm32l4xx_hal_rtc_ex.c **** {
1614:Drivers/STM32L4xx_HAL_Driver/Src/stm32l4xx_hal_rtc_ex.c ****   if ((RTC->MISR & RTC_MISR_SSRUMF) != 0u)
1615:Drivers/STM32L4xx_HAL_Driver/Src/stm32l4xx_hal_rtc_ex.c ****   {
1616:Drivers/STM32L4xx_HAL_Driver/Src/stm32l4xx_hal_rtc_ex.c ****     /* Immediately clear flags */
1617:Drivers/STM32L4xx_HAL_Driver/Src/stm32l4xx_hal_rtc_ex.c ****     RTC->SCR = RTC_SCR_CSSRUF;
1618:Drivers/STM32L4xx_HAL_Driver/Src/stm32l4xx_hal_rtc_ex.c **** 
1619:Drivers/STM32L4xx_HAL_Driver/Src/stm32l4xx_hal_rtc_ex.c ****     /* SSRU callback */
1620:Drivers/STM32L4xx_HAL_Driver/Src/stm32l4xx_hal_rtc_ex.c **** #if (USE_HAL_RTC_REGISTER_CALLBACKS == 1)
1621:Drivers/STM32L4xx_HAL_Driver/Src/stm32l4xx_hal_rtc_ex.c ****     /* Call SSRUEvent registered Callback */
1622:Drivers/STM32L4xx_HAL_Driver/Src/stm32l4xx_hal_rtc_ex.c ****     hrtc->SSRUEventCallback(hrtc);
1623:Drivers/STM32L4xx_HAL_Driver/Src/stm32l4xx_hal_rtc_ex.c **** #else
ARM GAS  /tmp/cc49nhBG.s 			page 75


1624:Drivers/STM32L4xx_HAL_Driver/Src/stm32l4xx_hal_rtc_ex.c ****     HAL_RTCEx_SSRUEventCallback(hrtc);
1625:Drivers/STM32L4xx_HAL_Driver/Src/stm32l4xx_hal_rtc_ex.c **** #endif /* USE_HAL_RTC_REGISTER_CALLBACKS */
1626:Drivers/STM32L4xx_HAL_Driver/Src/stm32l4xx_hal_rtc_ex.c ****   }
1627:Drivers/STM32L4xx_HAL_Driver/Src/stm32l4xx_hal_rtc_ex.c **** 
1628:Drivers/STM32L4xx_HAL_Driver/Src/stm32l4xx_hal_rtc_ex.c ****   /* Change RTC state */
1629:Drivers/STM32L4xx_HAL_Driver/Src/stm32l4xx_hal_rtc_ex.c ****   hrtc->State = HAL_RTC_STATE_READY;
1630:Drivers/STM32L4xx_HAL_Driver/Src/stm32l4xx_hal_rtc_ex.c **** }
1631:Drivers/STM32L4xx_HAL_Driver/Src/stm32l4xx_hal_rtc_ex.c **** 
1632:Drivers/STM32L4xx_HAL_Driver/Src/stm32l4xx_hal_rtc_ex.c **** /**
1633:Drivers/STM32L4xx_HAL_Driver/Src/stm32l4xx_hal_rtc_ex.c ****   * @brief  SSR underflow callback.
1634:Drivers/STM32L4xx_HAL_Driver/Src/stm32l4xx_hal_rtc_ex.c ****   * @param  hrtc RTC handle
1635:Drivers/STM32L4xx_HAL_Driver/Src/stm32l4xx_hal_rtc_ex.c ****   * @retval None
1636:Drivers/STM32L4xx_HAL_Driver/Src/stm32l4xx_hal_rtc_ex.c ****   */
1637:Drivers/STM32L4xx_HAL_Driver/Src/stm32l4xx_hal_rtc_ex.c **** __weak void HAL_RTCEx_SSRUEventCallback(RTC_HandleTypeDef *hrtc)
1638:Drivers/STM32L4xx_HAL_Driver/Src/stm32l4xx_hal_rtc_ex.c **** {
1639:Drivers/STM32L4xx_HAL_Driver/Src/stm32l4xx_hal_rtc_ex.c ****   /* Prevent unused argument(s) compilation warning */
1640:Drivers/STM32L4xx_HAL_Driver/Src/stm32l4xx_hal_rtc_ex.c ****   UNUSED(hrtc);
1641:Drivers/STM32L4xx_HAL_Driver/Src/stm32l4xx_hal_rtc_ex.c **** 
1642:Drivers/STM32L4xx_HAL_Driver/Src/stm32l4xx_hal_rtc_ex.c ****   /* NOTE : This function should not be modified, when the callback is needed,
1643:Drivers/STM32L4xx_HAL_Driver/Src/stm32l4xx_hal_rtc_ex.c ****             the HAL_RTCEx_SSRUEventCallback could be implemented in the user file
1644:Drivers/STM32L4xx_HAL_Driver/Src/stm32l4xx_hal_rtc_ex.c ****    */
1645:Drivers/STM32L4xx_HAL_Driver/Src/stm32l4xx_hal_rtc_ex.c **** }
1646:Drivers/STM32L4xx_HAL_Driver/Src/stm32l4xx_hal_rtc_ex.c **** #endif /* #if defined (STM32L4P5xx) || defined (STM32L4Q5xx) */
1647:Drivers/STM32L4xx_HAL_Driver/Src/stm32l4xx_hal_rtc_ex.c **** 
1648:Drivers/STM32L4xx_HAL_Driver/Src/stm32l4xx_hal_rtc_ex.c **** /**
1649:Drivers/STM32L4xx_HAL_Driver/Src/stm32l4xx_hal_rtc_ex.c ****   * @}
1650:Drivers/STM32L4xx_HAL_Driver/Src/stm32l4xx_hal_rtc_ex.c ****   */
1651:Drivers/STM32L4xx_HAL_Driver/Src/stm32l4xx_hal_rtc_ex.c **** 
1652:Drivers/STM32L4xx_HAL_Driver/Src/stm32l4xx_hal_rtc_ex.c **** /** @addtogroup RTCEx_Exported_Functions_Group4
1653:Drivers/STM32L4xx_HAL_Driver/Src/stm32l4xx_hal_rtc_ex.c ****   * @brief    Extended features functions
1654:Drivers/STM32L4xx_HAL_Driver/Src/stm32l4xx_hal_rtc_ex.c ****   *
1655:Drivers/STM32L4xx_HAL_Driver/Src/stm32l4xx_hal_rtc_ex.c **** @verbatim
1656:Drivers/STM32L4xx_HAL_Driver/Src/stm32l4xx_hal_rtc_ex.c ****  ===============================================================================
1657:Drivers/STM32L4xx_HAL_Driver/Src/stm32l4xx_hal_rtc_ex.c ****                  ##### Extended features functions #####
1658:Drivers/STM32L4xx_HAL_Driver/Src/stm32l4xx_hal_rtc_ex.c ****  ===============================================================================
1659:Drivers/STM32L4xx_HAL_Driver/Src/stm32l4xx_hal_rtc_ex.c ****     [..]  This section provides functions allowing to:
1660:Drivers/STM32L4xx_HAL_Driver/Src/stm32l4xx_hal_rtc_ex.c ****       (+) RTC Alarm B callback
1661:Drivers/STM32L4xx_HAL_Driver/Src/stm32l4xx_hal_rtc_ex.c ****       (+) RTC Poll for Alarm B request
1662:Drivers/STM32L4xx_HAL_Driver/Src/stm32l4xx_hal_rtc_ex.c **** 
1663:Drivers/STM32L4xx_HAL_Driver/Src/stm32l4xx_hal_rtc_ex.c **** @endverbatim
1664:Drivers/STM32L4xx_HAL_Driver/Src/stm32l4xx_hal_rtc_ex.c ****   * @{
1665:Drivers/STM32L4xx_HAL_Driver/Src/stm32l4xx_hal_rtc_ex.c ****   */
1666:Drivers/STM32L4xx_HAL_Driver/Src/stm32l4xx_hal_rtc_ex.c **** 
1667:Drivers/STM32L4xx_HAL_Driver/Src/stm32l4xx_hal_rtc_ex.c **** /**
1668:Drivers/STM32L4xx_HAL_Driver/Src/stm32l4xx_hal_rtc_ex.c ****   * @brief  Alarm B callback.
1669:Drivers/STM32L4xx_HAL_Driver/Src/stm32l4xx_hal_rtc_ex.c ****   * @param  hrtc RTC handle
1670:Drivers/STM32L4xx_HAL_Driver/Src/stm32l4xx_hal_rtc_ex.c ****   * @retval None
1671:Drivers/STM32L4xx_HAL_Driver/Src/stm32l4xx_hal_rtc_ex.c ****   */
1672:Drivers/STM32L4xx_HAL_Driver/Src/stm32l4xx_hal_rtc_ex.c **** __weak void HAL_RTCEx_AlarmBEventCallback(RTC_HandleTypeDef *hrtc)
1673:Drivers/STM32L4xx_HAL_Driver/Src/stm32l4xx_hal_rtc_ex.c **** {
 2462              		.loc 1 1673 1 is_stmt 1 view -0
 2463              		.cfi_startproc
 2464              		@ args = 0, pretend = 0, frame = 0
 2465              		@ frame_needed = 0, uses_anonymous_args = 0
 2466              		@ link register save eliminated.
1674:Drivers/STM32L4xx_HAL_Driver/Src/stm32l4xx_hal_rtc_ex.c ****   /* Prevent unused argument(s) compilation warning */
1675:Drivers/STM32L4xx_HAL_Driver/Src/stm32l4xx_hal_rtc_ex.c ****   UNUSED(hrtc);
ARM GAS  /tmp/cc49nhBG.s 			page 76


 2467              		.loc 1 1675 3 view .LVU841
1676:Drivers/STM32L4xx_HAL_Driver/Src/stm32l4xx_hal_rtc_ex.c **** 
1677:Drivers/STM32L4xx_HAL_Driver/Src/stm32l4xx_hal_rtc_ex.c ****   /* NOTE : This function should not be modified, when the callback is needed,
1678:Drivers/STM32L4xx_HAL_Driver/Src/stm32l4xx_hal_rtc_ex.c ****             the HAL_RTCEx_AlarmBEventCallback could be implemented in the user file
1679:Drivers/STM32L4xx_HAL_Driver/Src/stm32l4xx_hal_rtc_ex.c ****    */
1680:Drivers/STM32L4xx_HAL_Driver/Src/stm32l4xx_hal_rtc_ex.c **** }
 2468              		.loc 1 1680 1 is_stmt 0 view .LVU842
 2469 0000 7047     		bx	lr
 2470              		.cfi_endproc
 2471              	.LFE157:
 2473              		.section	.text.HAL_RTCEx_PollForAlarmBEvent,"ax",%progbits
 2474              		.align	1
 2475              		.global	HAL_RTCEx_PollForAlarmBEvent
 2476              		.syntax unified
 2477              		.thumb
 2478              		.thumb_func
 2479              		.fpu fpv4-sp-d16
 2481              	HAL_RTCEx_PollForAlarmBEvent:
 2482              	.LVL156:
 2483              	.LFB158:
1681:Drivers/STM32L4xx_HAL_Driver/Src/stm32l4xx_hal_rtc_ex.c **** 
1682:Drivers/STM32L4xx_HAL_Driver/Src/stm32l4xx_hal_rtc_ex.c **** /**
1683:Drivers/STM32L4xx_HAL_Driver/Src/stm32l4xx_hal_rtc_ex.c ****   * @brief  Handle Alarm B Polling request.
1684:Drivers/STM32L4xx_HAL_Driver/Src/stm32l4xx_hal_rtc_ex.c ****   * @param  hrtc RTC handle
1685:Drivers/STM32L4xx_HAL_Driver/Src/stm32l4xx_hal_rtc_ex.c ****   * @param  Timeout Timeout duration
1686:Drivers/STM32L4xx_HAL_Driver/Src/stm32l4xx_hal_rtc_ex.c ****   * @retval HAL status
1687:Drivers/STM32L4xx_HAL_Driver/Src/stm32l4xx_hal_rtc_ex.c ****   */
1688:Drivers/STM32L4xx_HAL_Driver/Src/stm32l4xx_hal_rtc_ex.c **** HAL_StatusTypeDef HAL_RTCEx_PollForAlarmBEvent(RTC_HandleTypeDef *hrtc, uint32_t Timeout)
1689:Drivers/STM32L4xx_HAL_Driver/Src/stm32l4xx_hal_rtc_ex.c **** {
 2484              		.loc 1 1689 1 is_stmt 1 view -0
 2485              		.cfi_startproc
 2486              		@ args = 0, pretend = 0, frame = 0
 2487              		@ frame_needed = 0, uses_anonymous_args = 0
 2488              		.loc 1 1689 1 is_stmt 0 view .LVU844
 2489 0000 70B5     		push	{r4, r5, r6, lr}
 2490              	.LCFI22:
 2491              		.cfi_def_cfa_offset 16
 2492              		.cfi_offset 4, -16
 2493              		.cfi_offset 5, -12
 2494              		.cfi_offset 6, -8
 2495              		.cfi_offset 14, -4
 2496 0002 0446     		mov	r4, r0
 2497 0004 0D46     		mov	r5, r1
1690:Drivers/STM32L4xx_HAL_Driver/Src/stm32l4xx_hal_rtc_ex.c ****   uint32_t tickstart = HAL_GetTick();
 2498              		.loc 1 1690 3 is_stmt 1 view .LVU845
 2499              		.loc 1 1690 24 is_stmt 0 view .LVU846
 2500 0006 FFF7FEFF 		bl	HAL_GetTick
 2501              	.LVL157:
 2502              		.loc 1 1690 24 view .LVU847
 2503 000a 0646     		mov	r6, r0
 2504              	.LVL158:
1691:Drivers/STM32L4xx_HAL_Driver/Src/stm32l4xx_hal_rtc_ex.c **** 
1692:Drivers/STM32L4xx_HAL_Driver/Src/stm32l4xx_hal_rtc_ex.c ****   while (__HAL_RTC_ALARM_GET_FLAG(hrtc, RTC_FLAG_ALRBF) == 0U)
 2505              		.loc 1 1692 3 is_stmt 1 view .LVU848
 2506              	.L153:
 2507              		.loc 1 1692 9 view .LVU849
 2508              		.loc 1 1692 10 is_stmt 0 view .LVU850
ARM GAS  /tmp/cc49nhBG.s 			page 77


 2509 000c 2368     		ldr	r3, [r4]
 2510 000e 1A6D     		ldr	r2, [r3, #80]
 2511              		.loc 1 1692 9 view .LVU851
 2512 0010 12F0020F 		tst	r2, #2
 2513 0014 0DD1     		bne	.L158
1693:Drivers/STM32L4xx_HAL_Driver/Src/stm32l4xx_hal_rtc_ex.c ****   {
1694:Drivers/STM32L4xx_HAL_Driver/Src/stm32l4xx_hal_rtc_ex.c ****     if (Timeout != HAL_MAX_DELAY)
 2514              		.loc 1 1694 5 is_stmt 1 view .LVU852
 2515              		.loc 1 1694 8 is_stmt 0 view .LVU853
 2516 0016 B5F1FF3F 		cmp	r5, #-1
 2517 001a F7D0     		beq	.L153
1695:Drivers/STM32L4xx_HAL_Driver/Src/stm32l4xx_hal_rtc_ex.c ****     {
1696:Drivers/STM32L4xx_HAL_Driver/Src/stm32l4xx_hal_rtc_ex.c ****       if (((HAL_GetTick() - tickstart) > Timeout) || (Timeout == 0U))
 2518              		.loc 1 1696 7 is_stmt 1 view .LVU854
 2519              		.loc 1 1696 13 is_stmt 0 view .LVU855
 2520 001c FFF7FEFF 		bl	HAL_GetTick
 2521              	.LVL159:
 2522              		.loc 1 1696 27 view .LVU856
 2523 0020 801B     		subs	r0, r0, r6
 2524              		.loc 1 1696 10 view .LVU857
 2525 0022 A842     		cmp	r0, r5
 2526 0024 01D8     		bhi	.L154
 2527              		.loc 1 1696 51 discriminator 1 view .LVU858
 2528 0026 002D     		cmp	r5, #0
 2529 0028 F0D1     		bne	.L153
 2530              	.L154:
1697:Drivers/STM32L4xx_HAL_Driver/Src/stm32l4xx_hal_rtc_ex.c ****       {
1698:Drivers/STM32L4xx_HAL_Driver/Src/stm32l4xx_hal_rtc_ex.c ****         hrtc->State = HAL_RTC_STATE_TIMEOUT;
 2531              		.loc 1 1698 9 is_stmt 1 view .LVU859
 2532              		.loc 1 1698 21 is_stmt 0 view .LVU860
 2533 002a 0320     		movs	r0, #3
 2534 002c 84F82900 		strb	r0, [r4, #41]
1699:Drivers/STM32L4xx_HAL_Driver/Src/stm32l4xx_hal_rtc_ex.c ****         return HAL_TIMEOUT;
 2535              		.loc 1 1699 9 is_stmt 1 view .LVU861
 2536              		.loc 1 1699 16 is_stmt 0 view .LVU862
 2537 0030 05E0     		b	.L155
 2538              	.L158:
1700:Drivers/STM32L4xx_HAL_Driver/Src/stm32l4xx_hal_rtc_ex.c ****       }
1701:Drivers/STM32L4xx_HAL_Driver/Src/stm32l4xx_hal_rtc_ex.c ****     }
1702:Drivers/STM32L4xx_HAL_Driver/Src/stm32l4xx_hal_rtc_ex.c ****   }
1703:Drivers/STM32L4xx_HAL_Driver/Src/stm32l4xx_hal_rtc_ex.c **** 
1704:Drivers/STM32L4xx_HAL_Driver/Src/stm32l4xx_hal_rtc_ex.c ****   /* Clear the Alarm Flag */
1705:Drivers/STM32L4xx_HAL_Driver/Src/stm32l4xx_hal_rtc_ex.c ****   __HAL_RTC_ALARM_CLEAR_FLAG(hrtc, RTC_FLAG_ALRBF);
 2539              		.loc 1 1705 3 is_stmt 1 view .LVU863
 2540 0032 0222     		movs	r2, #2
 2541 0034 DA65     		str	r2, [r3, #92]
1706:Drivers/STM32L4xx_HAL_Driver/Src/stm32l4xx_hal_rtc_ex.c **** 
1707:Drivers/STM32L4xx_HAL_Driver/Src/stm32l4xx_hal_rtc_ex.c ****   /* Change RTC state */
1708:Drivers/STM32L4xx_HAL_Driver/Src/stm32l4xx_hal_rtc_ex.c ****   hrtc->State = HAL_RTC_STATE_READY;
 2542              		.loc 1 1708 3 view .LVU864
 2543              		.loc 1 1708 15 is_stmt 0 view .LVU865
 2544 0036 0123     		movs	r3, #1
 2545 0038 84F82930 		strb	r3, [r4, #41]
1709:Drivers/STM32L4xx_HAL_Driver/Src/stm32l4xx_hal_rtc_ex.c **** 
1710:Drivers/STM32L4xx_HAL_Driver/Src/stm32l4xx_hal_rtc_ex.c ****   return HAL_OK;
 2546              		.loc 1 1710 3 is_stmt 1 view .LVU866
 2547              		.loc 1 1710 10 is_stmt 0 view .LVU867
ARM GAS  /tmp/cc49nhBG.s 			page 78


 2548 003c 0020     		movs	r0, #0
 2549              	.L155:
1711:Drivers/STM32L4xx_HAL_Driver/Src/stm32l4xx_hal_rtc_ex.c **** }
 2550              		.loc 1 1711 1 view .LVU868
 2551 003e 70BD     		pop	{r4, r5, r6, pc}
 2552              		.loc 1 1711 1 view .LVU869
 2553              		.cfi_endproc
 2554              	.LFE158:
 2556              		.section	.text.HAL_RTCEx_SetTamper,"ax",%progbits
 2557              		.align	1
 2558              		.global	HAL_RTCEx_SetTamper
 2559              		.syntax unified
 2560              		.thumb
 2561              		.thumb_func
 2562              		.fpu fpv4-sp-d16
 2564              	HAL_RTCEx_SetTamper:
 2565              	.LVL160:
 2566              	.LFB159:
1712:Drivers/STM32L4xx_HAL_Driver/Src/stm32l4xx_hal_rtc_ex.c **** 
1713:Drivers/STM32L4xx_HAL_Driver/Src/stm32l4xx_hal_rtc_ex.c **** /**
1714:Drivers/STM32L4xx_HAL_Driver/Src/stm32l4xx_hal_rtc_ex.c ****   * @}
1715:Drivers/STM32L4xx_HAL_Driver/Src/stm32l4xx_hal_rtc_ex.c ****   */
1716:Drivers/STM32L4xx_HAL_Driver/Src/stm32l4xx_hal_rtc_ex.c **** 
1717:Drivers/STM32L4xx_HAL_Driver/Src/stm32l4xx_hal_rtc_ex.c **** /** @addtogroup RTCEx_Exported_Functions_Group5
1718:Drivers/STM32L4xx_HAL_Driver/Src/stm32l4xx_hal_rtc_ex.c ****   * @brief      Extended RTC Tamper functions
1719:Drivers/STM32L4xx_HAL_Driver/Src/stm32l4xx_hal_rtc_ex.c ****   *
1720:Drivers/STM32L4xx_HAL_Driver/Src/stm32l4xx_hal_rtc_ex.c **** @verbatim
1721:Drivers/STM32L4xx_HAL_Driver/Src/stm32l4xx_hal_rtc_ex.c ****   ==============================================================================
1722:Drivers/STM32L4xx_HAL_Driver/Src/stm32l4xx_hal_rtc_ex.c ****                          ##### Tamper functions #####
1723:Drivers/STM32L4xx_HAL_Driver/Src/stm32l4xx_hal_rtc_ex.c ****   ==============================================================================
1724:Drivers/STM32L4xx_HAL_Driver/Src/stm32l4xx_hal_rtc_ex.c ****   [..]
1725:Drivers/STM32L4xx_HAL_Driver/Src/stm32l4xx_hal_rtc_ex.c ****    (+) Before calling any tamper or internal tamper function, you have to call first
1726:Drivers/STM32L4xx_HAL_Driver/Src/stm32l4xx_hal_rtc_ex.c ****        HAL_RTC_Init() function.
1727:Drivers/STM32L4xx_HAL_Driver/Src/stm32l4xx_hal_rtc_ex.c ****    (+) In that ine you can select to output tamper event on RTC pin.
1728:Drivers/STM32L4xx_HAL_Driver/Src/stm32l4xx_hal_rtc_ex.c ****   [..]
1729:Drivers/STM32L4xx_HAL_Driver/Src/stm32l4xx_hal_rtc_ex.c ****    (+) Enable the Tamper and configure the Tamper filter count, trigger Edge
1730:Drivers/STM32L4xx_HAL_Driver/Src/stm32l4xx_hal_rtc_ex.c ****        or Level according to the Tamper filter (if equal to 0 Edge else Level)
1731:Drivers/STM32L4xx_HAL_Driver/Src/stm32l4xx_hal_rtc_ex.c ****        value, sampling frequency, NoErase, MaskFlag, precharge or discharge and
1732:Drivers/STM32L4xx_HAL_Driver/Src/stm32l4xx_hal_rtc_ex.c ****        Pull-UP, timestamp using the HAL_RTCEx_SetTamper() function.
1733:Drivers/STM32L4xx_HAL_Driver/Src/stm32l4xx_hal_rtc_ex.c ****        You can configure Tamper with interrupt mode using HAL_RTCEx_SetTamper_IT() function.
1734:Drivers/STM32L4xx_HAL_Driver/Src/stm32l4xx_hal_rtc_ex.c ****    (+) The default configuration of the Tamper erases the backup registers. To avoid
1735:Drivers/STM32L4xx_HAL_Driver/Src/stm32l4xx_hal_rtc_ex.c ****        erase, enable the NoErase field on the TAMP_TAMPCR register.
1736:Drivers/STM32L4xx_HAL_Driver/Src/stm32l4xx_hal_rtc_ex.c ****   [..]
1737:Drivers/STM32L4xx_HAL_Driver/Src/stm32l4xx_hal_rtc_ex.c ****    (+) Enable Internal Tamper and configure it with interrupt, timestamp using
1738:Drivers/STM32L4xx_HAL_Driver/Src/stm32l4xx_hal_rtc_ex.c ****        the HAL_RTCEx_SetInternalTamper() function.
1739:Drivers/STM32L4xx_HAL_Driver/Src/stm32l4xx_hal_rtc_ex.c **** 
1740:Drivers/STM32L4xx_HAL_Driver/Src/stm32l4xx_hal_rtc_ex.c **** @endverbatim
1741:Drivers/STM32L4xx_HAL_Driver/Src/stm32l4xx_hal_rtc_ex.c ****   * @{
1742:Drivers/STM32L4xx_HAL_Driver/Src/stm32l4xx_hal_rtc_ex.c ****   */
1743:Drivers/STM32L4xx_HAL_Driver/Src/stm32l4xx_hal_rtc_ex.c **** 
1744:Drivers/STM32L4xx_HAL_Driver/Src/stm32l4xx_hal_rtc_ex.c **** #if defined(STM32L412xx) || defined(STM32L422xx) || defined (STM32L4P5xx) || defined (STM32L4Q5xx)
1745:Drivers/STM32L4xx_HAL_Driver/Src/stm32l4xx_hal_rtc_ex.c **** /**
1746:Drivers/STM32L4xx_HAL_Driver/Src/stm32l4xx_hal_rtc_ex.c ****   * @brief  Set Tamper
1747:Drivers/STM32L4xx_HAL_Driver/Src/stm32l4xx_hal_rtc_ex.c ****   * @param  hrtc RTC handle
1748:Drivers/STM32L4xx_HAL_Driver/Src/stm32l4xx_hal_rtc_ex.c ****   * @param  sTamper Pointer to Tamper Structure.
1749:Drivers/STM32L4xx_HAL_Driver/Src/stm32l4xx_hal_rtc_ex.c ****   * @retval HAL status
1750:Drivers/STM32L4xx_HAL_Driver/Src/stm32l4xx_hal_rtc_ex.c ****   */
ARM GAS  /tmp/cc49nhBG.s 			page 79


1751:Drivers/STM32L4xx_HAL_Driver/Src/stm32l4xx_hal_rtc_ex.c **** HAL_StatusTypeDef HAL_RTCEx_SetTamper(RTC_HandleTypeDef *hrtc, RTC_TamperTypeDef *sTamper)
1752:Drivers/STM32L4xx_HAL_Driver/Src/stm32l4xx_hal_rtc_ex.c **** {
 2567              		.loc 1 1752 1 is_stmt 1 view -0
 2568              		.cfi_startproc
 2569              		@ args = 0, pretend = 0, frame = 0
 2570              		@ frame_needed = 0, uses_anonymous_args = 0
 2571              		.loc 1 1752 1 is_stmt 0 view .LVU871
 2572 0000 2DE9F041 		push	{r4, r5, r6, r7, r8, lr}
 2573              	.LCFI23:
 2574              		.cfi_def_cfa_offset 24
 2575              		.cfi_offset 4, -24
 2576              		.cfi_offset 5, -20
 2577              		.cfi_offset 6, -16
 2578              		.cfi_offset 7, -12
 2579              		.cfi_offset 8, -8
 2580              		.cfi_offset 14, -4
1753:Drivers/STM32L4xx_HAL_Driver/Src/stm32l4xx_hal_rtc_ex.c ****   uint32_t tmpreg;
 2581              		.loc 1 1753 3 is_stmt 1 view .LVU872
1754:Drivers/STM32L4xx_HAL_Driver/Src/stm32l4xx_hal_rtc_ex.c ****   /* Process TAMP instance pointer */
1755:Drivers/STM32L4xx_HAL_Driver/Src/stm32l4xx_hal_rtc_ex.c ****   TAMP_TypeDef *tamp = (TAMP_TypeDef *)((uint32_t)hrtc->Instance + hrtc->TampOffset);
 2582              		.loc 1 1755 3 view .LVU873
 2583              		.loc 1 1755 55 is_stmt 0 view .LVU874
 2584 0004 0568     		ldr	r5, [r0]
 2585              		.loc 1 1755 72 view .LVU875
 2586 0006 4468     		ldr	r4, [r0, #4]
 2587              		.loc 1 1755 66 view .LVU876
 2588 0008 05EB040C 		add	ip, r5, r4
 2589              	.LVL161:
1756:Drivers/STM32L4xx_HAL_Driver/Src/stm32l4xx_hal_rtc_ex.c **** 
1757:Drivers/STM32L4xx_HAL_Driver/Src/stm32l4xx_hal_rtc_ex.c ****   /* Check the parameters */
1758:Drivers/STM32L4xx_HAL_Driver/Src/stm32l4xx_hal_rtc_ex.c ****   assert_param(IS_RTC_TAMPER(sTamper->Tamper));
 2590              		.loc 1 1758 3 is_stmt 1 view .LVU877
1759:Drivers/STM32L4xx_HAL_Driver/Src/stm32l4xx_hal_rtc_ex.c ****   assert_param(IS_RTC_TAMPER_TRIGGER(sTamper->Trigger));
 2591              		.loc 1 1759 3 view .LVU878
1760:Drivers/STM32L4xx_HAL_Driver/Src/stm32l4xx_hal_rtc_ex.c ****   assert_param(IS_RTC_TAMPER_ERASE_MODE(sTamper->NoErase));
 2592              		.loc 1 1760 3 view .LVU879
1761:Drivers/STM32L4xx_HAL_Driver/Src/stm32l4xx_hal_rtc_ex.c ****   assert_param(IS_RTC_TAMPER_MASKFLAG_STATE(sTamper->MaskFlag));
 2593              		.loc 1 1761 3 view .LVU880
1762:Drivers/STM32L4xx_HAL_Driver/Src/stm32l4xx_hal_rtc_ex.c ****   assert_param(IS_RTC_TAMPER_TIMESTAMPONTAMPER_DETECTION(sTamper->TimeStampOnTamperDetection));
 2594              		.loc 1 1762 3 view .LVU881
1763:Drivers/STM32L4xx_HAL_Driver/Src/stm32l4xx_hal_rtc_ex.c ****   assert_param(IS_RTC_TAMPER_FILTER(sTamper->Filter));
 2595              		.loc 1 1763 3 view .LVU882
1764:Drivers/STM32L4xx_HAL_Driver/Src/stm32l4xx_hal_rtc_ex.c ****   assert_param(IS_RTC_TAMPER_SAMPLING_FREQ(sTamper->SamplingFrequency));
 2596              		.loc 1 1764 3 view .LVU883
1765:Drivers/STM32L4xx_HAL_Driver/Src/stm32l4xx_hal_rtc_ex.c ****   assert_param(IS_RTC_TAMPER_PRECHARGE_DURATION(sTamper->PrechargeDuration));
 2597              		.loc 1 1765 3 view .LVU884
1766:Drivers/STM32L4xx_HAL_Driver/Src/stm32l4xx_hal_rtc_ex.c ****   assert_param(IS_RTC_TAMPER_PULLUP_STATE(sTamper->TamperPullUp));
 2598              		.loc 1 1766 3 view .LVU885
1767:Drivers/STM32L4xx_HAL_Driver/Src/stm32l4xx_hal_rtc_ex.c ****   /* Trigger and Filter have exclusive configurations */
1768:Drivers/STM32L4xx_HAL_Driver/Src/stm32l4xx_hal_rtc_ex.c ****   assert_param(((sTamper->Filter != RTC_TAMPERFILTER_DISABLE) && ((sTamper->Trigger == RTC_TAMPERTR
 2599              		.loc 1 1768 3 view .LVU886
1769:Drivers/STM32L4xx_HAL_Driver/Src/stm32l4xx_hal_rtc_ex.c ****                || ((sTamper->Filter == RTC_TAMPERFILTER_DISABLE) && ((sTamper->Trigger == RTC_TAMPE
1770:Drivers/STM32L4xx_HAL_Driver/Src/stm32l4xx_hal_rtc_ex.c **** 
1771:Drivers/STM32L4xx_HAL_Driver/Src/stm32l4xx_hal_rtc_ex.c ****   /* Configuration register 2 */
1772:Drivers/STM32L4xx_HAL_Driver/Src/stm32l4xx_hal_rtc_ex.c ****   tmpreg = tamp->CR2;
 2600              		.loc 1 1772 3 view .LVU887
 2601              		.loc 1 1772 10 is_stmt 0 view .LVU888
ARM GAS  /tmp/cc49nhBG.s 			page 80


 2602 000c DCF80430 		ldr	r3, [ip, #4]
 2603              	.LVL162:
1773:Drivers/STM32L4xx_HAL_Driver/Src/stm32l4xx_hal_rtc_ex.c ****   tmpreg &= ~((sTamper->Tamper << TAMP_CR2_TAMP1TRG_Pos) | (sTamper->Tamper << TAMP_CR2_TAMP1MSK_Po
 2604              		.loc 1 1773 3 is_stmt 1 view .LVU889
 2605              		.loc 1 1773 23 is_stmt 0 view .LVU890
 2606 0010 0A68     		ldr	r2, [r1]
 2607              		.loc 1 1773 32 view .LVU891
 2608 0012 4FEA0268 		lsl	r8, r2, #24
 2609              		.loc 1 1773 77 view .LVU892
 2610 0016 1704     		lsls	r7, r2, #16
 2611              		.loc 1 1773 58 view .LVU893
 2612 0018 47EA026E 		orr	lr, r7, r2, lsl #24
 2613              		.loc 1 1773 103 view .LVU894
 2614 001c 42EA0E0E 		orr	lr, r2, lr
 2615              		.loc 1 1773 10 view .LVU895
 2616 0020 23EA0E03 		bic	r3, r3, lr
 2617              	.LVL163:
1774:Drivers/STM32L4xx_HAL_Driver/Src/stm32l4xx_hal_rtc_ex.c **** 
1775:Drivers/STM32L4xx_HAL_Driver/Src/stm32l4xx_hal_rtc_ex.c ****   /* Configure the tamper trigger bit */
1776:Drivers/STM32L4xx_HAL_Driver/Src/stm32l4xx_hal_rtc_ex.c ****   if ((sTamper->Trigger == RTC_TAMPERTRIGGER_HIGHLEVEL) || (sTamper->Trigger == RTC_TAMPERTRIGGER_F
 2618              		.loc 1 1776 3 is_stmt 1 view .LVU896
 2619              		.loc 1 1776 15 is_stmt 0 view .LVU897
 2620 0024 8E68     		ldr	r6, [r1, #8]
 2621              		.loc 1 1776 6 view .LVU898
 2622 0026 032E     		cmp	r6, #3
 2623 0028 01D0     		beq	.L160
 2624              		.loc 1 1776 57 discriminator 1 view .LVU899
 2625 002a 012E     		cmp	r6, #1
 2626 002c 01D1     		bne	.L161
 2627              	.L160:
1777:Drivers/STM32L4xx_HAL_Driver/Src/stm32l4xx_hal_rtc_ex.c ****   {
1778:Drivers/STM32L4xx_HAL_Driver/Src/stm32l4xx_hal_rtc_ex.c ****     tmpreg |= (sTamper->Tamper << TAMP_CR2_TAMP1TRG_Pos);
 2628              		.loc 1 1778 5 is_stmt 1 view .LVU900
 2629              		.loc 1 1778 12 is_stmt 0 view .LVU901
 2630 002e 43EA0803 		orr	r3, r3, r8
 2631              	.LVL164:
 2632              	.L161:
1779:Drivers/STM32L4xx_HAL_Driver/Src/stm32l4xx_hal_rtc_ex.c ****   }
1780:Drivers/STM32L4xx_HAL_Driver/Src/stm32l4xx_hal_rtc_ex.c **** 
1781:Drivers/STM32L4xx_HAL_Driver/Src/stm32l4xx_hal_rtc_ex.c ****   /* Configure the tamper flags masking bit */
1782:Drivers/STM32L4xx_HAL_Driver/Src/stm32l4xx_hal_rtc_ex.c ****   if (sTamper->MaskFlag != RTC_TAMPERMASK_FLAG_DISABLE)
 2633              		.loc 1 1782 3 is_stmt 1 view .LVU902
 2634              		.loc 1 1782 14 is_stmt 0 view .LVU903
 2635 0032 0E69     		ldr	r6, [r1, #16]
 2636              		.loc 1 1782 6 view .LVU904
 2637 0034 06B1     		cbz	r6, .L162
1783:Drivers/STM32L4xx_HAL_Driver/Src/stm32l4xx_hal_rtc_ex.c ****   {
1784:Drivers/STM32L4xx_HAL_Driver/Src/stm32l4xx_hal_rtc_ex.c ****     tmpreg |= (sTamper->Tamper << TAMP_CR2_TAMP1MSK_Pos);
 2638              		.loc 1 1784 5 is_stmt 1 view .LVU905
 2639              		.loc 1 1784 12 is_stmt 0 view .LVU906
 2640 0036 3B43     		orrs	r3, r3, r7
 2641              	.LVL165:
 2642              	.L162:
1785:Drivers/STM32L4xx_HAL_Driver/Src/stm32l4xx_hal_rtc_ex.c ****   }
1786:Drivers/STM32L4xx_HAL_Driver/Src/stm32l4xx_hal_rtc_ex.c **** 
1787:Drivers/STM32L4xx_HAL_Driver/Src/stm32l4xx_hal_rtc_ex.c ****   /* Configure the tamper backup registers erasure bit */
1788:Drivers/STM32L4xx_HAL_Driver/Src/stm32l4xx_hal_rtc_ex.c ****   if (sTamper->NoErase != RTC_TAMPER_ERASE_BACKUP_ENABLE)
ARM GAS  /tmp/cc49nhBG.s 			page 81


 2643              		.loc 1 1788 3 is_stmt 1 view .LVU907
 2644              		.loc 1 1788 14 is_stmt 0 view .LVU908
 2645 0038 CE68     		ldr	r6, [r1, #12]
 2646              		.loc 1 1788 6 view .LVU909
 2647 003a 06B1     		cbz	r6, .L163
1789:Drivers/STM32L4xx_HAL_Driver/Src/stm32l4xx_hal_rtc_ex.c ****   {
1790:Drivers/STM32L4xx_HAL_Driver/Src/stm32l4xx_hal_rtc_ex.c ****     tmpreg |= (sTamper->Tamper << TAMP_CR2_TAMP1NOERASE_Pos);
 2648              		.loc 1 1790 5 is_stmt 1 view .LVU910
 2649              		.loc 1 1790 12 is_stmt 0 view .LVU911
 2650 003c 1343     		orrs	r3, r3, r2
 2651              	.LVL166:
 2652              	.L163:
1791:Drivers/STM32L4xx_HAL_Driver/Src/stm32l4xx_hal_rtc_ex.c ****   }
1792:Drivers/STM32L4xx_HAL_Driver/Src/stm32l4xx_hal_rtc_ex.c ****   tamp->CR2 = tmpreg;
 2653              		.loc 1 1792 3 is_stmt 1 view .LVU912
 2654              		.loc 1 1792 13 is_stmt 0 view .LVU913
 2655 003e CCF80430 		str	r3, [ip, #4]
1793:Drivers/STM32L4xx_HAL_Driver/Src/stm32l4xx_hal_rtc_ex.c **** 
1794:Drivers/STM32L4xx_HAL_Driver/Src/stm32l4xx_hal_rtc_ex.c ****   /* Configure filtering parameters */
1795:Drivers/STM32L4xx_HAL_Driver/Src/stm32l4xx_hal_rtc_ex.c ****   tamp->FLTCR = (sTamper->Filter) | (sTamper->SamplingFrequency) | \
 2656              		.loc 1 1795 3 is_stmt 1 view .LVU914
 2657              		.loc 1 1795 25 is_stmt 0 view .LVU915
 2658 0042 4B69     		ldr	r3, [r1, #20]
 2659              	.LVL167:
 2660              		.loc 1 1795 45 view .LVU916
 2661 0044 8A69     		ldr	r2, [r1, #24]
 2662              		.loc 1 1795 35 view .LVU917
 2663 0046 1343     		orrs	r3, r3, r2
1796:Drivers/STM32L4xx_HAL_Driver/Src/stm32l4xx_hal_rtc_ex.c ****                 (sTamper->PrechargeDuration) | (sTamper->TamperPullUp);
 2664              		.loc 1 1796 25 view .LVU918
 2665 0048 CA69     		ldr	r2, [r1, #28]
1795:Drivers/STM32L4xx_HAL_Driver/Src/stm32l4xx_hal_rtc_ex.c ****                 (sTamper->PrechargeDuration) | (sTamper->TamperPullUp);
 2666              		.loc 1 1795 66 view .LVU919
 2667 004a 1343     		orrs	r3, r3, r2
 2668              		.loc 1 1796 56 view .LVU920
 2669 004c 0A6A     		ldr	r2, [r1, #32]
 2670              		.loc 1 1796 46 view .LVU921
 2671 004e 1343     		orrs	r3, r3, r2
1795:Drivers/STM32L4xx_HAL_Driver/Src/stm32l4xx_hal_rtc_ex.c ****                 (sTamper->PrechargeDuration) | (sTamper->TamperPullUp);
 2672              		.loc 1 1795 15 view .LVU922
 2673 0050 CCF80C30 		str	r3, [ip, #12]
 2674              	.LVL168:
1797:Drivers/STM32L4xx_HAL_Driver/Src/stm32l4xx_hal_rtc_ex.c **** 
1798:Drivers/STM32L4xx_HAL_Driver/Src/stm32l4xx_hal_rtc_ex.c ****   /* Configure Timestamp saving on tamper detection */
1799:Drivers/STM32L4xx_HAL_Driver/Src/stm32l4xx_hal_rtc_ex.c ****   if ((hrtc->Instance->CR & RTC_CR_TAMPTS) != (sTamper->TimeStampOnTamperDetection))
 2675              		.loc 1 1799 3 is_stmt 1 view .LVU923
 2676              		.loc 1 1799 12 is_stmt 0 view .LVU924
 2677 0054 0268     		ldr	r2, [r0]
 2678              		.loc 1 1799 22 view .LVU925
 2679 0056 9369     		ldr	r3, [r2, #24]
 2680              		.loc 1 1799 27 view .LVU926
 2681 0058 03F00073 		and	r3, r3, #33554432
 2682              		.loc 1 1799 55 view .LVU927
 2683 005c 4E6A     		ldr	r6, [r1, #36]
 2684              		.loc 1 1799 6 view .LVU928
 2685 005e B342     		cmp	r3, r6
 2686 0060 0ED0     		beq	.L164
ARM GAS  /tmp/cc49nhBG.s 			page 82


1800:Drivers/STM32L4xx_HAL_Driver/Src/stm32l4xx_hal_rtc_ex.c ****   {
1801:Drivers/STM32L4xx_HAL_Driver/Src/stm32l4xx_hal_rtc_ex.c ****     __HAL_RTC_WRITEPROTECTION_DISABLE(hrtc);
 2687              		.loc 1 1801 5 is_stmt 1 view .LVU929
 2688              		.loc 1 1801 5 view .LVU930
 2689 0062 CA23     		movs	r3, #202
 2690 0064 5362     		str	r3, [r2, #36]
 2691              		.loc 1 1801 5 view .LVU931
 2692 0066 0368     		ldr	r3, [r0]
 2693 0068 5322     		movs	r2, #83
 2694 006a 5A62     		str	r2, [r3, #36]
 2695              		.loc 1 1801 5 view .LVU932
1802:Drivers/STM32L4xx_HAL_Driver/Src/stm32l4xx_hal_rtc_ex.c ****     tmpreg = (hrtc->Instance->CR & ~RTC_CR_TAMPTS);
 2696              		.loc 1 1802 5 view .LVU933
 2697              		.loc 1 1802 19 is_stmt 0 view .LVU934
 2698 006c 0668     		ldr	r6, [r0]
 2699              		.loc 1 1802 29 view .LVU935
 2700 006e B269     		ldr	r2, [r6, #24]
 2701              		.loc 1 1802 12 view .LVU936
 2702 0070 22F00072 		bic	r2, r2, #33554432
 2703              	.LVL169:
1803:Drivers/STM32L4xx_HAL_Driver/Src/stm32l4xx_hal_rtc_ex.c ****     hrtc->Instance->CR = (tmpreg | (sTamper->TimeStampOnTamperDetection));
 2704              		.loc 1 1803 5 is_stmt 1 view .LVU937
 2705              		.loc 1 1803 44 is_stmt 0 view .LVU938
 2706 0074 4B6A     		ldr	r3, [r1, #36]
 2707              		.loc 1 1803 34 view .LVU939
 2708 0076 1343     		orrs	r3, r3, r2
 2709              		.loc 1 1803 24 view .LVU940
 2710 0078 B361     		str	r3, [r6, #24]
1804:Drivers/STM32L4xx_HAL_Driver/Src/stm32l4xx_hal_rtc_ex.c ****     __HAL_RTC_WRITEPROTECTION_ENABLE(hrtc);
 2711              		.loc 1 1804 5 is_stmt 1 view .LVU941
 2712              		.loc 1 1804 5 view .LVU942
 2713 007a 0368     		ldr	r3, [r0]
 2714 007c FF22     		movs	r2, #255
 2715              	.LVL170:
 2716              		.loc 1 1804 5 is_stmt 0 view .LVU943
 2717 007e 5A62     		str	r2, [r3, #36]
 2718              	.L164:
 2719              		.loc 1 1804 5 is_stmt 1 discriminator 1 view .LVU944
1805:Drivers/STM32L4xx_HAL_Driver/Src/stm32l4xx_hal_rtc_ex.c ****   }
1806:Drivers/STM32L4xx_HAL_Driver/Src/stm32l4xx_hal_rtc_ex.c **** 
1807:Drivers/STM32L4xx_HAL_Driver/Src/stm32l4xx_hal_rtc_ex.c ****   /* Enable selected tamper */
1808:Drivers/STM32L4xx_HAL_Driver/Src/stm32l4xx_hal_rtc_ex.c ****   tamp->CR1 |= (sTamper->Tamper);
 2720              		.loc 1 1808 3 discriminator 1 view .LVU945
 2721              		.loc 1 1808 13 is_stmt 0 discriminator 1 view .LVU946
 2722 0080 2B59     		ldr	r3, [r5, r4]
 2723              		.loc 1 1808 24 discriminator 1 view .LVU947
 2724 0082 0A68     		ldr	r2, [r1]
 2725              		.loc 1 1808 13 discriminator 1 view .LVU948
 2726 0084 1343     		orrs	r3, r3, r2
 2727 0086 2B51     		str	r3, [r5, r4]
1809:Drivers/STM32L4xx_HAL_Driver/Src/stm32l4xx_hal_rtc_ex.c **** 
1810:Drivers/STM32L4xx_HAL_Driver/Src/stm32l4xx_hal_rtc_ex.c ****   return HAL_OK;
 2728              		.loc 1 1810 3 is_stmt 1 discriminator 1 view .LVU949
1811:Drivers/STM32L4xx_HAL_Driver/Src/stm32l4xx_hal_rtc_ex.c **** }
 2729              		.loc 1 1811 1 is_stmt 0 discriminator 1 view .LVU950
 2730 0088 0020     		movs	r0, #0
 2731              	.LVL171:
ARM GAS  /tmp/cc49nhBG.s 			page 83


 2732              		.loc 1 1811 1 discriminator 1 view .LVU951
 2733 008a BDE8F081 		pop	{r4, r5, r6, r7, r8, pc}
 2734              		.cfi_endproc
 2735              	.LFE159:
 2737              		.section	.text.HAL_RTCEx_SetTamper_IT,"ax",%progbits
 2738              		.align	1
 2739              		.global	HAL_RTCEx_SetTamper_IT
 2740              		.syntax unified
 2741              		.thumb
 2742              		.thumb_func
 2743              		.fpu fpv4-sp-d16
 2745              	HAL_RTCEx_SetTamper_IT:
 2746              	.LVL172:
 2747              	.LFB160:
1812:Drivers/STM32L4xx_HAL_Driver/Src/stm32l4xx_hal_rtc_ex.c **** #else /* #if defined(STM32L412xx) || defined(STM32L422xx) || defined (STM32L4P5xx) || defined (STM3
1813:Drivers/STM32L4xx_HAL_Driver/Src/stm32l4xx_hal_rtc_ex.c **** /**
1814:Drivers/STM32L4xx_HAL_Driver/Src/stm32l4xx_hal_rtc_ex.c ****   * @brief  Set Tamper.
1815:Drivers/STM32L4xx_HAL_Driver/Src/stm32l4xx_hal_rtc_ex.c ****   * @note   By calling this API we disable the tamper interrupt for all tampers.
1816:Drivers/STM32L4xx_HAL_Driver/Src/stm32l4xx_hal_rtc_ex.c ****   * @param  hrtc RTC handle
1817:Drivers/STM32L4xx_HAL_Driver/Src/stm32l4xx_hal_rtc_ex.c ****   * @param  sTamper Pointer to Tamper Structure.
1818:Drivers/STM32L4xx_HAL_Driver/Src/stm32l4xx_hal_rtc_ex.c ****   * @retval HAL status
1819:Drivers/STM32L4xx_HAL_Driver/Src/stm32l4xx_hal_rtc_ex.c ****   */
1820:Drivers/STM32L4xx_HAL_Driver/Src/stm32l4xx_hal_rtc_ex.c **** HAL_StatusTypeDef HAL_RTCEx_SetTamper(RTC_HandleTypeDef *hrtc, RTC_TamperTypeDef *sTamper)
1821:Drivers/STM32L4xx_HAL_Driver/Src/stm32l4xx_hal_rtc_ex.c **** {
1822:Drivers/STM32L4xx_HAL_Driver/Src/stm32l4xx_hal_rtc_ex.c ****   uint32_t tmpreg;
1823:Drivers/STM32L4xx_HAL_Driver/Src/stm32l4xx_hal_rtc_ex.c **** 
1824:Drivers/STM32L4xx_HAL_Driver/Src/stm32l4xx_hal_rtc_ex.c ****   /* Check the parameters */
1825:Drivers/STM32L4xx_HAL_Driver/Src/stm32l4xx_hal_rtc_ex.c ****   assert_param(IS_RTC_TAMPER(sTamper->Tamper));
1826:Drivers/STM32L4xx_HAL_Driver/Src/stm32l4xx_hal_rtc_ex.c ****   assert_param(IS_RTC_TAMPER_TRIGGER(sTamper->Trigger));
1827:Drivers/STM32L4xx_HAL_Driver/Src/stm32l4xx_hal_rtc_ex.c ****   assert_param(IS_RTC_TAMPER_ERASE_MODE(sTamper->NoErase));
1828:Drivers/STM32L4xx_HAL_Driver/Src/stm32l4xx_hal_rtc_ex.c ****   assert_param(IS_RTC_TAMPER_MASKFLAG_STATE(sTamper->MaskFlag));
1829:Drivers/STM32L4xx_HAL_Driver/Src/stm32l4xx_hal_rtc_ex.c ****   assert_param(IS_RTC_TAMPER_FILTER(sTamper->Filter));
1830:Drivers/STM32L4xx_HAL_Driver/Src/stm32l4xx_hal_rtc_ex.c ****   assert_param(IS_RTC_TAMPER_SAMPLING_FREQ(sTamper->SamplingFrequency));
1831:Drivers/STM32L4xx_HAL_Driver/Src/stm32l4xx_hal_rtc_ex.c ****   assert_param(IS_RTC_TAMPER_PRECHARGE_DURATION(sTamper->PrechargeDuration));
1832:Drivers/STM32L4xx_HAL_Driver/Src/stm32l4xx_hal_rtc_ex.c ****   assert_param(IS_RTC_TAMPER_PULLUP_STATE(sTamper->TamperPullUp));
1833:Drivers/STM32L4xx_HAL_Driver/Src/stm32l4xx_hal_rtc_ex.c ****   assert_param(IS_RTC_TAMPER_TIMESTAMPONTAMPER_DETECTION(sTamper->TimeStampOnTamperDetection));
1834:Drivers/STM32L4xx_HAL_Driver/Src/stm32l4xx_hal_rtc_ex.c **** 
1835:Drivers/STM32L4xx_HAL_Driver/Src/stm32l4xx_hal_rtc_ex.c ****   /* Process Locked */
1836:Drivers/STM32L4xx_HAL_Driver/Src/stm32l4xx_hal_rtc_ex.c ****   __HAL_LOCK(hrtc);
1837:Drivers/STM32L4xx_HAL_Driver/Src/stm32l4xx_hal_rtc_ex.c **** 
1838:Drivers/STM32L4xx_HAL_Driver/Src/stm32l4xx_hal_rtc_ex.c ****   hrtc->State = HAL_RTC_STATE_BUSY;
1839:Drivers/STM32L4xx_HAL_Driver/Src/stm32l4xx_hal_rtc_ex.c **** 
1840:Drivers/STM32L4xx_HAL_Driver/Src/stm32l4xx_hal_rtc_ex.c ****   /* Read register */
1841:Drivers/STM32L4xx_HAL_Driver/Src/stm32l4xx_hal_rtc_ex.c ****   tmpreg = hrtc->Instance->TAMPCR;
1842:Drivers/STM32L4xx_HAL_Driver/Src/stm32l4xx_hal_rtc_ex.c **** 
1843:Drivers/STM32L4xx_HAL_Driver/Src/stm32l4xx_hal_rtc_ex.c **** #if defined(RTC_TAMPER1_SUPPORT)
1844:Drivers/STM32L4xx_HAL_Driver/Src/stm32l4xx_hal_rtc_ex.c ****   if ((sTamper->Tamper & RTC_TAMPER_1) != 0)
1845:Drivers/STM32L4xx_HAL_Driver/Src/stm32l4xx_hal_rtc_ex.c ****   {
1846:Drivers/STM32L4xx_HAL_Driver/Src/stm32l4xx_hal_rtc_ex.c ****     MODIFY_REG(tmpreg,
1847:Drivers/STM32L4xx_HAL_Driver/Src/stm32l4xx_hal_rtc_ex.c ****                (RTC_TAMPCR_TAMP1E | RTC_TAMPCR_TAMP1TRG | RTC_TAMPCR_TAMPIE | RTC_TAMPCR_TAMP1IE | 
1848:Drivers/STM32L4xx_HAL_Driver/Src/stm32l4xx_hal_rtc_ex.c ****                sTamper->Tamper | \
1849:Drivers/STM32L4xx_HAL_Driver/Src/stm32l4xx_hal_rtc_ex.c ****                (sTamper->Trigger == RTC_TAMPERTRIGGER_RISINGEDGE ?  0U : RTC_TAMPCR_TAMP1TRG) | \
1850:Drivers/STM32L4xx_HAL_Driver/Src/stm32l4xx_hal_rtc_ex.c ****                (sTamper->NoErase == RTC_TAMPER_ERASE_BACKUP_ENABLE ? 0U : RTC_TAMPCR_TAMP1NOERASE) 
1851:Drivers/STM32L4xx_HAL_Driver/Src/stm32l4xx_hal_rtc_ex.c ****                (sTamper->MaskFlag == RTC_TAMPERMASK_FLAG_ENABLE ? RTC_TAMPCR_TAMP1MF : 0U) \
1852:Drivers/STM32L4xx_HAL_Driver/Src/stm32l4xx_hal_rtc_ex.c ****               );
1853:Drivers/STM32L4xx_HAL_Driver/Src/stm32l4xx_hal_rtc_ex.c ****   }
1854:Drivers/STM32L4xx_HAL_Driver/Src/stm32l4xx_hal_rtc_ex.c **** #endif /* RTC_TAMPER1_SUPPORT */
ARM GAS  /tmp/cc49nhBG.s 			page 84


1855:Drivers/STM32L4xx_HAL_Driver/Src/stm32l4xx_hal_rtc_ex.c **** 
1856:Drivers/STM32L4xx_HAL_Driver/Src/stm32l4xx_hal_rtc_ex.c **** #if defined(RTC_TAMPER2_SUPPORT)
1857:Drivers/STM32L4xx_HAL_Driver/Src/stm32l4xx_hal_rtc_ex.c ****   if ((sTamper->Tamper & RTC_TAMPER_2) != 0)
1858:Drivers/STM32L4xx_HAL_Driver/Src/stm32l4xx_hal_rtc_ex.c ****   {
1859:Drivers/STM32L4xx_HAL_Driver/Src/stm32l4xx_hal_rtc_ex.c ****     MODIFY_REG(tmpreg,
1860:Drivers/STM32L4xx_HAL_Driver/Src/stm32l4xx_hal_rtc_ex.c ****                (RTC_TAMPCR_TAMP2E | RTC_TAMPCR_TAMP2TRG | RTC_TAMPCR_TAMPIE | RTC_TAMPCR_TAMP2IE | 
1861:Drivers/STM32L4xx_HAL_Driver/Src/stm32l4xx_hal_rtc_ex.c ****                sTamper->Tamper | \
1862:Drivers/STM32L4xx_HAL_Driver/Src/stm32l4xx_hal_rtc_ex.c ****                (sTamper->Trigger == RTC_TAMPERTRIGGER_RISINGEDGE ?  0U : RTC_TAMPCR_TAMP2TRG) | \
1863:Drivers/STM32L4xx_HAL_Driver/Src/stm32l4xx_hal_rtc_ex.c ****                (sTamper->NoErase == RTC_TAMPER_ERASE_BACKUP_ENABLE ? 0U : RTC_TAMPCR_TAMP2NOERASE) 
1864:Drivers/STM32L4xx_HAL_Driver/Src/stm32l4xx_hal_rtc_ex.c ****                (sTamper->MaskFlag == RTC_TAMPERMASK_FLAG_ENABLE ? RTC_TAMPCR_TAMP2MF : 0U) \
1865:Drivers/STM32L4xx_HAL_Driver/Src/stm32l4xx_hal_rtc_ex.c ****               );
1866:Drivers/STM32L4xx_HAL_Driver/Src/stm32l4xx_hal_rtc_ex.c ****   }
1867:Drivers/STM32L4xx_HAL_Driver/Src/stm32l4xx_hal_rtc_ex.c **** #endif /* RTC_TAMPER2_SUPPORT */
1868:Drivers/STM32L4xx_HAL_Driver/Src/stm32l4xx_hal_rtc_ex.c **** 
1869:Drivers/STM32L4xx_HAL_Driver/Src/stm32l4xx_hal_rtc_ex.c **** #if defined(RTC_TAMPER3_SUPPORT)
1870:Drivers/STM32L4xx_HAL_Driver/Src/stm32l4xx_hal_rtc_ex.c ****   if ((sTamper->Tamper & RTC_TAMPER_3) != 0)
1871:Drivers/STM32L4xx_HAL_Driver/Src/stm32l4xx_hal_rtc_ex.c ****   {
1872:Drivers/STM32L4xx_HAL_Driver/Src/stm32l4xx_hal_rtc_ex.c ****     MODIFY_REG(tmpreg,
1873:Drivers/STM32L4xx_HAL_Driver/Src/stm32l4xx_hal_rtc_ex.c ****                (RTC_TAMPCR_TAMP3E | RTC_TAMPCR_TAMP3TRG | RTC_TAMPCR_TAMPIE | RTC_TAMPCR_TAMP3IE | 
1874:Drivers/STM32L4xx_HAL_Driver/Src/stm32l4xx_hal_rtc_ex.c ****                sTamper->Tamper | \
1875:Drivers/STM32L4xx_HAL_Driver/Src/stm32l4xx_hal_rtc_ex.c ****                (sTamper->Trigger == RTC_TAMPERTRIGGER_RISINGEDGE ?  0U : RTC_TAMPCR_TAMP3TRG) | \
1876:Drivers/STM32L4xx_HAL_Driver/Src/stm32l4xx_hal_rtc_ex.c ****                (sTamper->NoErase == RTC_TAMPER_ERASE_BACKUP_ENABLE ? 0U : RTC_TAMPCR_TAMP3NOERASE) 
1877:Drivers/STM32L4xx_HAL_Driver/Src/stm32l4xx_hal_rtc_ex.c ****                (sTamper->MaskFlag == RTC_TAMPERMASK_FLAG_ENABLE ? RTC_TAMPCR_TAMP3MF : 0U) \
1878:Drivers/STM32L4xx_HAL_Driver/Src/stm32l4xx_hal_rtc_ex.c ****               );
1879:Drivers/STM32L4xx_HAL_Driver/Src/stm32l4xx_hal_rtc_ex.c ****   }
1880:Drivers/STM32L4xx_HAL_Driver/Src/stm32l4xx_hal_rtc_ex.c **** #endif /* RTC_TAMPER3_SUPPORT */
1881:Drivers/STM32L4xx_HAL_Driver/Src/stm32l4xx_hal_rtc_ex.c **** 
1882:Drivers/STM32L4xx_HAL_Driver/Src/stm32l4xx_hal_rtc_ex.c ****   /* Update common parameters */
1883:Drivers/STM32L4xx_HAL_Driver/Src/stm32l4xx_hal_rtc_ex.c ****   MODIFY_REG(tmpreg,
1884:Drivers/STM32L4xx_HAL_Driver/Src/stm32l4xx_hal_rtc_ex.c ****              (RTC_TAMPCR_TAMPTS | RTC_TAMPCR_TAMPFREQ | RTC_TAMPCR_TAMPFLT | RTC_TAMPCR_TAMPPRCH | 
1885:Drivers/STM32L4xx_HAL_Driver/Src/stm32l4xx_hal_rtc_ex.c ****              sTamper->Filter | sTamper->SamplingFrequency | sTamper->PrechargeDuration | sTamper->T
1886:Drivers/STM32L4xx_HAL_Driver/Src/stm32l4xx_hal_rtc_ex.c ****              sTamper->TimeStampOnTamperDetection \
1887:Drivers/STM32L4xx_HAL_Driver/Src/stm32l4xx_hal_rtc_ex.c ****             );
1888:Drivers/STM32L4xx_HAL_Driver/Src/stm32l4xx_hal_rtc_ex.c **** 
1889:Drivers/STM32L4xx_HAL_Driver/Src/stm32l4xx_hal_rtc_ex.c ****   /* Set register */
1890:Drivers/STM32L4xx_HAL_Driver/Src/stm32l4xx_hal_rtc_ex.c ****   WRITE_REG(hrtc->Instance->TAMPCR, tmpreg);
1891:Drivers/STM32L4xx_HAL_Driver/Src/stm32l4xx_hal_rtc_ex.c **** 
1892:Drivers/STM32L4xx_HAL_Driver/Src/stm32l4xx_hal_rtc_ex.c ****   hrtc->State = HAL_RTC_STATE_READY;
1893:Drivers/STM32L4xx_HAL_Driver/Src/stm32l4xx_hal_rtc_ex.c **** 
1894:Drivers/STM32L4xx_HAL_Driver/Src/stm32l4xx_hal_rtc_ex.c ****   /* Process Unlocked */
1895:Drivers/STM32L4xx_HAL_Driver/Src/stm32l4xx_hal_rtc_ex.c ****   __HAL_UNLOCK(hrtc);
1896:Drivers/STM32L4xx_HAL_Driver/Src/stm32l4xx_hal_rtc_ex.c **** 
1897:Drivers/STM32L4xx_HAL_Driver/Src/stm32l4xx_hal_rtc_ex.c ****   return HAL_OK;
1898:Drivers/STM32L4xx_HAL_Driver/Src/stm32l4xx_hal_rtc_ex.c **** }
1899:Drivers/STM32L4xx_HAL_Driver/Src/stm32l4xx_hal_rtc_ex.c **** #endif /* #if defined(STM32L412xx) || defined(STM32L422xx) || defined (STM32L4P5xx) || defined (STM
1900:Drivers/STM32L4xx_HAL_Driver/Src/stm32l4xx_hal_rtc_ex.c **** 
1901:Drivers/STM32L4xx_HAL_Driver/Src/stm32l4xx_hal_rtc_ex.c **** 
1902:Drivers/STM32L4xx_HAL_Driver/Src/stm32l4xx_hal_rtc_ex.c **** 
1903:Drivers/STM32L4xx_HAL_Driver/Src/stm32l4xx_hal_rtc_ex.c **** #if defined(STM32L412xx) || defined(STM32L422xx) || defined (STM32L4P5xx) || defined (STM32L4Q5xx)
1904:Drivers/STM32L4xx_HAL_Driver/Src/stm32l4xx_hal_rtc_ex.c **** /**
1905:Drivers/STM32L4xx_HAL_Driver/Src/stm32l4xx_hal_rtc_ex.c ****   * @brief  Set Tamper with interrupt.
1906:Drivers/STM32L4xx_HAL_Driver/Src/stm32l4xx_hal_rtc_ex.c ****   * @param  hrtc RTC handle
1907:Drivers/STM32L4xx_HAL_Driver/Src/stm32l4xx_hal_rtc_ex.c ****   * @param  sTamper Pointer to Tamper Structure.
1908:Drivers/STM32L4xx_HAL_Driver/Src/stm32l4xx_hal_rtc_ex.c ****   * @retval HAL status
1909:Drivers/STM32L4xx_HAL_Driver/Src/stm32l4xx_hal_rtc_ex.c ****   */
1910:Drivers/STM32L4xx_HAL_Driver/Src/stm32l4xx_hal_rtc_ex.c **** HAL_StatusTypeDef HAL_RTCEx_SetTamper_IT(RTC_HandleTypeDef *hrtc, RTC_TamperTypeDef *sTamper)
1911:Drivers/STM32L4xx_HAL_Driver/Src/stm32l4xx_hal_rtc_ex.c **** {
ARM GAS  /tmp/cc49nhBG.s 			page 85


 2748              		.loc 1 1911 1 is_stmt 1 view -0
 2749              		.cfi_startproc
 2750              		@ args = 0, pretend = 0, frame = 0
 2751              		@ frame_needed = 0, uses_anonymous_args = 0
 2752              		.loc 1 1911 1 is_stmt 0 view .LVU953
 2753 0000 2DE9F041 		push	{r4, r5, r6, r7, r8, lr}
 2754              	.LCFI24:
 2755              		.cfi_def_cfa_offset 24
 2756              		.cfi_offset 4, -24
 2757              		.cfi_offset 5, -20
 2758              		.cfi_offset 6, -16
 2759              		.cfi_offset 7, -12
 2760              		.cfi_offset 8, -8
 2761              		.cfi_offset 14, -4
1912:Drivers/STM32L4xx_HAL_Driver/Src/stm32l4xx_hal_rtc_ex.c ****   uint32_t tmpreg;
 2762              		.loc 1 1912 3 is_stmt 1 view .LVU954
1913:Drivers/STM32L4xx_HAL_Driver/Src/stm32l4xx_hal_rtc_ex.c ****   /* Process TAMP instance pointer */
1914:Drivers/STM32L4xx_HAL_Driver/Src/stm32l4xx_hal_rtc_ex.c ****   TAMP_TypeDef *tamp = (TAMP_TypeDef *)((uint32_t)hrtc->Instance + hrtc->TampOffset);
 2763              		.loc 1 1914 3 view .LVU955
 2764              		.loc 1 1914 55 is_stmt 0 view .LVU956
 2765 0004 0668     		ldr	r6, [r0]
 2766              		.loc 1 1914 72 view .LVU957
 2767 0006 4568     		ldr	r5, [r0, #4]
 2768              		.loc 1 1914 66 view .LVU958
 2769 0008 7219     		adds	r2, r6, r5
 2770              	.LVL173:
1915:Drivers/STM32L4xx_HAL_Driver/Src/stm32l4xx_hal_rtc_ex.c **** 
1916:Drivers/STM32L4xx_HAL_Driver/Src/stm32l4xx_hal_rtc_ex.c ****   /* Check the parameters */
1917:Drivers/STM32L4xx_HAL_Driver/Src/stm32l4xx_hal_rtc_ex.c ****   assert_param(IS_RTC_TAMPER(sTamper->Tamper));
 2771              		.loc 1 1917 3 is_stmt 1 view .LVU959
1918:Drivers/STM32L4xx_HAL_Driver/Src/stm32l4xx_hal_rtc_ex.c ****   assert_param(IS_RTC_TAMPER_TRIGGER(sTamper->Trigger));
 2772              		.loc 1 1918 3 view .LVU960
1919:Drivers/STM32L4xx_HAL_Driver/Src/stm32l4xx_hal_rtc_ex.c ****   assert_param(IS_RTC_TAMPER_ERASE_MODE(sTamper->NoErase));
 2773              		.loc 1 1919 3 view .LVU961
1920:Drivers/STM32L4xx_HAL_Driver/Src/stm32l4xx_hal_rtc_ex.c ****   assert_param(IS_RTC_TAMPER_MASKFLAG_STATE(sTamper->MaskFlag));
 2774              		.loc 1 1920 3 view .LVU962
1921:Drivers/STM32L4xx_HAL_Driver/Src/stm32l4xx_hal_rtc_ex.c ****   assert_param(IS_RTC_TAMPER_FILTER(sTamper->Filter));
 2775              		.loc 1 1921 3 view .LVU963
1922:Drivers/STM32L4xx_HAL_Driver/Src/stm32l4xx_hal_rtc_ex.c ****   assert_param(IS_RTC_TAMPER_SAMPLING_FREQ(sTamper->SamplingFrequency));
 2776              		.loc 1 1922 3 view .LVU964
1923:Drivers/STM32L4xx_HAL_Driver/Src/stm32l4xx_hal_rtc_ex.c ****   assert_param(IS_RTC_TAMPER_PRECHARGE_DURATION(sTamper->PrechargeDuration));
 2777              		.loc 1 1923 3 view .LVU965
1924:Drivers/STM32L4xx_HAL_Driver/Src/stm32l4xx_hal_rtc_ex.c ****   assert_param(IS_RTC_TAMPER_PULLUP_STATE(sTamper->TamperPullUp));
 2778              		.loc 1 1924 3 view .LVU966
1925:Drivers/STM32L4xx_HAL_Driver/Src/stm32l4xx_hal_rtc_ex.c ****   assert_param(IS_RTC_TAMPER_TIMESTAMPONTAMPER_DETECTION(sTamper->TimeStampOnTamperDetection));
 2779              		.loc 1 1925 3 view .LVU967
1926:Drivers/STM32L4xx_HAL_Driver/Src/stm32l4xx_hal_rtc_ex.c **** 
1927:Drivers/STM32L4xx_HAL_Driver/Src/stm32l4xx_hal_rtc_ex.c ****   /* Copy configuration register into temporary variable */
1928:Drivers/STM32L4xx_HAL_Driver/Src/stm32l4xx_hal_rtc_ex.c ****   tmpreg = tamp->CR2;
 2780              		.loc 1 1928 3 view .LVU968
 2781              		.loc 1 1928 10 is_stmt 0 view .LVU969
 2782 000a 5368     		ldr	r3, [r2, #4]
 2783              	.LVL174:
1929:Drivers/STM32L4xx_HAL_Driver/Src/stm32l4xx_hal_rtc_ex.c **** 
1930:Drivers/STM32L4xx_HAL_Driver/Src/stm32l4xx_hal_rtc_ex.c ****   /* Clear the bits that are going to be configured and leave the others unchanged */
1931:Drivers/STM32L4xx_HAL_Driver/Src/stm32l4xx_hal_rtc_ex.c ****   tmpreg &= ~((sTamper->Tamper << TAMP_CR2_TAMP1TRG_Pos) | (sTamper->Tamper << TAMP_CR2_TAMP1MSK_Po
 2784              		.loc 1 1931 3 is_stmt 1 view .LVU970
ARM GAS  /tmp/cc49nhBG.s 			page 86


 2785              		.loc 1 1931 23 is_stmt 0 view .LVU971
 2786 000c 0C68     		ldr	r4, [r1]
 2787              		.loc 1 1931 32 view .LVU972
 2788 000e 4FEA0468 		lsl	r8, r4, #24
 2789              		.loc 1 1931 77 view .LVU973
 2790 0012 4FEA044E 		lsl	lr, r4, #16
 2791              		.loc 1 1931 58 view .LVU974
 2792 0016 4EEA046C 		orr	ip, lr, r4, lsl #24
 2793              		.loc 1 1931 103 view .LVU975
 2794 001a 44EA0C0C 		orr	ip, r4, ip
 2795              		.loc 1 1931 10 view .LVU976
 2796 001e 23EA0C03 		bic	r3, r3, ip
 2797              	.LVL175:
1932:Drivers/STM32L4xx_HAL_Driver/Src/stm32l4xx_hal_rtc_ex.c **** 
1933:Drivers/STM32L4xx_HAL_Driver/Src/stm32l4xx_hal_rtc_ex.c ****   if ((sTamper->Trigger == RTC_TAMPERTRIGGER_HIGHLEVEL) || (sTamper->Trigger == RTC_TAMPERTRIGGER_F
 2798              		.loc 1 1933 3 is_stmt 1 view .LVU977
 2799              		.loc 1 1933 15 is_stmt 0 view .LVU978
 2800 0022 8F68     		ldr	r7, [r1, #8]
 2801              		.loc 1 1933 6 view .LVU979
 2802 0024 032F     		cmp	r7, #3
 2803 0026 01D0     		beq	.L167
 2804              		.loc 1 1933 57 discriminator 1 view .LVU980
 2805 0028 012F     		cmp	r7, #1
 2806 002a 01D1     		bne	.L168
 2807              	.L167:
1934:Drivers/STM32L4xx_HAL_Driver/Src/stm32l4xx_hal_rtc_ex.c ****   {
1935:Drivers/STM32L4xx_HAL_Driver/Src/stm32l4xx_hal_rtc_ex.c ****     tmpreg |= (sTamper->Tamper << TAMP_CR2_TAMP1TRG_Pos);
 2808              		.loc 1 1935 5 is_stmt 1 view .LVU981
 2809              		.loc 1 1935 12 is_stmt 0 view .LVU982
 2810 002c 43EA0803 		orr	r3, r3, r8
 2811              	.LVL176:
 2812              	.L168:
1936:Drivers/STM32L4xx_HAL_Driver/Src/stm32l4xx_hal_rtc_ex.c ****   }
1937:Drivers/STM32L4xx_HAL_Driver/Src/stm32l4xx_hal_rtc_ex.c **** 
1938:Drivers/STM32L4xx_HAL_Driver/Src/stm32l4xx_hal_rtc_ex.c ****   /* Configure the tamper flags masking bit */
1939:Drivers/STM32L4xx_HAL_Driver/Src/stm32l4xx_hal_rtc_ex.c ****   if (sTamper->MaskFlag != RTC_TAMPERMASK_FLAG_DISABLE)
 2813              		.loc 1 1939 3 is_stmt 1 view .LVU983
 2814              		.loc 1 1939 14 is_stmt 0 view .LVU984
 2815 0030 0F69     		ldr	r7, [r1, #16]
 2816              		.loc 1 1939 6 view .LVU985
 2817 0032 0FB1     		cbz	r7, .L169
1940:Drivers/STM32L4xx_HAL_Driver/Src/stm32l4xx_hal_rtc_ex.c ****   {
1941:Drivers/STM32L4xx_HAL_Driver/Src/stm32l4xx_hal_rtc_ex.c ****     tmpreg |= (sTamper->Tamper << TAMP_CR2_TAMP1MSK_Pos);
 2818              		.loc 1 1941 5 is_stmt 1 view .LVU986
 2819              		.loc 1 1941 12 is_stmt 0 view .LVU987
 2820 0034 43EA0E03 		orr	r3, r3, lr
 2821              	.LVL177:
 2822              	.L169:
1942:Drivers/STM32L4xx_HAL_Driver/Src/stm32l4xx_hal_rtc_ex.c ****   }
1943:Drivers/STM32L4xx_HAL_Driver/Src/stm32l4xx_hal_rtc_ex.c **** 
1944:Drivers/STM32L4xx_HAL_Driver/Src/stm32l4xx_hal_rtc_ex.c ****   /* Configure the tamper backup registers erasure bit */
1945:Drivers/STM32L4xx_HAL_Driver/Src/stm32l4xx_hal_rtc_ex.c ****   if (sTamper->NoErase != RTC_TAMPER_ERASE_BACKUP_ENABLE)
 2823              		.loc 1 1945 3 is_stmt 1 view .LVU988
 2824              		.loc 1 1945 14 is_stmt 0 view .LVU989
 2825 0038 CF68     		ldr	r7, [r1, #12]
 2826              		.loc 1 1945 6 view .LVU990
 2827 003a 07B1     		cbz	r7, .L170
ARM GAS  /tmp/cc49nhBG.s 			page 87


1946:Drivers/STM32L4xx_HAL_Driver/Src/stm32l4xx_hal_rtc_ex.c ****   {
1947:Drivers/STM32L4xx_HAL_Driver/Src/stm32l4xx_hal_rtc_ex.c ****     tmpreg |= (sTamper->Tamper << TAMP_CR2_TAMP1NOERASE_Pos);
 2828              		.loc 1 1947 5 is_stmt 1 view .LVU991
 2829              		.loc 1 1947 12 is_stmt 0 view .LVU992
 2830 003c 2343     		orrs	r3, r3, r4
 2831              	.LVL178:
 2832              	.L170:
1948:Drivers/STM32L4xx_HAL_Driver/Src/stm32l4xx_hal_rtc_ex.c ****   }
1949:Drivers/STM32L4xx_HAL_Driver/Src/stm32l4xx_hal_rtc_ex.c ****   tamp->CR2 = tmpreg;
 2833              		.loc 1 1949 3 is_stmt 1 view .LVU993
 2834              		.loc 1 1949 13 is_stmt 0 view .LVU994
 2835 003e 5360     		str	r3, [r2, #4]
1950:Drivers/STM32L4xx_HAL_Driver/Src/stm32l4xx_hal_rtc_ex.c **** 
1951:Drivers/STM32L4xx_HAL_Driver/Src/stm32l4xx_hal_rtc_ex.c ****   /* Configure filtering parameters */
1952:Drivers/STM32L4xx_HAL_Driver/Src/stm32l4xx_hal_rtc_ex.c ****   tamp->FLTCR = (sTamper->Filter) | (sTamper->SamplingFrequency) | \
 2836              		.loc 1 1952 3 is_stmt 1 view .LVU995
 2837              		.loc 1 1952 25 is_stmt 0 view .LVU996
 2838 0040 4B69     		ldr	r3, [r1, #20]
 2839              	.LVL179:
 2840              		.loc 1 1952 45 view .LVU997
 2841 0042 8C69     		ldr	r4, [r1, #24]
 2842              		.loc 1 1952 35 view .LVU998
 2843 0044 2343     		orrs	r3, r3, r4
1953:Drivers/STM32L4xx_HAL_Driver/Src/stm32l4xx_hal_rtc_ex.c ****                 (sTamper->PrechargeDuration) | (sTamper->TamperPullUp);
 2844              		.loc 1 1953 25 view .LVU999
 2845 0046 CC69     		ldr	r4, [r1, #28]
1952:Drivers/STM32L4xx_HAL_Driver/Src/stm32l4xx_hal_rtc_ex.c ****                 (sTamper->PrechargeDuration) | (sTamper->TamperPullUp);
 2846              		.loc 1 1952 66 view .LVU1000
 2847 0048 2343     		orrs	r3, r3, r4
 2848              		.loc 1 1953 56 view .LVU1001
 2849 004a 0C6A     		ldr	r4, [r1, #32]
 2850              		.loc 1 1953 46 view .LVU1002
 2851 004c 2343     		orrs	r3, r3, r4
1952:Drivers/STM32L4xx_HAL_Driver/Src/stm32l4xx_hal_rtc_ex.c ****                 (sTamper->PrechargeDuration) | (sTamper->TamperPullUp);
 2852              		.loc 1 1952 15 view .LVU1003
 2853 004e D360     		str	r3, [r2, #12]
 2854              	.LVL180:
1954:Drivers/STM32L4xx_HAL_Driver/Src/stm32l4xx_hal_rtc_ex.c **** 
1955:Drivers/STM32L4xx_HAL_Driver/Src/stm32l4xx_hal_rtc_ex.c ****   /* Configure Timestamp saving on tamper detection */
1956:Drivers/STM32L4xx_HAL_Driver/Src/stm32l4xx_hal_rtc_ex.c ****   if ((hrtc->Instance->CR & RTC_CR_TAMPTS) != (sTamper->TimeStampOnTamperDetection))
 2855              		.loc 1 1956 3 is_stmt 1 view .LVU1004
 2856              		.loc 1 1956 12 is_stmt 0 view .LVU1005
 2857 0050 0468     		ldr	r4, [r0]
 2858              		.loc 1 1956 22 view .LVU1006
 2859 0052 A369     		ldr	r3, [r4, #24]
 2860              		.loc 1 1956 27 view .LVU1007
 2861 0054 03F00073 		and	r3, r3, #33554432
 2862              		.loc 1 1956 55 view .LVU1008
 2863 0058 4F6A     		ldr	r7, [r1, #36]
 2864              		.loc 1 1956 6 view .LVU1009
 2865 005a BB42     		cmp	r3, r7
 2866 005c 0ED0     		beq	.L171
1957:Drivers/STM32L4xx_HAL_Driver/Src/stm32l4xx_hal_rtc_ex.c ****   {
1958:Drivers/STM32L4xx_HAL_Driver/Src/stm32l4xx_hal_rtc_ex.c ****     __HAL_RTC_WRITEPROTECTION_DISABLE(hrtc);
 2867              		.loc 1 1958 5 is_stmt 1 view .LVU1010
 2868              		.loc 1 1958 5 view .LVU1011
 2869 005e CA23     		movs	r3, #202
ARM GAS  /tmp/cc49nhBG.s 			page 88


 2870 0060 6362     		str	r3, [r4, #36]
 2871              		.loc 1 1958 5 view .LVU1012
 2872 0062 0368     		ldr	r3, [r0]
 2873 0064 5324     		movs	r4, #83
 2874 0066 5C62     		str	r4, [r3, #36]
 2875              		.loc 1 1958 5 view .LVU1013
1959:Drivers/STM32L4xx_HAL_Driver/Src/stm32l4xx_hal_rtc_ex.c ****     tmpreg = (hrtc->Instance->CR & ~RTC_CR_TAMPTS);
 2876              		.loc 1 1959 5 view .LVU1014
 2877              		.loc 1 1959 19 is_stmt 0 view .LVU1015
 2878 0068 0768     		ldr	r7, [r0]
 2879              		.loc 1 1959 29 view .LVU1016
 2880 006a BC69     		ldr	r4, [r7, #24]
 2881              		.loc 1 1959 12 view .LVU1017
 2882 006c 24F00074 		bic	r4, r4, #33554432
 2883              	.LVL181:
1960:Drivers/STM32L4xx_HAL_Driver/Src/stm32l4xx_hal_rtc_ex.c ****     hrtc->Instance->CR = (tmpreg | (sTamper->TimeStampOnTamperDetection));
 2884              		.loc 1 1960 5 is_stmt 1 view .LVU1018
 2885              		.loc 1 1960 44 is_stmt 0 view .LVU1019
 2886 0070 4B6A     		ldr	r3, [r1, #36]
 2887              		.loc 1 1960 34 view .LVU1020
 2888 0072 2343     		orrs	r3, r3, r4
 2889              		.loc 1 1960 24 view .LVU1021
 2890 0074 BB61     		str	r3, [r7, #24]
1961:Drivers/STM32L4xx_HAL_Driver/Src/stm32l4xx_hal_rtc_ex.c ****     __HAL_RTC_WRITEPROTECTION_ENABLE(hrtc);
 2891              		.loc 1 1961 5 is_stmt 1 view .LVU1022
 2892              		.loc 1 1961 5 view .LVU1023
 2893 0076 0368     		ldr	r3, [r0]
 2894 0078 FF20     		movs	r0, #255
 2895              	.LVL182:
 2896              		.loc 1 1961 5 is_stmt 0 view .LVU1024
 2897 007a 5862     		str	r0, [r3, #36]
 2898              	.LVL183:
 2899              	.L171:
 2900              		.loc 1 1961 5 is_stmt 1 discriminator 1 view .LVU1025
1962:Drivers/STM32L4xx_HAL_Driver/Src/stm32l4xx_hal_rtc_ex.c ****   }
1963:Drivers/STM32L4xx_HAL_Driver/Src/stm32l4xx_hal_rtc_ex.c **** 
1964:Drivers/STM32L4xx_HAL_Driver/Src/stm32l4xx_hal_rtc_ex.c ****   /* Configure RTC Tamper Interrupt: EXTI configuration */
1965:Drivers/STM32L4xx_HAL_Driver/Src/stm32l4xx_hal_rtc_ex.c ****   __HAL_RTC_TAMPER_TIMESTAMP_EXTI_ENABLE_IT();
 2901              		.loc 1 1965 3 discriminator 1 view .LVU1026
 2902 007c 0B4B     		ldr	r3, .L173
 2903 007e 1868     		ldr	r0, [r3]
 2904 0080 40F40020 		orr	r0, r0, #524288
 2905 0084 1860     		str	r0, [r3]
1966:Drivers/STM32L4xx_HAL_Driver/Src/stm32l4xx_hal_rtc_ex.c ****   __HAL_RTC_TAMPER_TIMESTAMP_EXTI_ENABLE_RISING_FALLING_EDGE();
 2906              		.loc 1 1966 3 discriminator 1 view .LVU1027
 2907              		.loc 1 1966 3 discriminator 1 view .LVU1028
 2908 0086 9868     		ldr	r0, [r3, #8]
 2909 0088 40F40020 		orr	r0, r0, #524288
 2910 008c 9860     		str	r0, [r3, #8]
 2911              		.loc 1 1966 3 discriminator 1 view .LVU1029
 2912 008e D868     		ldr	r0, [r3, #12]
 2913 0090 40F40020 		orr	r0, r0, #524288
 2914 0094 D860     		str	r0, [r3, #12]
 2915              		.loc 1 1966 3 discriminator 1 view .LVU1030
1967:Drivers/STM32L4xx_HAL_Driver/Src/stm32l4xx_hal_rtc_ex.c **** 
1968:Drivers/STM32L4xx_HAL_Driver/Src/stm32l4xx_hal_rtc_ex.c ****   /* Enable interrupt on selected tamper */
1969:Drivers/STM32L4xx_HAL_Driver/Src/stm32l4xx_hal_rtc_ex.c ****   tamp->IER |= sTamper->Tamper;
ARM GAS  /tmp/cc49nhBG.s 			page 89


 2916              		.loc 1 1969 3 discriminator 1 view .LVU1031
 2917              		.loc 1 1969 13 is_stmt 0 discriminator 1 view .LVU1032
 2918 0096 D36A     		ldr	r3, [r2, #44]
 2919              		.loc 1 1969 23 discriminator 1 view .LVU1033
 2920 0098 0868     		ldr	r0, [r1]
 2921              		.loc 1 1969 13 discriminator 1 view .LVU1034
 2922 009a 0343     		orrs	r3, r3, r0
 2923 009c D362     		str	r3, [r2, #44]
1970:Drivers/STM32L4xx_HAL_Driver/Src/stm32l4xx_hal_rtc_ex.c **** 
1971:Drivers/STM32L4xx_HAL_Driver/Src/stm32l4xx_hal_rtc_ex.c ****   /* Enable selected tamper */
1972:Drivers/STM32L4xx_HAL_Driver/Src/stm32l4xx_hal_rtc_ex.c ****   tamp->CR1 |= sTamper->Tamper;
 2924              		.loc 1 1972 3 is_stmt 1 discriminator 1 view .LVU1035
 2925              		.loc 1 1972 13 is_stmt 0 discriminator 1 view .LVU1036
 2926 009e 7359     		ldr	r3, [r6, r5]
 2927              		.loc 1 1972 23 discriminator 1 view .LVU1037
 2928 00a0 0A68     		ldr	r2, [r1]
 2929              	.LVL184:
 2930              		.loc 1 1972 13 discriminator 1 view .LVU1038
 2931 00a2 1343     		orrs	r3, r3, r2
 2932 00a4 7351     		str	r3, [r6, r5]
1973:Drivers/STM32L4xx_HAL_Driver/Src/stm32l4xx_hal_rtc_ex.c **** 
1974:Drivers/STM32L4xx_HAL_Driver/Src/stm32l4xx_hal_rtc_ex.c ****   return HAL_OK;
 2933              		.loc 1 1974 3 is_stmt 1 discriminator 1 view .LVU1039
1975:Drivers/STM32L4xx_HAL_Driver/Src/stm32l4xx_hal_rtc_ex.c **** }
 2934              		.loc 1 1975 1 is_stmt 0 discriminator 1 view .LVU1040
 2935 00a6 0020     		movs	r0, #0
 2936 00a8 BDE8F081 		pop	{r4, r5, r6, r7, r8, pc}
 2937              	.LVL185:
 2938              	.L174:
 2939              		.loc 1 1975 1 discriminator 1 view .LVU1041
 2940              		.align	2
 2941              	.L173:
 2942 00ac 00040140 		.word	1073808384
 2943              		.cfi_endproc
 2944              	.LFE160:
 2946              		.section	.text.HAL_RTCEx_DeactivateTamper,"ax",%progbits
 2947              		.align	1
 2948              		.global	HAL_RTCEx_DeactivateTamper
 2949              		.syntax unified
 2950              		.thumb
 2951              		.thumb_func
 2952              		.fpu fpv4-sp-d16
 2954              	HAL_RTCEx_DeactivateTamper:
 2955              	.LVL186:
 2956              	.LFB161:
1976:Drivers/STM32L4xx_HAL_Driver/Src/stm32l4xx_hal_rtc_ex.c **** #else /* #if defined(STM32L412xx) || defined(STM32L422xx) || defined (STM32L4P5xx) || defined (STM3
1977:Drivers/STM32L4xx_HAL_Driver/Src/stm32l4xx_hal_rtc_ex.c **** 
1978:Drivers/STM32L4xx_HAL_Driver/Src/stm32l4xx_hal_rtc_ex.c **** /**
1979:Drivers/STM32L4xx_HAL_Driver/Src/stm32l4xx_hal_rtc_ex.c ****   * @brief  Set Tamper with interrupt.
1980:Drivers/STM32L4xx_HAL_Driver/Src/stm32l4xx_hal_rtc_ex.c ****    * @param  hrtc RTC handle
1981:Drivers/STM32L4xx_HAL_Driver/Src/stm32l4xx_hal_rtc_ex.c ****   * @param  sTamper Pointer to Tamper Structure.
1982:Drivers/STM32L4xx_HAL_Driver/Src/stm32l4xx_hal_rtc_ex.c ****   * @retval HAL status
1983:Drivers/STM32L4xx_HAL_Driver/Src/stm32l4xx_hal_rtc_ex.c ****   */
1984:Drivers/STM32L4xx_HAL_Driver/Src/stm32l4xx_hal_rtc_ex.c **** HAL_StatusTypeDef HAL_RTCEx_SetTamper_IT(RTC_HandleTypeDef *hrtc, RTC_TamperTypeDef *sTamper)
1985:Drivers/STM32L4xx_HAL_Driver/Src/stm32l4xx_hal_rtc_ex.c **** {
1986:Drivers/STM32L4xx_HAL_Driver/Src/stm32l4xx_hal_rtc_ex.c ****   uint32_t tmpreg;
1987:Drivers/STM32L4xx_HAL_Driver/Src/stm32l4xx_hal_rtc_ex.c **** 
ARM GAS  /tmp/cc49nhBG.s 			page 90


1988:Drivers/STM32L4xx_HAL_Driver/Src/stm32l4xx_hal_rtc_ex.c ****   /* Check the parameters */
1989:Drivers/STM32L4xx_HAL_Driver/Src/stm32l4xx_hal_rtc_ex.c ****   assert_param(IS_RTC_TAMPER(sTamper->Tamper));
1990:Drivers/STM32L4xx_HAL_Driver/Src/stm32l4xx_hal_rtc_ex.c ****   assert_param(IS_RTC_TAMPER_INTERRUPT(sTamper->Interrupt));
1991:Drivers/STM32L4xx_HAL_Driver/Src/stm32l4xx_hal_rtc_ex.c ****   assert_param(IS_RTC_TAMPER_TRIGGER(sTamper->Trigger));
1992:Drivers/STM32L4xx_HAL_Driver/Src/stm32l4xx_hal_rtc_ex.c ****   assert_param(IS_RTC_TAMPER_ERASE_MODE(sTamper->NoErase));
1993:Drivers/STM32L4xx_HAL_Driver/Src/stm32l4xx_hal_rtc_ex.c ****   assert_param(IS_RTC_TAMPER_MASKFLAG_STATE(sTamper->MaskFlag));
1994:Drivers/STM32L4xx_HAL_Driver/Src/stm32l4xx_hal_rtc_ex.c ****   assert_param(IS_RTC_TAMPER_FILTER(sTamper->Filter));
1995:Drivers/STM32L4xx_HAL_Driver/Src/stm32l4xx_hal_rtc_ex.c ****   assert_param(IS_RTC_TAMPER_SAMPLING_FREQ(sTamper->SamplingFrequency));
1996:Drivers/STM32L4xx_HAL_Driver/Src/stm32l4xx_hal_rtc_ex.c ****   assert_param(IS_RTC_TAMPER_PRECHARGE_DURATION(sTamper->PrechargeDuration));
1997:Drivers/STM32L4xx_HAL_Driver/Src/stm32l4xx_hal_rtc_ex.c ****   assert_param(IS_RTC_TAMPER_PULLUP_STATE(sTamper->TamperPullUp));
1998:Drivers/STM32L4xx_HAL_Driver/Src/stm32l4xx_hal_rtc_ex.c ****   assert_param(IS_RTC_TAMPER_TIMESTAMPONTAMPER_DETECTION(sTamper->TimeStampOnTamperDetection));
1999:Drivers/STM32L4xx_HAL_Driver/Src/stm32l4xx_hal_rtc_ex.c **** 
2000:Drivers/STM32L4xx_HAL_Driver/Src/stm32l4xx_hal_rtc_ex.c ****   /* Process Locked */
2001:Drivers/STM32L4xx_HAL_Driver/Src/stm32l4xx_hal_rtc_ex.c ****   __HAL_LOCK(hrtc);
2002:Drivers/STM32L4xx_HAL_Driver/Src/stm32l4xx_hal_rtc_ex.c **** 
2003:Drivers/STM32L4xx_HAL_Driver/Src/stm32l4xx_hal_rtc_ex.c ****   hrtc->State = HAL_RTC_STATE_BUSY;
2004:Drivers/STM32L4xx_HAL_Driver/Src/stm32l4xx_hal_rtc_ex.c **** 
2005:Drivers/STM32L4xx_HAL_Driver/Src/stm32l4xx_hal_rtc_ex.c ****   /* Read register */
2006:Drivers/STM32L4xx_HAL_Driver/Src/stm32l4xx_hal_rtc_ex.c ****   tmpreg = hrtc->Instance->TAMPCR;
2007:Drivers/STM32L4xx_HAL_Driver/Src/stm32l4xx_hal_rtc_ex.c **** 
2008:Drivers/STM32L4xx_HAL_Driver/Src/stm32l4xx_hal_rtc_ex.c **** #if defined(RTC_TAMPER1_SUPPORT)
2009:Drivers/STM32L4xx_HAL_Driver/Src/stm32l4xx_hal_rtc_ex.c ****   if ((sTamper->Tamper & RTC_TAMPER_1) != 0)
2010:Drivers/STM32L4xx_HAL_Driver/Src/stm32l4xx_hal_rtc_ex.c ****   {
2011:Drivers/STM32L4xx_HAL_Driver/Src/stm32l4xx_hal_rtc_ex.c ****     MODIFY_REG(tmpreg,
2012:Drivers/STM32L4xx_HAL_Driver/Src/stm32l4xx_hal_rtc_ex.c ****                (RTC_TAMPCR_TAMP1E | RTC_TAMPCR_TAMP1TRG | RTC_TAMPCR_TAMPIE | RTC_TAMPCR_TAMP1IE | 
2013:Drivers/STM32L4xx_HAL_Driver/Src/stm32l4xx_hal_rtc_ex.c ****                sTamper->Tamper | sTamper->Interrupt | \
2014:Drivers/STM32L4xx_HAL_Driver/Src/stm32l4xx_hal_rtc_ex.c ****                (sTamper->Trigger == RTC_TAMPERTRIGGER_RISINGEDGE ?  0U : RTC_TAMPCR_TAMP1TRG) | \
2015:Drivers/STM32L4xx_HAL_Driver/Src/stm32l4xx_hal_rtc_ex.c ****                (sTamper->NoErase == RTC_TAMPER_ERASE_BACKUP_ENABLE ? 0U : RTC_TAMPCR_TAMP1NOERASE) 
2016:Drivers/STM32L4xx_HAL_Driver/Src/stm32l4xx_hal_rtc_ex.c ****                (sTamper->MaskFlag == RTC_TAMPERMASK_FLAG_ENABLE ? RTC_TAMPCR_TAMP1MF : 0U) \
2017:Drivers/STM32L4xx_HAL_Driver/Src/stm32l4xx_hal_rtc_ex.c ****               );
2018:Drivers/STM32L4xx_HAL_Driver/Src/stm32l4xx_hal_rtc_ex.c ****   }
2019:Drivers/STM32L4xx_HAL_Driver/Src/stm32l4xx_hal_rtc_ex.c **** #endif /* RTC_TAMPER1_SUPPORT */
2020:Drivers/STM32L4xx_HAL_Driver/Src/stm32l4xx_hal_rtc_ex.c **** 
2021:Drivers/STM32L4xx_HAL_Driver/Src/stm32l4xx_hal_rtc_ex.c **** #if defined(RTC_TAMPER2_SUPPORT)
2022:Drivers/STM32L4xx_HAL_Driver/Src/stm32l4xx_hal_rtc_ex.c ****   if ((sTamper->Tamper & RTC_TAMPER_2) != 0)
2023:Drivers/STM32L4xx_HAL_Driver/Src/stm32l4xx_hal_rtc_ex.c ****   {
2024:Drivers/STM32L4xx_HAL_Driver/Src/stm32l4xx_hal_rtc_ex.c ****     MODIFY_REG(tmpreg,
2025:Drivers/STM32L4xx_HAL_Driver/Src/stm32l4xx_hal_rtc_ex.c ****                (RTC_TAMPCR_TAMP2E | RTC_TAMPCR_TAMP2TRG | RTC_TAMPCR_TAMPIE | RTC_TAMPCR_TAMP2IE | 
2026:Drivers/STM32L4xx_HAL_Driver/Src/stm32l4xx_hal_rtc_ex.c ****                sTamper->Tamper | sTamper->Interrupt | \
2027:Drivers/STM32L4xx_HAL_Driver/Src/stm32l4xx_hal_rtc_ex.c ****                (sTamper->Trigger == RTC_TAMPERTRIGGER_RISINGEDGE ?  0U : RTC_TAMPCR_TAMP2TRG) | \
2028:Drivers/STM32L4xx_HAL_Driver/Src/stm32l4xx_hal_rtc_ex.c ****                (sTamper->NoErase == RTC_TAMPER_ERASE_BACKUP_ENABLE ? 0U : RTC_TAMPCR_TAMP2NOERASE) 
2029:Drivers/STM32L4xx_HAL_Driver/Src/stm32l4xx_hal_rtc_ex.c ****                (sTamper->MaskFlag == RTC_TAMPERMASK_FLAG_ENABLE ? RTC_TAMPCR_TAMP2MF : 0U) \
2030:Drivers/STM32L4xx_HAL_Driver/Src/stm32l4xx_hal_rtc_ex.c ****               );
2031:Drivers/STM32L4xx_HAL_Driver/Src/stm32l4xx_hal_rtc_ex.c ****   }
2032:Drivers/STM32L4xx_HAL_Driver/Src/stm32l4xx_hal_rtc_ex.c **** #endif /* RTC_TAMPER2_SUPPORT */
2033:Drivers/STM32L4xx_HAL_Driver/Src/stm32l4xx_hal_rtc_ex.c **** 
2034:Drivers/STM32L4xx_HAL_Driver/Src/stm32l4xx_hal_rtc_ex.c **** #if defined(RTC_TAMPER3_SUPPORT)
2035:Drivers/STM32L4xx_HAL_Driver/Src/stm32l4xx_hal_rtc_ex.c ****   if ((sTamper->Tamper & RTC_TAMPER_3) != 0)
2036:Drivers/STM32L4xx_HAL_Driver/Src/stm32l4xx_hal_rtc_ex.c ****   {
2037:Drivers/STM32L4xx_HAL_Driver/Src/stm32l4xx_hal_rtc_ex.c ****     MODIFY_REG(tmpreg,
2038:Drivers/STM32L4xx_HAL_Driver/Src/stm32l4xx_hal_rtc_ex.c ****                (RTC_TAMPCR_TAMP3E | RTC_TAMPCR_TAMP3TRG | RTC_TAMPCR_TAMPIE | RTC_TAMPCR_TAMP3IE | 
2039:Drivers/STM32L4xx_HAL_Driver/Src/stm32l4xx_hal_rtc_ex.c ****                sTamper->Tamper | sTamper->Interrupt | \
2040:Drivers/STM32L4xx_HAL_Driver/Src/stm32l4xx_hal_rtc_ex.c ****                (sTamper->Trigger == RTC_TAMPERTRIGGER_RISINGEDGE ?  0U : RTC_TAMPCR_TAMP3TRG) | \
2041:Drivers/STM32L4xx_HAL_Driver/Src/stm32l4xx_hal_rtc_ex.c ****                (sTamper->NoErase == RTC_TAMPER_ERASE_BACKUP_ENABLE ? 0U : RTC_TAMPCR_TAMP3NOERASE) 
2042:Drivers/STM32L4xx_HAL_Driver/Src/stm32l4xx_hal_rtc_ex.c ****                (sTamper->MaskFlag == RTC_TAMPERMASK_FLAG_ENABLE ? RTC_TAMPCR_TAMP3MF : 0U) \
2043:Drivers/STM32L4xx_HAL_Driver/Src/stm32l4xx_hal_rtc_ex.c ****               );
2044:Drivers/STM32L4xx_HAL_Driver/Src/stm32l4xx_hal_rtc_ex.c ****   }
ARM GAS  /tmp/cc49nhBG.s 			page 91


2045:Drivers/STM32L4xx_HAL_Driver/Src/stm32l4xx_hal_rtc_ex.c **** #endif /* RTC_TAMPER3_SUPPORT */
2046:Drivers/STM32L4xx_HAL_Driver/Src/stm32l4xx_hal_rtc_ex.c **** 
2047:Drivers/STM32L4xx_HAL_Driver/Src/stm32l4xx_hal_rtc_ex.c ****   /* Update common parameters */
2048:Drivers/STM32L4xx_HAL_Driver/Src/stm32l4xx_hal_rtc_ex.c ****   MODIFY_REG(tmpreg,
2049:Drivers/STM32L4xx_HAL_Driver/Src/stm32l4xx_hal_rtc_ex.c ****              (RTC_TAMPCR_TAMPTS | RTC_TAMPCR_TAMPFREQ | RTC_TAMPCR_TAMPFLT | RTC_TAMPCR_TAMPPRCH | 
2050:Drivers/STM32L4xx_HAL_Driver/Src/stm32l4xx_hal_rtc_ex.c ****              sTamper->Filter | sTamper->SamplingFrequency | sTamper->PrechargeDuration | sTamper->T
2051:Drivers/STM32L4xx_HAL_Driver/Src/stm32l4xx_hal_rtc_ex.c ****              sTamper->TimeStampOnTamperDetection \
2052:Drivers/STM32L4xx_HAL_Driver/Src/stm32l4xx_hal_rtc_ex.c ****             );
2053:Drivers/STM32L4xx_HAL_Driver/Src/stm32l4xx_hal_rtc_ex.c **** 
2054:Drivers/STM32L4xx_HAL_Driver/Src/stm32l4xx_hal_rtc_ex.c ****   /* Set register */
2055:Drivers/STM32L4xx_HAL_Driver/Src/stm32l4xx_hal_rtc_ex.c ****   WRITE_REG(hrtc->Instance->TAMPCR, tmpreg);
2056:Drivers/STM32L4xx_HAL_Driver/Src/stm32l4xx_hal_rtc_ex.c **** 
2057:Drivers/STM32L4xx_HAL_Driver/Src/stm32l4xx_hal_rtc_ex.c ****   /* RTC Tamper Interrupt Configuration: EXTI configuration */
2058:Drivers/STM32L4xx_HAL_Driver/Src/stm32l4xx_hal_rtc_ex.c ****   __HAL_RTC_TAMPER_TIMESTAMP_EXTI_ENABLE_IT();
2059:Drivers/STM32L4xx_HAL_Driver/Src/stm32l4xx_hal_rtc_ex.c ****   __HAL_RTC_TAMPER_TIMESTAMP_EXTI_ENABLE_RISING_EDGE();
2060:Drivers/STM32L4xx_HAL_Driver/Src/stm32l4xx_hal_rtc_ex.c **** 
2061:Drivers/STM32L4xx_HAL_Driver/Src/stm32l4xx_hal_rtc_ex.c ****   hrtc->State = HAL_RTC_STATE_READY;
2062:Drivers/STM32L4xx_HAL_Driver/Src/stm32l4xx_hal_rtc_ex.c **** 
2063:Drivers/STM32L4xx_HAL_Driver/Src/stm32l4xx_hal_rtc_ex.c ****   /* Process Unlocked */
2064:Drivers/STM32L4xx_HAL_Driver/Src/stm32l4xx_hal_rtc_ex.c ****   __HAL_UNLOCK(hrtc);
2065:Drivers/STM32L4xx_HAL_Driver/Src/stm32l4xx_hal_rtc_ex.c **** 
2066:Drivers/STM32L4xx_HAL_Driver/Src/stm32l4xx_hal_rtc_ex.c ****   return HAL_OK;
2067:Drivers/STM32L4xx_HAL_Driver/Src/stm32l4xx_hal_rtc_ex.c **** }
2068:Drivers/STM32L4xx_HAL_Driver/Src/stm32l4xx_hal_rtc_ex.c **** #endif /* #if defined(STM32L412xx) || defined(STM32L422xx) || defined (STM32L4P5xx) || defined (STM
2069:Drivers/STM32L4xx_HAL_Driver/Src/stm32l4xx_hal_rtc_ex.c **** 
2070:Drivers/STM32L4xx_HAL_Driver/Src/stm32l4xx_hal_rtc_ex.c **** 
2071:Drivers/STM32L4xx_HAL_Driver/Src/stm32l4xx_hal_rtc_ex.c **** #if defined(STM32L412xx) || defined(STM32L422xx) || defined (STM32L4P5xx) || defined (STM32L4Q5xx)
2072:Drivers/STM32L4xx_HAL_Driver/Src/stm32l4xx_hal_rtc_ex.c **** /**
2073:Drivers/STM32L4xx_HAL_Driver/Src/stm32l4xx_hal_rtc_ex.c ****   * @brief  Deactivate Tamper.
2074:Drivers/STM32L4xx_HAL_Driver/Src/stm32l4xx_hal_rtc_ex.c ****   * @param  hrtc RTC handle
2075:Drivers/STM32L4xx_HAL_Driver/Src/stm32l4xx_hal_rtc_ex.c ****   * @param  Tamper Selected tamper pin.
2076:Drivers/STM32L4xx_HAL_Driver/Src/stm32l4xx_hal_rtc_ex.c ****   *         This parameter can be a combination of the following values:
2077:Drivers/STM32L4xx_HAL_Driver/Src/stm32l4xx_hal_rtc_ex.c ****   *         @arg RTC_TAMPER_1
2078:Drivers/STM32L4xx_HAL_Driver/Src/stm32l4xx_hal_rtc_ex.c ****   *         @arg RTC_TAMPER_2
2079:Drivers/STM32L4xx_HAL_Driver/Src/stm32l4xx_hal_rtc_ex.c ****   * @retval HAL status
2080:Drivers/STM32L4xx_HAL_Driver/Src/stm32l4xx_hal_rtc_ex.c ****   */
2081:Drivers/STM32L4xx_HAL_Driver/Src/stm32l4xx_hal_rtc_ex.c **** HAL_StatusTypeDef HAL_RTCEx_DeactivateTamper(RTC_HandleTypeDef *hrtc, uint32_t Tamper)
2082:Drivers/STM32L4xx_HAL_Driver/Src/stm32l4xx_hal_rtc_ex.c **** {
 2957              		.loc 1 2082 1 is_stmt 1 view -0
 2958              		.cfi_startproc
 2959              		@ args = 0, pretend = 0, frame = 0
 2960              		@ frame_needed = 0, uses_anonymous_args = 0
 2961              		@ link register save eliminated.
 2962              		.loc 1 2082 1 is_stmt 0 view .LVU1043
 2963 0000 10B4     		push	{r4}
 2964              	.LCFI25:
 2965              		.cfi_def_cfa_offset 4
 2966              		.cfi_offset 4, -4
2083:Drivers/STM32L4xx_HAL_Driver/Src/stm32l4xx_hal_rtc_ex.c ****   /* Process TAMP instance pointer */
2084:Drivers/STM32L4xx_HAL_Driver/Src/stm32l4xx_hal_rtc_ex.c ****   TAMP_TypeDef *tamp = (TAMP_TypeDef *)((uint32_t)hrtc->Instance + hrtc->TampOffset);
 2967              		.loc 1 2084 3 is_stmt 1 view .LVU1044
 2968              		.loc 1 2084 55 is_stmt 0 view .LVU1045
 2969 0002 0468     		ldr	r4, [r0]
 2970              		.loc 1 2084 72 view .LVU1046
 2971 0004 4268     		ldr	r2, [r0, #4]
 2972              		.loc 1 2084 66 view .LVU1047
 2973 0006 A318     		adds	r3, r4, r2
ARM GAS  /tmp/cc49nhBG.s 			page 92


 2974              	.LVL187:
2085:Drivers/STM32L4xx_HAL_Driver/Src/stm32l4xx_hal_rtc_ex.c **** 
2086:Drivers/STM32L4xx_HAL_Driver/Src/stm32l4xx_hal_rtc_ex.c ****   assert_param(IS_RTC_TAMPER(Tamper));
 2975              		.loc 1 2086 3 is_stmt 1 view .LVU1048
2087:Drivers/STM32L4xx_HAL_Driver/Src/stm32l4xx_hal_rtc_ex.c **** 
2088:Drivers/STM32L4xx_HAL_Driver/Src/stm32l4xx_hal_rtc_ex.c ****   /* Disable the selected Tamper pin */
2089:Drivers/STM32L4xx_HAL_Driver/Src/stm32l4xx_hal_rtc_ex.c ****   tamp->CR1 &= ~Tamper;
 2976              		.loc 1 2089 3 view .LVU1049
 2977              		.loc 1 2089 13 is_stmt 0 view .LVU1050
 2978 0008 A058     		ldr	r0, [r4, r2]
 2979              	.LVL188:
 2980              		.loc 1 2089 13 view .LVU1051
 2981 000a 20EA0100 		bic	r0, r0, r1
 2982 000e A050     		str	r0, [r4, r2]
2090:Drivers/STM32L4xx_HAL_Driver/Src/stm32l4xx_hal_rtc_ex.c **** 
2091:Drivers/STM32L4xx_HAL_Driver/Src/stm32l4xx_hal_rtc_ex.c ****   /* Clear tamper mask/noerase/trigger configuration */
2092:Drivers/STM32L4xx_HAL_Driver/Src/stm32l4xx_hal_rtc_ex.c ****   tamp->CR2 &= ~((Tamper << 24) | (Tamper << 16) | Tamper);
 2983              		.loc 1 2092 3 is_stmt 1 view .LVU1052
 2984              		.loc 1 2092 13 is_stmt 0 view .LVU1053
 2985 0010 5868     		ldr	r0, [r3, #4]
 2986              		.loc 1 2092 43 view .LVU1054
 2987 0012 0A04     		lsls	r2, r1, #16
 2988              		.loc 1 2092 33 view .LVU1055
 2989 0014 42EA0162 		orr	r2, r2, r1, lsl #24
 2990              		.loc 1 2092 50 view .LVU1056
 2991 0018 0A43     		orrs	r2, r2, r1
 2992              		.loc 1 2092 13 view .LVU1057
 2993 001a 20EA0202 		bic	r2, r0, r2
 2994 001e 5A60     		str	r2, [r3, #4]
2093:Drivers/STM32L4xx_HAL_Driver/Src/stm32l4xx_hal_rtc_ex.c **** 
2094:Drivers/STM32L4xx_HAL_Driver/Src/stm32l4xx_hal_rtc_ex.c ****   /* Clear tamper interrupt mode configuration */
2095:Drivers/STM32L4xx_HAL_Driver/Src/stm32l4xx_hal_rtc_ex.c ****   tamp->IER &= ~Tamper;
 2995              		.loc 1 2095 3 is_stmt 1 view .LVU1058
 2996              		.loc 1 2095 13 is_stmt 0 view .LVU1059
 2997 0020 DA6A     		ldr	r2, [r3, #44]
 2998 0022 22EA0102 		bic	r2, r2, r1
 2999 0026 DA62     		str	r2, [r3, #44]
2096:Drivers/STM32L4xx_HAL_Driver/Src/stm32l4xx_hal_rtc_ex.c **** 
2097:Drivers/STM32L4xx_HAL_Driver/Src/stm32l4xx_hal_rtc_ex.c ****   /* Clear tamper interrupt and event flags (WO register) */
2098:Drivers/STM32L4xx_HAL_Driver/Src/stm32l4xx_hal_rtc_ex.c ****   tamp->SCR = Tamper;
 3000              		.loc 1 2098 3 is_stmt 1 view .LVU1060
 3001              		.loc 1 2098 13 is_stmt 0 view .LVU1061
 3002 0028 D963     		str	r1, [r3, #60]
2099:Drivers/STM32L4xx_HAL_Driver/Src/stm32l4xx_hal_rtc_ex.c **** 
2100:Drivers/STM32L4xx_HAL_Driver/Src/stm32l4xx_hal_rtc_ex.c ****   return HAL_OK;
 3003              		.loc 1 2100 3 is_stmt 1 view .LVU1062
2101:Drivers/STM32L4xx_HAL_Driver/Src/stm32l4xx_hal_rtc_ex.c **** }
 3004              		.loc 1 2101 1 is_stmt 0 view .LVU1063
 3005 002a 0020     		movs	r0, #0
 3006 002c 5DF8044B 		ldr	r4, [sp], #4
 3007              	.LCFI26:
 3008              		.cfi_restore 4
 3009              		.cfi_def_cfa_offset 0
 3010 0030 7047     		bx	lr
 3011              		.cfi_endproc
 3012              	.LFE161:
 3014              		.section	.text.HAL_RTCEx_PollForTamper1Event,"ax",%progbits
ARM GAS  /tmp/cc49nhBG.s 			page 93


 3015              		.align	1
 3016              		.global	HAL_RTCEx_PollForTamper1Event
 3017              		.syntax unified
 3018              		.thumb
 3019              		.thumb_func
 3020              		.fpu fpv4-sp-d16
 3022              	HAL_RTCEx_PollForTamper1Event:
 3023              	.LVL189:
 3024              	.LFB162:
2102:Drivers/STM32L4xx_HAL_Driver/Src/stm32l4xx_hal_rtc_ex.c **** #else /* #if defined(STM32L412xx) || defined(STM32L422xx) || defined (STM32L4P5xx) || defined (STM3
2103:Drivers/STM32L4xx_HAL_Driver/Src/stm32l4xx_hal_rtc_ex.c **** /**
2104:Drivers/STM32L4xx_HAL_Driver/Src/stm32l4xx_hal_rtc_ex.c ****   * @brief  Deactivate Tamper.
2105:Drivers/STM32L4xx_HAL_Driver/Src/stm32l4xx_hal_rtc_ex.c ****   * @param  hrtc RTC handle
2106:Drivers/STM32L4xx_HAL_Driver/Src/stm32l4xx_hal_rtc_ex.c ****   * @param  Tamper Selected tamper pin.
2107:Drivers/STM32L4xx_HAL_Driver/Src/stm32l4xx_hal_rtc_ex.c ****   *         This parameter can be any combination of the following values:
2108:Drivers/STM32L4xx_HAL_Driver/Src/stm32l4xx_hal_rtc_ex.c ****   *         @arg RTC_TAMPER_1
2109:Drivers/STM32L4xx_HAL_Driver/Src/stm32l4xx_hal_rtc_ex.c ****   *         @arg RTC_TAMPER_2
2110:Drivers/STM32L4xx_HAL_Driver/Src/stm32l4xx_hal_rtc_ex.c ****   *         @arg RTC_TAMPER_3
2111:Drivers/STM32L4xx_HAL_Driver/Src/stm32l4xx_hal_rtc_ex.c ****   * @retval HAL status
2112:Drivers/STM32L4xx_HAL_Driver/Src/stm32l4xx_hal_rtc_ex.c ****   */
2113:Drivers/STM32L4xx_HAL_Driver/Src/stm32l4xx_hal_rtc_ex.c **** HAL_StatusTypeDef HAL_RTCEx_DeactivateTamper(RTC_HandleTypeDef *hrtc, uint32_t Tamper)
2114:Drivers/STM32L4xx_HAL_Driver/Src/stm32l4xx_hal_rtc_ex.c **** {
2115:Drivers/STM32L4xx_HAL_Driver/Src/stm32l4xx_hal_rtc_ex.c ****   assert_param(IS_RTC_TAMPER(Tamper));
2116:Drivers/STM32L4xx_HAL_Driver/Src/stm32l4xx_hal_rtc_ex.c **** 
2117:Drivers/STM32L4xx_HAL_Driver/Src/stm32l4xx_hal_rtc_ex.c ****   /* Process Locked */
2118:Drivers/STM32L4xx_HAL_Driver/Src/stm32l4xx_hal_rtc_ex.c ****   __HAL_LOCK(hrtc);
2119:Drivers/STM32L4xx_HAL_Driver/Src/stm32l4xx_hal_rtc_ex.c **** 
2120:Drivers/STM32L4xx_HAL_Driver/Src/stm32l4xx_hal_rtc_ex.c ****   hrtc->State = HAL_RTC_STATE_BUSY;
2121:Drivers/STM32L4xx_HAL_Driver/Src/stm32l4xx_hal_rtc_ex.c **** 
2122:Drivers/STM32L4xx_HAL_Driver/Src/stm32l4xx_hal_rtc_ex.c ****   /* Disable the selected Tamper pin */
2123:Drivers/STM32L4xx_HAL_Driver/Src/stm32l4xx_hal_rtc_ex.c ****   hrtc->Instance->TAMPCR &= ~Tamper;
2124:Drivers/STM32L4xx_HAL_Driver/Src/stm32l4xx_hal_rtc_ex.c **** 
2125:Drivers/STM32L4xx_HAL_Driver/Src/stm32l4xx_hal_rtc_ex.c **** #if defined(RTC_TAMPER1_SUPPORT)
2126:Drivers/STM32L4xx_HAL_Driver/Src/stm32l4xx_hal_rtc_ex.c ****   if ((Tamper & RTC_TAMPER_1) != 0U)
2127:Drivers/STM32L4xx_HAL_Driver/Src/stm32l4xx_hal_rtc_ex.c ****   {
2128:Drivers/STM32L4xx_HAL_Driver/Src/stm32l4xx_hal_rtc_ex.c ****     /* Disable the Tamper1 interrupt */
2129:Drivers/STM32L4xx_HAL_Driver/Src/stm32l4xx_hal_rtc_ex.c ****     hrtc->Instance->TAMPCR &= ((uint32_t)~(RTC_IT_TAMP | RTC_IT_TAMP1));
2130:Drivers/STM32L4xx_HAL_Driver/Src/stm32l4xx_hal_rtc_ex.c ****   }
2131:Drivers/STM32L4xx_HAL_Driver/Src/stm32l4xx_hal_rtc_ex.c **** #endif /* RTC_TAMPER1_SUPPORT */
2132:Drivers/STM32L4xx_HAL_Driver/Src/stm32l4xx_hal_rtc_ex.c ****   if ((Tamper & RTC_TAMPER_2) != 0U)
2133:Drivers/STM32L4xx_HAL_Driver/Src/stm32l4xx_hal_rtc_ex.c ****   {
2134:Drivers/STM32L4xx_HAL_Driver/Src/stm32l4xx_hal_rtc_ex.c ****     /* Disable the Tamper2 interrupt */
2135:Drivers/STM32L4xx_HAL_Driver/Src/stm32l4xx_hal_rtc_ex.c ****     hrtc->Instance->TAMPCR &= ((uint32_t)~(RTC_IT_TAMP | RTC_IT_TAMP2));
2136:Drivers/STM32L4xx_HAL_Driver/Src/stm32l4xx_hal_rtc_ex.c ****   }
2137:Drivers/STM32L4xx_HAL_Driver/Src/stm32l4xx_hal_rtc_ex.c **** #if defined(RTC_TAMPER3_SUPPORT)
2138:Drivers/STM32L4xx_HAL_Driver/Src/stm32l4xx_hal_rtc_ex.c ****   if ((Tamper & RTC_TAMPER_3) != 0U)
2139:Drivers/STM32L4xx_HAL_Driver/Src/stm32l4xx_hal_rtc_ex.c ****   {
2140:Drivers/STM32L4xx_HAL_Driver/Src/stm32l4xx_hal_rtc_ex.c ****     /* Disable the Tamper3 interrupt */
2141:Drivers/STM32L4xx_HAL_Driver/Src/stm32l4xx_hal_rtc_ex.c ****     hrtc->Instance->TAMPCR &= ((uint32_t)~(RTC_IT_TAMP | RTC_IT_TAMP3));
2142:Drivers/STM32L4xx_HAL_Driver/Src/stm32l4xx_hal_rtc_ex.c ****   }
2143:Drivers/STM32L4xx_HAL_Driver/Src/stm32l4xx_hal_rtc_ex.c **** #endif /* RTC_TAMPER3_SUPPORT */
2144:Drivers/STM32L4xx_HAL_Driver/Src/stm32l4xx_hal_rtc_ex.c **** 
2145:Drivers/STM32L4xx_HAL_Driver/Src/stm32l4xx_hal_rtc_ex.c ****   hrtc->State = HAL_RTC_STATE_READY;
2146:Drivers/STM32L4xx_HAL_Driver/Src/stm32l4xx_hal_rtc_ex.c **** 
2147:Drivers/STM32L4xx_HAL_Driver/Src/stm32l4xx_hal_rtc_ex.c ****   /* Process Unlocked */
2148:Drivers/STM32L4xx_HAL_Driver/Src/stm32l4xx_hal_rtc_ex.c ****   __HAL_UNLOCK(hrtc);
2149:Drivers/STM32L4xx_HAL_Driver/Src/stm32l4xx_hal_rtc_ex.c **** 
ARM GAS  /tmp/cc49nhBG.s 			page 94


2150:Drivers/STM32L4xx_HAL_Driver/Src/stm32l4xx_hal_rtc_ex.c ****   return HAL_OK;
2151:Drivers/STM32L4xx_HAL_Driver/Src/stm32l4xx_hal_rtc_ex.c **** }
2152:Drivers/STM32L4xx_HAL_Driver/Src/stm32l4xx_hal_rtc_ex.c **** #endif /* #if defined(STM32L412xx) || defined(STM32L422xx) || defined (STM32L4P5xx) || defined (STM
2153:Drivers/STM32L4xx_HAL_Driver/Src/stm32l4xx_hal_rtc_ex.c **** 
2154:Drivers/STM32L4xx_HAL_Driver/Src/stm32l4xx_hal_rtc_ex.c **** 
2155:Drivers/STM32L4xx_HAL_Driver/Src/stm32l4xx_hal_rtc_ex.c **** #if defined(RTC_TAMPER1_SUPPORT)
2156:Drivers/STM32L4xx_HAL_Driver/Src/stm32l4xx_hal_rtc_ex.c **** /**
2157:Drivers/STM32L4xx_HAL_Driver/Src/stm32l4xx_hal_rtc_ex.c ****   * @brief  Handle Tamper 1 Polling.
2158:Drivers/STM32L4xx_HAL_Driver/Src/stm32l4xx_hal_rtc_ex.c ****   * @param  hrtc RTC handle
2159:Drivers/STM32L4xx_HAL_Driver/Src/stm32l4xx_hal_rtc_ex.c ****   * @param  Timeout Timeout duration
2160:Drivers/STM32L4xx_HAL_Driver/Src/stm32l4xx_hal_rtc_ex.c ****   * @retval HAL status
2161:Drivers/STM32L4xx_HAL_Driver/Src/stm32l4xx_hal_rtc_ex.c ****   */
2162:Drivers/STM32L4xx_HAL_Driver/Src/stm32l4xx_hal_rtc_ex.c **** HAL_StatusTypeDef HAL_RTCEx_PollForTamper1Event(RTC_HandleTypeDef *hrtc, uint32_t Timeout)
2163:Drivers/STM32L4xx_HAL_Driver/Src/stm32l4xx_hal_rtc_ex.c **** {
 3025              		.loc 1 2163 1 is_stmt 1 view -0
 3026              		.cfi_startproc
 3027              		@ args = 0, pretend = 0, frame = 0
 3028              		@ frame_needed = 0, uses_anonymous_args = 0
 3029              		.loc 1 2163 1 is_stmt 0 view .LVU1065
 3030 0000 70B5     		push	{r4, r5, r6, lr}
 3031              	.LCFI27:
 3032              		.cfi_def_cfa_offset 16
 3033              		.cfi_offset 4, -16
 3034              		.cfi_offset 5, -12
 3035              		.cfi_offset 6, -8
 3036              		.cfi_offset 14, -4
 3037 0002 0446     		mov	r4, r0
 3038 0004 0D46     		mov	r5, r1
2164:Drivers/STM32L4xx_HAL_Driver/Src/stm32l4xx_hal_rtc_ex.c ****   uint32_t tickstart = HAL_GetTick();
 3039              		.loc 1 2164 3 is_stmt 1 view .LVU1066
 3040              		.loc 1 2164 24 is_stmt 0 view .LVU1067
 3041 0006 FFF7FEFF 		bl	HAL_GetTick
 3042              	.LVL190:
 3043              		.loc 1 2164 24 view .LVU1068
 3044 000a 0646     		mov	r6, r0
 3045              	.LVL191:
2165:Drivers/STM32L4xx_HAL_Driver/Src/stm32l4xx_hal_rtc_ex.c **** 
2166:Drivers/STM32L4xx_HAL_Driver/Src/stm32l4xx_hal_rtc_ex.c ****   /* Get the status of the Interrupt */
2167:Drivers/STM32L4xx_HAL_Driver/Src/stm32l4xx_hal_rtc_ex.c ****   while (__HAL_RTC_TAMPER_GET_FLAG(hrtc, RTC_FLAG_TAMP1F) == 0U)
 3046              		.loc 1 2167 3 is_stmt 1 view .LVU1069
 3047              	.L179:
 3048              		.loc 1 2167 9 view .LVU1070
 3049              		.loc 1 2167 10 is_stmt 0 view .LVU1071
 3050 000c 2368     		ldr	r3, [r4]
 3051 000e 6268     		ldr	r2, [r4, #4]
 3052 0010 1344     		add	r3, r3, r2
 3053 0012 1A6B     		ldr	r2, [r3, #48]
 3054              		.loc 1 2167 9 view .LVU1072
 3055 0014 12F0010F 		tst	r2, #1
 3056 0018 0DD1     		bne	.L184
2168:Drivers/STM32L4xx_HAL_Driver/Src/stm32l4xx_hal_rtc_ex.c ****   {
2169:Drivers/STM32L4xx_HAL_Driver/Src/stm32l4xx_hal_rtc_ex.c ****     if (Timeout != HAL_MAX_DELAY)
 3057              		.loc 1 2169 5 is_stmt 1 view .LVU1073
 3058              		.loc 1 2169 8 is_stmt 0 view .LVU1074
 3059 001a B5F1FF3F 		cmp	r5, #-1
 3060 001e F5D0     		beq	.L179
2170:Drivers/STM32L4xx_HAL_Driver/Src/stm32l4xx_hal_rtc_ex.c ****     {
ARM GAS  /tmp/cc49nhBG.s 			page 95


2171:Drivers/STM32L4xx_HAL_Driver/Src/stm32l4xx_hal_rtc_ex.c ****       if (((HAL_GetTick() - tickstart) > Timeout) || (Timeout == 0U))
 3061              		.loc 1 2171 7 is_stmt 1 view .LVU1075
 3062              		.loc 1 2171 13 is_stmt 0 view .LVU1076
 3063 0020 FFF7FEFF 		bl	HAL_GetTick
 3064              	.LVL192:
 3065              		.loc 1 2171 27 view .LVU1077
 3066 0024 801B     		subs	r0, r0, r6
 3067              		.loc 1 2171 10 view .LVU1078
 3068 0026 A842     		cmp	r0, r5
 3069 0028 01D8     		bhi	.L180
 3070              		.loc 1 2171 51 discriminator 1 view .LVU1079
 3071 002a 002D     		cmp	r5, #0
 3072 002c EED1     		bne	.L179
 3073              	.L180:
2172:Drivers/STM32L4xx_HAL_Driver/Src/stm32l4xx_hal_rtc_ex.c ****       {
2173:Drivers/STM32L4xx_HAL_Driver/Src/stm32l4xx_hal_rtc_ex.c ****         hrtc->State = HAL_RTC_STATE_TIMEOUT;
 3074              		.loc 1 2173 9 is_stmt 1 view .LVU1080
 3075              		.loc 1 2173 21 is_stmt 0 view .LVU1081
 3076 002e 0320     		movs	r0, #3
 3077 0030 84F82900 		strb	r0, [r4, #41]
2174:Drivers/STM32L4xx_HAL_Driver/Src/stm32l4xx_hal_rtc_ex.c ****         return HAL_TIMEOUT;
 3078              		.loc 1 2174 9 is_stmt 1 view .LVU1082
 3079              		.loc 1 2174 16 is_stmt 0 view .LVU1083
 3080 0034 04E0     		b	.L181
 3081              	.L184:
2175:Drivers/STM32L4xx_HAL_Driver/Src/stm32l4xx_hal_rtc_ex.c ****       }
2176:Drivers/STM32L4xx_HAL_Driver/Src/stm32l4xx_hal_rtc_ex.c ****     }
2177:Drivers/STM32L4xx_HAL_Driver/Src/stm32l4xx_hal_rtc_ex.c ****   }
2178:Drivers/STM32L4xx_HAL_Driver/Src/stm32l4xx_hal_rtc_ex.c **** 
2179:Drivers/STM32L4xx_HAL_Driver/Src/stm32l4xx_hal_rtc_ex.c ****   /* Clear the Tamper Flag */
2180:Drivers/STM32L4xx_HAL_Driver/Src/stm32l4xx_hal_rtc_ex.c ****   __HAL_RTC_TAMPER_CLEAR_FLAG(hrtc, RTC_FLAG_TAMP1F);
 3082              		.loc 1 2180 3 is_stmt 1 view .LVU1084
 3083 0036 0122     		movs	r2, #1
 3084 0038 DA63     		str	r2, [r3, #60]
2181:Drivers/STM32L4xx_HAL_Driver/Src/stm32l4xx_hal_rtc_ex.c **** 
2182:Drivers/STM32L4xx_HAL_Driver/Src/stm32l4xx_hal_rtc_ex.c ****   /* Change RTC state */
2183:Drivers/STM32L4xx_HAL_Driver/Src/stm32l4xx_hal_rtc_ex.c ****   hrtc->State = HAL_RTC_STATE_READY;
 3085              		.loc 1 2183 3 view .LVU1085
 3086              		.loc 1 2183 15 is_stmt 0 view .LVU1086
 3087 003a 84F82920 		strb	r2, [r4, #41]
2184:Drivers/STM32L4xx_HAL_Driver/Src/stm32l4xx_hal_rtc_ex.c **** 
2185:Drivers/STM32L4xx_HAL_Driver/Src/stm32l4xx_hal_rtc_ex.c ****   return HAL_OK;
 3088              		.loc 1 2185 3 is_stmt 1 view .LVU1087
 3089              		.loc 1 2185 10 is_stmt 0 view .LVU1088
 3090 003e 0020     		movs	r0, #0
 3091              	.L181:
2186:Drivers/STM32L4xx_HAL_Driver/Src/stm32l4xx_hal_rtc_ex.c **** }
 3092              		.loc 1 2186 1 view .LVU1089
 3093 0040 70BD     		pop	{r4, r5, r6, pc}
 3094              		.loc 1 2186 1 view .LVU1090
 3095              		.cfi_endproc
 3096              	.LFE162:
 3098              		.section	.text.HAL_RTCEx_PollForTamper2Event,"ax",%progbits
 3099              		.align	1
 3100              		.global	HAL_RTCEx_PollForTamper2Event
 3101              		.syntax unified
 3102              		.thumb
ARM GAS  /tmp/cc49nhBG.s 			page 96


 3103              		.thumb_func
 3104              		.fpu fpv4-sp-d16
 3106              	HAL_RTCEx_PollForTamper2Event:
 3107              	.LVL193:
 3108              	.LFB163:
2187:Drivers/STM32L4xx_HAL_Driver/Src/stm32l4xx_hal_rtc_ex.c **** #endif /* RTC_TAMPER1_SUPPORT */
2188:Drivers/STM32L4xx_HAL_Driver/Src/stm32l4xx_hal_rtc_ex.c **** 
2189:Drivers/STM32L4xx_HAL_Driver/Src/stm32l4xx_hal_rtc_ex.c **** /**
2190:Drivers/STM32L4xx_HAL_Driver/Src/stm32l4xx_hal_rtc_ex.c ****   * @brief  Handle Tamper 2 Polling.
2191:Drivers/STM32L4xx_HAL_Driver/Src/stm32l4xx_hal_rtc_ex.c ****   * @param  hrtc RTC handle
2192:Drivers/STM32L4xx_HAL_Driver/Src/stm32l4xx_hal_rtc_ex.c ****   * @param  Timeout Timeout duration
2193:Drivers/STM32L4xx_HAL_Driver/Src/stm32l4xx_hal_rtc_ex.c ****   * @retval HAL status
2194:Drivers/STM32L4xx_HAL_Driver/Src/stm32l4xx_hal_rtc_ex.c ****   */
2195:Drivers/STM32L4xx_HAL_Driver/Src/stm32l4xx_hal_rtc_ex.c **** HAL_StatusTypeDef HAL_RTCEx_PollForTamper2Event(RTC_HandleTypeDef *hrtc, uint32_t Timeout)
2196:Drivers/STM32L4xx_HAL_Driver/Src/stm32l4xx_hal_rtc_ex.c **** {
 3109              		.loc 1 2196 1 is_stmt 1 view -0
 3110              		.cfi_startproc
 3111              		@ args = 0, pretend = 0, frame = 0
 3112              		@ frame_needed = 0, uses_anonymous_args = 0
 3113              		.loc 1 2196 1 is_stmt 0 view .LVU1092
 3114 0000 70B5     		push	{r4, r5, r6, lr}
 3115              	.LCFI28:
 3116              		.cfi_def_cfa_offset 16
 3117              		.cfi_offset 4, -16
 3118              		.cfi_offset 5, -12
 3119              		.cfi_offset 6, -8
 3120              		.cfi_offset 14, -4
 3121 0002 0446     		mov	r4, r0
 3122 0004 0D46     		mov	r5, r1
2197:Drivers/STM32L4xx_HAL_Driver/Src/stm32l4xx_hal_rtc_ex.c ****   uint32_t tickstart = HAL_GetTick();
 3123              		.loc 1 2197 3 is_stmt 1 view .LVU1093
 3124              		.loc 1 2197 24 is_stmt 0 view .LVU1094
 3125 0006 FFF7FEFF 		bl	HAL_GetTick
 3126              	.LVL194:
 3127              		.loc 1 2197 24 view .LVU1095
 3128 000a 0646     		mov	r6, r0
 3129              	.LVL195:
2198:Drivers/STM32L4xx_HAL_Driver/Src/stm32l4xx_hal_rtc_ex.c **** 
2199:Drivers/STM32L4xx_HAL_Driver/Src/stm32l4xx_hal_rtc_ex.c ****   /* Get the status of the Interrupt */
2200:Drivers/STM32L4xx_HAL_Driver/Src/stm32l4xx_hal_rtc_ex.c ****   while (__HAL_RTC_TAMPER_GET_FLAG(hrtc, RTC_FLAG_TAMP2F) == 0U)
 3130              		.loc 1 2200 3 is_stmt 1 view .LVU1096
 3131              	.L187:
 3132              		.loc 1 2200 9 view .LVU1097
 3133              		.loc 1 2200 10 is_stmt 0 view .LVU1098
 3134 000c 2368     		ldr	r3, [r4]
 3135 000e 6268     		ldr	r2, [r4, #4]
 3136 0010 1344     		add	r3, r3, r2
 3137 0012 1A6B     		ldr	r2, [r3, #48]
 3138              		.loc 1 2200 9 view .LVU1099
 3139 0014 12F0020F 		tst	r2, #2
 3140 0018 0DD1     		bne	.L192
2201:Drivers/STM32L4xx_HAL_Driver/Src/stm32l4xx_hal_rtc_ex.c ****   {
2202:Drivers/STM32L4xx_HAL_Driver/Src/stm32l4xx_hal_rtc_ex.c ****     if (Timeout != HAL_MAX_DELAY)
 3141              		.loc 1 2202 5 is_stmt 1 view .LVU1100
 3142              		.loc 1 2202 8 is_stmt 0 view .LVU1101
 3143 001a B5F1FF3F 		cmp	r5, #-1
 3144 001e F5D0     		beq	.L187
ARM GAS  /tmp/cc49nhBG.s 			page 97


2203:Drivers/STM32L4xx_HAL_Driver/Src/stm32l4xx_hal_rtc_ex.c ****     {
2204:Drivers/STM32L4xx_HAL_Driver/Src/stm32l4xx_hal_rtc_ex.c ****       if (((HAL_GetTick() - tickstart) > Timeout) || (Timeout == 0U))
 3145              		.loc 1 2204 7 is_stmt 1 view .LVU1102
 3146              		.loc 1 2204 13 is_stmt 0 view .LVU1103
 3147 0020 FFF7FEFF 		bl	HAL_GetTick
 3148              	.LVL196:
 3149              		.loc 1 2204 27 view .LVU1104
 3150 0024 801B     		subs	r0, r0, r6
 3151              		.loc 1 2204 10 view .LVU1105
 3152 0026 A842     		cmp	r0, r5
 3153 0028 01D8     		bhi	.L188
 3154              		.loc 1 2204 51 discriminator 1 view .LVU1106
 3155 002a 002D     		cmp	r5, #0
 3156 002c EED1     		bne	.L187
 3157              	.L188:
2205:Drivers/STM32L4xx_HAL_Driver/Src/stm32l4xx_hal_rtc_ex.c ****       {
2206:Drivers/STM32L4xx_HAL_Driver/Src/stm32l4xx_hal_rtc_ex.c ****         hrtc->State = HAL_RTC_STATE_TIMEOUT;
 3158              		.loc 1 2206 9 is_stmt 1 view .LVU1107
 3159              		.loc 1 2206 21 is_stmt 0 view .LVU1108
 3160 002e 0320     		movs	r0, #3
 3161 0030 84F82900 		strb	r0, [r4, #41]
2207:Drivers/STM32L4xx_HAL_Driver/Src/stm32l4xx_hal_rtc_ex.c ****         return HAL_TIMEOUT;
 3162              		.loc 1 2207 9 is_stmt 1 view .LVU1109
 3163              		.loc 1 2207 16 is_stmt 0 view .LVU1110
 3164 0034 05E0     		b	.L189
 3165              	.L192:
2208:Drivers/STM32L4xx_HAL_Driver/Src/stm32l4xx_hal_rtc_ex.c ****       }
2209:Drivers/STM32L4xx_HAL_Driver/Src/stm32l4xx_hal_rtc_ex.c ****     }
2210:Drivers/STM32L4xx_HAL_Driver/Src/stm32l4xx_hal_rtc_ex.c ****   }
2211:Drivers/STM32L4xx_HAL_Driver/Src/stm32l4xx_hal_rtc_ex.c **** 
2212:Drivers/STM32L4xx_HAL_Driver/Src/stm32l4xx_hal_rtc_ex.c ****   /* Clear the Tamper Flag */
2213:Drivers/STM32L4xx_HAL_Driver/Src/stm32l4xx_hal_rtc_ex.c ****   __HAL_RTC_TAMPER_CLEAR_FLAG(hrtc, RTC_FLAG_TAMP2F);
 3166              		.loc 1 2213 3 is_stmt 1 view .LVU1111
 3167 0036 0222     		movs	r2, #2
 3168 0038 DA63     		str	r2, [r3, #60]
2214:Drivers/STM32L4xx_HAL_Driver/Src/stm32l4xx_hal_rtc_ex.c **** 
2215:Drivers/STM32L4xx_HAL_Driver/Src/stm32l4xx_hal_rtc_ex.c ****   /* Change RTC state */
2216:Drivers/STM32L4xx_HAL_Driver/Src/stm32l4xx_hal_rtc_ex.c ****   hrtc->State = HAL_RTC_STATE_READY;
 3169              		.loc 1 2216 3 view .LVU1112
 3170              		.loc 1 2216 15 is_stmt 0 view .LVU1113
 3171 003a 0123     		movs	r3, #1
 3172 003c 84F82930 		strb	r3, [r4, #41]
2217:Drivers/STM32L4xx_HAL_Driver/Src/stm32l4xx_hal_rtc_ex.c **** 
2218:Drivers/STM32L4xx_HAL_Driver/Src/stm32l4xx_hal_rtc_ex.c ****   return HAL_OK;
 3173              		.loc 1 2218 3 is_stmt 1 view .LVU1114
 3174              		.loc 1 2218 10 is_stmt 0 view .LVU1115
 3175 0040 0020     		movs	r0, #0
 3176              	.L189:
2219:Drivers/STM32L4xx_HAL_Driver/Src/stm32l4xx_hal_rtc_ex.c **** }
 3177              		.loc 1 2219 1 view .LVU1116
 3178 0042 70BD     		pop	{r4, r5, r6, pc}
 3179              		.loc 1 2219 1 view .LVU1117
 3180              		.cfi_endproc
 3181              	.LFE163:
 3183              		.section	.text.HAL_RTCEx_Tamper1EventCallback,"ax",%progbits
 3184              		.align	1
 3185              		.weak	HAL_RTCEx_Tamper1EventCallback
ARM GAS  /tmp/cc49nhBG.s 			page 98


 3186              		.syntax unified
 3187              		.thumb
 3188              		.thumb_func
 3189              		.fpu fpv4-sp-d16
 3191              	HAL_RTCEx_Tamper1EventCallback:
 3192              	.LVL197:
 3193              	.LFB164:
2220:Drivers/STM32L4xx_HAL_Driver/Src/stm32l4xx_hal_rtc_ex.c **** 
2221:Drivers/STM32L4xx_HAL_Driver/Src/stm32l4xx_hal_rtc_ex.c **** #if defined(RTC_TAMPER3_SUPPORT)
2222:Drivers/STM32L4xx_HAL_Driver/Src/stm32l4xx_hal_rtc_ex.c **** /**
2223:Drivers/STM32L4xx_HAL_Driver/Src/stm32l4xx_hal_rtc_ex.c ****   * @brief  Handle Tamper 3 Polling.
2224:Drivers/STM32L4xx_HAL_Driver/Src/stm32l4xx_hal_rtc_ex.c ****   * @param  hrtc  RTC handle
2225:Drivers/STM32L4xx_HAL_Driver/Src/stm32l4xx_hal_rtc_ex.c ****   * @param  Timeout  Timeout duration
2226:Drivers/STM32L4xx_HAL_Driver/Src/stm32l4xx_hal_rtc_ex.c ****   * @retval HAL status
2227:Drivers/STM32L4xx_HAL_Driver/Src/stm32l4xx_hal_rtc_ex.c ****   */
2228:Drivers/STM32L4xx_HAL_Driver/Src/stm32l4xx_hal_rtc_ex.c **** HAL_StatusTypeDef HAL_RTCEx_PollForTamper3Event(RTC_HandleTypeDef *hrtc, uint32_t Timeout)
2229:Drivers/STM32L4xx_HAL_Driver/Src/stm32l4xx_hal_rtc_ex.c **** {
2230:Drivers/STM32L4xx_HAL_Driver/Src/stm32l4xx_hal_rtc_ex.c ****   uint32_t tickstart = HAL_GetTick();
2231:Drivers/STM32L4xx_HAL_Driver/Src/stm32l4xx_hal_rtc_ex.c **** 
2232:Drivers/STM32L4xx_HAL_Driver/Src/stm32l4xx_hal_rtc_ex.c ****   /* Get the status of the Interrupt */
2233:Drivers/STM32L4xx_HAL_Driver/Src/stm32l4xx_hal_rtc_ex.c ****   while (__HAL_RTC_TAMPER_GET_FLAG(hrtc, RTC_FLAG_TAMP3F) == 0U)
2234:Drivers/STM32L4xx_HAL_Driver/Src/stm32l4xx_hal_rtc_ex.c ****   {
2235:Drivers/STM32L4xx_HAL_Driver/Src/stm32l4xx_hal_rtc_ex.c ****     if (Timeout != HAL_MAX_DELAY)
2236:Drivers/STM32L4xx_HAL_Driver/Src/stm32l4xx_hal_rtc_ex.c ****     {
2237:Drivers/STM32L4xx_HAL_Driver/Src/stm32l4xx_hal_rtc_ex.c ****       if ((Timeout == 0) || ((HAL_GetTick() - tickstart) > Timeout))
2238:Drivers/STM32L4xx_HAL_Driver/Src/stm32l4xx_hal_rtc_ex.c ****       {
2239:Drivers/STM32L4xx_HAL_Driver/Src/stm32l4xx_hal_rtc_ex.c ****         hrtc->State = HAL_RTC_STATE_TIMEOUT;
2240:Drivers/STM32L4xx_HAL_Driver/Src/stm32l4xx_hal_rtc_ex.c ****         return HAL_TIMEOUT;
2241:Drivers/STM32L4xx_HAL_Driver/Src/stm32l4xx_hal_rtc_ex.c ****       }
2242:Drivers/STM32L4xx_HAL_Driver/Src/stm32l4xx_hal_rtc_ex.c ****     }
2243:Drivers/STM32L4xx_HAL_Driver/Src/stm32l4xx_hal_rtc_ex.c ****   }
2244:Drivers/STM32L4xx_HAL_Driver/Src/stm32l4xx_hal_rtc_ex.c **** 
2245:Drivers/STM32L4xx_HAL_Driver/Src/stm32l4xx_hal_rtc_ex.c ****   /* Clear the Tamper Flag */
2246:Drivers/STM32L4xx_HAL_Driver/Src/stm32l4xx_hal_rtc_ex.c ****   __HAL_RTC_TAMPER_CLEAR_FLAG(hrtc, RTC_FLAG_TAMP3F);
2247:Drivers/STM32L4xx_HAL_Driver/Src/stm32l4xx_hal_rtc_ex.c **** 
2248:Drivers/STM32L4xx_HAL_Driver/Src/stm32l4xx_hal_rtc_ex.c ****   /* Change RTC state */
2249:Drivers/STM32L4xx_HAL_Driver/Src/stm32l4xx_hal_rtc_ex.c ****   hrtc->State = HAL_RTC_STATE_READY;
2250:Drivers/STM32L4xx_HAL_Driver/Src/stm32l4xx_hal_rtc_ex.c **** 
2251:Drivers/STM32L4xx_HAL_Driver/Src/stm32l4xx_hal_rtc_ex.c ****   return HAL_OK;
2252:Drivers/STM32L4xx_HAL_Driver/Src/stm32l4xx_hal_rtc_ex.c **** }
2253:Drivers/STM32L4xx_HAL_Driver/Src/stm32l4xx_hal_rtc_ex.c **** #endif /* RTC_TAMPER3_SUPPORT */
2254:Drivers/STM32L4xx_HAL_Driver/Src/stm32l4xx_hal_rtc_ex.c **** 
2255:Drivers/STM32L4xx_HAL_Driver/Src/stm32l4xx_hal_rtc_ex.c **** 
2256:Drivers/STM32L4xx_HAL_Driver/Src/stm32l4xx_hal_rtc_ex.c **** 
2257:Drivers/STM32L4xx_HAL_Driver/Src/stm32l4xx_hal_rtc_ex.c **** #if defined(RTC_TAMPER1_SUPPORT)
2258:Drivers/STM32L4xx_HAL_Driver/Src/stm32l4xx_hal_rtc_ex.c **** /**
2259:Drivers/STM32L4xx_HAL_Driver/Src/stm32l4xx_hal_rtc_ex.c ****   * @brief  Tamper 1 callback.
2260:Drivers/STM32L4xx_HAL_Driver/Src/stm32l4xx_hal_rtc_ex.c ****   * @param  hrtc RTC handle
2261:Drivers/STM32L4xx_HAL_Driver/Src/stm32l4xx_hal_rtc_ex.c ****   * @retval None
2262:Drivers/STM32L4xx_HAL_Driver/Src/stm32l4xx_hal_rtc_ex.c ****   */
2263:Drivers/STM32L4xx_HAL_Driver/Src/stm32l4xx_hal_rtc_ex.c **** __weak void HAL_RTCEx_Tamper1EventCallback(RTC_HandleTypeDef *hrtc)
2264:Drivers/STM32L4xx_HAL_Driver/Src/stm32l4xx_hal_rtc_ex.c **** {
 3194              		.loc 1 2264 1 is_stmt 1 view -0
 3195              		.cfi_startproc
 3196              		@ args = 0, pretend = 0, frame = 0
 3197              		@ frame_needed = 0, uses_anonymous_args = 0
 3198              		@ link register save eliminated.
ARM GAS  /tmp/cc49nhBG.s 			page 99


2265:Drivers/STM32L4xx_HAL_Driver/Src/stm32l4xx_hal_rtc_ex.c ****   /* Prevent unused argument(s) compilation warning */
2266:Drivers/STM32L4xx_HAL_Driver/Src/stm32l4xx_hal_rtc_ex.c ****   UNUSED(hrtc);
 3199              		.loc 1 2266 3 view .LVU1119
2267:Drivers/STM32L4xx_HAL_Driver/Src/stm32l4xx_hal_rtc_ex.c **** 
2268:Drivers/STM32L4xx_HAL_Driver/Src/stm32l4xx_hal_rtc_ex.c ****   /* NOTE : This function should not be modified, when the callback is needed,
2269:Drivers/STM32L4xx_HAL_Driver/Src/stm32l4xx_hal_rtc_ex.c ****             the HAL_RTCEx_Tamper1EventCallback could be implemented in the user file
2270:Drivers/STM32L4xx_HAL_Driver/Src/stm32l4xx_hal_rtc_ex.c ****    */
2271:Drivers/STM32L4xx_HAL_Driver/Src/stm32l4xx_hal_rtc_ex.c **** }
 3200              		.loc 1 2271 1 is_stmt 0 view .LVU1120
 3201 0000 7047     		bx	lr
 3202              		.cfi_endproc
 3203              	.LFE164:
 3205              		.section	.text.HAL_RTCEx_Tamper2EventCallback,"ax",%progbits
 3206              		.align	1
 3207              		.weak	HAL_RTCEx_Tamper2EventCallback
 3208              		.syntax unified
 3209              		.thumb
 3210              		.thumb_func
 3211              		.fpu fpv4-sp-d16
 3213              	HAL_RTCEx_Tamper2EventCallback:
 3214              	.LVL198:
 3215              	.LFB165:
2272:Drivers/STM32L4xx_HAL_Driver/Src/stm32l4xx_hal_rtc_ex.c **** #endif /* RTC_TAMPER1_SUPPORT */
2273:Drivers/STM32L4xx_HAL_Driver/Src/stm32l4xx_hal_rtc_ex.c **** 
2274:Drivers/STM32L4xx_HAL_Driver/Src/stm32l4xx_hal_rtc_ex.c **** /**
2275:Drivers/STM32L4xx_HAL_Driver/Src/stm32l4xx_hal_rtc_ex.c ****   * @brief  Tamper 2 callback.
2276:Drivers/STM32L4xx_HAL_Driver/Src/stm32l4xx_hal_rtc_ex.c ****   * @param  hrtc RTC handle
2277:Drivers/STM32L4xx_HAL_Driver/Src/stm32l4xx_hal_rtc_ex.c ****   * @retval None
2278:Drivers/STM32L4xx_HAL_Driver/Src/stm32l4xx_hal_rtc_ex.c ****   */
2279:Drivers/STM32L4xx_HAL_Driver/Src/stm32l4xx_hal_rtc_ex.c **** __weak void HAL_RTCEx_Tamper2EventCallback(RTC_HandleTypeDef *hrtc)
2280:Drivers/STM32L4xx_HAL_Driver/Src/stm32l4xx_hal_rtc_ex.c **** {
 3216              		.loc 1 2280 1 is_stmt 1 view -0
 3217              		.cfi_startproc
 3218              		@ args = 0, pretend = 0, frame = 0
 3219              		@ frame_needed = 0, uses_anonymous_args = 0
 3220              		@ link register save eliminated.
2281:Drivers/STM32L4xx_HAL_Driver/Src/stm32l4xx_hal_rtc_ex.c ****   /* Prevent unused argument(s) compilation warning */
2282:Drivers/STM32L4xx_HAL_Driver/Src/stm32l4xx_hal_rtc_ex.c ****   UNUSED(hrtc);
 3221              		.loc 1 2282 3 view .LVU1122
2283:Drivers/STM32L4xx_HAL_Driver/Src/stm32l4xx_hal_rtc_ex.c **** 
2284:Drivers/STM32L4xx_HAL_Driver/Src/stm32l4xx_hal_rtc_ex.c ****   /* NOTE : This function should not be modified, when the callback is needed,
2285:Drivers/STM32L4xx_HAL_Driver/Src/stm32l4xx_hal_rtc_ex.c ****             the HAL_RTCEx_Tamper2EventCallback could be implemented in the user file
2286:Drivers/STM32L4xx_HAL_Driver/Src/stm32l4xx_hal_rtc_ex.c ****    */
2287:Drivers/STM32L4xx_HAL_Driver/Src/stm32l4xx_hal_rtc_ex.c **** }
 3222              		.loc 1 2287 1 is_stmt 0 view .LVU1123
 3223 0000 7047     		bx	lr
 3224              		.cfi_endproc
 3225              	.LFE165:
 3227              		.section	.text.HAL_RTCEx_TamperTimeStampIRQHandler,"ax",%progbits
 3228              		.align	1
 3229              		.global	HAL_RTCEx_TamperTimeStampIRQHandler
 3230              		.syntax unified
 3231              		.thumb
 3232              		.thumb_func
 3233              		.fpu fpv4-sp-d16
 3235              	HAL_RTCEx_TamperTimeStampIRQHandler:
 3236              	.LVL199:
ARM GAS  /tmp/cc49nhBG.s 			page 100


 3237              	.LFB138:
 502:Drivers/STM32L4xx_HAL_Driver/Src/stm32l4xx_hal_rtc_ex.c **** 
 3238              		.loc 1 502 1 is_stmt 1 view -0
 3239              		.cfi_startproc
 3240              		@ args = 0, pretend = 0, frame = 0
 3241              		@ frame_needed = 0, uses_anonymous_args = 0
 502:Drivers/STM32L4xx_HAL_Driver/Src/stm32l4xx_hal_rtc_ex.c **** 
 3242              		.loc 1 502 1 is_stmt 0 view .LVU1125
 3243 0000 70B5     		push	{r4, r5, r6, lr}
 3244              	.LCFI29:
 3245              		.cfi_def_cfa_offset 16
 3246              		.cfi_offset 4, -16
 3247              		.cfi_offset 5, -12
 3248              		.cfi_offset 6, -8
 3249              		.cfi_offset 14, -4
 3250 0002 0446     		mov	r4, r0
 505:Drivers/STM32L4xx_HAL_Driver/Src/stm32l4xx_hal_rtc_ex.c **** 
 3251              		.loc 1 505 3 is_stmt 1 view .LVU1126
 505:Drivers/STM32L4xx_HAL_Driver/Src/stm32l4xx_hal_rtc_ex.c **** 
 3252              		.loc 1 505 55 is_stmt 0 view .LVU1127
 3253 0004 0568     		ldr	r5, [r0]
 505:Drivers/STM32L4xx_HAL_Driver/Src/stm32l4xx_hal_rtc_ex.c **** 
 3254              		.loc 1 505 72 view .LVU1128
 3255 0006 4368     		ldr	r3, [r0, #4]
 505:Drivers/STM32L4xx_HAL_Driver/Src/stm32l4xx_hal_rtc_ex.c **** 
 3256              		.loc 1 505 66 view .LVU1129
 3257 0008 1D44     		add	r5, r5, r3
 3258              	.LVL200:
 508:Drivers/STM32L4xx_HAL_Driver/Src/stm32l4xx_hal_rtc_ex.c **** 
 3259              		.loc 1 508 3 is_stmt 1 view .LVU1130
 3260 000a 114B     		ldr	r3, .L203
 3261 000c 4FF40022 		mov	r2, #524288
 3262 0010 5A61     		str	r2, [r3, #20]
 510:Drivers/STM32L4xx_HAL_Driver/Src/stm32l4xx_hal_rtc_ex.c ****   {
 3263              		.loc 1 510 3 view .LVU1131
 510:Drivers/STM32L4xx_HAL_Driver/Src/stm32l4xx_hal_rtc_ex.c ****   {
 3264              		.loc 1 510 12 is_stmt 0 view .LVU1132
 3265 0012 0368     		ldr	r3, [r0]
 510:Drivers/STM32L4xx_HAL_Driver/Src/stm32l4xx_hal_rtc_ex.c ****   {
 3266              		.loc 1 510 22 view .LVU1133
 3267 0014 5B6D     		ldr	r3, [r3, #84]
 510:Drivers/STM32L4xx_HAL_Driver/Src/stm32l4xx_hal_rtc_ex.c ****   {
 3268              		.loc 1 510 6 view .LVU1134
 3269 0016 13F0080F 		tst	r3, #8
 3270 001a 0BD1     		bne	.L200
 3271              	.LVL201:
 3272              	.L196:
 523:Drivers/STM32L4xx_HAL_Driver/Src/stm32l4xx_hal_rtc_ex.c **** 
 3273              		.loc 1 523 3 is_stmt 1 view .LVU1135
 523:Drivers/STM32L4xx_HAL_Driver/Src/stm32l4xx_hal_rtc_ex.c **** 
 3274              		.loc 1 523 12 is_stmt 0 view .LVU1136
 3275 001c 6E6B     		ldr	r6, [r5, #52]
 3276              	.LVL202:
 526:Drivers/STM32L4xx_HAL_Driver/Src/stm32l4xx_hal_rtc_ex.c **** 
 3277              		.loc 1 526 3 is_stmt 1 view .LVU1137
 526:Drivers/STM32L4xx_HAL_Driver/Src/stm32l4xx_hal_rtc_ex.c **** 
 3278              		.loc 1 526 13 is_stmt 0 view .LVU1138
ARM GAS  /tmp/cc49nhBG.s 			page 101


 3279 001e EE63     		str	r6, [r5, #60]
 530:Drivers/STM32L4xx_HAL_Driver/Src/stm32l4xx_hal_rtc_ex.c ****   {
 3280              		.loc 1 530 3 is_stmt 1 view .LVU1139
 530:Drivers/STM32L4xx_HAL_Driver/Src/stm32l4xx_hal_rtc_ex.c ****   {
 3281              		.loc 1 530 6 is_stmt 0 view .LVU1140
 3282 0020 16F0010F 		tst	r6, #1
 3283 0024 0CD1     		bne	.L201
 3284              	.L197:
 543:Drivers/STM32L4xx_HAL_Driver/Src/stm32l4xx_hal_rtc_ex.c ****   {
 3285              		.loc 1 543 3 is_stmt 1 view .LVU1141
 543:Drivers/STM32L4xx_HAL_Driver/Src/stm32l4xx_hal_rtc_ex.c ****   {
 3286              		.loc 1 543 6 is_stmt 0 view .LVU1142
 3287 0026 16F0020F 		tst	r6, #2
 3288 002a 0DD1     		bne	.L202
 3289              	.L198:
 570:Drivers/STM32L4xx_HAL_Driver/Src/stm32l4xx_hal_rtc_ex.c **** }
 3290              		.loc 1 570 3 is_stmt 1 view .LVU1143
 570:Drivers/STM32L4xx_HAL_Driver/Src/stm32l4xx_hal_rtc_ex.c **** }
 3291              		.loc 1 570 15 is_stmt 0 view .LVU1144
 3292 002c 0123     		movs	r3, #1
 3293 002e 84F82930 		strb	r3, [r4, #41]
 571:Drivers/STM32L4xx_HAL_Driver/Src/stm32l4xx_hal_rtc_ex.c **** 
 3294              		.loc 1 571 1 view .LVU1145
 3295 0032 70BD     		pop	{r4, r5, r6, pc}
 3296              	.LVL203:
 3297              	.L200:
 516:Drivers/STM32L4xx_HAL_Driver/Src/stm32l4xx_hal_rtc_ex.c **** #endif
 3298              		.loc 1 516 5 is_stmt 1 view .LVU1146
 3299 0034 FFF7FEFF 		bl	HAL_RTCEx_TimeStampEventCallback
 3300              	.LVL204:
 519:Drivers/STM32L4xx_HAL_Driver/Src/stm32l4xx_hal_rtc_ex.c ****   }
 3301              		.loc 1 519 5 view .LVU1147
 519:Drivers/STM32L4xx_HAL_Driver/Src/stm32l4xx_hal_rtc_ex.c ****   }
 3302              		.loc 1 519 9 is_stmt 0 view .LVU1148
 3303 0038 2368     		ldr	r3, [r4]
 519:Drivers/STM32L4xx_HAL_Driver/Src/stm32l4xx_hal_rtc_ex.c ****   }
 3304              		.loc 1 519 25 view .LVU1149
 3305 003a 0822     		movs	r2, #8
 3306 003c DA65     		str	r2, [r3, #92]
 3307 003e EDE7     		b	.L196
 3308              	.LVL205:
 3309              	.L201:
 537:Drivers/STM32L4xx_HAL_Driver/Src/stm32l4xx_hal_rtc_ex.c **** #endif
 3310              		.loc 1 537 5 is_stmt 1 view .LVU1150
 3311 0040 2046     		mov	r0, r4
 3312 0042 FFF7FEFF 		bl	HAL_RTCEx_Tamper1EventCallback
 3313              	.LVL206:
 3314 0046 EEE7     		b	.L197
 3315              	.L202:
 550:Drivers/STM32L4xx_HAL_Driver/Src/stm32l4xx_hal_rtc_ex.c **** #endif
 3316              		.loc 1 550 5 view .LVU1151
 3317 0048 2046     		mov	r0, r4
 3318 004a FFF7FEFF 		bl	HAL_RTCEx_Tamper2EventCallback
 3319              	.LVL207:
 3320 004e EDE7     		b	.L198
 3321              	.L204:
 3322              		.align	2
ARM GAS  /tmp/cc49nhBG.s 			page 102


 3323              	.L203:
 3324 0050 00040140 		.word	1073808384
 3325              		.cfi_endproc
 3326              	.LFE138:
 3328              		.section	.text.HAL_RTCEx_BKUPWrite,"ax",%progbits
 3329              		.align	1
 3330              		.global	HAL_RTCEx_BKUPWrite
 3331              		.syntax unified
 3332              		.thumb
 3333              		.thumb_func
 3334              		.fpu fpv4-sp-d16
 3336              	HAL_RTCEx_BKUPWrite:
 3337              	.LVL208:
 3338              	.LFB166:
2288:Drivers/STM32L4xx_HAL_Driver/Src/stm32l4xx_hal_rtc_ex.c **** 
2289:Drivers/STM32L4xx_HAL_Driver/Src/stm32l4xx_hal_rtc_ex.c **** #if defined(RTC_TAMPER3_SUPPORT)
2290:Drivers/STM32L4xx_HAL_Driver/Src/stm32l4xx_hal_rtc_ex.c **** /**
2291:Drivers/STM32L4xx_HAL_Driver/Src/stm32l4xx_hal_rtc_ex.c ****   * @brief  Tamper 3 callback.
2292:Drivers/STM32L4xx_HAL_Driver/Src/stm32l4xx_hal_rtc_ex.c ****   * @param  hrtc RTC handle
2293:Drivers/STM32L4xx_HAL_Driver/Src/stm32l4xx_hal_rtc_ex.c ****   * @retval None
2294:Drivers/STM32L4xx_HAL_Driver/Src/stm32l4xx_hal_rtc_ex.c ****   */
2295:Drivers/STM32L4xx_HAL_Driver/Src/stm32l4xx_hal_rtc_ex.c **** __weak void HAL_RTCEx_Tamper3EventCallback(RTC_HandleTypeDef *hrtc)
2296:Drivers/STM32L4xx_HAL_Driver/Src/stm32l4xx_hal_rtc_ex.c **** {
2297:Drivers/STM32L4xx_HAL_Driver/Src/stm32l4xx_hal_rtc_ex.c ****   /* Prevent unused argument(s) compilation warning */
2298:Drivers/STM32L4xx_HAL_Driver/Src/stm32l4xx_hal_rtc_ex.c ****   UNUSED(hrtc);
2299:Drivers/STM32L4xx_HAL_Driver/Src/stm32l4xx_hal_rtc_ex.c **** 
2300:Drivers/STM32L4xx_HAL_Driver/Src/stm32l4xx_hal_rtc_ex.c ****   /* NOTE : This function should not be modified, when the callback is needed,
2301:Drivers/STM32L4xx_HAL_Driver/Src/stm32l4xx_hal_rtc_ex.c ****             the HAL_RTCEx_Tamper3EventCallback could be implemented in the user file
2302:Drivers/STM32L4xx_HAL_Driver/Src/stm32l4xx_hal_rtc_ex.c ****    */
2303:Drivers/STM32L4xx_HAL_Driver/Src/stm32l4xx_hal_rtc_ex.c **** }
2304:Drivers/STM32L4xx_HAL_Driver/Src/stm32l4xx_hal_rtc_ex.c **** #endif /* RTC_TAMPER3_SUPPORT */
2305:Drivers/STM32L4xx_HAL_Driver/Src/stm32l4xx_hal_rtc_ex.c **** 
2306:Drivers/STM32L4xx_HAL_Driver/Src/stm32l4xx_hal_rtc_ex.c **** /**
2307:Drivers/STM32L4xx_HAL_Driver/Src/stm32l4xx_hal_rtc_ex.c ****   * @}
2308:Drivers/STM32L4xx_HAL_Driver/Src/stm32l4xx_hal_rtc_ex.c ****   */
2309:Drivers/STM32L4xx_HAL_Driver/Src/stm32l4xx_hal_rtc_ex.c **** 
2310:Drivers/STM32L4xx_HAL_Driver/Src/stm32l4xx_hal_rtc_ex.c **** 
2311:Drivers/STM32L4xx_HAL_Driver/Src/stm32l4xx_hal_rtc_ex.c **** /** @addtogroup RTCEx_Exported_Functions_Group6
2312:Drivers/STM32L4xx_HAL_Driver/Src/stm32l4xx_hal_rtc_ex.c ****   * @brief      Extended RTC Backup register functions
2313:Drivers/STM32L4xx_HAL_Driver/Src/stm32l4xx_hal_rtc_ex.c ****   *
2314:Drivers/STM32L4xx_HAL_Driver/Src/stm32l4xx_hal_rtc_ex.c **** @verbatim
2315:Drivers/STM32L4xx_HAL_Driver/Src/stm32l4xx_hal_rtc_ex.c ****   ===============================================================================
2316:Drivers/STM32L4xx_HAL_Driver/Src/stm32l4xx_hal_rtc_ex.c ****              ##### Extended RTC Backup register functions #####
2317:Drivers/STM32L4xx_HAL_Driver/Src/stm32l4xx_hal_rtc_ex.c ****   ===============================================================================
2318:Drivers/STM32L4xx_HAL_Driver/Src/stm32l4xx_hal_rtc_ex.c ****   [..]
2319:Drivers/STM32L4xx_HAL_Driver/Src/stm32l4xx_hal_rtc_ex.c ****    (+) Before calling any tamper or internal tamper function, you have to call first
2320:Drivers/STM32L4xx_HAL_Driver/Src/stm32l4xx_hal_rtc_ex.c ****        HAL_RTC_Init() function.
2321:Drivers/STM32L4xx_HAL_Driver/Src/stm32l4xx_hal_rtc_ex.c ****    (+) In that ine you can select to output tamper event on RTC pin.
2322:Drivers/STM32L4xx_HAL_Driver/Src/stm32l4xx_hal_rtc_ex.c ****   [..]
2323:Drivers/STM32L4xx_HAL_Driver/Src/stm32l4xx_hal_rtc_ex.c ****    This subsection provides functions allowing to
2324:Drivers/STM32L4xx_HAL_Driver/Src/stm32l4xx_hal_rtc_ex.c ****    (+) Write a data in a specified RTC Backup data register
2325:Drivers/STM32L4xx_HAL_Driver/Src/stm32l4xx_hal_rtc_ex.c ****    (+) Read a data in a specified RTC Backup data register
2326:Drivers/STM32L4xx_HAL_Driver/Src/stm32l4xx_hal_rtc_ex.c **** @endverbatim
2327:Drivers/STM32L4xx_HAL_Driver/Src/stm32l4xx_hal_rtc_ex.c ****   * @{
2328:Drivers/STM32L4xx_HAL_Driver/Src/stm32l4xx_hal_rtc_ex.c ****   */
2329:Drivers/STM32L4xx_HAL_Driver/Src/stm32l4xx_hal_rtc_ex.c **** 
2330:Drivers/STM32L4xx_HAL_Driver/Src/stm32l4xx_hal_rtc_ex.c **** 
ARM GAS  /tmp/cc49nhBG.s 			page 103


2331:Drivers/STM32L4xx_HAL_Driver/Src/stm32l4xx_hal_rtc_ex.c **** /**
2332:Drivers/STM32L4xx_HAL_Driver/Src/stm32l4xx_hal_rtc_ex.c ****   * @brief  Write a data in a specified RTC Backup data register.
2333:Drivers/STM32L4xx_HAL_Driver/Src/stm32l4xx_hal_rtc_ex.c ****   * @param  hrtc RTC handle
2334:Drivers/STM32L4xx_HAL_Driver/Src/stm32l4xx_hal_rtc_ex.c ****   * @param  BackupRegister RTC Backup data Register number.
2335:Drivers/STM32L4xx_HAL_Driver/Src/stm32l4xx_hal_rtc_ex.c ****   *          This parameter can be: RTC_BKP_DRx where x can be from 0 to 31 to
2336:Drivers/STM32L4xx_HAL_Driver/Src/stm32l4xx_hal_rtc_ex.c ****   *          specify the register.
2337:Drivers/STM32L4xx_HAL_Driver/Src/stm32l4xx_hal_rtc_ex.c ****   * @param  Data Data to be written in the specified Backup data register.
2338:Drivers/STM32L4xx_HAL_Driver/Src/stm32l4xx_hal_rtc_ex.c ****   * @retval None
2339:Drivers/STM32L4xx_HAL_Driver/Src/stm32l4xx_hal_rtc_ex.c ****   */
2340:Drivers/STM32L4xx_HAL_Driver/Src/stm32l4xx_hal_rtc_ex.c **** void HAL_RTCEx_BKUPWrite(RTC_HandleTypeDef *hrtc, uint32_t BackupRegister, uint32_t Data)
2341:Drivers/STM32L4xx_HAL_Driver/Src/stm32l4xx_hal_rtc_ex.c **** {
 3339              		.loc 1 2341 1 view -0
 3340              		.cfi_startproc
 3341              		@ args = 0, pretend = 0, frame = 8
 3342              		@ frame_needed = 0, uses_anonymous_args = 0
 3343              		@ link register save eliminated.
 3344              		.loc 1 2341 1 is_stmt 0 view .LVU1153
 3345 0000 82B0     		sub	sp, sp, #8
 3346              	.LCFI30:
 3347              		.cfi_def_cfa_offset 8
2342:Drivers/STM32L4xx_HAL_Driver/Src/stm32l4xx_hal_rtc_ex.c ****   uint32_t __IO tmp;
 3348              		.loc 1 2342 3 is_stmt 1 view .LVU1154
2343:Drivers/STM32L4xx_HAL_Driver/Src/stm32l4xx_hal_rtc_ex.c **** #if defined(STM32L412xx) || defined(STM32L422xx) || defined (STM32L4P5xx) || defined (STM32L4Q5xx)
2344:Drivers/STM32L4xx_HAL_Driver/Src/stm32l4xx_hal_rtc_ex.c ****   /* Process TAMP instance pointer */
2345:Drivers/STM32L4xx_HAL_Driver/Src/stm32l4xx_hal_rtc_ex.c ****   TAMP_TypeDef *tamp = (TAMP_TypeDef *)((uint32_t)hrtc->Instance + hrtc->TampOffset);
 3349              		.loc 1 2345 3 view .LVU1155
 3350              		.loc 1 2345 55 is_stmt 0 view .LVU1156
 3351 0002 0368     		ldr	r3, [r0]
 3352              		.loc 1 2345 72 view .LVU1157
 3353 0004 4068     		ldr	r0, [r0, #4]
 3354              	.LVL209:
 3355              		.loc 1 2345 66 view .LVU1158
 3356 0006 0344     		add	r3, r3, r0
 3357              	.LVL210:
2346:Drivers/STM32L4xx_HAL_Driver/Src/stm32l4xx_hal_rtc_ex.c **** 
2347:Drivers/STM32L4xx_HAL_Driver/Src/stm32l4xx_hal_rtc_ex.c ****   /* Check the parameters */
2348:Drivers/STM32L4xx_HAL_Driver/Src/stm32l4xx_hal_rtc_ex.c ****   assert_param(IS_RTC_BKP(BackupRegister));
 3358              		.loc 1 2348 3 is_stmt 1 view .LVU1159
2349:Drivers/STM32L4xx_HAL_Driver/Src/stm32l4xx_hal_rtc_ex.c **** 
2350:Drivers/STM32L4xx_HAL_Driver/Src/stm32l4xx_hal_rtc_ex.c ****   tmp = (uint32_t) & (tamp->BKP0R);
 3359              		.loc 1 2350 3 view .LVU1160
 3360              		.loc 1 2350 20 is_stmt 0 view .LVU1161
 3361 0008 03F58073 		add	r3, r3, #256
 3362              	.LVL211:
 3363              		.loc 1 2350 7 view .LVU1162
 3364 000c 0193     		str	r3, [sp, #4]
2351:Drivers/STM32L4xx_HAL_Driver/Src/stm32l4xx_hal_rtc_ex.c **** #else /* #if defined(STM32L412xx) || defined(STM32L422xx) || defined (STM32L4P5xx) || defined (STM3
2352:Drivers/STM32L4xx_HAL_Driver/Src/stm32l4xx_hal_rtc_ex.c ****   /* Check the parameters */
2353:Drivers/STM32L4xx_HAL_Driver/Src/stm32l4xx_hal_rtc_ex.c ****   assert_param(IS_RTC_BKP(BackupRegister));
2354:Drivers/STM32L4xx_HAL_Driver/Src/stm32l4xx_hal_rtc_ex.c **** 
2355:Drivers/STM32L4xx_HAL_Driver/Src/stm32l4xx_hal_rtc_ex.c ****   tmp = (uint32_t) & (hrtc->Instance->BKP0R);
2356:Drivers/STM32L4xx_HAL_Driver/Src/stm32l4xx_hal_rtc_ex.c **** #endif /* #if defined(STM32L412xx) || defined(STM32L422xx) || defined (STM32L4P5xx) || defined (STM
2357:Drivers/STM32L4xx_HAL_Driver/Src/stm32l4xx_hal_rtc_ex.c **** 
2358:Drivers/STM32L4xx_HAL_Driver/Src/stm32l4xx_hal_rtc_ex.c ****   tmp += (BackupRegister * 4U);
 3365              		.loc 1 2358 3 is_stmt 1 view .LVU1163
 3366              		.loc 1 2358 7 is_stmt 0 view .LVU1164
 3367 000e 019B     		ldr	r3, [sp, #4]
ARM GAS  /tmp/cc49nhBG.s 			page 104


 3368              	.LVL212:
 3369              		.loc 1 2358 7 view .LVU1165
 3370 0010 03EB8103 		add	r3, r3, r1, lsl #2
 3371 0014 0193     		str	r3, [sp, #4]
 3372              	.LVL213:
2359:Drivers/STM32L4xx_HAL_Driver/Src/stm32l4xx_hal_rtc_ex.c **** 
2360:Drivers/STM32L4xx_HAL_Driver/Src/stm32l4xx_hal_rtc_ex.c ****   /* Write the specified register */
2361:Drivers/STM32L4xx_HAL_Driver/Src/stm32l4xx_hal_rtc_ex.c ****   *(__IO uint32_t *)tmp = (uint32_t)Data;
 3373              		.loc 1 2361 3 is_stmt 1 view .LVU1166
 3374              		.loc 1 2361 4 is_stmt 0 view .LVU1167
 3375 0016 019B     		ldr	r3, [sp, #4]
 3376              		.loc 1 2361 25 view .LVU1168
 3377 0018 1A60     		str	r2, [r3]
 3378              	.LVL214:
2362:Drivers/STM32L4xx_HAL_Driver/Src/stm32l4xx_hal_rtc_ex.c **** }
 3379              		.loc 1 2362 1 view .LVU1169
 3380 001a 02B0     		add	sp, sp, #8
 3381              	.LCFI31:
 3382              		.cfi_def_cfa_offset 0
 3383              		@ sp needed
 3384 001c 7047     		bx	lr
 3385              		.cfi_endproc
 3386              	.LFE166:
 3388              		.section	.text.HAL_RTCEx_BKUPRead,"ax",%progbits
 3389              		.align	1
 3390              		.global	HAL_RTCEx_BKUPRead
 3391              		.syntax unified
 3392              		.thumb
 3393              		.thumb_func
 3394              		.fpu fpv4-sp-d16
 3396              	HAL_RTCEx_BKUPRead:
 3397              	.LVL215:
 3398              	.LFB167:
2363:Drivers/STM32L4xx_HAL_Driver/Src/stm32l4xx_hal_rtc_ex.c **** 
2364:Drivers/STM32L4xx_HAL_Driver/Src/stm32l4xx_hal_rtc_ex.c **** 
2365:Drivers/STM32L4xx_HAL_Driver/Src/stm32l4xx_hal_rtc_ex.c **** /**
2366:Drivers/STM32L4xx_HAL_Driver/Src/stm32l4xx_hal_rtc_ex.c ****   * @brief  Read data from the specified RTC Backup data Register.
2367:Drivers/STM32L4xx_HAL_Driver/Src/stm32l4xx_hal_rtc_ex.c ****   * @param  hrtc RTC handle
2368:Drivers/STM32L4xx_HAL_Driver/Src/stm32l4xx_hal_rtc_ex.c ****   * @param  BackupRegister  RTC Backup data Register number.
2369:Drivers/STM32L4xx_HAL_Driver/Src/stm32l4xx_hal_rtc_ex.c ****   *         This parameter can be: RTC_BKP_DRx where x can be from 0 to 31 to
2370:Drivers/STM32L4xx_HAL_Driver/Src/stm32l4xx_hal_rtc_ex.c ****   *         specify the register.
2371:Drivers/STM32L4xx_HAL_Driver/Src/stm32l4xx_hal_rtc_ex.c ****   * @retval Read value
2372:Drivers/STM32L4xx_HAL_Driver/Src/stm32l4xx_hal_rtc_ex.c ****   */
2373:Drivers/STM32L4xx_HAL_Driver/Src/stm32l4xx_hal_rtc_ex.c **** uint32_t HAL_RTCEx_BKUPRead(RTC_HandleTypeDef *hrtc, uint32_t BackupRegister)
2374:Drivers/STM32L4xx_HAL_Driver/Src/stm32l4xx_hal_rtc_ex.c **** {
 3399              		.loc 1 2374 1 is_stmt 1 view -0
 3400              		.cfi_startproc
 3401              		@ args = 0, pretend = 0, frame = 0
 3402              		@ frame_needed = 0, uses_anonymous_args = 0
 3403              		@ link register save eliminated.
2375:Drivers/STM32L4xx_HAL_Driver/Src/stm32l4xx_hal_rtc_ex.c ****   uint32_t tmp;
 3404              		.loc 1 2375 3 view .LVU1171
2376:Drivers/STM32L4xx_HAL_Driver/Src/stm32l4xx_hal_rtc_ex.c **** #if defined(STM32L412xx) || defined(STM32L422xx) || defined (STM32L4P5xx) || defined (STM32L4Q5xx)
2377:Drivers/STM32L4xx_HAL_Driver/Src/stm32l4xx_hal_rtc_ex.c ****   /* Process TAMP instance pointer */
2378:Drivers/STM32L4xx_HAL_Driver/Src/stm32l4xx_hal_rtc_ex.c ****   TAMP_TypeDef *tamp = (TAMP_TypeDef *)((uint32_t)hrtc->Instance + hrtc->TampOffset);
 3405              		.loc 1 2378 3 view .LVU1172
 3406              		.loc 1 2378 55 is_stmt 0 view .LVU1173
ARM GAS  /tmp/cc49nhBG.s 			page 105


 3407 0000 0368     		ldr	r3, [r0]
 3408              		.loc 1 2378 72 view .LVU1174
 3409 0002 4268     		ldr	r2, [r0, #4]
 3410              		.loc 1 2378 66 view .LVU1175
 3411 0004 1344     		add	r3, r3, r2
 3412              	.LVL216:
2379:Drivers/STM32L4xx_HAL_Driver/Src/stm32l4xx_hal_rtc_ex.c **** 
2380:Drivers/STM32L4xx_HAL_Driver/Src/stm32l4xx_hal_rtc_ex.c ****   /* Check the parameters */
2381:Drivers/STM32L4xx_HAL_Driver/Src/stm32l4xx_hal_rtc_ex.c ****   assert_param(IS_RTC_BKP(BackupRegister));
 3413              		.loc 1 2381 3 is_stmt 1 view .LVU1176
2382:Drivers/STM32L4xx_HAL_Driver/Src/stm32l4xx_hal_rtc_ex.c **** 
2383:Drivers/STM32L4xx_HAL_Driver/Src/stm32l4xx_hal_rtc_ex.c ****   tmp = (uint32_t) & (tamp->BKP0R);
 3414              		.loc 1 2383 3 view .LVU1177
 3415              		.loc 1 2383 20 is_stmt 0 view .LVU1178
 3416 0006 03F58073 		add	r3, r3, #256
 3417              	.LVL217:
2384:Drivers/STM32L4xx_HAL_Driver/Src/stm32l4xx_hal_rtc_ex.c **** #else /* #if defined(STM32L412xx) || defined(STM32L422xx) || defined (STM32L4P5xx) || defined (STM3
2385:Drivers/STM32L4xx_HAL_Driver/Src/stm32l4xx_hal_rtc_ex.c ****   /* Check the parameters */
2386:Drivers/STM32L4xx_HAL_Driver/Src/stm32l4xx_hal_rtc_ex.c ****   assert_param(IS_RTC_BKP(BackupRegister));
2387:Drivers/STM32L4xx_HAL_Driver/Src/stm32l4xx_hal_rtc_ex.c **** 
2388:Drivers/STM32L4xx_HAL_Driver/Src/stm32l4xx_hal_rtc_ex.c ****   tmp = (uint32_t) & (hrtc->Instance->BKP0R);
2389:Drivers/STM32L4xx_HAL_Driver/Src/stm32l4xx_hal_rtc_ex.c **** #endif /* #if defined(STM32L412xx) || defined(STM32L422xx) || defined (STM32L4P5xx) || defined (STM
2390:Drivers/STM32L4xx_HAL_Driver/Src/stm32l4xx_hal_rtc_ex.c **** 
2391:Drivers/STM32L4xx_HAL_Driver/Src/stm32l4xx_hal_rtc_ex.c ****   tmp += (BackupRegister * 4U);
 3418              		.loc 1 2391 3 is_stmt 1 view .LVU1179
2392:Drivers/STM32L4xx_HAL_Driver/Src/stm32l4xx_hal_rtc_ex.c **** 
2393:Drivers/STM32L4xx_HAL_Driver/Src/stm32l4xx_hal_rtc_ex.c ****   /* Read the specified register */
2394:Drivers/STM32L4xx_HAL_Driver/Src/stm32l4xx_hal_rtc_ex.c ****   return (*(__IO uint32_t *)tmp);
 3419              		.loc 1 2394 3 view .LVU1180
 3420              		.loc 1 2394 11 is_stmt 0 view .LVU1181
 3421 000a 53F82100 		ldr	r0, [r3, r1, lsl #2]
 3422              	.LVL218:
2395:Drivers/STM32L4xx_HAL_Driver/Src/stm32l4xx_hal_rtc_ex.c **** }
 3423              		.loc 1 2395 1 view .LVU1182
 3424 000e 7047     		bx	lr
 3425              		.cfi_endproc
 3426              	.LFE167:
 3428              		.text
 3429              	.Letext0:
 3430              		.file 2 "/usr/lib/gcc/arm-none-eabi/10.3.1/include/stdint.h"
 3431              		.file 3 "Drivers/CMSIS/Device/ST/STM32L4xx/Include/stm32l412xx.h"
 3432              		.file 4 "Drivers/STM32L4xx_HAL_Driver/Inc/stm32l4xx_hal_def.h"
 3433              		.file 5 "Drivers/STM32L4xx_HAL_Driver/Inc/stm32l4xx_hal_rtc.h"
 3434              		.file 6 "Drivers/STM32L4xx_HAL_Driver/Inc/stm32l4xx_hal_rtc_ex.h"
 3435              		.file 7 "Drivers/STM32L4xx_HAL_Driver/Inc/stm32l4xx_hal.h"
ARM GAS  /tmp/cc49nhBG.s 			page 106


DEFINED SYMBOLS
                            *ABS*:0000000000000000 stm32l4xx_hal_rtc_ex.c
     /tmp/cc49nhBG.s:18     .text.HAL_RTCEx_SetTimeStamp:0000000000000000 $t
     /tmp/cc49nhBG.s:26     .text.HAL_RTCEx_SetTimeStamp:0000000000000000 HAL_RTCEx_SetTimeStamp
     /tmp/cc49nhBG.s:130    .text.HAL_RTCEx_SetTimeStamp_IT:0000000000000000 $t
     /tmp/cc49nhBG.s:137    .text.HAL_RTCEx_SetTimeStamp_IT:0000000000000000 HAL_RTCEx_SetTimeStamp_IT
     /tmp/cc49nhBG.s:253    .text.HAL_RTCEx_SetTimeStamp_IT:0000000000000078 $d
     /tmp/cc49nhBG.s:258    .text.HAL_RTCEx_DeactivateTimeStamp:0000000000000000 $t
     /tmp/cc49nhBG.s:265    .text.HAL_RTCEx_DeactivateTimeStamp:0000000000000000 HAL_RTCEx_DeactivateTimeStamp
     /tmp/cc49nhBG.s:349    .text.HAL_RTCEx_SetInternalTimeStamp:0000000000000000 $t
     /tmp/cc49nhBG.s:356    .text.HAL_RTCEx_SetInternalTimeStamp:0000000000000000 HAL_RTCEx_SetInternalTimeStamp
     /tmp/cc49nhBG.s:423    .text.HAL_RTCEx_DeactivateInternalTimeStamp:0000000000000000 $t
     /tmp/cc49nhBG.s:430    .text.HAL_RTCEx_DeactivateInternalTimeStamp:0000000000000000 HAL_RTCEx_DeactivateInternalTimeStamp
     /tmp/cc49nhBG.s:497    .text.HAL_RTCEx_GetTimeStamp:0000000000000000 $t
     /tmp/cc49nhBG.s:504    .text.HAL_RTCEx_GetTimeStamp:0000000000000000 HAL_RTCEx_GetTimeStamp
     /tmp/cc49nhBG.s:650    .text.HAL_RTCEx_TimeStampEventCallback:0000000000000000 $t
     /tmp/cc49nhBG.s:657    .text.HAL_RTCEx_TimeStampEventCallback:0000000000000000 HAL_RTCEx_TimeStampEventCallback
     /tmp/cc49nhBG.s:672    .text.HAL_RTCEx_PollForTimeStampEvent:0000000000000000 $t
     /tmp/cc49nhBG.s:679    .text.HAL_RTCEx_PollForTimeStampEvent:0000000000000000 HAL_RTCEx_PollForTimeStampEvent
     /tmp/cc49nhBG.s:770    .text.HAL_RTCEx_SetWakeUpTimer:0000000000000000 $t
     /tmp/cc49nhBG.s:777    .text.HAL_RTCEx_SetWakeUpTimer:0000000000000000 HAL_RTCEx_SetWakeUpTimer
     /tmp/cc49nhBG.s:929    .text.HAL_RTCEx_SetWakeUpTimer_IT:0000000000000000 $t
     /tmp/cc49nhBG.s:936    .text.HAL_RTCEx_SetWakeUpTimer_IT:0000000000000000 HAL_RTCEx_SetWakeUpTimer_IT
     /tmp/cc49nhBG.s:1130   .text.HAL_RTCEx_SetWakeUpTimer_IT:00000000000000e0 $d
     /tmp/cc49nhBG.s:1135   .text.HAL_RTCEx_DeactivateWakeUpTimer:0000000000000000 $t
     /tmp/cc49nhBG.s:1142   .text.HAL_RTCEx_DeactivateWakeUpTimer:0000000000000000 HAL_RTCEx_DeactivateWakeUpTimer
     /tmp/cc49nhBG.s:1266   .text.HAL_RTCEx_GetWakeUpTimer:0000000000000000 $t
     /tmp/cc49nhBG.s:1273   .text.HAL_RTCEx_GetWakeUpTimer:0000000000000000 HAL_RTCEx_GetWakeUpTimer
     /tmp/cc49nhBG.s:1294   .text.HAL_RTCEx_WakeUpTimerEventCallback:0000000000000000 $t
     /tmp/cc49nhBG.s:1301   .text.HAL_RTCEx_WakeUpTimerEventCallback:0000000000000000 HAL_RTCEx_WakeUpTimerEventCallback
     /tmp/cc49nhBG.s:1316   .text.HAL_RTCEx_WakeUpTimerIRQHandler:0000000000000000 $t
     /tmp/cc49nhBG.s:1323   .text.HAL_RTCEx_WakeUpTimerIRQHandler:0000000000000000 HAL_RTCEx_WakeUpTimerIRQHandler
     /tmp/cc49nhBG.s:1371   .text.HAL_RTCEx_WakeUpTimerIRQHandler:0000000000000028 $d
     /tmp/cc49nhBG.s:1376   .text.HAL_RTCEx_PollForWakeUpTimerEvent:0000000000000000 $t
     /tmp/cc49nhBG.s:1383   .text.HAL_RTCEx_PollForWakeUpTimerEvent:0000000000000000 HAL_RTCEx_PollForWakeUpTimerEvent
     /tmp/cc49nhBG.s:1459   .text.HAL_RTCEx_SetSmoothCalib:0000000000000000 $t
     /tmp/cc49nhBG.s:1466   .text.HAL_RTCEx_SetSmoothCalib:0000000000000000 HAL_RTCEx_SetSmoothCalib
     /tmp/cc49nhBG.s:1618   .text.HAL_RTCEx_SetLowPowerCalib:0000000000000000 $t
     /tmp/cc49nhBG.s:1625   .text.HAL_RTCEx_SetLowPowerCalib:0000000000000000 HAL_RTCEx_SetLowPowerCalib
     /tmp/cc49nhBG.s:1705   .text.HAL_RTCEx_SetSynchroShift:0000000000000000 $t
     /tmp/cc49nhBG.s:1712   .text.HAL_RTCEx_SetSynchroShift:0000000000000000 HAL_RTCEx_SetSynchroShift
     /tmp/cc49nhBG.s:1914   .text.HAL_RTCEx_SetCalibrationOutPut:0000000000000000 $t
     /tmp/cc49nhBG.s:1921   .text.HAL_RTCEx_SetCalibrationOutPut:0000000000000000 HAL_RTCEx_SetCalibrationOutPut
     /tmp/cc49nhBG.s:2014   .text.HAL_RTCEx_DeactivateCalibrationOutPut:0000000000000000 $t
     /tmp/cc49nhBG.s:2021   .text.HAL_RTCEx_DeactivateCalibrationOutPut:0000000000000000 HAL_RTCEx_DeactivateCalibrationOutPut
     /tmp/cc49nhBG.s:2088   .text.HAL_RTCEx_SetRefClock:0000000000000000 $t
     /tmp/cc49nhBG.s:2095   .text.HAL_RTCEx_SetRefClock:0000000000000000 HAL_RTCEx_SetRefClock
     /tmp/cc49nhBG.s:2194   .text.HAL_RTCEx_DeactivateRefClock:0000000000000000 $t
     /tmp/cc49nhBG.s:2201   .text.HAL_RTCEx_DeactivateRefClock:0000000000000000 HAL_RTCEx_DeactivateRefClock
     /tmp/cc49nhBG.s:2300   .text.HAL_RTCEx_EnableBypassShadow:0000000000000000 $t
     /tmp/cc49nhBG.s:2307   .text.HAL_RTCEx_EnableBypassShadow:0000000000000000 HAL_RTCEx_EnableBypassShadow
     /tmp/cc49nhBG.s:2374   .text.HAL_RTCEx_DisableBypassShadow:0000000000000000 $t
     /tmp/cc49nhBG.s:2381   .text.HAL_RTCEx_DisableBypassShadow:0000000000000000 HAL_RTCEx_DisableBypassShadow
     /tmp/cc49nhBG.s:2447   .text.HAL_RTCEx_DisableBypassShadow:0000000000000044 $d
     /tmp/cc49nhBG.s:2452   .text.HAL_RTCEx_AlarmBEventCallback:0000000000000000 $t
     /tmp/cc49nhBG.s:2459   .text.HAL_RTCEx_AlarmBEventCallback:0000000000000000 HAL_RTCEx_AlarmBEventCallback
     /tmp/cc49nhBG.s:2474   .text.HAL_RTCEx_PollForAlarmBEvent:0000000000000000 $t
ARM GAS  /tmp/cc49nhBG.s 			page 107


     /tmp/cc49nhBG.s:2481   .text.HAL_RTCEx_PollForAlarmBEvent:0000000000000000 HAL_RTCEx_PollForAlarmBEvent
     /tmp/cc49nhBG.s:2557   .text.HAL_RTCEx_SetTamper:0000000000000000 $t
     /tmp/cc49nhBG.s:2564   .text.HAL_RTCEx_SetTamper:0000000000000000 HAL_RTCEx_SetTamper
     /tmp/cc49nhBG.s:2738   .text.HAL_RTCEx_SetTamper_IT:0000000000000000 $t
     /tmp/cc49nhBG.s:2745   .text.HAL_RTCEx_SetTamper_IT:0000000000000000 HAL_RTCEx_SetTamper_IT
     /tmp/cc49nhBG.s:2942   .text.HAL_RTCEx_SetTamper_IT:00000000000000ac $d
     /tmp/cc49nhBG.s:2947   .text.HAL_RTCEx_DeactivateTamper:0000000000000000 $t
     /tmp/cc49nhBG.s:2954   .text.HAL_RTCEx_DeactivateTamper:0000000000000000 HAL_RTCEx_DeactivateTamper
     /tmp/cc49nhBG.s:3015   .text.HAL_RTCEx_PollForTamper1Event:0000000000000000 $t
     /tmp/cc49nhBG.s:3022   .text.HAL_RTCEx_PollForTamper1Event:0000000000000000 HAL_RTCEx_PollForTamper1Event
     /tmp/cc49nhBG.s:3099   .text.HAL_RTCEx_PollForTamper2Event:0000000000000000 $t
     /tmp/cc49nhBG.s:3106   .text.HAL_RTCEx_PollForTamper2Event:0000000000000000 HAL_RTCEx_PollForTamper2Event
     /tmp/cc49nhBG.s:3184   .text.HAL_RTCEx_Tamper1EventCallback:0000000000000000 $t
     /tmp/cc49nhBG.s:3191   .text.HAL_RTCEx_Tamper1EventCallback:0000000000000000 HAL_RTCEx_Tamper1EventCallback
     /tmp/cc49nhBG.s:3206   .text.HAL_RTCEx_Tamper2EventCallback:0000000000000000 $t
     /tmp/cc49nhBG.s:3213   .text.HAL_RTCEx_Tamper2EventCallback:0000000000000000 HAL_RTCEx_Tamper2EventCallback
     /tmp/cc49nhBG.s:3228   .text.HAL_RTCEx_TamperTimeStampIRQHandler:0000000000000000 $t
     /tmp/cc49nhBG.s:3235   .text.HAL_RTCEx_TamperTimeStampIRQHandler:0000000000000000 HAL_RTCEx_TamperTimeStampIRQHandler
     /tmp/cc49nhBG.s:3324   .text.HAL_RTCEx_TamperTimeStampIRQHandler:0000000000000050 $d
     /tmp/cc49nhBG.s:3329   .text.HAL_RTCEx_BKUPWrite:0000000000000000 $t
     /tmp/cc49nhBG.s:3336   .text.HAL_RTCEx_BKUPWrite:0000000000000000 HAL_RTCEx_BKUPWrite
     /tmp/cc49nhBG.s:3389   .text.HAL_RTCEx_BKUPRead:0000000000000000 $t
     /tmp/cc49nhBG.s:3396   .text.HAL_RTCEx_BKUPRead:0000000000000000 HAL_RTCEx_BKUPRead

UNDEFINED SYMBOLS
RTC_Bcd2ToByte
HAL_GetTick
HAL_RTC_WaitForSynchro
RTC_EnterInitMode
RTC_ExitInitMode
