ARM GAS  /tmp/cc49nhBG.s 			page 1


   1              		.cpu cortex-m4
   2              		.eabi_attribute 27, 1
   3              		.eabi_attribute 28, 1
   4              		.eabi_attribute 20, 1
   5              		.eabi_attribute 21, 1
   6              		.eabi_attribute 23, 3
   7              		.eabi_attribute 24, 1
   8              		.eabi_attribute 25, 1
   9              		.eabi_attribute 26, 1
  10              		.eabi_attribute 30, 1
  11              		.eabi_attribute 34, 1
  12              		.eabi_attribute 18, 4
  13              		.file	"stm32l4xx_hal_rtc_ex.c"
  14              		.text
  15              	.Ltext0:
  16              		.cfi_sections	.debug_frame
  17              		.section	.text.HAL_RTCEx_SetTimeStamp,"ax",%progbits
  18              		.align	1
  19              		.global	HAL_RTCEx_SetTimeStamp
  20              		.arch armv7e-m
  21              		.syntax unified
  22              		.thumb
  23              		.thumb_func
  24              		.fpu fpv4-sp-d16
  26              	HAL_RTCEx_SetTimeStamp:
  27              	.LVL0:
  28              	.LFB132:
  29              		.file 1 "Drivers/STM32L4xx_HAL_Driver/Src/stm32l4xx_hal_rtc_ex.c"
   1:Drivers/STM32L4xx_HAL_Driver/Src/stm32l4xx_hal_rtc_ex.c **** /**
   2:Drivers/STM32L4xx_HAL_Driver/Src/stm32l4xx_hal_rtc_ex.c ****   ******************************************************************************
   3:Drivers/STM32L4xx_HAL_Driver/Src/stm32l4xx_hal_rtc_ex.c ****   * @file    stm32l4xx_hal_rtc_ex.c
   4:Drivers/STM32L4xx_HAL_Driver/Src/stm32l4xx_hal_rtc_ex.c ****   * @author  MCD Application Team
   5:Drivers/STM32L4xx_HAL_Driver/Src/stm32l4xx_hal_rtc_ex.c ****   * @brief   Extended RTC HAL module driver.
   6:Drivers/STM32L4xx_HAL_Driver/Src/stm32l4xx_hal_rtc_ex.c ****   *          This file provides firmware functions to manage the following
   7:Drivers/STM32L4xx_HAL_Driver/Src/stm32l4xx_hal_rtc_ex.c ****   *          functionalities of the Real Time Clock (RTC) Extended peripheral:
   8:Drivers/STM32L4xx_HAL_Driver/Src/stm32l4xx_hal_rtc_ex.c ****   *           + RTC Time Stamp functions
   9:Drivers/STM32L4xx_HAL_Driver/Src/stm32l4xx_hal_rtc_ex.c ****   *           + RTC Tamper functions
  10:Drivers/STM32L4xx_HAL_Driver/Src/stm32l4xx_hal_rtc_ex.c ****   *           + RTC Wake-up functions
  11:Drivers/STM32L4xx_HAL_Driver/Src/stm32l4xx_hal_rtc_ex.c ****   *           + Extended Control functions
  12:Drivers/STM32L4xx_HAL_Driver/Src/stm32l4xx_hal_rtc_ex.c ****   *           + Extended RTC features functions
  13:Drivers/STM32L4xx_HAL_Driver/Src/stm32l4xx_hal_rtc_ex.c ****   *
  14:Drivers/STM32L4xx_HAL_Driver/Src/stm32l4xx_hal_rtc_ex.c ****   ******************************************************************************
  15:Drivers/STM32L4xx_HAL_Driver/Src/stm32l4xx_hal_rtc_ex.c ****   * @attention
  16:Drivers/STM32L4xx_HAL_Driver/Src/stm32l4xx_hal_rtc_ex.c ****   *
  17:Drivers/STM32L4xx_HAL_Driver/Src/stm32l4xx_hal_rtc_ex.c ****   * Copyright (c) 2017 STMicroelectronics.
  18:Drivers/STM32L4xx_HAL_Driver/Src/stm32l4xx_hal_rtc_ex.c ****   * All rights reserved.
  19:Drivers/STM32L4xx_HAL_Driver/Src/stm32l4xx_hal_rtc_ex.c ****   *
  20:Drivers/STM32L4xx_HAL_Driver/Src/stm32l4xx_hal_rtc_ex.c ****   * This software is licensed under terms that can be found in the LICENSE file
  21:Drivers/STM32L4xx_HAL_Driver/Src/stm32l4xx_hal_rtc_ex.c ****   * in the root directory of this software component.
  22:Drivers/STM32L4xx_HAL_Driver/Src/stm32l4xx_hal_rtc_ex.c ****   * If no LICENSE file comes with this software, it is provided AS-IS.
  23:Drivers/STM32L4xx_HAL_Driver/Src/stm32l4xx_hal_rtc_ex.c ****   *
  24:Drivers/STM32L4xx_HAL_Driver/Src/stm32l4xx_hal_rtc_ex.c ****   ******************************************************************************
  25:Drivers/STM32L4xx_HAL_Driver/Src/stm32l4xx_hal_rtc_ex.c ****   @verbatim
  26:Drivers/STM32L4xx_HAL_Driver/Src/stm32l4xx_hal_rtc_ex.c ****   ==============================================================================
  27:Drivers/STM32L4xx_HAL_Driver/Src/stm32l4xx_hal_rtc_ex.c ****                   ##### How to use this driver #####
  28:Drivers/STM32L4xx_HAL_Driver/Src/stm32l4xx_hal_rtc_ex.c ****   ==============================================================================
  29:Drivers/STM32L4xx_HAL_Driver/Src/stm32l4xx_hal_rtc_ex.c ****   [..]
ARM GAS  /tmp/cc49nhBG.s 			page 2


  30:Drivers/STM32L4xx_HAL_Driver/Src/stm32l4xx_hal_rtc_ex.c ****     (+) Enable the RTC domain access.
  31:Drivers/STM32L4xx_HAL_Driver/Src/stm32l4xx_hal_rtc_ex.c ****     (+) Configure the RTC Prescaler (Asynchronous and Synchronous) and RTC hour
  32:Drivers/STM32L4xx_HAL_Driver/Src/stm32l4xx_hal_rtc_ex.c ****         format using the HAL_RTC_Init() function.
  33:Drivers/STM32L4xx_HAL_Driver/Src/stm32l4xx_hal_rtc_ex.c **** 
  34:Drivers/STM32L4xx_HAL_Driver/Src/stm32l4xx_hal_rtc_ex.c ****   *** RTC Wakeup configuration ***
  35:Drivers/STM32L4xx_HAL_Driver/Src/stm32l4xx_hal_rtc_ex.c ****   ================================
  36:Drivers/STM32L4xx_HAL_Driver/Src/stm32l4xx_hal_rtc_ex.c ****   [..]
  37:Drivers/STM32L4xx_HAL_Driver/Src/stm32l4xx_hal_rtc_ex.c ****     (+) To configure the RTC Wakeup Clock source and Counter use the HAL_RTCEx_SetWakeUpTimer()
  38:Drivers/STM32L4xx_HAL_Driver/Src/stm32l4xx_hal_rtc_ex.c ****         function. You can also configure the RTC Wakeup timer with interrupt mode
  39:Drivers/STM32L4xx_HAL_Driver/Src/stm32l4xx_hal_rtc_ex.c ****         using the HAL_RTCEx_SetWakeUpTimer_IT() function.
  40:Drivers/STM32L4xx_HAL_Driver/Src/stm32l4xx_hal_rtc_ex.c ****     (+) To read the RTC WakeUp Counter register, use the HAL_RTCEx_GetWakeUpTimer()
  41:Drivers/STM32L4xx_HAL_Driver/Src/stm32l4xx_hal_rtc_ex.c ****         function.
  42:Drivers/STM32L4xx_HAL_Driver/Src/stm32l4xx_hal_rtc_ex.c **** 
  43:Drivers/STM32L4xx_HAL_Driver/Src/stm32l4xx_hal_rtc_ex.c ****   *** Outputs configuration ***
  44:Drivers/STM32L4xx_HAL_Driver/Src/stm32l4xx_hal_rtc_ex.c ****   =============================
  45:Drivers/STM32L4xx_HAL_Driver/Src/stm32l4xx_hal_rtc_ex.c ****   [..]  The RTC has 2 different outputs:
  46:Drivers/STM32L4xx_HAL_Driver/Src/stm32l4xx_hal_rtc_ex.c ****     (+) RTC_ALARM: this output is used to manage the RTC Alarm A, Alarm B
  47:Drivers/STM32L4xx_HAL_Driver/Src/stm32l4xx_hal_rtc_ex.c ****         and WaKeUp signals.
  48:Drivers/STM32L4xx_HAL_Driver/Src/stm32l4xx_hal_rtc_ex.c ****         To output the selected RTC signal, use the HAL_RTC_Init() function.
  49:Drivers/STM32L4xx_HAL_Driver/Src/stm32l4xx_hal_rtc_ex.c ****     (+) RTC_CALIB: this output is 512Hz signal or 1Hz.
  50:Drivers/STM32L4xx_HAL_Driver/Src/stm32l4xx_hal_rtc_ex.c ****         To enable the RTC_CALIB, use the HAL_RTCEx_SetCalibrationOutPut() function.
  51:Drivers/STM32L4xx_HAL_Driver/Src/stm32l4xx_hal_rtc_ex.c ****     (+) Two pins can be used as RTC_ALARM or RTC_CALIB (PC13, PB2) managed on
  52:Drivers/STM32L4xx_HAL_Driver/Src/stm32l4xx_hal_rtc_ex.c ****         the RTC_OR register.
  53:Drivers/STM32L4xx_HAL_Driver/Src/stm32l4xx_hal_rtc_ex.c ****     (+) When the RTC_CALIB or RTC_ALARM output is selected, the RTC_OUT pin is
  54:Drivers/STM32L4xx_HAL_Driver/Src/stm32l4xx_hal_rtc_ex.c ****         automatically configured in output alternate function.
  55:Drivers/STM32L4xx_HAL_Driver/Src/stm32l4xx_hal_rtc_ex.c **** 
  56:Drivers/STM32L4xx_HAL_Driver/Src/stm32l4xx_hal_rtc_ex.c ****   *** Smooth digital Calibration configuration ***
  57:Drivers/STM32L4xx_HAL_Driver/Src/stm32l4xx_hal_rtc_ex.c ****   ================================================
  58:Drivers/STM32L4xx_HAL_Driver/Src/stm32l4xx_hal_rtc_ex.c ****   [..]
  59:Drivers/STM32L4xx_HAL_Driver/Src/stm32l4xx_hal_rtc_ex.c ****     (+) Configure the RTC Original Digital Calibration Value and the corresponding
  60:Drivers/STM32L4xx_HAL_Driver/Src/stm32l4xx_hal_rtc_ex.c ****         calibration cycle period (32s,16s and 8s) using the HAL_RTCEx_SetSmoothCalib()
  61:Drivers/STM32L4xx_HAL_Driver/Src/stm32l4xx_hal_rtc_ex.c ****         function.
  62:Drivers/STM32L4xx_HAL_Driver/Src/stm32l4xx_hal_rtc_ex.c **** 
  63:Drivers/STM32L4xx_HAL_Driver/Src/stm32l4xx_hal_rtc_ex.c ****   *** TimeStamp configuration ***
  64:Drivers/STM32L4xx_HAL_Driver/Src/stm32l4xx_hal_rtc_ex.c ****   ===============================
  65:Drivers/STM32L4xx_HAL_Driver/Src/stm32l4xx_hal_rtc_ex.c ****   [..]
  66:Drivers/STM32L4xx_HAL_Driver/Src/stm32l4xx_hal_rtc_ex.c ****     (+) Enable the RTC TimeStamp using the HAL_RTCEx_SetTimeStamp() function.
  67:Drivers/STM32L4xx_HAL_Driver/Src/stm32l4xx_hal_rtc_ex.c ****         You can also configure the RTC TimeStamp with interrupt mode using the
  68:Drivers/STM32L4xx_HAL_Driver/Src/stm32l4xx_hal_rtc_ex.c ****         HAL_RTCEx_SetTimeStamp_IT() function.
  69:Drivers/STM32L4xx_HAL_Driver/Src/stm32l4xx_hal_rtc_ex.c ****     (+) To read the RTC TimeStamp Time and Date register, use the HAL_RTCEx_GetTimeStamp()
  70:Drivers/STM32L4xx_HAL_Driver/Src/stm32l4xx_hal_rtc_ex.c ****         function.
  71:Drivers/STM32L4xx_HAL_Driver/Src/stm32l4xx_hal_rtc_ex.c **** 
  72:Drivers/STM32L4xx_HAL_Driver/Src/stm32l4xx_hal_rtc_ex.c ****   *** Internal TimeStamp configuration ***
  73:Drivers/STM32L4xx_HAL_Driver/Src/stm32l4xx_hal_rtc_ex.c ****   ===============================
  74:Drivers/STM32L4xx_HAL_Driver/Src/stm32l4xx_hal_rtc_ex.c ****   [..]
  75:Drivers/STM32L4xx_HAL_Driver/Src/stm32l4xx_hal_rtc_ex.c ****     (+) Enable the RTC internal TimeStamp using the HAL_RTCEx_SetInternalTimeStamp() function.
  76:Drivers/STM32L4xx_HAL_Driver/Src/stm32l4xx_hal_rtc_ex.c ****         User has to check internal timestamp occurrence using __HAL_RTC_INTERNAL_TIMESTAMP_GET_FLAG
  77:Drivers/STM32L4xx_HAL_Driver/Src/stm32l4xx_hal_rtc_ex.c ****     (+) To read the RTC TimeStamp Time and Date register, use the HAL_RTCEx_GetTimeStamp()
  78:Drivers/STM32L4xx_HAL_Driver/Src/stm32l4xx_hal_rtc_ex.c ****         function.
  79:Drivers/STM32L4xx_HAL_Driver/Src/stm32l4xx_hal_rtc_ex.c **** 
  80:Drivers/STM32L4xx_HAL_Driver/Src/stm32l4xx_hal_rtc_ex.c ****    *** Tamper configuration ***
  81:Drivers/STM32L4xx_HAL_Driver/Src/stm32l4xx_hal_rtc_ex.c ****    ============================
  82:Drivers/STM32L4xx_HAL_Driver/Src/stm32l4xx_hal_rtc_ex.c ****    [..]
  83:Drivers/STM32L4xx_HAL_Driver/Src/stm32l4xx_hal_rtc_ex.c ****      (+) Enable the RTC Tamper and configure the Tamper filter count, trigger Edge
  84:Drivers/STM32L4xx_HAL_Driver/Src/stm32l4xx_hal_rtc_ex.c ****          or Level according to the Tamper filter (if equal to 0 Edge else Level)
  85:Drivers/STM32L4xx_HAL_Driver/Src/stm32l4xx_hal_rtc_ex.c ****          value, sampling frequency, NoErase, MaskFlag,  precharge or discharge and
  86:Drivers/STM32L4xx_HAL_Driver/Src/stm32l4xx_hal_rtc_ex.c ****          Pull-UP using the HAL_RTCEx_SetTamper() function. You can configure RTC Tamper
ARM GAS  /tmp/cc49nhBG.s 			page 3


  87:Drivers/STM32L4xx_HAL_Driver/Src/stm32l4xx_hal_rtc_ex.c ****          with interrupt mode using HAL_RTCEx_SetTamper_IT() function.
  88:Drivers/STM32L4xx_HAL_Driver/Src/stm32l4xx_hal_rtc_ex.c ****      (+) The default configuration of the Tamper erases the backup registers. To avoid
  89:Drivers/STM32L4xx_HAL_Driver/Src/stm32l4xx_hal_rtc_ex.c ****          erase, enable the NoErase field on the RTC_TAMPCR register.
  90:Drivers/STM32L4xx_HAL_Driver/Src/stm32l4xx_hal_rtc_ex.c ****      (+) STM32L412xx and STM32L422xx only : With new RTC tamper configuration, you have to call HAL
  91:Drivers/STM32L4xx_HAL_Driver/Src/stm32l4xx_hal_rtc_ex.c ****          perform TAMP base address offset calculation.
  92:Drivers/STM32L4xx_HAL_Driver/Src/stm32l4xx_hal_rtc_ex.c ****      (+) STM32L412xx and STM32L422xx only : If you don't intend to have tamper using RTC clock, you
  93:Drivers/STM32L4xx_HAL_Driver/Src/stm32l4xx_hal_rtc_ex.c ****          by setting ClockEnable inti field to RTC_CLOCK_DISABLE.
  94:Drivers/STM32L4xx_HAL_Driver/Src/stm32l4xx_hal_rtc_ex.c ****      (+) STM32L412xx and STM32L422xx only : Enable Internal tamper using HAL_RTCEx_SetInternalTampe
  95:Drivers/STM32L4xx_HAL_Driver/Src/stm32l4xx_hal_rtc_ex.c ****          setting Interrupt field.
  96:Drivers/STM32L4xx_HAL_Driver/Src/stm32l4xx_hal_rtc_ex.c **** 
  97:Drivers/STM32L4xx_HAL_Driver/Src/stm32l4xx_hal_rtc_ex.c ****    *** Backup Data Registers configuration ***
  98:Drivers/STM32L4xx_HAL_Driver/Src/stm32l4xx_hal_rtc_ex.c ****    ===========================================
  99:Drivers/STM32L4xx_HAL_Driver/Src/stm32l4xx_hal_rtc_ex.c ****    [..]
 100:Drivers/STM32L4xx_HAL_Driver/Src/stm32l4xx_hal_rtc_ex.c ****      (+) To write to the RTC Backup Data registers, use the HAL_RTCEx_BKUPWrite()
 101:Drivers/STM32L4xx_HAL_Driver/Src/stm32l4xx_hal_rtc_ex.c ****          function.
 102:Drivers/STM32L4xx_HAL_Driver/Src/stm32l4xx_hal_rtc_ex.c ****      (+) To read the RTC Backup Data registers, use the HAL_RTCEx_BKUPRead()
 103:Drivers/STM32L4xx_HAL_Driver/Src/stm32l4xx_hal_rtc_ex.c ****          function.
 104:Drivers/STM32L4xx_HAL_Driver/Src/stm32l4xx_hal_rtc_ex.c ****      (+) STM32L412xx and STM32L422xx only : Before calling these functions you have to call HAL_RTC
 105:Drivers/STM32L4xx_HAL_Driver/Src/stm32l4xx_hal_rtc_ex.c ****          perform TAMP base address offset calculation.
 106:Drivers/STM32L4xx_HAL_Driver/Src/stm32l4xx_hal_rtc_ex.c **** 
 107:Drivers/STM32L4xx_HAL_Driver/Src/stm32l4xx_hal_rtc_ex.c ****   @endverbatim
 108:Drivers/STM32L4xx_HAL_Driver/Src/stm32l4xx_hal_rtc_ex.c ****   ******************************************************************************
 109:Drivers/STM32L4xx_HAL_Driver/Src/stm32l4xx_hal_rtc_ex.c ****   */
 110:Drivers/STM32L4xx_HAL_Driver/Src/stm32l4xx_hal_rtc_ex.c **** 
 111:Drivers/STM32L4xx_HAL_Driver/Src/stm32l4xx_hal_rtc_ex.c **** /* Includes ------------------------------------------------------------------*/
 112:Drivers/STM32L4xx_HAL_Driver/Src/stm32l4xx_hal_rtc_ex.c **** #include "stm32l4xx_hal.h"
 113:Drivers/STM32L4xx_HAL_Driver/Src/stm32l4xx_hal_rtc_ex.c **** 
 114:Drivers/STM32L4xx_HAL_Driver/Src/stm32l4xx_hal_rtc_ex.c **** /** @addtogroup STM32L4xx_HAL_Driver
 115:Drivers/STM32L4xx_HAL_Driver/Src/stm32l4xx_hal_rtc_ex.c ****   * @{
 116:Drivers/STM32L4xx_HAL_Driver/Src/stm32l4xx_hal_rtc_ex.c ****   */
 117:Drivers/STM32L4xx_HAL_Driver/Src/stm32l4xx_hal_rtc_ex.c **** 
 118:Drivers/STM32L4xx_HAL_Driver/Src/stm32l4xx_hal_rtc_ex.c **** /** @addtogroup RTCEx
 119:Drivers/STM32L4xx_HAL_Driver/Src/stm32l4xx_hal_rtc_ex.c ****   * @brief RTC Extended HAL module driver
 120:Drivers/STM32L4xx_HAL_Driver/Src/stm32l4xx_hal_rtc_ex.c ****   * @{
 121:Drivers/STM32L4xx_HAL_Driver/Src/stm32l4xx_hal_rtc_ex.c ****   */
 122:Drivers/STM32L4xx_HAL_Driver/Src/stm32l4xx_hal_rtc_ex.c **** 
 123:Drivers/STM32L4xx_HAL_Driver/Src/stm32l4xx_hal_rtc_ex.c **** #ifdef HAL_RTC_MODULE_ENABLED
 124:Drivers/STM32L4xx_HAL_Driver/Src/stm32l4xx_hal_rtc_ex.c **** 
 125:Drivers/STM32L4xx_HAL_Driver/Src/stm32l4xx_hal_rtc_ex.c **** /* Private typedef -----------------------------------------------------------*/
 126:Drivers/STM32L4xx_HAL_Driver/Src/stm32l4xx_hal_rtc_ex.c **** /* Private define ------------------------------------------------------------*/
 127:Drivers/STM32L4xx_HAL_Driver/Src/stm32l4xx_hal_rtc_ex.c **** /* Private macro -------------------------------------------------------------*/
 128:Drivers/STM32L4xx_HAL_Driver/Src/stm32l4xx_hal_rtc_ex.c **** /* Private variables ---------------------------------------------------------*/
 129:Drivers/STM32L4xx_HAL_Driver/Src/stm32l4xx_hal_rtc_ex.c **** /* Private function prototypes -----------------------------------------------*/
 130:Drivers/STM32L4xx_HAL_Driver/Src/stm32l4xx_hal_rtc_ex.c **** /* Exported functions --------------------------------------------------------*/
 131:Drivers/STM32L4xx_HAL_Driver/Src/stm32l4xx_hal_rtc_ex.c **** 
 132:Drivers/STM32L4xx_HAL_Driver/Src/stm32l4xx_hal_rtc_ex.c **** /** @addtogroup RTCEx_Exported_Functions
 133:Drivers/STM32L4xx_HAL_Driver/Src/stm32l4xx_hal_rtc_ex.c ****   * @{
 134:Drivers/STM32L4xx_HAL_Driver/Src/stm32l4xx_hal_rtc_ex.c ****   */
 135:Drivers/STM32L4xx_HAL_Driver/Src/stm32l4xx_hal_rtc_ex.c **** 
 136:Drivers/STM32L4xx_HAL_Driver/Src/stm32l4xx_hal_rtc_ex.c **** 
 137:Drivers/STM32L4xx_HAL_Driver/Src/stm32l4xx_hal_rtc_ex.c **** /** @addtogroup RTCEx_Exported_Functions_Group1
 138:Drivers/STM32L4xx_HAL_Driver/Src/stm32l4xx_hal_rtc_ex.c ****   * @brief   RTC TimeStamp and Tamper functions
 139:Drivers/STM32L4xx_HAL_Driver/Src/stm32l4xx_hal_rtc_ex.c ****   *
 140:Drivers/STM32L4xx_HAL_Driver/Src/stm32l4xx_hal_rtc_ex.c **** @verbatim
 141:Drivers/STM32L4xx_HAL_Driver/Src/stm32l4xx_hal_rtc_ex.c ****  ===============================================================================
 142:Drivers/STM32L4xx_HAL_Driver/Src/stm32l4xx_hal_rtc_ex.c ****                  ##### RTC TimeStamp and Tamper functions #####
 143:Drivers/STM32L4xx_HAL_Driver/Src/stm32l4xx_hal_rtc_ex.c ****  ===============================================================================
ARM GAS  /tmp/cc49nhBG.s 			page 4


 144:Drivers/STM32L4xx_HAL_Driver/Src/stm32l4xx_hal_rtc_ex.c **** 
 145:Drivers/STM32L4xx_HAL_Driver/Src/stm32l4xx_hal_rtc_ex.c ****  [..] This section provides functions allowing to configure TimeStamp feature
 146:Drivers/STM32L4xx_HAL_Driver/Src/stm32l4xx_hal_rtc_ex.c **** 
 147:Drivers/STM32L4xx_HAL_Driver/Src/stm32l4xx_hal_rtc_ex.c **** @endverbatim
 148:Drivers/STM32L4xx_HAL_Driver/Src/stm32l4xx_hal_rtc_ex.c ****   * @{
 149:Drivers/STM32L4xx_HAL_Driver/Src/stm32l4xx_hal_rtc_ex.c ****   */
 150:Drivers/STM32L4xx_HAL_Driver/Src/stm32l4xx_hal_rtc_ex.c **** 
 151:Drivers/STM32L4xx_HAL_Driver/Src/stm32l4xx_hal_rtc_ex.c **** /**
 152:Drivers/STM32L4xx_HAL_Driver/Src/stm32l4xx_hal_rtc_ex.c ****   * @brief  Set TimeStamp.
 153:Drivers/STM32L4xx_HAL_Driver/Src/stm32l4xx_hal_rtc_ex.c ****   * @note   This API must be called before enabling the TimeStamp feature.
 154:Drivers/STM32L4xx_HAL_Driver/Src/stm32l4xx_hal_rtc_ex.c ****   * @param  hrtc RTC handle
 155:Drivers/STM32L4xx_HAL_Driver/Src/stm32l4xx_hal_rtc_ex.c ****   * @param  TimeStampEdge Specifies the pin edge on which the TimeStamp is
 156:Drivers/STM32L4xx_HAL_Driver/Src/stm32l4xx_hal_rtc_ex.c ****   *         activated.
 157:Drivers/STM32L4xx_HAL_Driver/Src/stm32l4xx_hal_rtc_ex.c ****   *          This parameter can be one of the following values:
 158:Drivers/STM32L4xx_HAL_Driver/Src/stm32l4xx_hal_rtc_ex.c ****   *             @arg RTC_TIMESTAMPEDGE_RISING: the Time stamp event occurs on the
 159:Drivers/STM32L4xx_HAL_Driver/Src/stm32l4xx_hal_rtc_ex.c ****   *                                        rising edge of the related pin.
 160:Drivers/STM32L4xx_HAL_Driver/Src/stm32l4xx_hal_rtc_ex.c ****   *             @arg RTC_TIMESTAMPEDGE_FALLING: the Time stamp event occurs on the
 161:Drivers/STM32L4xx_HAL_Driver/Src/stm32l4xx_hal_rtc_ex.c ****   *                                         falling edge of the related pin.
 162:Drivers/STM32L4xx_HAL_Driver/Src/stm32l4xx_hal_rtc_ex.c ****   * @param  RTC_TimeStampPin specifies the RTC TimeStamp Pin.
 163:Drivers/STM32L4xx_HAL_Driver/Src/stm32l4xx_hal_rtc_ex.c ****   *          This parameter can be one of the following values:
 164:Drivers/STM32L4xx_HAL_Driver/Src/stm32l4xx_hal_rtc_ex.c ****   *             @arg RTC_TIMESTAMPPIN_DEFAULT: PC13 is selected as RTC TimeStamp Pin.
 165:Drivers/STM32L4xx_HAL_Driver/Src/stm32l4xx_hal_rtc_ex.c ****   *               The RTC TimeStamp Pin is per default PC13, but for reasons of
 166:Drivers/STM32L4xx_HAL_Driver/Src/stm32l4xx_hal_rtc_ex.c ****   *               compatibility, this parameter is required.
 167:Drivers/STM32L4xx_HAL_Driver/Src/stm32l4xx_hal_rtc_ex.c ****   * @retval HAL status
 168:Drivers/STM32L4xx_HAL_Driver/Src/stm32l4xx_hal_rtc_ex.c ****   */
 169:Drivers/STM32L4xx_HAL_Driver/Src/stm32l4xx_hal_rtc_ex.c **** HAL_StatusTypeDef HAL_RTCEx_SetTimeStamp(RTC_HandleTypeDef *hrtc, uint32_t TimeStampEdge, uint32_t 
 170:Drivers/STM32L4xx_HAL_Driver/Src/stm32l4xx_hal_rtc_ex.c **** {
  30              		.loc 1 170 1 view -0
  31              		.cfi_startproc
  32              		@ args = 0, pretend = 0, frame = 0
  33              		@ frame_needed = 0, uses_anonymous_args = 0
  34              		@ link register save eliminated.
 171:Drivers/STM32L4xx_HAL_Driver/Src/stm32l4xx_hal_rtc_ex.c ****   uint32_t tmpreg;
  35              		.loc 1 171 3 view .LVU1
 172:Drivers/STM32L4xx_HAL_Driver/Src/stm32l4xx_hal_rtc_ex.c **** 
 173:Drivers/STM32L4xx_HAL_Driver/Src/stm32l4xx_hal_rtc_ex.c ****   /* Check the parameters */
 174:Drivers/STM32L4xx_HAL_Driver/Src/stm32l4xx_hal_rtc_ex.c ****   assert_param(IS_TIMESTAMP_EDGE(TimeStampEdge));
  36              		.loc 1 174 3 view .LVU2
 175:Drivers/STM32L4xx_HAL_Driver/Src/stm32l4xx_hal_rtc_ex.c ****   assert_param(IS_RTC_TIMESTAMP_PIN(RTC_TimeStampPin));
  37              		.loc 1 175 3 view .LVU3
 176:Drivers/STM32L4xx_HAL_Driver/Src/stm32l4xx_hal_rtc_ex.c **** 
 177:Drivers/STM32L4xx_HAL_Driver/Src/stm32l4xx_hal_rtc_ex.c ****   /* Prevent unused argument(s) compilation warning if no assert_param check */
 178:Drivers/STM32L4xx_HAL_Driver/Src/stm32l4xx_hal_rtc_ex.c ****   UNUSED(RTC_TimeStampPin);
  38              		.loc 1 178 3 view .LVU4
 179:Drivers/STM32L4xx_HAL_Driver/Src/stm32l4xx_hal_rtc_ex.c **** 
 180:Drivers/STM32L4xx_HAL_Driver/Src/stm32l4xx_hal_rtc_ex.c ****   /* Process Locked */
 181:Drivers/STM32L4xx_HAL_Driver/Src/stm32l4xx_hal_rtc_ex.c ****   __HAL_LOCK(hrtc);
  39              		.loc 1 181 3 view .LVU5
  40              		.loc 1 181 3 view .LVU6
  41 0000 90F82830 		ldrb	r3, [r0, #40]	@ zero_extendqisi2
  42 0004 012B     		cmp	r3, #1
  43 0006 26D0     		beq	.L3
 170:Drivers/STM32L4xx_HAL_Driver/Src/stm32l4xx_hal_rtc_ex.c ****   uint32_t tmpreg;
  44              		.loc 1 170 1 is_stmt 0 discriminator 2 view .LVU7
  45 0008 10B4     		push	{r4}
  46              	.LCFI0:
  47              		.cfi_def_cfa_offset 4
ARM GAS  /tmp/cc49nhBG.s 			page 5


  48              		.cfi_offset 4, -4
  49              		.loc 1 181 3 is_stmt 1 discriminator 2 view .LVU8
  50 000a 4FF0010C 		mov	ip, #1
  51 000e 80F828C0 		strb	ip, [r0, #40]
  52              		.loc 1 181 3 discriminator 2 view .LVU9
 182:Drivers/STM32L4xx_HAL_Driver/Src/stm32l4xx_hal_rtc_ex.c **** 
 183:Drivers/STM32L4xx_HAL_Driver/Src/stm32l4xx_hal_rtc_ex.c ****   hrtc->State = HAL_RTC_STATE_BUSY;
  53              		.loc 1 183 3 discriminator 2 view .LVU10
  54              		.loc 1 183 15 is_stmt 0 discriminator 2 view .LVU11
  55 0012 0223     		movs	r3, #2
  56 0014 80F82930 		strb	r3, [r0, #41]
 184:Drivers/STM32L4xx_HAL_Driver/Src/stm32l4xx_hal_rtc_ex.c **** 
 185:Drivers/STM32L4xx_HAL_Driver/Src/stm32l4xx_hal_rtc_ex.c ****   /* Get the RTC_CR register and clear the bits to be configured */
 186:Drivers/STM32L4xx_HAL_Driver/Src/stm32l4xx_hal_rtc_ex.c ****   tmpreg = (uint32_t)(hrtc->Instance->CR & (uint32_t)~(RTC_CR_TSEDGE | RTC_CR_TSE));
  57              		.loc 1 186 3 is_stmt 1 discriminator 2 view .LVU12
  58              		.loc 1 186 27 is_stmt 0 discriminator 2 view .LVU13
  59 0018 0468     		ldr	r4, [r0]
  60              		.loc 1 186 37 discriminator 2 view .LVU14
  61 001a A369     		ldr	r3, [r4, #24]
  62              		.loc 1 186 10 discriminator 2 view .LVU15
  63 001c 23F40063 		bic	r3, r3, #2048
  64 0020 23F00803 		bic	r3, r3, #8
  65              	.LVL1:
 187:Drivers/STM32L4xx_HAL_Driver/Src/stm32l4xx_hal_rtc_ex.c **** 
 188:Drivers/STM32L4xx_HAL_Driver/Src/stm32l4xx_hal_rtc_ex.c ****   tmpreg |= TimeStampEdge;
  66              		.loc 1 188 3 is_stmt 1 discriminator 2 view .LVU16
  67              		.loc 1 188 10 is_stmt 0 discriminator 2 view .LVU17
  68 0024 0B43     		orrs	r3, r3, r1
  69              	.LVL2:
 189:Drivers/STM32L4xx_HAL_Driver/Src/stm32l4xx_hal_rtc_ex.c **** 
 190:Drivers/STM32L4xx_HAL_Driver/Src/stm32l4xx_hal_rtc_ex.c ****   /* Disable the write protection for RTC registers */
 191:Drivers/STM32L4xx_HAL_Driver/Src/stm32l4xx_hal_rtc_ex.c ****   __HAL_RTC_WRITEPROTECTION_DISABLE(hrtc);
  70              		.loc 1 191 3 is_stmt 1 discriminator 2 view .LVU18
  71              		.loc 1 191 3 discriminator 2 view .LVU19
  72 0026 CA22     		movs	r2, #202
  73              	.LVL3:
  74              		.loc 1 191 3 is_stmt 0 discriminator 2 view .LVU20
  75 0028 6262     		str	r2, [r4, #36]
  76              		.loc 1 191 3 is_stmt 1 discriminator 2 view .LVU21
  77 002a 0268     		ldr	r2, [r0]
  78 002c 5321     		movs	r1, #83
  79              	.LVL4:
  80              		.loc 1 191 3 is_stmt 0 discriminator 2 view .LVU22
  81 002e 5162     		str	r1, [r2, #36]
  82              		.loc 1 191 3 is_stmt 1 discriminator 2 view .LVU23
 192:Drivers/STM32L4xx_HAL_Driver/Src/stm32l4xx_hal_rtc_ex.c **** 
 193:Drivers/STM32L4xx_HAL_Driver/Src/stm32l4xx_hal_rtc_ex.c ****   /* Configure the Time Stamp TSEDGE and Enable bits */
 194:Drivers/STM32L4xx_HAL_Driver/Src/stm32l4xx_hal_rtc_ex.c ****   hrtc->Instance->CR = (uint32_t)tmpreg;
  83              		.loc 1 194 3 discriminator 2 view .LVU24
  84              		.loc 1 194 7 is_stmt 0 discriminator 2 view .LVU25
  85 0030 0268     		ldr	r2, [r0]
  86              		.loc 1 194 22 discriminator 2 view .LVU26
  87 0032 9361     		str	r3, [r2, #24]
 195:Drivers/STM32L4xx_HAL_Driver/Src/stm32l4xx_hal_rtc_ex.c **** 
 196:Drivers/STM32L4xx_HAL_Driver/Src/stm32l4xx_hal_rtc_ex.c ****   __HAL_RTC_TIMESTAMP_ENABLE(hrtc);
  88              		.loc 1 196 3 is_stmt 1 discriminator 2 view .LVU27
  89 0034 0268     		ldr	r2, [r0]
ARM GAS  /tmp/cc49nhBG.s 			page 6


  90 0036 9369     		ldr	r3, [r2, #24]
  91              	.LVL5:
  92              		.loc 1 196 3 is_stmt 0 discriminator 2 view .LVU28
  93 0038 43F40063 		orr	r3, r3, #2048
  94 003c 9361     		str	r3, [r2, #24]
 197:Drivers/STM32L4xx_HAL_Driver/Src/stm32l4xx_hal_rtc_ex.c **** 
 198:Drivers/STM32L4xx_HAL_Driver/Src/stm32l4xx_hal_rtc_ex.c ****   /* Enable the write protection for RTC registers */
 199:Drivers/STM32L4xx_HAL_Driver/Src/stm32l4xx_hal_rtc_ex.c ****   __HAL_RTC_WRITEPROTECTION_ENABLE(hrtc);
  95              		.loc 1 199 3 is_stmt 1 discriminator 2 view .LVU29
  96              		.loc 1 199 3 discriminator 2 view .LVU30
  97 003e 0368     		ldr	r3, [r0]
  98 0040 FF22     		movs	r2, #255
  99 0042 5A62     		str	r2, [r3, #36]
 100              		.loc 1 199 3 discriminator 2 view .LVU31
 200:Drivers/STM32L4xx_HAL_Driver/Src/stm32l4xx_hal_rtc_ex.c **** 
 201:Drivers/STM32L4xx_HAL_Driver/Src/stm32l4xx_hal_rtc_ex.c ****   /* Change RTC state */
 202:Drivers/STM32L4xx_HAL_Driver/Src/stm32l4xx_hal_rtc_ex.c ****   hrtc->State = HAL_RTC_STATE_READY;
 101              		.loc 1 202 3 discriminator 2 view .LVU32
 102              		.loc 1 202 15 is_stmt 0 discriminator 2 view .LVU33
 103 0044 80F829C0 		strb	ip, [r0, #41]
 203:Drivers/STM32L4xx_HAL_Driver/Src/stm32l4xx_hal_rtc_ex.c **** 
 204:Drivers/STM32L4xx_HAL_Driver/Src/stm32l4xx_hal_rtc_ex.c ****   /* Process Unlocked */
 205:Drivers/STM32L4xx_HAL_Driver/Src/stm32l4xx_hal_rtc_ex.c ****   __HAL_UNLOCK(hrtc);
 104              		.loc 1 205 3 is_stmt 1 discriminator 2 view .LVU34
 105              		.loc 1 205 3 discriminator 2 view .LVU35
 106 0048 0023     		movs	r3, #0
 107 004a 80F82830 		strb	r3, [r0, #40]
 108              		.loc 1 205 3 discriminator 2 view .LVU36
 206:Drivers/STM32L4xx_HAL_Driver/Src/stm32l4xx_hal_rtc_ex.c **** 
 207:Drivers/STM32L4xx_HAL_Driver/Src/stm32l4xx_hal_rtc_ex.c ****   return HAL_OK;
 109              		.loc 1 207 3 discriminator 2 view .LVU37
 110              		.loc 1 207 10 is_stmt 0 discriminator 2 view .LVU38
 111 004e 1846     		mov	r0, r3
 112              	.LVL6:
 208:Drivers/STM32L4xx_HAL_Driver/Src/stm32l4xx_hal_rtc_ex.c **** }
 113              		.loc 1 208 1 discriminator 2 view .LVU39
 114 0050 5DF8044B 		ldr	r4, [sp], #4
 115              	.LCFI1:
 116              		.cfi_restore 4
 117              		.cfi_def_cfa_offset 0
 118 0054 7047     		bx	lr
 119              	.LVL7:
 120              	.L3:
 181:Drivers/STM32L4xx_HAL_Driver/Src/stm32l4xx_hal_rtc_ex.c **** 
 121              		.loc 1 181 3 view .LVU40
 122 0056 0220     		movs	r0, #2
 123              	.LVL8:
 124              		.loc 1 208 1 view .LVU41
 125 0058 7047     		bx	lr
 126              		.cfi_endproc
 127              	.LFE132:
 129              		.section	.text.HAL_RTCEx_SetTimeStamp_IT,"ax",%progbits
 130              		.align	1
 131              		.global	HAL_RTCEx_SetTimeStamp_IT
 132              		.syntax unified
 133              		.thumb
 134              		.thumb_func
ARM GAS  /tmp/cc49nhBG.s 			page 7


 135              		.fpu fpv4-sp-d16
 137              	HAL_RTCEx_SetTimeStamp_IT:
 138              	.LVL9:
 139              	.LFB133:
 209:Drivers/STM32L4xx_HAL_Driver/Src/stm32l4xx_hal_rtc_ex.c **** 
 210:Drivers/STM32L4xx_HAL_Driver/Src/stm32l4xx_hal_rtc_ex.c **** /**
 211:Drivers/STM32L4xx_HAL_Driver/Src/stm32l4xx_hal_rtc_ex.c ****   * @brief  Set TimeStamp with Interrupt.
 212:Drivers/STM32L4xx_HAL_Driver/Src/stm32l4xx_hal_rtc_ex.c ****   * @note   This API must be called before enabling the TimeStamp feature.
 213:Drivers/STM32L4xx_HAL_Driver/Src/stm32l4xx_hal_rtc_ex.c ****   * @param  hrtc RTC handle
 214:Drivers/STM32L4xx_HAL_Driver/Src/stm32l4xx_hal_rtc_ex.c ****   * @param  TimeStampEdge Specifies the pin edge on which the TimeStamp is
 215:Drivers/STM32L4xx_HAL_Driver/Src/stm32l4xx_hal_rtc_ex.c ****   *         activated.
 216:Drivers/STM32L4xx_HAL_Driver/Src/stm32l4xx_hal_rtc_ex.c ****   *          This parameter can be one of the following values:
 217:Drivers/STM32L4xx_HAL_Driver/Src/stm32l4xx_hal_rtc_ex.c ****   *             @arg RTC_TIMESTAMPEDGE_RISING: the Time stamp event occurs on the
 218:Drivers/STM32L4xx_HAL_Driver/Src/stm32l4xx_hal_rtc_ex.c ****   *                                        rising edge of the related pin.
 219:Drivers/STM32L4xx_HAL_Driver/Src/stm32l4xx_hal_rtc_ex.c ****   *             @arg RTC_TIMESTAMPEDGE_FALLING: the Time stamp event occurs on the
 220:Drivers/STM32L4xx_HAL_Driver/Src/stm32l4xx_hal_rtc_ex.c ****   *                                         falling edge of the related pin.
 221:Drivers/STM32L4xx_HAL_Driver/Src/stm32l4xx_hal_rtc_ex.c ****   * @param  RTC_TimeStampPin Specifies the RTC TimeStamp Pin.
 222:Drivers/STM32L4xx_HAL_Driver/Src/stm32l4xx_hal_rtc_ex.c ****   *          This parameter can be one of the following values:
 223:Drivers/STM32L4xx_HAL_Driver/Src/stm32l4xx_hal_rtc_ex.c ****   *             @arg RTC_TIMESTAMPPIN_DEFAULT: PC13 is selected as RTC TimeStamp Pin.
 224:Drivers/STM32L4xx_HAL_Driver/Src/stm32l4xx_hal_rtc_ex.c ****   *               The RTC TimeStamp Pin is per default PC13, but for reasons of
 225:Drivers/STM32L4xx_HAL_Driver/Src/stm32l4xx_hal_rtc_ex.c ****   *               compatibility, this parameter is required.
 226:Drivers/STM32L4xx_HAL_Driver/Src/stm32l4xx_hal_rtc_ex.c ****   * @retval HAL status
 227:Drivers/STM32L4xx_HAL_Driver/Src/stm32l4xx_hal_rtc_ex.c ****   */
 228:Drivers/STM32L4xx_HAL_Driver/Src/stm32l4xx_hal_rtc_ex.c **** HAL_StatusTypeDef HAL_RTCEx_SetTimeStamp_IT(RTC_HandleTypeDef *hrtc, uint32_t TimeStampEdge, uint32
 229:Drivers/STM32L4xx_HAL_Driver/Src/stm32l4xx_hal_rtc_ex.c **** {
 140              		.loc 1 229 1 is_stmt 1 view -0
 141              		.cfi_startproc
 142              		@ args = 0, pretend = 0, frame = 0
 143              		@ frame_needed = 0, uses_anonymous_args = 0
 144              		@ link register save eliminated.
 230:Drivers/STM32L4xx_HAL_Driver/Src/stm32l4xx_hal_rtc_ex.c ****   uint32_t tmpreg;
 145              		.loc 1 230 3 view .LVU43
 231:Drivers/STM32L4xx_HAL_Driver/Src/stm32l4xx_hal_rtc_ex.c **** 
 232:Drivers/STM32L4xx_HAL_Driver/Src/stm32l4xx_hal_rtc_ex.c ****   /* Check the parameters */
 233:Drivers/STM32L4xx_HAL_Driver/Src/stm32l4xx_hal_rtc_ex.c ****   assert_param(IS_TIMESTAMP_EDGE(TimeStampEdge));
 146              		.loc 1 233 3 view .LVU44
 234:Drivers/STM32L4xx_HAL_Driver/Src/stm32l4xx_hal_rtc_ex.c ****   assert_param(IS_RTC_TIMESTAMP_PIN(RTC_TimeStampPin));
 147              		.loc 1 234 3 view .LVU45
 235:Drivers/STM32L4xx_HAL_Driver/Src/stm32l4xx_hal_rtc_ex.c **** 
 236:Drivers/STM32L4xx_HAL_Driver/Src/stm32l4xx_hal_rtc_ex.c ****   /* Prevent unused argument(s) compilation warning if no assert_param check */
 237:Drivers/STM32L4xx_HAL_Driver/Src/stm32l4xx_hal_rtc_ex.c ****   UNUSED(RTC_TimeStampPin);
 148              		.loc 1 237 3 view .LVU46
 238:Drivers/STM32L4xx_HAL_Driver/Src/stm32l4xx_hal_rtc_ex.c **** 
 239:Drivers/STM32L4xx_HAL_Driver/Src/stm32l4xx_hal_rtc_ex.c ****   /* Process Locked */
 240:Drivers/STM32L4xx_HAL_Driver/Src/stm32l4xx_hal_rtc_ex.c ****   __HAL_LOCK(hrtc);
 149              		.loc 1 240 3 view .LVU47
 150              		.loc 1 240 3 view .LVU48
 151 0000 90F82830 		ldrb	r3, [r0, #40]	@ zero_extendqisi2
 152 0004 012B     		cmp	r3, #1
 153 0006 34D0     		beq	.L10
 229:Drivers/STM32L4xx_HAL_Driver/Src/stm32l4xx_hal_rtc_ex.c ****   uint32_t tmpreg;
 154              		.loc 1 229 1 is_stmt 0 discriminator 2 view .LVU49
 155 0008 10B4     		push	{r4}
 156              	.LCFI2:
 157              		.cfi_def_cfa_offset 4
 158              		.cfi_offset 4, -4
 159              		.loc 1 240 3 is_stmt 1 discriminator 2 view .LVU50
ARM GAS  /tmp/cc49nhBG.s 			page 8


 160 000a 4FF0010C 		mov	ip, #1
 161 000e 80F828C0 		strb	ip, [r0, #40]
 162              		.loc 1 240 3 discriminator 2 view .LVU51
 241:Drivers/STM32L4xx_HAL_Driver/Src/stm32l4xx_hal_rtc_ex.c **** 
 242:Drivers/STM32L4xx_HAL_Driver/Src/stm32l4xx_hal_rtc_ex.c ****   hrtc->State = HAL_RTC_STATE_BUSY;
 163              		.loc 1 242 3 discriminator 2 view .LVU52
 164              		.loc 1 242 15 is_stmt 0 discriminator 2 view .LVU53
 165 0012 0223     		movs	r3, #2
 166 0014 80F82930 		strb	r3, [r0, #41]
 243:Drivers/STM32L4xx_HAL_Driver/Src/stm32l4xx_hal_rtc_ex.c **** 
 244:Drivers/STM32L4xx_HAL_Driver/Src/stm32l4xx_hal_rtc_ex.c ****   /* Get the RTC_CR register and clear the bits to be configured */
 245:Drivers/STM32L4xx_HAL_Driver/Src/stm32l4xx_hal_rtc_ex.c ****   tmpreg = (uint32_t)(hrtc->Instance->CR & (uint32_t)~(RTC_CR_TSEDGE | RTC_CR_TSE));
 167              		.loc 1 245 3 is_stmt 1 discriminator 2 view .LVU54
 168              		.loc 1 245 27 is_stmt 0 discriminator 2 view .LVU55
 169 0018 0468     		ldr	r4, [r0]
 170              		.loc 1 245 37 discriminator 2 view .LVU56
 171 001a A369     		ldr	r3, [r4, #24]
 172              		.loc 1 245 10 discriminator 2 view .LVU57
 173 001c 23F40063 		bic	r3, r3, #2048
 174 0020 23F00803 		bic	r3, r3, #8
 175              	.LVL10:
 246:Drivers/STM32L4xx_HAL_Driver/Src/stm32l4xx_hal_rtc_ex.c **** 
 247:Drivers/STM32L4xx_HAL_Driver/Src/stm32l4xx_hal_rtc_ex.c ****   tmpreg |= TimeStampEdge;
 176              		.loc 1 247 3 is_stmt 1 discriminator 2 view .LVU58
 177              		.loc 1 247 10 is_stmt 0 discriminator 2 view .LVU59
 178 0024 0B43     		orrs	r3, r3, r1
 179              	.LVL11:
 248:Drivers/STM32L4xx_HAL_Driver/Src/stm32l4xx_hal_rtc_ex.c **** 
 249:Drivers/STM32L4xx_HAL_Driver/Src/stm32l4xx_hal_rtc_ex.c ****   /* Disable the write protection for RTC registers */
 250:Drivers/STM32L4xx_HAL_Driver/Src/stm32l4xx_hal_rtc_ex.c ****   __HAL_RTC_WRITEPROTECTION_DISABLE(hrtc);
 180              		.loc 1 250 3 is_stmt 1 discriminator 2 view .LVU60
 181              		.loc 1 250 3 discriminator 2 view .LVU61
 182 0026 CA22     		movs	r2, #202
 183              	.LVL12:
 184              		.loc 1 250 3 is_stmt 0 discriminator 2 view .LVU62
 185 0028 6262     		str	r2, [r4, #36]
 186              		.loc 1 250 3 is_stmt 1 discriminator 2 view .LVU63
 187 002a 0268     		ldr	r2, [r0]
 188 002c 5321     		movs	r1, #83
 189              	.LVL13:
 190              		.loc 1 250 3 is_stmt 0 discriminator 2 view .LVU64
 191 002e 5162     		str	r1, [r2, #36]
 192              		.loc 1 250 3 is_stmt 1 discriminator 2 view .LVU65
 251:Drivers/STM32L4xx_HAL_Driver/Src/stm32l4xx_hal_rtc_ex.c **** 
 252:Drivers/STM32L4xx_HAL_Driver/Src/stm32l4xx_hal_rtc_ex.c ****   /* Configure the Time Stamp TSEDGE and Enable bits */
 253:Drivers/STM32L4xx_HAL_Driver/Src/stm32l4xx_hal_rtc_ex.c ****   hrtc->Instance->CR = (uint32_t)tmpreg;
 193              		.loc 1 253 3 discriminator 2 view .LVU66
 194              		.loc 1 253 7 is_stmt 0 discriminator 2 view .LVU67
 195 0030 0268     		ldr	r2, [r0]
 196              		.loc 1 253 22 discriminator 2 view .LVU68
 197 0032 9361     		str	r3, [r2, #24]
 254:Drivers/STM32L4xx_HAL_Driver/Src/stm32l4xx_hal_rtc_ex.c **** 
 255:Drivers/STM32L4xx_HAL_Driver/Src/stm32l4xx_hal_rtc_ex.c ****   __HAL_RTC_TIMESTAMP_ENABLE(hrtc);
 198              		.loc 1 255 3 is_stmt 1 discriminator 2 view .LVU69
 199 0034 0268     		ldr	r2, [r0]
 200 0036 9369     		ldr	r3, [r2, #24]
 201              	.LVL14:
ARM GAS  /tmp/cc49nhBG.s 			page 9


 202              		.loc 1 255 3 is_stmt 0 discriminator 2 view .LVU70
 203 0038 43F40063 		orr	r3, r3, #2048
 204 003c 9361     		str	r3, [r2, #24]
 256:Drivers/STM32L4xx_HAL_Driver/Src/stm32l4xx_hal_rtc_ex.c **** 
 257:Drivers/STM32L4xx_HAL_Driver/Src/stm32l4xx_hal_rtc_ex.c ****   /* Enable IT timestamp */
 258:Drivers/STM32L4xx_HAL_Driver/Src/stm32l4xx_hal_rtc_ex.c ****   __HAL_RTC_TIMESTAMP_ENABLE_IT(hrtc, RTC_IT_TS);
 205              		.loc 1 258 3 is_stmt 1 discriminator 2 view .LVU71
 206 003e 0268     		ldr	r2, [r0]
 207 0040 9369     		ldr	r3, [r2, #24]
 208 0042 43F40043 		orr	r3, r3, #32768
 209 0046 9361     		str	r3, [r2, #24]
 259:Drivers/STM32L4xx_HAL_Driver/Src/stm32l4xx_hal_rtc_ex.c **** 
 260:Drivers/STM32L4xx_HAL_Driver/Src/stm32l4xx_hal_rtc_ex.c ****   /* RTC timestamp Interrupt Configuration: EXTI configuration */
 261:Drivers/STM32L4xx_HAL_Driver/Src/stm32l4xx_hal_rtc_ex.c ****   __HAL_RTC_TAMPER_TIMESTAMP_EXTI_ENABLE_IT();
 210              		.loc 1 261 3 discriminator 2 view .LVU72
 211 0048 0B4B     		ldr	r3, .L15
 212 004a 1A68     		ldr	r2, [r3]
 213 004c 42F40022 		orr	r2, r2, #524288
 214 0050 1A60     		str	r2, [r3]
 262:Drivers/STM32L4xx_HAL_Driver/Src/stm32l4xx_hal_rtc_ex.c ****   __HAL_RTC_TAMPER_TIMESTAMP_EXTI_ENABLE_RISING_EDGE();
 215              		.loc 1 262 3 discriminator 2 view .LVU73
 216 0052 9A68     		ldr	r2, [r3, #8]
 217 0054 42F40022 		orr	r2, r2, #524288
 218 0058 9A60     		str	r2, [r3, #8]
 263:Drivers/STM32L4xx_HAL_Driver/Src/stm32l4xx_hal_rtc_ex.c **** 
 264:Drivers/STM32L4xx_HAL_Driver/Src/stm32l4xx_hal_rtc_ex.c ****   /* Enable the write protection for RTC registers */
 265:Drivers/STM32L4xx_HAL_Driver/Src/stm32l4xx_hal_rtc_ex.c ****   __HAL_RTC_WRITEPROTECTION_ENABLE(hrtc);
 219              		.loc 1 265 3 discriminator 2 view .LVU74
 220              		.loc 1 265 3 discriminator 2 view .LVU75
 221 005a 0368     		ldr	r3, [r0]
 222 005c FF22     		movs	r2, #255
 223 005e 5A62     		str	r2, [r3, #36]
 224              		.loc 1 265 3 discriminator 2 view .LVU76
 266:Drivers/STM32L4xx_HAL_Driver/Src/stm32l4xx_hal_rtc_ex.c **** 
 267:Drivers/STM32L4xx_HAL_Driver/Src/stm32l4xx_hal_rtc_ex.c ****   hrtc->State = HAL_RTC_STATE_READY;
 225              		.loc 1 267 3 discriminator 2 view .LVU77
 226              		.loc 1 267 15 is_stmt 0 discriminator 2 view .LVU78
 227 0060 80F829C0 		strb	ip, [r0, #41]
 268:Drivers/STM32L4xx_HAL_Driver/Src/stm32l4xx_hal_rtc_ex.c **** 
 269:Drivers/STM32L4xx_HAL_Driver/Src/stm32l4xx_hal_rtc_ex.c ****   /* Process Unlocked */
 270:Drivers/STM32L4xx_HAL_Driver/Src/stm32l4xx_hal_rtc_ex.c ****   __HAL_UNLOCK(hrtc);
 228              		.loc 1 270 3 is_stmt 1 discriminator 2 view .LVU79
 229              		.loc 1 270 3 discriminator 2 view .LVU80
 230 0064 0023     		movs	r3, #0
 231 0066 80F82830 		strb	r3, [r0, #40]
 232              		.loc 1 270 3 discriminator 2 view .LVU81
 271:Drivers/STM32L4xx_HAL_Driver/Src/stm32l4xx_hal_rtc_ex.c **** 
 272:Drivers/STM32L4xx_HAL_Driver/Src/stm32l4xx_hal_rtc_ex.c ****   return HAL_OK;
 233              		.loc 1 272 3 discriminator 2 view .LVU82
 234              		.loc 1 272 10 is_stmt 0 discriminator 2 view .LVU83
 235 006a 1846     		mov	r0, r3
 236              	.LVL15:
 273:Drivers/STM32L4xx_HAL_Driver/Src/stm32l4xx_hal_rtc_ex.c **** }
 237              		.loc 1 273 1 discriminator 2 view .LVU84
 238 006c 5DF8044B 		ldr	r4, [sp], #4
 239              	.LCFI3:
 240              		.cfi_restore 4
ARM GAS  /tmp/cc49nhBG.s 			page 10


 241              		.cfi_def_cfa_offset 0
 242 0070 7047     		bx	lr
 243              	.LVL16:
 244              	.L10:
 240:Drivers/STM32L4xx_HAL_Driver/Src/stm32l4xx_hal_rtc_ex.c **** 
 245              		.loc 1 240 3 view .LVU85
 246 0072 0220     		movs	r0, #2
 247              	.LVL17:
 248              		.loc 1 273 1 view .LVU86
 249 0074 7047     		bx	lr
 250              	.L16:
 251 0076 00BF     		.align	2
 252              	.L15:
 253 0078 00040140 		.word	1073808384
 254              		.cfi_endproc
 255              	.LFE133:
 257              		.section	.text.HAL_RTCEx_DeactivateTimeStamp,"ax",%progbits
 258              		.align	1
 259              		.global	HAL_RTCEx_DeactivateTimeStamp
 260              		.syntax unified
 261              		.thumb
 262              		.thumb_func
 263              		.fpu fpv4-sp-d16
 265              	HAL_RTCEx_DeactivateTimeStamp:
 266              	.LVL18:
 267              	.LFB134:
 274:Drivers/STM32L4xx_HAL_Driver/Src/stm32l4xx_hal_rtc_ex.c **** 
 275:Drivers/STM32L4xx_HAL_Driver/Src/stm32l4xx_hal_rtc_ex.c **** /**
 276:Drivers/STM32L4xx_HAL_Driver/Src/stm32l4xx_hal_rtc_ex.c ****   * @brief  Deactivate TimeStamp.
 277:Drivers/STM32L4xx_HAL_Driver/Src/stm32l4xx_hal_rtc_ex.c ****   * @param  hrtc RTC handle
 278:Drivers/STM32L4xx_HAL_Driver/Src/stm32l4xx_hal_rtc_ex.c ****   * @retval HAL status
 279:Drivers/STM32L4xx_HAL_Driver/Src/stm32l4xx_hal_rtc_ex.c ****   */
 280:Drivers/STM32L4xx_HAL_Driver/Src/stm32l4xx_hal_rtc_ex.c **** HAL_StatusTypeDef HAL_RTCEx_DeactivateTimeStamp(RTC_HandleTypeDef *hrtc)
 281:Drivers/STM32L4xx_HAL_Driver/Src/stm32l4xx_hal_rtc_ex.c **** {
 268              		.loc 1 281 1 is_stmt 1 view -0
 269              		.cfi_startproc
 270              		@ args = 0, pretend = 0, frame = 0
 271              		@ frame_needed = 0, uses_anonymous_args = 0
 272              		@ link register save eliminated.
 282:Drivers/STM32L4xx_HAL_Driver/Src/stm32l4xx_hal_rtc_ex.c ****   uint32_t tmpreg;
 273              		.loc 1 282 3 view .LVU88
 283:Drivers/STM32L4xx_HAL_Driver/Src/stm32l4xx_hal_rtc_ex.c **** 
 284:Drivers/STM32L4xx_HAL_Driver/Src/stm32l4xx_hal_rtc_ex.c ****   /* Process Locked */
 285:Drivers/STM32L4xx_HAL_Driver/Src/stm32l4xx_hal_rtc_ex.c ****   __HAL_LOCK(hrtc);
 274              		.loc 1 285 3 view .LVU89
 275              		.loc 1 285 3 view .LVU90
 276 0000 90F82830 		ldrb	r3, [r0, #40]	@ zero_extendqisi2
 277 0004 012B     		cmp	r3, #1
 278 0006 21D0     		beq	.L19
 279              		.loc 1 285 3 discriminator 2 view .LVU91
 280 0008 0122     		movs	r2, #1
 281 000a 80F82820 		strb	r2, [r0, #40]
 282              		.loc 1 285 3 discriminator 2 view .LVU92
 286:Drivers/STM32L4xx_HAL_Driver/Src/stm32l4xx_hal_rtc_ex.c **** 
 287:Drivers/STM32L4xx_HAL_Driver/Src/stm32l4xx_hal_rtc_ex.c ****   hrtc->State = HAL_RTC_STATE_BUSY;
 283              		.loc 1 287 3 discriminator 2 view .LVU93
 284              		.loc 1 287 15 is_stmt 0 discriminator 2 view .LVU94
ARM GAS  /tmp/cc49nhBG.s 			page 11


 285 000e 0223     		movs	r3, #2
 286 0010 80F82930 		strb	r3, [r0, #41]
 288:Drivers/STM32L4xx_HAL_Driver/Src/stm32l4xx_hal_rtc_ex.c **** 
 289:Drivers/STM32L4xx_HAL_Driver/Src/stm32l4xx_hal_rtc_ex.c ****   /* Disable the write protection for RTC registers */
 290:Drivers/STM32L4xx_HAL_Driver/Src/stm32l4xx_hal_rtc_ex.c ****   __HAL_RTC_WRITEPROTECTION_DISABLE(hrtc);
 287              		.loc 1 290 3 is_stmt 1 discriminator 2 view .LVU95
 288              		.loc 1 290 3 discriminator 2 view .LVU96
 289 0014 0368     		ldr	r3, [r0]
 290 0016 CA21     		movs	r1, #202
 291 0018 5962     		str	r1, [r3, #36]
 292              		.loc 1 290 3 discriminator 2 view .LVU97
 293 001a 0368     		ldr	r3, [r0]
 294 001c 5321     		movs	r1, #83
 295 001e 5962     		str	r1, [r3, #36]
 296              		.loc 1 290 3 discriminator 2 view .LVU98
 291:Drivers/STM32L4xx_HAL_Driver/Src/stm32l4xx_hal_rtc_ex.c **** 
 292:Drivers/STM32L4xx_HAL_Driver/Src/stm32l4xx_hal_rtc_ex.c ****   /* In case of interrupt mode is used, the interrupt source must disabled */
 293:Drivers/STM32L4xx_HAL_Driver/Src/stm32l4xx_hal_rtc_ex.c ****   __HAL_RTC_TIMESTAMP_DISABLE_IT(hrtc, RTC_IT_TS);
 297              		.loc 1 293 3 discriminator 2 view .LVU99
 298 0020 0168     		ldr	r1, [r0]
 299 0022 8B69     		ldr	r3, [r1, #24]
 300 0024 23F40043 		bic	r3, r3, #32768
 301 0028 8B61     		str	r3, [r1, #24]
 294:Drivers/STM32L4xx_HAL_Driver/Src/stm32l4xx_hal_rtc_ex.c **** 
 295:Drivers/STM32L4xx_HAL_Driver/Src/stm32l4xx_hal_rtc_ex.c ****   /* Get the RTC_CR register and clear the bits to be configured */
 296:Drivers/STM32L4xx_HAL_Driver/Src/stm32l4xx_hal_rtc_ex.c ****   tmpreg = (uint32_t)(hrtc->Instance->CR & (uint32_t)~(RTC_CR_TSEDGE | RTC_CR_TSE));
 302              		.loc 1 296 3 discriminator 2 view .LVU100
 303              		.loc 1 296 27 is_stmt 0 discriminator 2 view .LVU101
 304 002a 0168     		ldr	r1, [r0]
 305              		.loc 1 296 37 discriminator 2 view .LVU102
 306 002c 8B69     		ldr	r3, [r1, #24]
 307              		.loc 1 296 10 discriminator 2 view .LVU103
 308 002e 23F40063 		bic	r3, r3, #2048
 309 0032 23F00803 		bic	r3, r3, #8
 310              	.LVL19:
 297:Drivers/STM32L4xx_HAL_Driver/Src/stm32l4xx_hal_rtc_ex.c **** 
 298:Drivers/STM32L4xx_HAL_Driver/Src/stm32l4xx_hal_rtc_ex.c ****   /* Configure the Time Stamp TSEDGE and Enable bits */
 299:Drivers/STM32L4xx_HAL_Driver/Src/stm32l4xx_hal_rtc_ex.c ****   hrtc->Instance->CR = (uint32_t)tmpreg;
 311              		.loc 1 299 3 is_stmt 1 discriminator 2 view .LVU104
 312              		.loc 1 299 22 is_stmt 0 discriminator 2 view .LVU105
 313 0036 8B61     		str	r3, [r1, #24]
 300:Drivers/STM32L4xx_HAL_Driver/Src/stm32l4xx_hal_rtc_ex.c **** 
 301:Drivers/STM32L4xx_HAL_Driver/Src/stm32l4xx_hal_rtc_ex.c ****   /* Enable the write protection for RTC registers */
 302:Drivers/STM32L4xx_HAL_Driver/Src/stm32l4xx_hal_rtc_ex.c ****   __HAL_RTC_WRITEPROTECTION_ENABLE(hrtc);
 314              		.loc 1 302 3 is_stmt 1 discriminator 2 view .LVU106
 315              		.loc 1 302 3 discriminator 2 view .LVU107
 316 0038 0368     		ldr	r3, [r0]
 317              	.LVL20:
 318              		.loc 1 302 3 is_stmt 0 discriminator 2 view .LVU108
 319 003a FF21     		movs	r1, #255
 320              	.LVL21:
 321              		.loc 1 302 3 discriminator 2 view .LVU109
 322 003c 5962     		str	r1, [r3, #36]
 323              		.loc 1 302 3 is_stmt 1 discriminator 2 view .LVU110
 303:Drivers/STM32L4xx_HAL_Driver/Src/stm32l4xx_hal_rtc_ex.c **** 
 304:Drivers/STM32L4xx_HAL_Driver/Src/stm32l4xx_hal_rtc_ex.c ****   hrtc->State = HAL_RTC_STATE_READY;
 324              		.loc 1 304 3 discriminator 2 view .LVU111
ARM GAS  /tmp/cc49nhBG.s 			page 12


 325              		.loc 1 304 15 is_stmt 0 discriminator 2 view .LVU112
 326 003e 80F82920 		strb	r2, [r0, #41]
 305:Drivers/STM32L4xx_HAL_Driver/Src/stm32l4xx_hal_rtc_ex.c **** 
 306:Drivers/STM32L4xx_HAL_Driver/Src/stm32l4xx_hal_rtc_ex.c ****   /* Process Unlocked */
 307:Drivers/STM32L4xx_HAL_Driver/Src/stm32l4xx_hal_rtc_ex.c ****   __HAL_UNLOCK(hrtc);
 327              		.loc 1 307 3 is_stmt 1 discriminator 2 view .LVU113
 328              		.loc 1 307 3 discriminator 2 view .LVU114
 329 0042 0023     		movs	r3, #0
 330 0044 80F82830 		strb	r3, [r0, #40]
 331              		.loc 1 307 3 discriminator 2 view .LVU115
 308:Drivers/STM32L4xx_HAL_Driver/Src/stm32l4xx_hal_rtc_ex.c **** 
 309:Drivers/STM32L4xx_HAL_Driver/Src/stm32l4xx_hal_rtc_ex.c ****   return HAL_OK;
 332              		.loc 1 309 3 discriminator 2 view .LVU116
 333              		.loc 1 309 10 is_stmt 0 discriminator 2 view .LVU117
 334 0048 1846     		mov	r0, r3
 335              	.LVL22:
 336              		.loc 1 309 10 discriminator 2 view .LVU118
 337 004a 7047     		bx	lr
 338              	.LVL23:
 339              	.L19:
 285:Drivers/STM32L4xx_HAL_Driver/Src/stm32l4xx_hal_rtc_ex.c **** 
 340              		.loc 1 285 3 view .LVU119
 341 004c 0220     		movs	r0, #2
 342              	.LVL24:
 310:Drivers/STM32L4xx_HAL_Driver/Src/stm32l4xx_hal_rtc_ex.c **** }
 343              		.loc 1 310 1 view .LVU120
 344 004e 7047     		bx	lr
 345              		.cfi_endproc
 346              	.LFE134:
 348              		.section	.text.HAL_RTCEx_SetInternalTimeStamp,"ax",%progbits
 349              		.align	1
 350              		.global	HAL_RTCEx_SetInternalTimeStamp
 351              		.syntax unified
 352              		.thumb
 353              		.thumb_func
 354              		.fpu fpv4-sp-d16
 356              	HAL_RTCEx_SetInternalTimeStamp:
 357              	.LVL25:
 358              	.LFB135:
 311:Drivers/STM32L4xx_HAL_Driver/Src/stm32l4xx_hal_rtc_ex.c **** 
 312:Drivers/STM32L4xx_HAL_Driver/Src/stm32l4xx_hal_rtc_ex.c **** /**
 313:Drivers/STM32L4xx_HAL_Driver/Src/stm32l4xx_hal_rtc_ex.c ****   * @brief  Set Internal TimeStamp.
 314:Drivers/STM32L4xx_HAL_Driver/Src/stm32l4xx_hal_rtc_ex.c ****   * @note   This API must be called before enabling the internal TimeStamp feature.
 315:Drivers/STM32L4xx_HAL_Driver/Src/stm32l4xx_hal_rtc_ex.c ****   * @param  hrtc RTC handle
 316:Drivers/STM32L4xx_HAL_Driver/Src/stm32l4xx_hal_rtc_ex.c ****   * @retval HAL status
 317:Drivers/STM32L4xx_HAL_Driver/Src/stm32l4xx_hal_rtc_ex.c ****   */
 318:Drivers/STM32L4xx_HAL_Driver/Src/stm32l4xx_hal_rtc_ex.c **** HAL_StatusTypeDef HAL_RTCEx_SetInternalTimeStamp(RTC_HandleTypeDef *hrtc)
 319:Drivers/STM32L4xx_HAL_Driver/Src/stm32l4xx_hal_rtc_ex.c **** {
 359              		.loc 1 319 1 is_stmt 1 view -0
 360              		.cfi_startproc
 361              		@ args = 0, pretend = 0, frame = 0
 362              		@ frame_needed = 0, uses_anonymous_args = 0
 363              		@ link register save eliminated.
 320:Drivers/STM32L4xx_HAL_Driver/Src/stm32l4xx_hal_rtc_ex.c ****   /* Process Locked */
 321:Drivers/STM32L4xx_HAL_Driver/Src/stm32l4xx_hal_rtc_ex.c ****   __HAL_LOCK(hrtc);
 364              		.loc 1 321 3 view .LVU122
 365              		.loc 1 321 3 view .LVU123
ARM GAS  /tmp/cc49nhBG.s 			page 13


 366 0000 90F82830 		ldrb	r3, [r0, #40]	@ zero_extendqisi2
 367 0004 012B     		cmp	r3, #1
 368 0006 1AD0     		beq	.L22
 369              		.loc 1 321 3 discriminator 2 view .LVU124
 370 0008 0122     		movs	r2, #1
 371 000a 80F82820 		strb	r2, [r0, #40]
 372              		.loc 1 321 3 discriminator 2 view .LVU125
 322:Drivers/STM32L4xx_HAL_Driver/Src/stm32l4xx_hal_rtc_ex.c **** 
 323:Drivers/STM32L4xx_HAL_Driver/Src/stm32l4xx_hal_rtc_ex.c ****   hrtc->State = HAL_RTC_STATE_BUSY;
 373              		.loc 1 323 3 discriminator 2 view .LVU126
 374              		.loc 1 323 15 is_stmt 0 discriminator 2 view .LVU127
 375 000e 0223     		movs	r3, #2
 376 0010 80F82930 		strb	r3, [r0, #41]
 324:Drivers/STM32L4xx_HAL_Driver/Src/stm32l4xx_hal_rtc_ex.c **** 
 325:Drivers/STM32L4xx_HAL_Driver/Src/stm32l4xx_hal_rtc_ex.c ****   /* Disable the write protection for RTC registers */
 326:Drivers/STM32L4xx_HAL_Driver/Src/stm32l4xx_hal_rtc_ex.c ****   __HAL_RTC_WRITEPROTECTION_DISABLE(hrtc);
 377              		.loc 1 326 3 is_stmt 1 discriminator 2 view .LVU128
 378              		.loc 1 326 3 discriminator 2 view .LVU129
 379 0014 0368     		ldr	r3, [r0]
 380 0016 CA21     		movs	r1, #202
 381 0018 5962     		str	r1, [r3, #36]
 382              		.loc 1 326 3 discriminator 2 view .LVU130
 383 001a 0368     		ldr	r3, [r0]
 384 001c 5321     		movs	r1, #83
 385 001e 5962     		str	r1, [r3, #36]
 386              		.loc 1 326 3 discriminator 2 view .LVU131
 327:Drivers/STM32L4xx_HAL_Driver/Src/stm32l4xx_hal_rtc_ex.c **** 
 328:Drivers/STM32L4xx_HAL_Driver/Src/stm32l4xx_hal_rtc_ex.c ****   /* Configure the internal Time Stamp Enable bits */
 329:Drivers/STM32L4xx_HAL_Driver/Src/stm32l4xx_hal_rtc_ex.c ****   __HAL_RTC_INTERNAL_TIMESTAMP_ENABLE(hrtc);
 387              		.loc 1 329 3 discriminator 2 view .LVU132
 388 0020 0168     		ldr	r1, [r0]
 389 0022 8B69     		ldr	r3, [r1, #24]
 390 0024 43F08073 		orr	r3, r3, #16777216
 391 0028 8B61     		str	r3, [r1, #24]
 330:Drivers/STM32L4xx_HAL_Driver/Src/stm32l4xx_hal_rtc_ex.c **** 
 331:Drivers/STM32L4xx_HAL_Driver/Src/stm32l4xx_hal_rtc_ex.c ****   /* Enable the write protection for RTC registers */
 332:Drivers/STM32L4xx_HAL_Driver/Src/stm32l4xx_hal_rtc_ex.c ****   __HAL_RTC_WRITEPROTECTION_ENABLE(hrtc);
 392              		.loc 1 332 3 discriminator 2 view .LVU133
 393              		.loc 1 332 3 discriminator 2 view .LVU134
 394 002a 0368     		ldr	r3, [r0]
 395 002c FF21     		movs	r1, #255
 396 002e 5962     		str	r1, [r3, #36]
 397              		.loc 1 332 3 discriminator 2 view .LVU135
 333:Drivers/STM32L4xx_HAL_Driver/Src/stm32l4xx_hal_rtc_ex.c **** 
 334:Drivers/STM32L4xx_HAL_Driver/Src/stm32l4xx_hal_rtc_ex.c ****   /* Change RTC state */
 335:Drivers/STM32L4xx_HAL_Driver/Src/stm32l4xx_hal_rtc_ex.c ****   hrtc->State = HAL_RTC_STATE_READY;
 398              		.loc 1 335 3 discriminator 2 view .LVU136
 399              		.loc 1 335 15 is_stmt 0 discriminator 2 view .LVU137
 400 0030 80F82920 		strb	r2, [r0, #41]
 336:Drivers/STM32L4xx_HAL_Driver/Src/stm32l4xx_hal_rtc_ex.c **** 
 337:Drivers/STM32L4xx_HAL_Driver/Src/stm32l4xx_hal_rtc_ex.c ****   /* Process Unlocked */
 338:Drivers/STM32L4xx_HAL_Driver/Src/stm32l4xx_hal_rtc_ex.c ****   __HAL_UNLOCK(hrtc);
 401              		.loc 1 338 3 is_stmt 1 discriminator 2 view .LVU138
 402              		.loc 1 338 3 discriminator 2 view .LVU139
 403 0034 0023     		movs	r3, #0
 404 0036 80F82830 		strb	r3, [r0, #40]
 405              		.loc 1 338 3 discriminator 2 view .LVU140
ARM GAS  /tmp/cc49nhBG.s 			page 14


 339:Drivers/STM32L4xx_HAL_Driver/Src/stm32l4xx_hal_rtc_ex.c **** 
 340:Drivers/STM32L4xx_HAL_Driver/Src/stm32l4xx_hal_rtc_ex.c ****   return HAL_OK;
 406              		.loc 1 340 3 discriminator 2 view .LVU141
 407              		.loc 1 340 10 is_stmt 0 discriminator 2 view .LVU142
 408 003a 1846     		mov	r0, r3
 409              	.LVL26:
 410              		.loc 1 340 10 discriminator 2 view .LVU143
 411 003c 7047     		bx	lr
 412              	.LVL27:
 413              	.L22:
 321:Drivers/STM32L4xx_HAL_Driver/Src/stm32l4xx_hal_rtc_ex.c **** 
 414              		.loc 1 321 3 view .LVU144
 415 003e 0220     		movs	r0, #2
 416              	.LVL28:
 341:Drivers/STM32L4xx_HAL_Driver/Src/stm32l4xx_hal_rtc_ex.c **** }
 417              		.loc 1 341 1 view .LVU145
 418 0040 7047     		bx	lr
 419              		.cfi_endproc
 420              	.LFE135:
 422              		.section	.text.HAL_RTCEx_DeactivateInternalTimeStamp,"ax",%progbits
 423              		.align	1
 424              		.global	HAL_RTCEx_DeactivateInternalTimeStamp
 425              		.syntax unified
 426              		.thumb
 427              		.thumb_func
 428              		.fpu fpv4-sp-d16
 430              	HAL_RTCEx_DeactivateInternalTimeStamp:
 431              	.LVL29:
 432              	.LFB136:
 342:Drivers/STM32L4xx_HAL_Driver/Src/stm32l4xx_hal_rtc_ex.c **** 
 343:Drivers/STM32L4xx_HAL_Driver/Src/stm32l4xx_hal_rtc_ex.c **** /**
 344:Drivers/STM32L4xx_HAL_Driver/Src/stm32l4xx_hal_rtc_ex.c ****   * @brief  Deactivate Internal TimeStamp.
 345:Drivers/STM32L4xx_HAL_Driver/Src/stm32l4xx_hal_rtc_ex.c ****   * @param  hrtc RTC handle
 346:Drivers/STM32L4xx_HAL_Driver/Src/stm32l4xx_hal_rtc_ex.c ****   * @retval HAL status
 347:Drivers/STM32L4xx_HAL_Driver/Src/stm32l4xx_hal_rtc_ex.c ****   */
 348:Drivers/STM32L4xx_HAL_Driver/Src/stm32l4xx_hal_rtc_ex.c **** HAL_StatusTypeDef HAL_RTCEx_DeactivateInternalTimeStamp(RTC_HandleTypeDef *hrtc)
 349:Drivers/STM32L4xx_HAL_Driver/Src/stm32l4xx_hal_rtc_ex.c **** {
 433              		.loc 1 349 1 is_stmt 1 view -0
 434              		.cfi_startproc
 435              		@ args = 0, pretend = 0, frame = 0
 436              		@ frame_needed = 0, uses_anonymous_args = 0
 437              		@ link register save eliminated.
 350:Drivers/STM32L4xx_HAL_Driver/Src/stm32l4xx_hal_rtc_ex.c ****   /* Process Locked */
 351:Drivers/STM32L4xx_HAL_Driver/Src/stm32l4xx_hal_rtc_ex.c ****   __HAL_LOCK(hrtc);
 438              		.loc 1 351 3 view .LVU147
 439              		.loc 1 351 3 view .LVU148
 440 0000 90F82830 		ldrb	r3, [r0, #40]	@ zero_extendqisi2
 441 0004 012B     		cmp	r3, #1
 442 0006 1AD0     		beq	.L25
 443              		.loc 1 351 3 discriminator 2 view .LVU149
 444 0008 0122     		movs	r2, #1
 445 000a 80F82820 		strb	r2, [r0, #40]
 446              		.loc 1 351 3 discriminator 2 view .LVU150
 352:Drivers/STM32L4xx_HAL_Driver/Src/stm32l4xx_hal_rtc_ex.c **** 
 353:Drivers/STM32L4xx_HAL_Driver/Src/stm32l4xx_hal_rtc_ex.c ****   hrtc->State = HAL_RTC_STATE_BUSY;
 447              		.loc 1 353 3 discriminator 2 view .LVU151
 448              		.loc 1 353 15 is_stmt 0 discriminator 2 view .LVU152
ARM GAS  /tmp/cc49nhBG.s 			page 15


 449 000e 0223     		movs	r3, #2
 450 0010 80F82930 		strb	r3, [r0, #41]
 354:Drivers/STM32L4xx_HAL_Driver/Src/stm32l4xx_hal_rtc_ex.c **** 
 355:Drivers/STM32L4xx_HAL_Driver/Src/stm32l4xx_hal_rtc_ex.c ****   /* Disable the write protection for RTC registers */
 356:Drivers/STM32L4xx_HAL_Driver/Src/stm32l4xx_hal_rtc_ex.c ****   __HAL_RTC_WRITEPROTECTION_DISABLE(hrtc);
 451              		.loc 1 356 3 is_stmt 1 discriminator 2 view .LVU153
 452              		.loc 1 356 3 discriminator 2 view .LVU154
 453 0014 0368     		ldr	r3, [r0]
 454 0016 CA21     		movs	r1, #202
 455 0018 5962     		str	r1, [r3, #36]
 456              		.loc 1 356 3 discriminator 2 view .LVU155
 457 001a 0368     		ldr	r3, [r0]
 458 001c 5321     		movs	r1, #83
 459 001e 5962     		str	r1, [r3, #36]
 460              		.loc 1 356 3 discriminator 2 view .LVU156
 357:Drivers/STM32L4xx_HAL_Driver/Src/stm32l4xx_hal_rtc_ex.c **** 
 358:Drivers/STM32L4xx_HAL_Driver/Src/stm32l4xx_hal_rtc_ex.c ****   /* Configure the internal Time Stamp Enable bits */
 359:Drivers/STM32L4xx_HAL_Driver/Src/stm32l4xx_hal_rtc_ex.c ****   __HAL_RTC_INTERNAL_TIMESTAMP_DISABLE(hrtc);
 461              		.loc 1 359 3 discriminator 2 view .LVU157
 462 0020 0168     		ldr	r1, [r0]
 463 0022 8B69     		ldr	r3, [r1, #24]
 464 0024 23F08073 		bic	r3, r3, #16777216
 465 0028 8B61     		str	r3, [r1, #24]
 360:Drivers/STM32L4xx_HAL_Driver/Src/stm32l4xx_hal_rtc_ex.c **** 
 361:Drivers/STM32L4xx_HAL_Driver/Src/stm32l4xx_hal_rtc_ex.c ****   /* Enable the write protection for RTC registers */
 362:Drivers/STM32L4xx_HAL_Driver/Src/stm32l4xx_hal_rtc_ex.c ****   __HAL_RTC_WRITEPROTECTION_ENABLE(hrtc);
 466              		.loc 1 362 3 discriminator 2 view .LVU158
 467              		.loc 1 362 3 discriminator 2 view .LVU159
 468 002a 0368     		ldr	r3, [r0]
 469 002c FF21     		movs	r1, #255
 470 002e 5962     		str	r1, [r3, #36]
 471              		.loc 1 362 3 discriminator 2 view .LVU160
 363:Drivers/STM32L4xx_HAL_Driver/Src/stm32l4xx_hal_rtc_ex.c **** 
 364:Drivers/STM32L4xx_HAL_Driver/Src/stm32l4xx_hal_rtc_ex.c ****   hrtc->State = HAL_RTC_STATE_READY;
 472              		.loc 1 364 3 discriminator 2 view .LVU161
 473              		.loc 1 364 15 is_stmt 0 discriminator 2 view .LVU162
 474 0030 80F82920 		strb	r2, [r0, #41]
 365:Drivers/STM32L4xx_HAL_Driver/Src/stm32l4xx_hal_rtc_ex.c **** 
 366:Drivers/STM32L4xx_HAL_Driver/Src/stm32l4xx_hal_rtc_ex.c ****   /* Process Unlocked */
 367:Drivers/STM32L4xx_HAL_Driver/Src/stm32l4xx_hal_rtc_ex.c ****   __HAL_UNLOCK(hrtc);
 475              		.loc 1 367 3 is_stmt 1 discriminator 2 view .LVU163
 476              		.loc 1 367 3 discriminator 2 view .LVU164
 477 0034 0023     		movs	r3, #0
 478 0036 80F82830 		strb	r3, [r0, #40]
 479              		.loc 1 367 3 discriminator 2 view .LVU165
 368:Drivers/STM32L4xx_HAL_Driver/Src/stm32l4xx_hal_rtc_ex.c **** 
 369:Drivers/STM32L4xx_HAL_Driver/Src/stm32l4xx_hal_rtc_ex.c ****   return HAL_OK;
 480              		.loc 1 369 3 discriminator 2 view .LVU166
 481              		.loc 1 369 10 is_stmt 0 discriminator 2 view .LVU167
 482 003a 1846     		mov	r0, r3
 483              	.LVL30:
 484              		.loc 1 369 10 discriminator 2 view .LVU168
 485 003c 7047     		bx	lr
 486              	.LVL31:
 487              	.L25:
 351:Drivers/STM32L4xx_HAL_Driver/Src/stm32l4xx_hal_rtc_ex.c **** 
 488              		.loc 1 351 3 view .LVU169
ARM GAS  /tmp/cc49nhBG.s 			page 16


 489 003e 0220     		movs	r0, #2
 490              	.LVL32:
 370:Drivers/STM32L4xx_HAL_Driver/Src/stm32l4xx_hal_rtc_ex.c **** }
 491              		.loc 1 370 1 view .LVU170
 492 0040 7047     		bx	lr
 493              		.cfi_endproc
 494              	.LFE136:
 496              		.section	.text.HAL_RTCEx_GetTimeStamp,"ax",%progbits
 497              		.align	1
 498              		.global	HAL_RTCEx_GetTimeStamp
 499              		.syntax unified
 500              		.thumb
 501              		.thumb_func
 502              		.fpu fpv4-sp-d16
 504              	HAL_RTCEx_GetTimeStamp:
 505              	.LVL33:
 506              	.LFB137:
 371:Drivers/STM32L4xx_HAL_Driver/Src/stm32l4xx_hal_rtc_ex.c **** 
 372:Drivers/STM32L4xx_HAL_Driver/Src/stm32l4xx_hal_rtc_ex.c **** #if defined (STM32L4P5xx) || defined (STM32L4Q5xx)
 373:Drivers/STM32L4xx_HAL_Driver/Src/stm32l4xx_hal_rtc_ex.c **** /**
 374:Drivers/STM32L4xx_HAL_Driver/Src/stm32l4xx_hal_rtc_ex.c ****   * @brief  Get the RTC TimeStamp value.
 375:Drivers/STM32L4xx_HAL_Driver/Src/stm32l4xx_hal_rtc_ex.c ****   * @param  hrtc RTC handle
 376:Drivers/STM32L4xx_HAL_Driver/Src/stm32l4xx_hal_rtc_ex.c ****   * @param  sTimeStamp Pointer to Time structure
 377:Drivers/STM32L4xx_HAL_Driver/Src/stm32l4xx_hal_rtc_ex.c ****   *          if BinMode = RTC_BINARY_ONLY, sTimeStamp->SubSeconds only is used
 378:Drivers/STM32L4xx_HAL_Driver/Src/stm32l4xx_hal_rtc_ex.c ****   * @param  sTimeStampDate Pointer to Date structure
 379:Drivers/STM32L4xx_HAL_Driver/Src/stm32l4xx_hal_rtc_ex.c ****   *          if BinMode = RTC_BINARY_ONLY, this parameter is not used.
 380:Drivers/STM32L4xx_HAL_Driver/Src/stm32l4xx_hal_rtc_ex.c ****   * @param  Format specifies the format of the entered parameters.
 381:Drivers/STM32L4xx_HAL_Driver/Src/stm32l4xx_hal_rtc_ex.c ****   *          if BinMode = RTC_BINARY_ONLY, this parameter is not used
 382:Drivers/STM32L4xx_HAL_Driver/Src/stm32l4xx_hal_rtc_ex.c ****   *          else this parameter can be one of the following values
 383:Drivers/STM32L4xx_HAL_Driver/Src/stm32l4xx_hal_rtc_ex.c ****   *             @arg RTC_FORMAT_BIN: Binary data format
 384:Drivers/STM32L4xx_HAL_Driver/Src/stm32l4xx_hal_rtc_ex.c ****   *             @arg RTC_FORMAT_BCD: BCD data format
 385:Drivers/STM32L4xx_HAL_Driver/Src/stm32l4xx_hal_rtc_ex.c ****   * @retval HAL status
 386:Drivers/STM32L4xx_HAL_Driver/Src/stm32l4xx_hal_rtc_ex.c ****   */
 387:Drivers/STM32L4xx_HAL_Driver/Src/stm32l4xx_hal_rtc_ex.c **** HAL_StatusTypeDef HAL_RTCEx_GetTimeStamp(RTC_HandleTypeDef *hrtc, RTC_TimeTypeDef *sTimeStamp, RTC_
 388:Drivers/STM32L4xx_HAL_Driver/Src/stm32l4xx_hal_rtc_ex.c **** {
 389:Drivers/STM32L4xx_HAL_Driver/Src/stm32l4xx_hal_rtc_ex.c ****   uint32_t tmptime, tmpdate;
 390:Drivers/STM32L4xx_HAL_Driver/Src/stm32l4xx_hal_rtc_ex.c ****   UNUSED(hrtc);
 391:Drivers/STM32L4xx_HAL_Driver/Src/stm32l4xx_hal_rtc_ex.c **** 
 392:Drivers/STM32L4xx_HAL_Driver/Src/stm32l4xx_hal_rtc_ex.c ****   sTimeStamp->SubSeconds = READ_REG(RTC->TSSSR);
 393:Drivers/STM32L4xx_HAL_Driver/Src/stm32l4xx_hal_rtc_ex.c ****   if (READ_BIT(RTC->ICSR, RTC_ICSR_BIN) != RTC_BINARY_ONLY)
 394:Drivers/STM32L4xx_HAL_Driver/Src/stm32l4xx_hal_rtc_ex.c ****   {
 395:Drivers/STM32L4xx_HAL_Driver/Src/stm32l4xx_hal_rtc_ex.c ****     /* Check the parameters */
 396:Drivers/STM32L4xx_HAL_Driver/Src/stm32l4xx_hal_rtc_ex.c ****     assert_param(IS_RTC_FORMAT(Format));
 397:Drivers/STM32L4xx_HAL_Driver/Src/stm32l4xx_hal_rtc_ex.c **** 
 398:Drivers/STM32L4xx_HAL_Driver/Src/stm32l4xx_hal_rtc_ex.c ****     /* Get the TimeStamp time and date registers values */
 399:Drivers/STM32L4xx_HAL_Driver/Src/stm32l4xx_hal_rtc_ex.c ****     tmptime = READ_BIT(RTC->TSTR, RTC_TR_RESERVED_MASK);
 400:Drivers/STM32L4xx_HAL_Driver/Src/stm32l4xx_hal_rtc_ex.c ****     tmpdate = READ_BIT(RTC->TSDR, RTC_DR_RESERVED_MASK);
 401:Drivers/STM32L4xx_HAL_Driver/Src/stm32l4xx_hal_rtc_ex.c **** 
 402:Drivers/STM32L4xx_HAL_Driver/Src/stm32l4xx_hal_rtc_ex.c ****     /* Fill the Time structure fields with the read parameters */
 403:Drivers/STM32L4xx_HAL_Driver/Src/stm32l4xx_hal_rtc_ex.c ****     sTimeStamp->Hours = (uint8_t)((tmptime & (RTC_TSTR_HT | RTC_TSTR_HU)) >> RTC_TSTR_HU_Pos);
 404:Drivers/STM32L4xx_HAL_Driver/Src/stm32l4xx_hal_rtc_ex.c ****     sTimeStamp->Minutes = (uint8_t)((tmptime & (RTC_TSTR_MNT | RTC_TSTR_MNU)) >> RTC_TSTR_MNU_Pos);
 405:Drivers/STM32L4xx_HAL_Driver/Src/stm32l4xx_hal_rtc_ex.c ****     sTimeStamp->Seconds = (uint8_t)((tmptime & (RTC_TSTR_ST | RTC_TSTR_SU)) >> RTC_TSTR_SU_Pos);
 406:Drivers/STM32L4xx_HAL_Driver/Src/stm32l4xx_hal_rtc_ex.c ****     sTimeStamp->TimeFormat = (uint8_t)((tmptime & (RTC_TSTR_PM)) >> RTC_TSTR_PM_Pos);
 407:Drivers/STM32L4xx_HAL_Driver/Src/stm32l4xx_hal_rtc_ex.c ****     sTimeStamp->SubSeconds = READ_BIT(RTC->TSSSR, RTC_TSSSR_SS);
 408:Drivers/STM32L4xx_HAL_Driver/Src/stm32l4xx_hal_rtc_ex.c **** 
 409:Drivers/STM32L4xx_HAL_Driver/Src/stm32l4xx_hal_rtc_ex.c ****     /* Fill the Date structure fields with the read parameters */
 410:Drivers/STM32L4xx_HAL_Driver/Src/stm32l4xx_hal_rtc_ex.c ****     sTimeStampDate->Year = 0U;
ARM GAS  /tmp/cc49nhBG.s 			page 17


 411:Drivers/STM32L4xx_HAL_Driver/Src/stm32l4xx_hal_rtc_ex.c ****     sTimeStampDate->Month = (uint8_t)((tmpdate & (RTC_TSDR_MT | RTC_TSDR_MU)) >> RTC_TSDR_MU_Pos);
 412:Drivers/STM32L4xx_HAL_Driver/Src/stm32l4xx_hal_rtc_ex.c ****     sTimeStampDate->Date = (uint8_t)(tmpdate & (RTC_TSDR_DT | RTC_TSDR_DU));
 413:Drivers/STM32L4xx_HAL_Driver/Src/stm32l4xx_hal_rtc_ex.c ****     sTimeStampDate->WeekDay = (uint8_t)((tmpdate & (RTC_TSDR_WDU)) >> RTC_TSDR_WDU_Pos);
 414:Drivers/STM32L4xx_HAL_Driver/Src/stm32l4xx_hal_rtc_ex.c **** 
 415:Drivers/STM32L4xx_HAL_Driver/Src/stm32l4xx_hal_rtc_ex.c ****     /* Check the input parameters format */
 416:Drivers/STM32L4xx_HAL_Driver/Src/stm32l4xx_hal_rtc_ex.c ****     if (Format == RTC_FORMAT_BIN)
 417:Drivers/STM32L4xx_HAL_Driver/Src/stm32l4xx_hal_rtc_ex.c ****     {
 418:Drivers/STM32L4xx_HAL_Driver/Src/stm32l4xx_hal_rtc_ex.c ****       /* Convert the TimeStamp structure parameters to Binary format */
 419:Drivers/STM32L4xx_HAL_Driver/Src/stm32l4xx_hal_rtc_ex.c ****       sTimeStamp->Hours = (uint8_t)RTC_Bcd2ToByte(sTimeStamp->Hours);
 420:Drivers/STM32L4xx_HAL_Driver/Src/stm32l4xx_hal_rtc_ex.c ****       sTimeStamp->Minutes = (uint8_t)RTC_Bcd2ToByte(sTimeStamp->Minutes);
 421:Drivers/STM32L4xx_HAL_Driver/Src/stm32l4xx_hal_rtc_ex.c ****       sTimeStamp->Seconds = (uint8_t)RTC_Bcd2ToByte(sTimeStamp->Seconds);
 422:Drivers/STM32L4xx_HAL_Driver/Src/stm32l4xx_hal_rtc_ex.c **** 
 423:Drivers/STM32L4xx_HAL_Driver/Src/stm32l4xx_hal_rtc_ex.c ****       /* Convert the DateTimeStamp structure parameters to Binary format */
 424:Drivers/STM32L4xx_HAL_Driver/Src/stm32l4xx_hal_rtc_ex.c ****       sTimeStampDate->Month = (uint8_t)RTC_Bcd2ToByte(sTimeStampDate->Month);
 425:Drivers/STM32L4xx_HAL_Driver/Src/stm32l4xx_hal_rtc_ex.c ****       sTimeStampDate->Date = (uint8_t)RTC_Bcd2ToByte(sTimeStampDate->Date);
 426:Drivers/STM32L4xx_HAL_Driver/Src/stm32l4xx_hal_rtc_ex.c ****       sTimeStampDate->WeekDay = (uint8_t)RTC_Bcd2ToByte(sTimeStampDate->WeekDay);
 427:Drivers/STM32L4xx_HAL_Driver/Src/stm32l4xx_hal_rtc_ex.c ****     }
 428:Drivers/STM32L4xx_HAL_Driver/Src/stm32l4xx_hal_rtc_ex.c ****   }
 429:Drivers/STM32L4xx_HAL_Driver/Src/stm32l4xx_hal_rtc_ex.c **** 
 430:Drivers/STM32L4xx_HAL_Driver/Src/stm32l4xx_hal_rtc_ex.c ****   /* Clear the TIMESTAMP Flags */
 431:Drivers/STM32L4xx_HAL_Driver/Src/stm32l4xx_hal_rtc_ex.c ****   WRITE_REG(RTC->SCR, (RTC_SCR_CITSF | RTC_SCR_CTSF));
 432:Drivers/STM32L4xx_HAL_Driver/Src/stm32l4xx_hal_rtc_ex.c **** 
 433:Drivers/STM32L4xx_HAL_Driver/Src/stm32l4xx_hal_rtc_ex.c ****   return HAL_OK;
 434:Drivers/STM32L4xx_HAL_Driver/Src/stm32l4xx_hal_rtc_ex.c **** }
 435:Drivers/STM32L4xx_HAL_Driver/Src/stm32l4xx_hal_rtc_ex.c **** #else /* #if defined (STM32L4P5xx) || defined (STM32L4Q5xx) */
 436:Drivers/STM32L4xx_HAL_Driver/Src/stm32l4xx_hal_rtc_ex.c **** 
 437:Drivers/STM32L4xx_HAL_Driver/Src/stm32l4xx_hal_rtc_ex.c **** /**
 438:Drivers/STM32L4xx_HAL_Driver/Src/stm32l4xx_hal_rtc_ex.c ****   * @brief  Get the RTC TimeStamp value.
 439:Drivers/STM32L4xx_HAL_Driver/Src/stm32l4xx_hal_rtc_ex.c ****   * @param  hrtc RTC handle
 440:Drivers/STM32L4xx_HAL_Driver/Src/stm32l4xx_hal_rtc_ex.c ****   * @param  sTimeStamp Pointer to Time structure
 441:Drivers/STM32L4xx_HAL_Driver/Src/stm32l4xx_hal_rtc_ex.c ****   * @param  sTimeStampDate Pointer to Date structure
 442:Drivers/STM32L4xx_HAL_Driver/Src/stm32l4xx_hal_rtc_ex.c ****   * @param  Format specifies the format of the entered parameters.
 443:Drivers/STM32L4xx_HAL_Driver/Src/stm32l4xx_hal_rtc_ex.c ****   *          This parameter can be one of the following values:
 444:Drivers/STM32L4xx_HAL_Driver/Src/stm32l4xx_hal_rtc_ex.c ****   *             @arg RTC_FORMAT_BIN: Binary data format
 445:Drivers/STM32L4xx_HAL_Driver/Src/stm32l4xx_hal_rtc_ex.c ****   *             @arg RTC_FORMAT_BCD: BCD data format
 446:Drivers/STM32L4xx_HAL_Driver/Src/stm32l4xx_hal_rtc_ex.c ****   * @retval HAL status
 447:Drivers/STM32L4xx_HAL_Driver/Src/stm32l4xx_hal_rtc_ex.c ****   */
 448:Drivers/STM32L4xx_HAL_Driver/Src/stm32l4xx_hal_rtc_ex.c **** HAL_StatusTypeDef HAL_RTCEx_GetTimeStamp(RTC_HandleTypeDef *hrtc, RTC_TimeTypeDef *sTimeStamp, RTC_
 449:Drivers/STM32L4xx_HAL_Driver/Src/stm32l4xx_hal_rtc_ex.c **** {
 507              		.loc 1 449 1 is_stmt 1 view -0
 508              		.cfi_startproc
 509              		@ args = 0, pretend = 0, frame = 0
 510              		@ frame_needed = 0, uses_anonymous_args = 0
 511              		.loc 1 449 1 is_stmt 0 view .LVU172
 512 0000 70B5     		push	{r4, r5, r6, lr}
 513              	.LCFI4:
 514              		.cfi_def_cfa_offset 16
 515              		.cfi_offset 4, -16
 516              		.cfi_offset 5, -12
 517              		.cfi_offset 6, -8
 518              		.cfi_offset 14, -4
 519 0002 0646     		mov	r6, r0
 520 0004 0C46     		mov	r4, r1
 521 0006 1546     		mov	r5, r2
 450:Drivers/STM32L4xx_HAL_Driver/Src/stm32l4xx_hal_rtc_ex.c ****   uint32_t tmptime, tmpdate;
 522              		.loc 1 450 3 is_stmt 1 view .LVU173
 451:Drivers/STM32L4xx_HAL_Driver/Src/stm32l4xx_hal_rtc_ex.c **** 
ARM GAS  /tmp/cc49nhBG.s 			page 18


 452:Drivers/STM32L4xx_HAL_Driver/Src/stm32l4xx_hal_rtc_ex.c ****   /* Check the parameters */
 453:Drivers/STM32L4xx_HAL_Driver/Src/stm32l4xx_hal_rtc_ex.c ****   assert_param(IS_RTC_FORMAT(Format));
 523              		.loc 1 453 3 view .LVU174
 454:Drivers/STM32L4xx_HAL_Driver/Src/stm32l4xx_hal_rtc_ex.c **** 
 455:Drivers/STM32L4xx_HAL_Driver/Src/stm32l4xx_hal_rtc_ex.c ****   /* Get the TimeStamp time and date registers values */
 456:Drivers/STM32L4xx_HAL_Driver/Src/stm32l4xx_hal_rtc_ex.c ****   tmptime = (uint32_t)(hrtc->Instance->TSTR & RTC_TR_RESERVED_MASK);
 524              		.loc 1 456 3 view .LVU175
 525              		.loc 1 456 28 is_stmt 0 view .LVU176
 526 0008 0168     		ldr	r1, [r0]
 527              	.LVL34:
 528              		.loc 1 456 38 view .LVU177
 529 000a 0A6B     		ldr	r2, [r1, #48]
 530              	.LVL35:
 457:Drivers/STM32L4xx_HAL_Driver/Src/stm32l4xx_hal_rtc_ex.c ****   tmpdate = (uint32_t)(hrtc->Instance->TSDR & RTC_DR_RESERVED_MASK);
 531              		.loc 1 457 3 is_stmt 1 view .LVU178
 532              		.loc 1 457 38 is_stmt 0 view .LVU179
 533 000c 496B     		ldr	r1, [r1, #52]
 534              	.LVL36:
 458:Drivers/STM32L4xx_HAL_Driver/Src/stm32l4xx_hal_rtc_ex.c **** 
 459:Drivers/STM32L4xx_HAL_Driver/Src/stm32l4xx_hal_rtc_ex.c ****   /* Fill the Time structure fields with the read parameters */
 460:Drivers/STM32L4xx_HAL_Driver/Src/stm32l4xx_hal_rtc_ex.c ****   sTimeStamp->Hours = (uint8_t)((tmptime & (RTC_TSTR_HT | RTC_TSTR_HU)) >> RTC_TSTR_HU_Pos);
 535              		.loc 1 460 3 is_stmt 1 view .LVU180
 536              		.loc 1 460 23 is_stmt 0 view .LVU181
 537 000e C2F30540 		ubfx	r0, r2, #16, #6
 538              	.LVL37:
 539              		.loc 1 460 21 view .LVU182
 540 0012 2070     		strb	r0, [r4]
 461:Drivers/STM32L4xx_HAL_Driver/Src/stm32l4xx_hal_rtc_ex.c ****   sTimeStamp->Minutes = (uint8_t)((tmptime & (RTC_TSTR_MNT | RTC_TSTR_MNU)) >> RTC_TSTR_MNU_Pos);
 541              		.loc 1 461 3 is_stmt 1 view .LVU183
 542              		.loc 1 461 25 is_stmt 0 view .LVU184
 543 0014 C2F30620 		ubfx	r0, r2, #8, #7
 544              		.loc 1 461 23 view .LVU185
 545 0018 6070     		strb	r0, [r4, #1]
 462:Drivers/STM32L4xx_HAL_Driver/Src/stm32l4xx_hal_rtc_ex.c ****   sTimeStamp->Seconds = (uint8_t)((tmptime & (RTC_TSTR_ST | RTC_TSTR_SU)) >> RTC_TSTR_SU_Pos);
 546              		.loc 1 462 3 is_stmt 1 view .LVU186
 547              		.loc 1 462 25 is_stmt 0 view .LVU187
 548 001a 02F07F00 		and	r0, r2, #127
 549              		.loc 1 462 23 view .LVU188
 550 001e A070     		strb	r0, [r4, #2]
 463:Drivers/STM32L4xx_HAL_Driver/Src/stm32l4xx_hal_rtc_ex.c ****   sTimeStamp->TimeFormat = (uint8_t)((tmptime & (RTC_TSTR_PM)) >> RTC_TSTR_PM_Pos);
 551              		.loc 1 463 3 is_stmt 1 view .LVU189
 552              		.loc 1 463 28 is_stmt 0 view .LVU190
 553 0020 C2F38052 		ubfx	r2, r2, #22, #1
 554              	.LVL38:
 555              		.loc 1 463 26 view .LVU191
 556 0024 E270     		strb	r2, [r4, #3]
 464:Drivers/STM32L4xx_HAL_Driver/Src/stm32l4xx_hal_rtc_ex.c ****   sTimeStamp->SubSeconds = (uint32_t) hrtc->Instance->TSSSR;
 557              		.loc 1 464 3 is_stmt 1 view .LVU192
 558              		.loc 1 464 43 is_stmt 0 view .LVU193
 559 0026 3268     		ldr	r2, [r6]
 560              		.loc 1 464 53 view .LVU194
 561 0028 926B     		ldr	r2, [r2, #56]
 562              		.loc 1 464 26 view .LVU195
 563 002a 6260     		str	r2, [r4, #4]
 465:Drivers/STM32L4xx_HAL_Driver/Src/stm32l4xx_hal_rtc_ex.c **** 
 466:Drivers/STM32L4xx_HAL_Driver/Src/stm32l4xx_hal_rtc_ex.c ****   /* Fill the Date structure fields with the read parameters */
 467:Drivers/STM32L4xx_HAL_Driver/Src/stm32l4xx_hal_rtc_ex.c ****   sTimeStampDate->Year = 0U;
ARM GAS  /tmp/cc49nhBG.s 			page 19


 564              		.loc 1 467 3 is_stmt 1 view .LVU196
 565              		.loc 1 467 24 is_stmt 0 view .LVU197
 566 002c 0022     		movs	r2, #0
 567 002e EA70     		strb	r2, [r5, #3]
 468:Drivers/STM32L4xx_HAL_Driver/Src/stm32l4xx_hal_rtc_ex.c ****   sTimeStampDate->Month = (uint8_t)((tmpdate & (RTC_TSDR_MT | RTC_TSDR_MU)) >> RTC_TSDR_MU_Pos);
 568              		.loc 1 468 3 is_stmt 1 view .LVU198
 569              		.loc 1 468 27 is_stmt 0 view .LVU199
 570 0030 C1F30422 		ubfx	r2, r1, #8, #5
 571              		.loc 1 468 25 view .LVU200
 572 0034 6A70     		strb	r2, [r5, #1]
 469:Drivers/STM32L4xx_HAL_Driver/Src/stm32l4xx_hal_rtc_ex.c ****   sTimeStampDate->Date = (uint8_t)((tmpdate & (RTC_TSDR_DT | RTC_TSDR_DU)) >> RTC_TSDR_DU_Pos);
 573              		.loc 1 469 3 is_stmt 1 view .LVU201
 574              		.loc 1 469 26 is_stmt 0 view .LVU202
 575 0036 01F03F02 		and	r2, r1, #63
 576              		.loc 1 469 24 view .LVU203
 577 003a AA70     		strb	r2, [r5, #2]
 470:Drivers/STM32L4xx_HAL_Driver/Src/stm32l4xx_hal_rtc_ex.c ****   sTimeStampDate->WeekDay = (uint8_t)((tmpdate & (RTC_TSDR_WDU)) >> RTC_TSDR_WDU_Pos);
 578              		.loc 1 470 3 is_stmt 1 view .LVU204
 579              		.loc 1 470 29 is_stmt 0 view .LVU205
 580 003c C1F34231 		ubfx	r1, r1, #13, #3
 581              	.LVL39:
 582              		.loc 1 470 27 view .LVU206
 583 0040 2970     		strb	r1, [r5]
 471:Drivers/STM32L4xx_HAL_Driver/Src/stm32l4xx_hal_rtc_ex.c **** 
 472:Drivers/STM32L4xx_HAL_Driver/Src/stm32l4xx_hal_rtc_ex.c ****   /* Check the input parameters format */
 473:Drivers/STM32L4xx_HAL_Driver/Src/stm32l4xx_hal_rtc_ex.c ****   if (Format == RTC_FORMAT_BIN)
 584              		.loc 1 473 3 is_stmt 1 view .LVU207
 585              		.loc 1 473 6 is_stmt 0 view .LVU208
 586 0042 43B1     		cbz	r3, .L29
 587              	.LVL40:
 588              	.L27:
 474:Drivers/STM32L4xx_HAL_Driver/Src/stm32l4xx_hal_rtc_ex.c ****   {
 475:Drivers/STM32L4xx_HAL_Driver/Src/stm32l4xx_hal_rtc_ex.c ****     /* Convert the TimeStamp structure parameters to Binary format */
 476:Drivers/STM32L4xx_HAL_Driver/Src/stm32l4xx_hal_rtc_ex.c ****     sTimeStamp->Hours = (uint8_t)RTC_Bcd2ToByte(sTimeStamp->Hours);
 477:Drivers/STM32L4xx_HAL_Driver/Src/stm32l4xx_hal_rtc_ex.c ****     sTimeStamp->Minutes = (uint8_t)RTC_Bcd2ToByte(sTimeStamp->Minutes);
 478:Drivers/STM32L4xx_HAL_Driver/Src/stm32l4xx_hal_rtc_ex.c ****     sTimeStamp->Seconds = (uint8_t)RTC_Bcd2ToByte(sTimeStamp->Seconds);
 479:Drivers/STM32L4xx_HAL_Driver/Src/stm32l4xx_hal_rtc_ex.c **** 
 480:Drivers/STM32L4xx_HAL_Driver/Src/stm32l4xx_hal_rtc_ex.c ****     /* Convert the DateTimeStamp structure parameters to Binary format */
 481:Drivers/STM32L4xx_HAL_Driver/Src/stm32l4xx_hal_rtc_ex.c ****     sTimeStampDate->Month = (uint8_t)RTC_Bcd2ToByte(sTimeStampDate->Month);
 482:Drivers/STM32L4xx_HAL_Driver/Src/stm32l4xx_hal_rtc_ex.c ****     sTimeStampDate->Date = (uint8_t)RTC_Bcd2ToByte(sTimeStampDate->Date);
 483:Drivers/STM32L4xx_HAL_Driver/Src/stm32l4xx_hal_rtc_ex.c ****     sTimeStampDate->WeekDay = (uint8_t)RTC_Bcd2ToByte(sTimeStampDate->WeekDay);
 484:Drivers/STM32L4xx_HAL_Driver/Src/stm32l4xx_hal_rtc_ex.c ****   }
 485:Drivers/STM32L4xx_HAL_Driver/Src/stm32l4xx_hal_rtc_ex.c **** 
 486:Drivers/STM32L4xx_HAL_Driver/Src/stm32l4xx_hal_rtc_ex.c ****   /* Clear the TIMESTAMP Flags */
 487:Drivers/STM32L4xx_HAL_Driver/Src/stm32l4xx_hal_rtc_ex.c ****   __HAL_RTC_INTERNAL_TIMESTAMP_CLEAR_FLAG(hrtc, RTC_FLAG_ITSF);
 589              		.loc 1 487 3 is_stmt 1 view .LVU209
 590 0044 3368     		ldr	r3, [r6]
 591 0046 2022     		movs	r2, #32
 592 0048 DA65     		str	r2, [r3, #92]
 488:Drivers/STM32L4xx_HAL_Driver/Src/stm32l4xx_hal_rtc_ex.c ****   __HAL_RTC_TIMESTAMP_CLEAR_FLAG(hrtc, RTC_FLAG_TSF);
 593              		.loc 1 488 3 view .LVU210
 594 004a 3368     		ldr	r3, [r6]
 595 004c 40F20322 		movw	r2, #515
 596 0050 DA65     		str	r2, [r3, #92]
 489:Drivers/STM32L4xx_HAL_Driver/Src/stm32l4xx_hal_rtc_ex.c **** 
 490:Drivers/STM32L4xx_HAL_Driver/Src/stm32l4xx_hal_rtc_ex.c ****   return HAL_OK;
 597              		.loc 1 490 3 view .LVU211
ARM GAS  /tmp/cc49nhBG.s 			page 20


 491:Drivers/STM32L4xx_HAL_Driver/Src/stm32l4xx_hal_rtc_ex.c **** }
 598              		.loc 1 491 1 is_stmt 0 view .LVU212
 599 0052 0020     		movs	r0, #0
 600 0054 70BD     		pop	{r4, r5, r6, pc}
 601              	.LVL41:
 602              	.L29:
 476:Drivers/STM32L4xx_HAL_Driver/Src/stm32l4xx_hal_rtc_ex.c ****     sTimeStamp->Minutes = (uint8_t)RTC_Bcd2ToByte(sTimeStamp->Minutes);
 603              		.loc 1 476 5 is_stmt 1 view .LVU213
 476:Drivers/STM32L4xx_HAL_Driver/Src/stm32l4xx_hal_rtc_ex.c ****     sTimeStamp->Minutes = (uint8_t)RTC_Bcd2ToByte(sTimeStamp->Minutes);
 604              		.loc 1 476 34 is_stmt 0 view .LVU214
 605 0056 2078     		ldrb	r0, [r4]	@ zero_extendqisi2
 606 0058 FFF7FEFF 		bl	RTC_Bcd2ToByte
 607              	.LVL42:
 476:Drivers/STM32L4xx_HAL_Driver/Src/stm32l4xx_hal_rtc_ex.c ****     sTimeStamp->Minutes = (uint8_t)RTC_Bcd2ToByte(sTimeStamp->Minutes);
 608              		.loc 1 476 23 view .LVU215
 609 005c 2070     		strb	r0, [r4]
 477:Drivers/STM32L4xx_HAL_Driver/Src/stm32l4xx_hal_rtc_ex.c ****     sTimeStamp->Seconds = (uint8_t)RTC_Bcd2ToByte(sTimeStamp->Seconds);
 610              		.loc 1 477 5 is_stmt 1 view .LVU216
 477:Drivers/STM32L4xx_HAL_Driver/Src/stm32l4xx_hal_rtc_ex.c ****     sTimeStamp->Seconds = (uint8_t)RTC_Bcd2ToByte(sTimeStamp->Seconds);
 611              		.loc 1 477 36 is_stmt 0 view .LVU217
 612 005e 6078     		ldrb	r0, [r4, #1]	@ zero_extendqisi2
 613 0060 FFF7FEFF 		bl	RTC_Bcd2ToByte
 614              	.LVL43:
 477:Drivers/STM32L4xx_HAL_Driver/Src/stm32l4xx_hal_rtc_ex.c ****     sTimeStamp->Seconds = (uint8_t)RTC_Bcd2ToByte(sTimeStamp->Seconds);
 615              		.loc 1 477 25 view .LVU218
 616 0064 6070     		strb	r0, [r4, #1]
 478:Drivers/STM32L4xx_HAL_Driver/Src/stm32l4xx_hal_rtc_ex.c **** 
 617              		.loc 1 478 5 is_stmt 1 view .LVU219
 478:Drivers/STM32L4xx_HAL_Driver/Src/stm32l4xx_hal_rtc_ex.c **** 
 618              		.loc 1 478 36 is_stmt 0 view .LVU220
 619 0066 A078     		ldrb	r0, [r4, #2]	@ zero_extendqisi2
 620 0068 FFF7FEFF 		bl	RTC_Bcd2ToByte
 621              	.LVL44:
 478:Drivers/STM32L4xx_HAL_Driver/Src/stm32l4xx_hal_rtc_ex.c **** 
 622              		.loc 1 478 25 view .LVU221
 623 006c A070     		strb	r0, [r4, #2]
 481:Drivers/STM32L4xx_HAL_Driver/Src/stm32l4xx_hal_rtc_ex.c ****     sTimeStampDate->Date = (uint8_t)RTC_Bcd2ToByte(sTimeStampDate->Date);
 624              		.loc 1 481 5 is_stmt 1 view .LVU222
 481:Drivers/STM32L4xx_HAL_Driver/Src/stm32l4xx_hal_rtc_ex.c ****     sTimeStampDate->Date = (uint8_t)RTC_Bcd2ToByte(sTimeStampDate->Date);
 625              		.loc 1 481 38 is_stmt 0 view .LVU223
 626 006e 6878     		ldrb	r0, [r5, #1]	@ zero_extendqisi2
 627 0070 FFF7FEFF 		bl	RTC_Bcd2ToByte
 628              	.LVL45:
 481:Drivers/STM32L4xx_HAL_Driver/Src/stm32l4xx_hal_rtc_ex.c ****     sTimeStampDate->Date = (uint8_t)RTC_Bcd2ToByte(sTimeStampDate->Date);
 629              		.loc 1 481 27 view .LVU224
 630 0074 6870     		strb	r0, [r5, #1]
 482:Drivers/STM32L4xx_HAL_Driver/Src/stm32l4xx_hal_rtc_ex.c ****     sTimeStampDate->WeekDay = (uint8_t)RTC_Bcd2ToByte(sTimeStampDate->WeekDay);
 631              		.loc 1 482 5 is_stmt 1 view .LVU225
 482:Drivers/STM32L4xx_HAL_Driver/Src/stm32l4xx_hal_rtc_ex.c ****     sTimeStampDate->WeekDay = (uint8_t)RTC_Bcd2ToByte(sTimeStampDate->WeekDay);
 632              		.loc 1 482 37 is_stmt 0 view .LVU226
 633 0076 A878     		ldrb	r0, [r5, #2]	@ zero_extendqisi2
 634 0078 FFF7FEFF 		bl	RTC_Bcd2ToByte
 635              	.LVL46:
 482:Drivers/STM32L4xx_HAL_Driver/Src/stm32l4xx_hal_rtc_ex.c ****     sTimeStampDate->WeekDay = (uint8_t)RTC_Bcd2ToByte(sTimeStampDate->WeekDay);
 636              		.loc 1 482 26 view .LVU227
 637 007c A870     		strb	r0, [r5, #2]
 483:Drivers/STM32L4xx_HAL_Driver/Src/stm32l4xx_hal_rtc_ex.c ****   }
ARM GAS  /tmp/cc49nhBG.s 			page 21


 638              		.loc 1 483 5 is_stmt 1 view .LVU228
 483:Drivers/STM32L4xx_HAL_Driver/Src/stm32l4xx_hal_rtc_ex.c ****   }
 639              		.loc 1 483 40 is_stmt 0 view .LVU229
 640 007e 2878     		ldrb	r0, [r5]	@ zero_extendqisi2
 641 0080 FFF7FEFF 		bl	RTC_Bcd2ToByte
 642              	.LVL47:
 483:Drivers/STM32L4xx_HAL_Driver/Src/stm32l4xx_hal_rtc_ex.c ****   }
 643              		.loc 1 483 29 view .LVU230
 644 0084 2870     		strb	r0, [r5]
 645 0086 DDE7     		b	.L27
 646              		.cfi_endproc
 647              	.LFE137:
 649              		.section	.text.HAL_RTCEx_TimeStampEventCallback,"ax",%progbits
 650              		.align	1
 651              		.weak	HAL_RTCEx_TimeStampEventCallback
 652              		.syntax unified
 653              		.thumb
 654              		.thumb_func
 655              		.fpu fpv4-sp-d16
 657              	HAL_RTCEx_TimeStampEventCallback:
 658              	.LVL48:
 659              	.LFB139:
 492:Drivers/STM32L4xx_HAL_Driver/Src/stm32l4xx_hal_rtc_ex.c **** #endif /* #if defined (STM32L4P5xx) || defined (STM32L4Q5xx) */
 493:Drivers/STM32L4xx_HAL_Driver/Src/stm32l4xx_hal_rtc_ex.c **** 
 494:Drivers/STM32L4xx_HAL_Driver/Src/stm32l4xx_hal_rtc_ex.c **** /**
 495:Drivers/STM32L4xx_HAL_Driver/Src/stm32l4xx_hal_rtc_ex.c ****   * @brief  Handle TimeStamp interrupt request.
 496:Drivers/STM32L4xx_HAL_Driver/Src/stm32l4xx_hal_rtc_ex.c ****   * @param  hrtc RTC handle
 497:Drivers/STM32L4xx_HAL_Driver/Src/stm32l4xx_hal_rtc_ex.c ****   * @retval None
 498:Drivers/STM32L4xx_HAL_Driver/Src/stm32l4xx_hal_rtc_ex.c ****   */
 499:Drivers/STM32L4xx_HAL_Driver/Src/stm32l4xx_hal_rtc_ex.c **** #if defined(STM32L412xx) || defined(STM32L422xx) || defined (STM32L4P5xx) || defined (STM32L4Q5xx)
 500:Drivers/STM32L4xx_HAL_Driver/Src/stm32l4xx_hal_rtc_ex.c **** 
 501:Drivers/STM32L4xx_HAL_Driver/Src/stm32l4xx_hal_rtc_ex.c **** void HAL_RTCEx_TamperTimeStampIRQHandler(RTC_HandleTypeDef *hrtc)
 502:Drivers/STM32L4xx_HAL_Driver/Src/stm32l4xx_hal_rtc_ex.c **** {
 503:Drivers/STM32L4xx_HAL_Driver/Src/stm32l4xx_hal_rtc_ex.c **** 
 504:Drivers/STM32L4xx_HAL_Driver/Src/stm32l4xx_hal_rtc_ex.c ****   /* Process TAMP instance pointer */
 505:Drivers/STM32L4xx_HAL_Driver/Src/stm32l4xx_hal_rtc_ex.c ****   TAMP_TypeDef *tamp = (TAMP_TypeDef *)((uint32_t)hrtc->Instance + hrtc->TampOffset);
 506:Drivers/STM32L4xx_HAL_Driver/Src/stm32l4xx_hal_rtc_ex.c **** 
 507:Drivers/STM32L4xx_HAL_Driver/Src/stm32l4xx_hal_rtc_ex.c ****   /* Clear the EXTI's Flag for RTC TimeStamp and Tamper */
 508:Drivers/STM32L4xx_HAL_Driver/Src/stm32l4xx_hal_rtc_ex.c ****   __HAL_RTC_TAMPER_TIMESTAMP_EXTI_CLEAR_FLAG();
 509:Drivers/STM32L4xx_HAL_Driver/Src/stm32l4xx_hal_rtc_ex.c **** 
 510:Drivers/STM32L4xx_HAL_Driver/Src/stm32l4xx_hal_rtc_ex.c ****   if ((hrtc->Instance->MISR & RTC_MISR_TSMF) != 0u)
 511:Drivers/STM32L4xx_HAL_Driver/Src/stm32l4xx_hal_rtc_ex.c ****   {
 512:Drivers/STM32L4xx_HAL_Driver/Src/stm32l4xx_hal_rtc_ex.c **** #if (USE_HAL_RTC_REGISTER_CALLBACKS == 1)
 513:Drivers/STM32L4xx_HAL_Driver/Src/stm32l4xx_hal_rtc_ex.c ****     /* Call TimeStampEvent registered Callback */
 514:Drivers/STM32L4xx_HAL_Driver/Src/stm32l4xx_hal_rtc_ex.c ****     hrtc->TimeStampEventCallback(hrtc);
 515:Drivers/STM32L4xx_HAL_Driver/Src/stm32l4xx_hal_rtc_ex.c **** #else
 516:Drivers/STM32L4xx_HAL_Driver/Src/stm32l4xx_hal_rtc_ex.c ****     HAL_RTCEx_TimeStampEventCallback(hrtc);
 517:Drivers/STM32L4xx_HAL_Driver/Src/stm32l4xx_hal_rtc_ex.c **** #endif
 518:Drivers/STM32L4xx_HAL_Driver/Src/stm32l4xx_hal_rtc_ex.c ****     /* Not immediately clear flags because the content of RTC_TSTR and RTC_TSDR arecleared when TSF
 519:Drivers/STM32L4xx_HAL_Driver/Src/stm32l4xx_hal_rtc_ex.c ****     hrtc->Instance->SCR = RTC_SCR_CTSF;
 520:Drivers/STM32L4xx_HAL_Driver/Src/stm32l4xx_hal_rtc_ex.c ****   }
 521:Drivers/STM32L4xx_HAL_Driver/Src/stm32l4xx_hal_rtc_ex.c **** 
 522:Drivers/STM32L4xx_HAL_Driver/Src/stm32l4xx_hal_rtc_ex.c ****   /* Get interrupt status */
 523:Drivers/STM32L4xx_HAL_Driver/Src/stm32l4xx_hal_rtc_ex.c ****   uint32_t tmp = tamp->MISR;
 524:Drivers/STM32L4xx_HAL_Driver/Src/stm32l4xx_hal_rtc_ex.c **** 
 525:Drivers/STM32L4xx_HAL_Driver/Src/stm32l4xx_hal_rtc_ex.c ****   /* Immediately clear flags */
 526:Drivers/STM32L4xx_HAL_Driver/Src/stm32l4xx_hal_rtc_ex.c ****   tamp->SCR = tmp;
ARM GAS  /tmp/cc49nhBG.s 			page 22


 527:Drivers/STM32L4xx_HAL_Driver/Src/stm32l4xx_hal_rtc_ex.c **** 
 528:Drivers/STM32L4xx_HAL_Driver/Src/stm32l4xx_hal_rtc_ex.c **** #if defined(RTC_TAMPER1_SUPPORT)
 529:Drivers/STM32L4xx_HAL_Driver/Src/stm32l4xx_hal_rtc_ex.c ****   /* Check Tamper1 status */
 530:Drivers/STM32L4xx_HAL_Driver/Src/stm32l4xx_hal_rtc_ex.c ****   if ((tmp & RTC_TAMPER_1) == RTC_TAMPER_1)
 531:Drivers/STM32L4xx_HAL_Driver/Src/stm32l4xx_hal_rtc_ex.c ****   {
 532:Drivers/STM32L4xx_HAL_Driver/Src/stm32l4xx_hal_rtc_ex.c **** #if (USE_HAL_RTC_REGISTER_CALLBACKS == 1)
 533:Drivers/STM32L4xx_HAL_Driver/Src/stm32l4xx_hal_rtc_ex.c ****     /* Call Tamper 1 Event registered Callback */
 534:Drivers/STM32L4xx_HAL_Driver/Src/stm32l4xx_hal_rtc_ex.c ****     hrtc->Tamper1EventCallback(hrtc);
 535:Drivers/STM32L4xx_HAL_Driver/Src/stm32l4xx_hal_rtc_ex.c **** #else
 536:Drivers/STM32L4xx_HAL_Driver/Src/stm32l4xx_hal_rtc_ex.c ****     /* Tamper1 callback */
 537:Drivers/STM32L4xx_HAL_Driver/Src/stm32l4xx_hal_rtc_ex.c ****     HAL_RTCEx_Tamper1EventCallback(hrtc);
 538:Drivers/STM32L4xx_HAL_Driver/Src/stm32l4xx_hal_rtc_ex.c **** #endif
 539:Drivers/STM32L4xx_HAL_Driver/Src/stm32l4xx_hal_rtc_ex.c ****   }
 540:Drivers/STM32L4xx_HAL_Driver/Src/stm32l4xx_hal_rtc_ex.c **** #endif /* RTC_TAMPER1_SUPPORT */
 541:Drivers/STM32L4xx_HAL_Driver/Src/stm32l4xx_hal_rtc_ex.c **** 
 542:Drivers/STM32L4xx_HAL_Driver/Src/stm32l4xx_hal_rtc_ex.c ****   /* Check Tamper2 status */
 543:Drivers/STM32L4xx_HAL_Driver/Src/stm32l4xx_hal_rtc_ex.c ****   if ((tmp & RTC_TAMPER_2) == RTC_TAMPER_2)
 544:Drivers/STM32L4xx_HAL_Driver/Src/stm32l4xx_hal_rtc_ex.c ****   {
 545:Drivers/STM32L4xx_HAL_Driver/Src/stm32l4xx_hal_rtc_ex.c **** #if (USE_HAL_RTC_REGISTER_CALLBACKS == 1)
 546:Drivers/STM32L4xx_HAL_Driver/Src/stm32l4xx_hal_rtc_ex.c ****     /* Call Tamper 2 Event registered Callback */
 547:Drivers/STM32L4xx_HAL_Driver/Src/stm32l4xx_hal_rtc_ex.c ****     hrtc->Tamper2EventCallback(hrtc);
 548:Drivers/STM32L4xx_HAL_Driver/Src/stm32l4xx_hal_rtc_ex.c **** #else
 549:Drivers/STM32L4xx_HAL_Driver/Src/stm32l4xx_hal_rtc_ex.c ****     /* Tamper2 callback */
 550:Drivers/STM32L4xx_HAL_Driver/Src/stm32l4xx_hal_rtc_ex.c ****     HAL_RTCEx_Tamper2EventCallback(hrtc);
 551:Drivers/STM32L4xx_HAL_Driver/Src/stm32l4xx_hal_rtc_ex.c **** #endif
 552:Drivers/STM32L4xx_HAL_Driver/Src/stm32l4xx_hal_rtc_ex.c ****   }
 553:Drivers/STM32L4xx_HAL_Driver/Src/stm32l4xx_hal_rtc_ex.c **** 
 554:Drivers/STM32L4xx_HAL_Driver/Src/stm32l4xx_hal_rtc_ex.c **** #if defined(RTC_TAMPER3_SUPPORT)
 555:Drivers/STM32L4xx_HAL_Driver/Src/stm32l4xx_hal_rtc_ex.c ****   /* Check Tamper3 status */
 556:Drivers/STM32L4xx_HAL_Driver/Src/stm32l4xx_hal_rtc_ex.c ****   if ((tmp & RTC_TAMPER_3) == RTC_TAMPER_3)
 557:Drivers/STM32L4xx_HAL_Driver/Src/stm32l4xx_hal_rtc_ex.c ****   {
 558:Drivers/STM32L4xx_HAL_Driver/Src/stm32l4xx_hal_rtc_ex.c **** #if (USE_HAL_RTC_REGISTER_CALLBACKS == 1)
 559:Drivers/STM32L4xx_HAL_Driver/Src/stm32l4xx_hal_rtc_ex.c ****     /* Call Tamper 3 Event registered Callback */
 560:Drivers/STM32L4xx_HAL_Driver/Src/stm32l4xx_hal_rtc_ex.c ****     hrtc->Tamper3EventCallback(hrtc);
 561:Drivers/STM32L4xx_HAL_Driver/Src/stm32l4xx_hal_rtc_ex.c **** #else
 562:Drivers/STM32L4xx_HAL_Driver/Src/stm32l4xx_hal_rtc_ex.c ****     /* Tamper3 callback */
 563:Drivers/STM32L4xx_HAL_Driver/Src/stm32l4xx_hal_rtc_ex.c ****     HAL_RTCEx_Tamper3EventCallback(hrtc);
 564:Drivers/STM32L4xx_HAL_Driver/Src/stm32l4xx_hal_rtc_ex.c **** #endif
 565:Drivers/STM32L4xx_HAL_Driver/Src/stm32l4xx_hal_rtc_ex.c ****   }
 566:Drivers/STM32L4xx_HAL_Driver/Src/stm32l4xx_hal_rtc_ex.c **** 
 567:Drivers/STM32L4xx_HAL_Driver/Src/stm32l4xx_hal_rtc_ex.c **** #endif /* RTC_TAMPER3_SUPPORT */
 568:Drivers/STM32L4xx_HAL_Driver/Src/stm32l4xx_hal_rtc_ex.c **** 
 569:Drivers/STM32L4xx_HAL_Driver/Src/stm32l4xx_hal_rtc_ex.c ****   /* Change RTC state */
 570:Drivers/STM32L4xx_HAL_Driver/Src/stm32l4xx_hal_rtc_ex.c ****   hrtc->State = HAL_RTC_STATE_READY;
 571:Drivers/STM32L4xx_HAL_Driver/Src/stm32l4xx_hal_rtc_ex.c **** }
 572:Drivers/STM32L4xx_HAL_Driver/Src/stm32l4xx_hal_rtc_ex.c **** 
 573:Drivers/STM32L4xx_HAL_Driver/Src/stm32l4xx_hal_rtc_ex.c **** #else /* #if defined(STM32L412xx) || defined(STM32L422xx) || defined (STM32L4P5xx) || defined (STM3
 574:Drivers/STM32L4xx_HAL_Driver/Src/stm32l4xx_hal_rtc_ex.c **** 
 575:Drivers/STM32L4xx_HAL_Driver/Src/stm32l4xx_hal_rtc_ex.c **** void HAL_RTCEx_TamperTimeStampIRQHandler(RTC_HandleTypeDef *hrtc)
 576:Drivers/STM32L4xx_HAL_Driver/Src/stm32l4xx_hal_rtc_ex.c **** {
 577:Drivers/STM32L4xx_HAL_Driver/Src/stm32l4xx_hal_rtc_ex.c ****   /* Clear the EXTI's Flag for RTC TimeStamp and Tamper */
 578:Drivers/STM32L4xx_HAL_Driver/Src/stm32l4xx_hal_rtc_ex.c ****   __HAL_RTC_TAMPER_TIMESTAMP_EXTI_CLEAR_FLAG();
 579:Drivers/STM32L4xx_HAL_Driver/Src/stm32l4xx_hal_rtc_ex.c **** 
 580:Drivers/STM32L4xx_HAL_Driver/Src/stm32l4xx_hal_rtc_ex.c ****   /* Get the TimeStamp interrupt source enable status and pending flag status */
 581:Drivers/STM32L4xx_HAL_Driver/Src/stm32l4xx_hal_rtc_ex.c ****   if (__HAL_RTC_TIMESTAMP_GET_IT_SOURCE(hrtc, RTC_IT_TS) != 0U)
 582:Drivers/STM32L4xx_HAL_Driver/Src/stm32l4xx_hal_rtc_ex.c ****   {
 583:Drivers/STM32L4xx_HAL_Driver/Src/stm32l4xx_hal_rtc_ex.c ****     if (__HAL_RTC_TIMESTAMP_GET_FLAG(hrtc, RTC_FLAG_TSF) != 0U)
ARM GAS  /tmp/cc49nhBG.s 			page 23


 584:Drivers/STM32L4xx_HAL_Driver/Src/stm32l4xx_hal_rtc_ex.c ****     {
 585:Drivers/STM32L4xx_HAL_Driver/Src/stm32l4xx_hal_rtc_ex.c ****       /* TIMESTAMP callback */
 586:Drivers/STM32L4xx_HAL_Driver/Src/stm32l4xx_hal_rtc_ex.c **** #if (USE_HAL_RTC_REGISTER_CALLBACKS == 1)
 587:Drivers/STM32L4xx_HAL_Driver/Src/stm32l4xx_hal_rtc_ex.c ****       hrtc->TimeStampEventCallback(hrtc);
 588:Drivers/STM32L4xx_HAL_Driver/Src/stm32l4xx_hal_rtc_ex.c **** #else  /* (USE_HAL_RTC_REGISTER_CALLBACKS == 1) */
 589:Drivers/STM32L4xx_HAL_Driver/Src/stm32l4xx_hal_rtc_ex.c ****       HAL_RTCEx_TimeStampEventCallback(hrtc);
 590:Drivers/STM32L4xx_HAL_Driver/Src/stm32l4xx_hal_rtc_ex.c **** #endif /* (USE_HAL_RTC_REGISTER_CALLBACKS == 1) */
 591:Drivers/STM32L4xx_HAL_Driver/Src/stm32l4xx_hal_rtc_ex.c **** 
 592:Drivers/STM32L4xx_HAL_Driver/Src/stm32l4xx_hal_rtc_ex.c ****       /* Clear the TIMESTAMP interrupt pending bit (this will clear timestamp time and date registe
 593:Drivers/STM32L4xx_HAL_Driver/Src/stm32l4xx_hal_rtc_ex.c ****       __HAL_RTC_TIMESTAMP_CLEAR_FLAG(hrtc, RTC_FLAG_TSF);
 594:Drivers/STM32L4xx_HAL_Driver/Src/stm32l4xx_hal_rtc_ex.c ****     }
 595:Drivers/STM32L4xx_HAL_Driver/Src/stm32l4xx_hal_rtc_ex.c ****   }
 596:Drivers/STM32L4xx_HAL_Driver/Src/stm32l4xx_hal_rtc_ex.c **** 
 597:Drivers/STM32L4xx_HAL_Driver/Src/stm32l4xx_hal_rtc_ex.c **** #if defined(RTC_TAMPER1_SUPPORT)
 598:Drivers/STM32L4xx_HAL_Driver/Src/stm32l4xx_hal_rtc_ex.c ****   /* Get the Tamper1 interrupt source enable status and pending flag status */
 599:Drivers/STM32L4xx_HAL_Driver/Src/stm32l4xx_hal_rtc_ex.c ****   if (__HAL_RTC_TAMPER_GET_IT_SOURCE(hrtc, RTC_IT_TAMP | RTC_IT_TAMP1) != 0U)
 600:Drivers/STM32L4xx_HAL_Driver/Src/stm32l4xx_hal_rtc_ex.c ****   {
 601:Drivers/STM32L4xx_HAL_Driver/Src/stm32l4xx_hal_rtc_ex.c ****     if (__HAL_RTC_TAMPER_GET_FLAG(hrtc, RTC_FLAG_TAMP1F) != 0U)
 602:Drivers/STM32L4xx_HAL_Driver/Src/stm32l4xx_hal_rtc_ex.c ****     {
 603:Drivers/STM32L4xx_HAL_Driver/Src/stm32l4xx_hal_rtc_ex.c ****       /* Clear the Tamper1 interrupt pending bit */
 604:Drivers/STM32L4xx_HAL_Driver/Src/stm32l4xx_hal_rtc_ex.c ****       __HAL_RTC_TAMPER_CLEAR_FLAG(hrtc, RTC_FLAG_TAMP1F);
 605:Drivers/STM32L4xx_HAL_Driver/Src/stm32l4xx_hal_rtc_ex.c **** 
 606:Drivers/STM32L4xx_HAL_Driver/Src/stm32l4xx_hal_rtc_ex.c ****       /* Tamper1 callback */
 607:Drivers/STM32L4xx_HAL_Driver/Src/stm32l4xx_hal_rtc_ex.c **** #if (USE_HAL_RTC_REGISTER_CALLBACKS == 1)
 608:Drivers/STM32L4xx_HAL_Driver/Src/stm32l4xx_hal_rtc_ex.c ****       hrtc->Tamper1EventCallback(hrtc);
 609:Drivers/STM32L4xx_HAL_Driver/Src/stm32l4xx_hal_rtc_ex.c **** #else  /* (USE_HAL_RTC_REGISTER_CALLBACKS == 1) */
 610:Drivers/STM32L4xx_HAL_Driver/Src/stm32l4xx_hal_rtc_ex.c ****       HAL_RTCEx_Tamper1EventCallback(hrtc);
 611:Drivers/STM32L4xx_HAL_Driver/Src/stm32l4xx_hal_rtc_ex.c **** #endif /* (USE_HAL_RTC_REGISTER_CALLBACKS == 1) */
 612:Drivers/STM32L4xx_HAL_Driver/Src/stm32l4xx_hal_rtc_ex.c ****     }
 613:Drivers/STM32L4xx_HAL_Driver/Src/stm32l4xx_hal_rtc_ex.c ****   }
 614:Drivers/STM32L4xx_HAL_Driver/Src/stm32l4xx_hal_rtc_ex.c **** #endif /* RTC_TAMPER1_SUPPORT */
 615:Drivers/STM32L4xx_HAL_Driver/Src/stm32l4xx_hal_rtc_ex.c **** 
 616:Drivers/STM32L4xx_HAL_Driver/Src/stm32l4xx_hal_rtc_ex.c ****   /* Get the Tamper2 interrupt source enable status and pending flag status */
 617:Drivers/STM32L4xx_HAL_Driver/Src/stm32l4xx_hal_rtc_ex.c ****   if (__HAL_RTC_TAMPER_GET_IT_SOURCE(hrtc, RTC_IT_TAMP | RTC_IT_TAMP2) != 0U)
 618:Drivers/STM32L4xx_HAL_Driver/Src/stm32l4xx_hal_rtc_ex.c ****   {
 619:Drivers/STM32L4xx_HAL_Driver/Src/stm32l4xx_hal_rtc_ex.c ****     if (__HAL_RTC_TAMPER_GET_FLAG(hrtc, RTC_FLAG_TAMP2F) != 0U)
 620:Drivers/STM32L4xx_HAL_Driver/Src/stm32l4xx_hal_rtc_ex.c ****     {
 621:Drivers/STM32L4xx_HAL_Driver/Src/stm32l4xx_hal_rtc_ex.c ****       /* Clear the Tamper2 interrupt pending bit */
 622:Drivers/STM32L4xx_HAL_Driver/Src/stm32l4xx_hal_rtc_ex.c ****       __HAL_RTC_TAMPER_CLEAR_FLAG(hrtc, RTC_FLAG_TAMP2F);
 623:Drivers/STM32L4xx_HAL_Driver/Src/stm32l4xx_hal_rtc_ex.c **** 
 624:Drivers/STM32L4xx_HAL_Driver/Src/stm32l4xx_hal_rtc_ex.c ****       /* Tamper2 callback */
 625:Drivers/STM32L4xx_HAL_Driver/Src/stm32l4xx_hal_rtc_ex.c **** #if (USE_HAL_RTC_REGISTER_CALLBACKS == 1)
 626:Drivers/STM32L4xx_HAL_Driver/Src/stm32l4xx_hal_rtc_ex.c ****       hrtc->Tamper2EventCallback(hrtc);
 627:Drivers/STM32L4xx_HAL_Driver/Src/stm32l4xx_hal_rtc_ex.c **** #else  /* (USE_HAL_RTC_REGISTER_CALLBACKS == 1) */
 628:Drivers/STM32L4xx_HAL_Driver/Src/stm32l4xx_hal_rtc_ex.c ****       HAL_RTCEx_Tamper2EventCallback(hrtc);
 629:Drivers/STM32L4xx_HAL_Driver/Src/stm32l4xx_hal_rtc_ex.c **** #endif /* (USE_HAL_RTC_REGISTER_CALLBACKS == 1) */
 630:Drivers/STM32L4xx_HAL_Driver/Src/stm32l4xx_hal_rtc_ex.c ****     }
 631:Drivers/STM32L4xx_HAL_Driver/Src/stm32l4xx_hal_rtc_ex.c ****   }
 632:Drivers/STM32L4xx_HAL_Driver/Src/stm32l4xx_hal_rtc_ex.c **** 
 633:Drivers/STM32L4xx_HAL_Driver/Src/stm32l4xx_hal_rtc_ex.c **** #if defined(RTC_TAMPER3_SUPPORT)
 634:Drivers/STM32L4xx_HAL_Driver/Src/stm32l4xx_hal_rtc_ex.c ****   /* Get the Tamper3 interrupts source enable status */
 635:Drivers/STM32L4xx_HAL_Driver/Src/stm32l4xx_hal_rtc_ex.c ****   if (__HAL_RTC_TAMPER_GET_IT_SOURCE(hrtc, RTC_IT_TAMP | RTC_IT_TAMP3) != 0U)
 636:Drivers/STM32L4xx_HAL_Driver/Src/stm32l4xx_hal_rtc_ex.c ****   {
 637:Drivers/STM32L4xx_HAL_Driver/Src/stm32l4xx_hal_rtc_ex.c ****     if (__HAL_RTC_TAMPER_GET_FLAG(hrtc, RTC_FLAG_TAMP3F) != 0U)
 638:Drivers/STM32L4xx_HAL_Driver/Src/stm32l4xx_hal_rtc_ex.c ****     {
 639:Drivers/STM32L4xx_HAL_Driver/Src/stm32l4xx_hal_rtc_ex.c ****       /* Clear the Tamper3 interrupt pending bit */
 640:Drivers/STM32L4xx_HAL_Driver/Src/stm32l4xx_hal_rtc_ex.c ****       __HAL_RTC_TAMPER_CLEAR_FLAG(hrtc, RTC_FLAG_TAMP3F);
ARM GAS  /tmp/cc49nhBG.s 			page 24


 641:Drivers/STM32L4xx_HAL_Driver/Src/stm32l4xx_hal_rtc_ex.c **** 
 642:Drivers/STM32L4xx_HAL_Driver/Src/stm32l4xx_hal_rtc_ex.c ****       /* Tamper3 callback */
 643:Drivers/STM32L4xx_HAL_Driver/Src/stm32l4xx_hal_rtc_ex.c **** #if (USE_HAL_RTC_REGISTER_CALLBACKS == 1)
 644:Drivers/STM32L4xx_HAL_Driver/Src/stm32l4xx_hal_rtc_ex.c ****       hrtc->Tamper3EventCallback(hrtc);
 645:Drivers/STM32L4xx_HAL_Driver/Src/stm32l4xx_hal_rtc_ex.c **** #else
 646:Drivers/STM32L4xx_HAL_Driver/Src/stm32l4xx_hal_rtc_ex.c ****       HAL_RTCEx_Tamper3EventCallback(hrtc);
 647:Drivers/STM32L4xx_HAL_Driver/Src/stm32l4xx_hal_rtc_ex.c **** #endif /* USE_HAL_RTC_REGISTER_CALLBACKS */
 648:Drivers/STM32L4xx_HAL_Driver/Src/stm32l4xx_hal_rtc_ex.c ****     }
 649:Drivers/STM32L4xx_HAL_Driver/Src/stm32l4xx_hal_rtc_ex.c ****   }
 650:Drivers/STM32L4xx_HAL_Driver/Src/stm32l4xx_hal_rtc_ex.c **** #endif /* RTC_TAMPER3_SUPPORT */
 651:Drivers/STM32L4xx_HAL_Driver/Src/stm32l4xx_hal_rtc_ex.c **** 
 652:Drivers/STM32L4xx_HAL_Driver/Src/stm32l4xx_hal_rtc_ex.c ****   /* Change RTC state */
 653:Drivers/STM32L4xx_HAL_Driver/Src/stm32l4xx_hal_rtc_ex.c ****   hrtc->State = HAL_RTC_STATE_READY;
 654:Drivers/STM32L4xx_HAL_Driver/Src/stm32l4xx_hal_rtc_ex.c **** }
 655:Drivers/STM32L4xx_HAL_Driver/Src/stm32l4xx_hal_rtc_ex.c **** #endif /* #if defined(STM32L412xx) || defined(STM32L422xx) || defined (STM32L4P5xx) || defined (STM
 656:Drivers/STM32L4xx_HAL_Driver/Src/stm32l4xx_hal_rtc_ex.c **** 
 657:Drivers/STM32L4xx_HAL_Driver/Src/stm32l4xx_hal_rtc_ex.c **** /**
 658:Drivers/STM32L4xx_HAL_Driver/Src/stm32l4xx_hal_rtc_ex.c ****   * @brief  TimeStamp callback.
 659:Drivers/STM32L4xx_HAL_Driver/Src/stm32l4xx_hal_rtc_ex.c ****   * @param  hrtc RTC handle
 660:Drivers/STM32L4xx_HAL_Driver/Src/stm32l4xx_hal_rtc_ex.c ****   * @retval None
 661:Drivers/STM32L4xx_HAL_Driver/Src/stm32l4xx_hal_rtc_ex.c ****   */
 662:Drivers/STM32L4xx_HAL_Driver/Src/stm32l4xx_hal_rtc_ex.c **** __weak void HAL_RTCEx_TimeStampEventCallback(RTC_HandleTypeDef *hrtc)
 663:Drivers/STM32L4xx_HAL_Driver/Src/stm32l4xx_hal_rtc_ex.c **** {
 660              		.loc 1 663 1 is_stmt 1 view -0
 661              		.cfi_startproc
 662              		@ args = 0, pretend = 0, frame = 0
 663              		@ frame_needed = 0, uses_anonymous_args = 0
 664              		@ link register save eliminated.
 664:Drivers/STM32L4xx_HAL_Driver/Src/stm32l4xx_hal_rtc_ex.c ****   /* Prevent unused argument(s) compilation warning */
 665:Drivers/STM32L4xx_HAL_Driver/Src/stm32l4xx_hal_rtc_ex.c ****   UNUSED(hrtc);
 665              		.loc 1 665 3 view .LVU232
 666:Drivers/STM32L4xx_HAL_Driver/Src/stm32l4xx_hal_rtc_ex.c **** 
 667:Drivers/STM32L4xx_HAL_Driver/Src/stm32l4xx_hal_rtc_ex.c ****   /* NOTE : This function should not be modified, when the callback is needed,
 668:Drivers/STM32L4xx_HAL_Driver/Src/stm32l4xx_hal_rtc_ex.c ****             the HAL_RTCEx_TimeStampEventCallback could be implemented in the user file
 669:Drivers/STM32L4xx_HAL_Driver/Src/stm32l4xx_hal_rtc_ex.c ****    */
 670:Drivers/STM32L4xx_HAL_Driver/Src/stm32l4xx_hal_rtc_ex.c **** }
 666              		.loc 1 670 1 is_stmt 0 view .LVU233
 667 0000 7047     		bx	lr
 668              		.cfi_endproc
 669              	.LFE139:
 671              		.section	.text.HAL_RTCEx_PollForTimeStampEvent,"ax",%progbits
 672              		.align	1
 673              		.global	HAL_RTCEx_PollForTimeStampEvent
 674              		.syntax unified
 675              		.thumb
 676              		.thumb_func
 677              		.fpu fpv4-sp-d16
 679              	HAL_RTCEx_PollForTimeStampEvent:
 680              	.LVL49:
 681              	.LFB140:
 671:Drivers/STM32L4xx_HAL_Driver/Src/stm32l4xx_hal_rtc_ex.c **** 
 672:Drivers/STM32L4xx_HAL_Driver/Src/stm32l4xx_hal_rtc_ex.c **** /**
 673:Drivers/STM32L4xx_HAL_Driver/Src/stm32l4xx_hal_rtc_ex.c ****   * @brief  Handle TimeStamp polling request.
 674:Drivers/STM32L4xx_HAL_Driver/Src/stm32l4xx_hal_rtc_ex.c ****   * @param  hrtc RTC handle
 675:Drivers/STM32L4xx_HAL_Driver/Src/stm32l4xx_hal_rtc_ex.c ****   * @param  Timeout Timeout duration
 676:Drivers/STM32L4xx_HAL_Driver/Src/stm32l4xx_hal_rtc_ex.c ****   * @retval HAL status
 677:Drivers/STM32L4xx_HAL_Driver/Src/stm32l4xx_hal_rtc_ex.c ****   */
ARM GAS  /tmp/cc49nhBG.s 			page 25


 678:Drivers/STM32L4xx_HAL_Driver/Src/stm32l4xx_hal_rtc_ex.c **** HAL_StatusTypeDef HAL_RTCEx_PollForTimeStampEvent(RTC_HandleTypeDef *hrtc, uint32_t Timeout)
 679:Drivers/STM32L4xx_HAL_Driver/Src/stm32l4xx_hal_rtc_ex.c **** {
 682              		.loc 1 679 1 is_stmt 1 view -0
 683              		.cfi_startproc
 684              		@ args = 0, pretend = 0, frame = 0
 685              		@ frame_needed = 0, uses_anonymous_args = 0
 686              		.loc 1 679 1 is_stmt 0 view .LVU235
 687 0000 70B5     		push	{r4, r5, r6, lr}
 688              	.LCFI5:
 689              		.cfi_def_cfa_offset 16
 690              		.cfi_offset 4, -16
 691              		.cfi_offset 5, -12
 692              		.cfi_offset 6, -8
 693              		.cfi_offset 14, -4
 694 0002 0446     		mov	r4, r0
 695 0004 0D46     		mov	r5, r1
 680:Drivers/STM32L4xx_HAL_Driver/Src/stm32l4xx_hal_rtc_ex.c ****   uint32_t tickstart = HAL_GetTick();
 696              		.loc 1 680 3 is_stmt 1 view .LVU236
 697              		.loc 1 680 24 is_stmt 0 view .LVU237
 698 0006 FFF7FEFF 		bl	HAL_GetTick
 699              	.LVL50:
 700              		.loc 1 680 24 view .LVU238
 701 000a 0646     		mov	r6, r0
 702              	.LVL51:
 681:Drivers/STM32L4xx_HAL_Driver/Src/stm32l4xx_hal_rtc_ex.c **** 
 682:Drivers/STM32L4xx_HAL_Driver/Src/stm32l4xx_hal_rtc_ex.c ****   while (__HAL_RTC_TIMESTAMP_GET_FLAG(hrtc, RTC_FLAG_TSF) == 0U)
 703              		.loc 1 682 3 is_stmt 1 view .LVU239
 704              	.L35:
 705              		.loc 1 682 9 view .LVU240
 706              		.loc 1 682 10 is_stmt 0 view .LVU241
 707 000c 2368     		ldr	r3, [r4]
 708 000e 1A6D     		ldr	r2, [r3, #80]
 709              		.loc 1 682 9 view .LVU242
 710 0010 12F0080F 		tst	r2, #8
 711 0014 19D1     		bne	.L39
 683:Drivers/STM32L4xx_HAL_Driver/Src/stm32l4xx_hal_rtc_ex.c ****   {
 684:Drivers/STM32L4xx_HAL_Driver/Src/stm32l4xx_hal_rtc_ex.c ****     if (__HAL_RTC_TIMESTAMP_GET_FLAG(hrtc, RTC_FLAG_TSOVF) != 0U)
 712              		.loc 1 684 5 is_stmt 1 view .LVU243
 713              		.loc 1 684 9 is_stmt 0 view .LVU244
 714 0016 1A6D     		ldr	r2, [r3, #80]
 715              		.loc 1 684 8 view .LVU245
 716 0018 12F0100F 		tst	r2, #16
 717 001c 0DD1     		bne	.L40
 685:Drivers/STM32L4xx_HAL_Driver/Src/stm32l4xx_hal_rtc_ex.c ****     {
 686:Drivers/STM32L4xx_HAL_Driver/Src/stm32l4xx_hal_rtc_ex.c ****       /* Clear the TIMESTAMP OverRun Flag */
 687:Drivers/STM32L4xx_HAL_Driver/Src/stm32l4xx_hal_rtc_ex.c ****       __HAL_RTC_TIMESTAMP_CLEAR_FLAG(hrtc, RTC_FLAG_TSOVF);
 688:Drivers/STM32L4xx_HAL_Driver/Src/stm32l4xx_hal_rtc_ex.c **** 
 689:Drivers/STM32L4xx_HAL_Driver/Src/stm32l4xx_hal_rtc_ex.c ****       /* Change TIMESTAMP state */
 690:Drivers/STM32L4xx_HAL_Driver/Src/stm32l4xx_hal_rtc_ex.c ****       hrtc->State = HAL_RTC_STATE_ERROR;
 691:Drivers/STM32L4xx_HAL_Driver/Src/stm32l4xx_hal_rtc_ex.c **** 
 692:Drivers/STM32L4xx_HAL_Driver/Src/stm32l4xx_hal_rtc_ex.c ****       return HAL_ERROR;
 693:Drivers/STM32L4xx_HAL_Driver/Src/stm32l4xx_hal_rtc_ex.c ****     }
 694:Drivers/STM32L4xx_HAL_Driver/Src/stm32l4xx_hal_rtc_ex.c **** 
 695:Drivers/STM32L4xx_HAL_Driver/Src/stm32l4xx_hal_rtc_ex.c ****     if (Timeout != HAL_MAX_DELAY)
 718              		.loc 1 695 5 is_stmt 1 view .LVU246
 719              		.loc 1 695 8 is_stmt 0 view .LVU247
 720 001e B5F1FF3F 		cmp	r5, #-1
ARM GAS  /tmp/cc49nhBG.s 			page 26


 721 0022 F3D0     		beq	.L35
 696:Drivers/STM32L4xx_HAL_Driver/Src/stm32l4xx_hal_rtc_ex.c ****     {
 697:Drivers/STM32L4xx_HAL_Driver/Src/stm32l4xx_hal_rtc_ex.c ****       if (((HAL_GetTick() - tickstart) > Timeout) || (Timeout == 0U))
 722              		.loc 1 697 7 is_stmt 1 view .LVU248
 723              		.loc 1 697 13 is_stmt 0 view .LVU249
 724 0024 FFF7FEFF 		bl	HAL_GetTick
 725              	.LVL52:
 726              		.loc 1 697 27 view .LVU250
 727 0028 801B     		subs	r0, r0, r6
 728              		.loc 1 697 10 view .LVU251
 729 002a A842     		cmp	r0, r5
 730 002c 01D8     		bhi	.L36
 731              		.loc 1 697 51 discriminator 1 view .LVU252
 732 002e 002D     		cmp	r5, #0
 733 0030 ECD1     		bne	.L35
 734              	.L36:
 698:Drivers/STM32L4xx_HAL_Driver/Src/stm32l4xx_hal_rtc_ex.c ****       {
 699:Drivers/STM32L4xx_HAL_Driver/Src/stm32l4xx_hal_rtc_ex.c ****         hrtc->State = HAL_RTC_STATE_TIMEOUT;
 735              		.loc 1 699 9 is_stmt 1 view .LVU253
 736              		.loc 1 699 21 is_stmt 0 view .LVU254
 737 0032 0320     		movs	r0, #3
 738 0034 84F82900 		strb	r0, [r4, #41]
 700:Drivers/STM32L4xx_HAL_Driver/Src/stm32l4xx_hal_rtc_ex.c ****         return HAL_TIMEOUT;
 739              		.loc 1 700 9 is_stmt 1 view .LVU255
 740              		.loc 1 700 16 is_stmt 0 view .LVU256
 741 0038 0BE0     		b	.L34
 742              	.L40:
 687:Drivers/STM32L4xx_HAL_Driver/Src/stm32l4xx_hal_rtc_ex.c **** 
 743              		.loc 1 687 7 is_stmt 1 view .LVU257
 744 003a 4FF40172 		mov	r2, #516
 745 003e DA65     		str	r2, [r3, #92]
 690:Drivers/STM32L4xx_HAL_Driver/Src/stm32l4xx_hal_rtc_ex.c **** 
 746              		.loc 1 690 7 view .LVU258
 690:Drivers/STM32L4xx_HAL_Driver/Src/stm32l4xx_hal_rtc_ex.c **** 
 747              		.loc 1 690 19 is_stmt 0 view .LVU259
 748 0040 0423     		movs	r3, #4
 749 0042 84F82930 		strb	r3, [r4, #41]
 692:Drivers/STM32L4xx_HAL_Driver/Src/stm32l4xx_hal_rtc_ex.c ****     }
 750              		.loc 1 692 7 is_stmt 1 view .LVU260
 692:Drivers/STM32L4xx_HAL_Driver/Src/stm32l4xx_hal_rtc_ex.c ****     }
 751              		.loc 1 692 14 is_stmt 0 view .LVU261
 752 0046 0120     		movs	r0, #1
 753 0048 03E0     		b	.L34
 754              	.L39:
 701:Drivers/STM32L4xx_HAL_Driver/Src/stm32l4xx_hal_rtc_ex.c ****       }
 702:Drivers/STM32L4xx_HAL_Driver/Src/stm32l4xx_hal_rtc_ex.c ****     }
 703:Drivers/STM32L4xx_HAL_Driver/Src/stm32l4xx_hal_rtc_ex.c ****   }
 704:Drivers/STM32L4xx_HAL_Driver/Src/stm32l4xx_hal_rtc_ex.c **** 
 705:Drivers/STM32L4xx_HAL_Driver/Src/stm32l4xx_hal_rtc_ex.c ****   /* Change RTC state */
 706:Drivers/STM32L4xx_HAL_Driver/Src/stm32l4xx_hal_rtc_ex.c ****   hrtc->State = HAL_RTC_STATE_READY;
 755              		.loc 1 706 3 is_stmt 1 view .LVU262
 756              		.loc 1 706 15 is_stmt 0 view .LVU263
 757 004a 0123     		movs	r3, #1
 758 004c 84F82930 		strb	r3, [r4, #41]
 707:Drivers/STM32L4xx_HAL_Driver/Src/stm32l4xx_hal_rtc_ex.c **** 
 708:Drivers/STM32L4xx_HAL_Driver/Src/stm32l4xx_hal_rtc_ex.c ****   return HAL_OK;
 759              		.loc 1 708 3 is_stmt 1 view .LVU264
ARM GAS  /tmp/cc49nhBG.s 			page 27


 760              		.loc 1 708 10 is_stmt 0 view .LVU265
 761 0050 0020     		movs	r0, #0
 762              	.L34:
 709:Drivers/STM32L4xx_HAL_Driver/Src/stm32l4xx_hal_rtc_ex.c **** }
 763              		.loc 1 709 1 view .LVU266
 764 0052 70BD     		pop	{r4, r5, r6, pc}
 765              		.loc 1 709 1 view .LVU267
 766              		.cfi_endproc
 767              	.LFE140:
 769              		.section	.text.HAL_RTCEx_SetWakeUpTimer,"ax",%progbits
 770              		.align	1
 771              		.global	HAL_RTCEx_SetWakeUpTimer
 772              		.syntax unified
 773              		.thumb
 774              		.thumb_func
 775              		.fpu fpv4-sp-d16
 777              	HAL_RTCEx_SetWakeUpTimer:
 778              	.LVL53:
 779              	.LFB141:
 710:Drivers/STM32L4xx_HAL_Driver/Src/stm32l4xx_hal_rtc_ex.c **** 
 711:Drivers/STM32L4xx_HAL_Driver/Src/stm32l4xx_hal_rtc_ex.c **** /**
 712:Drivers/STM32L4xx_HAL_Driver/Src/stm32l4xx_hal_rtc_ex.c ****   * @}
 713:Drivers/STM32L4xx_HAL_Driver/Src/stm32l4xx_hal_rtc_ex.c ****   */
 714:Drivers/STM32L4xx_HAL_Driver/Src/stm32l4xx_hal_rtc_ex.c **** 
 715:Drivers/STM32L4xx_HAL_Driver/Src/stm32l4xx_hal_rtc_ex.c **** /** @addtogroup RTCEx_Exported_Functions_Group2
 716:Drivers/STM32L4xx_HAL_Driver/Src/stm32l4xx_hal_rtc_ex.c ****   * @brief    RTC Wake-up functions
 717:Drivers/STM32L4xx_HAL_Driver/Src/stm32l4xx_hal_rtc_ex.c ****   *
 718:Drivers/STM32L4xx_HAL_Driver/Src/stm32l4xx_hal_rtc_ex.c **** @verbatim
 719:Drivers/STM32L4xx_HAL_Driver/Src/stm32l4xx_hal_rtc_ex.c ****  ===============================================================================
 720:Drivers/STM32L4xx_HAL_Driver/Src/stm32l4xx_hal_rtc_ex.c ****                         ##### RTC Wake-up functions #####
 721:Drivers/STM32L4xx_HAL_Driver/Src/stm32l4xx_hal_rtc_ex.c ****  ===============================================================================
 722:Drivers/STM32L4xx_HAL_Driver/Src/stm32l4xx_hal_rtc_ex.c **** 
 723:Drivers/STM32L4xx_HAL_Driver/Src/stm32l4xx_hal_rtc_ex.c ****  [..] This section provides functions allowing to configure Wake-up feature
 724:Drivers/STM32L4xx_HAL_Driver/Src/stm32l4xx_hal_rtc_ex.c **** 
 725:Drivers/STM32L4xx_HAL_Driver/Src/stm32l4xx_hal_rtc_ex.c **** @endverbatim
 726:Drivers/STM32L4xx_HAL_Driver/Src/stm32l4xx_hal_rtc_ex.c ****   * @{
 727:Drivers/STM32L4xx_HAL_Driver/Src/stm32l4xx_hal_rtc_ex.c ****   */
 728:Drivers/STM32L4xx_HAL_Driver/Src/stm32l4xx_hal_rtc_ex.c **** 
 729:Drivers/STM32L4xx_HAL_Driver/Src/stm32l4xx_hal_rtc_ex.c **** /**
 730:Drivers/STM32L4xx_HAL_Driver/Src/stm32l4xx_hal_rtc_ex.c ****   * @brief  Set wake up timer.
 731:Drivers/STM32L4xx_HAL_Driver/Src/stm32l4xx_hal_rtc_ex.c ****   * @param  hrtc RTC handle
 732:Drivers/STM32L4xx_HAL_Driver/Src/stm32l4xx_hal_rtc_ex.c ****   * @param  WakeUpCounter Wake up counter
 733:Drivers/STM32L4xx_HAL_Driver/Src/stm32l4xx_hal_rtc_ex.c ****   * @param  WakeUpClock Wake up clock
 734:Drivers/STM32L4xx_HAL_Driver/Src/stm32l4xx_hal_rtc_ex.c ****   * @retval HAL status
 735:Drivers/STM32L4xx_HAL_Driver/Src/stm32l4xx_hal_rtc_ex.c ****   */
 736:Drivers/STM32L4xx_HAL_Driver/Src/stm32l4xx_hal_rtc_ex.c **** HAL_StatusTypeDef HAL_RTCEx_SetWakeUpTimer(RTC_HandleTypeDef *hrtc, uint32_t WakeUpCounter, uint32_
 737:Drivers/STM32L4xx_HAL_Driver/Src/stm32l4xx_hal_rtc_ex.c **** {
 780              		.loc 1 737 1 is_stmt 1 view -0
 781              		.cfi_startproc
 782              		@ args = 0, pretend = 0, frame = 0
 783              		@ frame_needed = 0, uses_anonymous_args = 0
 784              		.loc 1 737 1 is_stmt 0 view .LVU269
 785 0000 F8B5     		push	{r3, r4, r5, r6, r7, lr}
 786              	.LCFI6:
 787              		.cfi_def_cfa_offset 24
 788              		.cfi_offset 3, -24
 789              		.cfi_offset 4, -20
ARM GAS  /tmp/cc49nhBG.s 			page 28


 790              		.cfi_offset 5, -16
 791              		.cfi_offset 6, -12
 792              		.cfi_offset 7, -8
 793              		.cfi_offset 14, -4
 738:Drivers/STM32L4xx_HAL_Driver/Src/stm32l4xx_hal_rtc_ex.c ****   uint32_t tickstart;
 794              		.loc 1 738 3 is_stmt 1 view .LVU270
 739:Drivers/STM32L4xx_HAL_Driver/Src/stm32l4xx_hal_rtc_ex.c **** 
 740:Drivers/STM32L4xx_HAL_Driver/Src/stm32l4xx_hal_rtc_ex.c ****   /* Check the parameters */
 741:Drivers/STM32L4xx_HAL_Driver/Src/stm32l4xx_hal_rtc_ex.c ****   assert_param(IS_RTC_WAKEUP_CLOCK(WakeUpClock));
 795              		.loc 1 741 3 view .LVU271
 742:Drivers/STM32L4xx_HAL_Driver/Src/stm32l4xx_hal_rtc_ex.c ****   assert_param(IS_RTC_WAKEUP_COUNTER(WakeUpCounter));
 796              		.loc 1 742 3 view .LVU272
 743:Drivers/STM32L4xx_HAL_Driver/Src/stm32l4xx_hal_rtc_ex.c **** 
 744:Drivers/STM32L4xx_HAL_Driver/Src/stm32l4xx_hal_rtc_ex.c ****   /* Process Locked */
 745:Drivers/STM32L4xx_HAL_Driver/Src/stm32l4xx_hal_rtc_ex.c ****   __HAL_LOCK(hrtc);
 797              		.loc 1 745 3 view .LVU273
 798              		.loc 1 745 3 view .LVU274
 799 0002 90F82830 		ldrb	r3, [r0, #40]	@ zero_extendqisi2
 800 0006 012B     		cmp	r3, #1
 801 0008 47D0     		beq	.L46
 802 000a 0446     		mov	r4, r0
 803 000c 0D46     		mov	r5, r1
 804 000e 1646     		mov	r6, r2
 805              		.loc 1 745 3 discriminator 2 view .LVU275
 806 0010 0123     		movs	r3, #1
 807 0012 80F82830 		strb	r3, [r0, #40]
 808              		.loc 1 745 3 discriminator 2 view .LVU276
 746:Drivers/STM32L4xx_HAL_Driver/Src/stm32l4xx_hal_rtc_ex.c **** 
 747:Drivers/STM32L4xx_HAL_Driver/Src/stm32l4xx_hal_rtc_ex.c ****   hrtc->State = HAL_RTC_STATE_BUSY;
 809              		.loc 1 747 3 discriminator 2 view .LVU277
 810              		.loc 1 747 15 is_stmt 0 discriminator 2 view .LVU278
 811 0016 0223     		movs	r3, #2
 812 0018 80F82930 		strb	r3, [r0, #41]
 748:Drivers/STM32L4xx_HAL_Driver/Src/stm32l4xx_hal_rtc_ex.c **** 
 749:Drivers/STM32L4xx_HAL_Driver/Src/stm32l4xx_hal_rtc_ex.c ****   /* Disable the write protection for RTC registers */
 750:Drivers/STM32L4xx_HAL_Driver/Src/stm32l4xx_hal_rtc_ex.c ****   __HAL_RTC_WRITEPROTECTION_DISABLE(hrtc);
 813              		.loc 1 750 3 is_stmt 1 discriminator 2 view .LVU279
 814              		.loc 1 750 3 discriminator 2 view .LVU280
 815 001c 0368     		ldr	r3, [r0]
 816 001e CA22     		movs	r2, #202
 817              	.LVL54:
 818              		.loc 1 750 3 is_stmt 0 discriminator 2 view .LVU281
 819 0020 5A62     		str	r2, [r3, #36]
 820              		.loc 1 750 3 is_stmt 1 discriminator 2 view .LVU282
 821 0022 0368     		ldr	r3, [r0]
 822 0024 5322     		movs	r2, #83
 823 0026 5A62     		str	r2, [r3, #36]
 824              		.loc 1 750 3 discriminator 2 view .LVU283
 751:Drivers/STM32L4xx_HAL_Driver/Src/stm32l4xx_hal_rtc_ex.c **** 
 752:Drivers/STM32L4xx_HAL_Driver/Src/stm32l4xx_hal_rtc_ex.c ****   /* Clear WUTE in RTC_CR to disable the wakeup timer */
 753:Drivers/STM32L4xx_HAL_Driver/Src/stm32l4xx_hal_rtc_ex.c ****   CLEAR_BIT(hrtc->Instance->CR, RTC_CR_WUTE);
 825              		.loc 1 753 3 discriminator 2 view .LVU284
 826 0028 0268     		ldr	r2, [r0]
 827 002a 9369     		ldr	r3, [r2, #24]
 828 002c 23F48063 		bic	r3, r3, #1024
 829 0030 9361     		str	r3, [r2, #24]
 754:Drivers/STM32L4xx_HAL_Driver/Src/stm32l4xx_hal_rtc_ex.c **** 
ARM GAS  /tmp/cc49nhBG.s 			page 29


 755:Drivers/STM32L4xx_HAL_Driver/Src/stm32l4xx_hal_rtc_ex.c ****   /* Poll WUTWF until it is set in RTC_ICSR to make sure the access to wakeup autoreload
 756:Drivers/STM32L4xx_HAL_Driver/Src/stm32l4xx_hal_rtc_ex.c ****      counter and to WUCKSEL[2:0] bits is allowed. This step must be skipped in
 757:Drivers/STM32L4xx_HAL_Driver/Src/stm32l4xx_hal_rtc_ex.c ****      calendar initialization mode. */
 758:Drivers/STM32L4xx_HAL_Driver/Src/stm32l4xx_hal_rtc_ex.c **** #if defined(STM32L412xx) || defined(STM32L422xx) || defined (STM32L4P5xx) || defined (STM32L4Q5xx)
 759:Drivers/STM32L4xx_HAL_Driver/Src/stm32l4xx_hal_rtc_ex.c ****   if (READ_BIT(hrtc->Instance->ICSR, RTC_ICSR_INITF) == 0U)
 830              		.loc 1 759 3 discriminator 2 view .LVU285
 831              		.loc 1 759 7 is_stmt 0 discriminator 2 view .LVU286
 832 0032 0368     		ldr	r3, [r0]
 833 0034 DB68     		ldr	r3, [r3, #12]
 834              		.loc 1 759 6 discriminator 2 view .LVU287
 835 0036 13F0400F 		tst	r3, #64
 836 003a 16D0     		beq	.L48
 837              	.LVL55:
 838              	.L43:
 760:Drivers/STM32L4xx_HAL_Driver/Src/stm32l4xx_hal_rtc_ex.c **** #else
 761:Drivers/STM32L4xx_HAL_Driver/Src/stm32l4xx_hal_rtc_ex.c ****   if (READ_BIT(hrtc->Instance->ISR, RTC_ISR_INITF) == 0U)
 762:Drivers/STM32L4xx_HAL_Driver/Src/stm32l4xx_hal_rtc_ex.c **** #endif
 763:Drivers/STM32L4xx_HAL_Driver/Src/stm32l4xx_hal_rtc_ex.c ****   {
 764:Drivers/STM32L4xx_HAL_Driver/Src/stm32l4xx_hal_rtc_ex.c ****     tickstart = HAL_GetTick();
 765:Drivers/STM32L4xx_HAL_Driver/Src/stm32l4xx_hal_rtc_ex.c **** #if defined(STM32L412xx) || defined(STM32L422xx) || defined (STM32L4P5xx) || defined (STM32L4Q5xx)
 766:Drivers/STM32L4xx_HAL_Driver/Src/stm32l4xx_hal_rtc_ex.c ****     while (READ_BIT(hrtc->Instance->ICSR, RTC_ICSR_WUTWF) == 0U)
 767:Drivers/STM32L4xx_HAL_Driver/Src/stm32l4xx_hal_rtc_ex.c **** #else
 768:Drivers/STM32L4xx_HAL_Driver/Src/stm32l4xx_hal_rtc_ex.c ****     while (READ_BIT(hrtc->Instance->ISR, RTC_ISR_WUTWF) == 0U)
 769:Drivers/STM32L4xx_HAL_Driver/Src/stm32l4xx_hal_rtc_ex.c **** #endif
 770:Drivers/STM32L4xx_HAL_Driver/Src/stm32l4xx_hal_rtc_ex.c ****     {
 771:Drivers/STM32L4xx_HAL_Driver/Src/stm32l4xx_hal_rtc_ex.c ****       if ((HAL_GetTick() - tickstart) > RTC_TIMEOUT_VALUE)
 772:Drivers/STM32L4xx_HAL_Driver/Src/stm32l4xx_hal_rtc_ex.c ****       {
 773:Drivers/STM32L4xx_HAL_Driver/Src/stm32l4xx_hal_rtc_ex.c ****         /* Enable the write protection for RTC registers */
 774:Drivers/STM32L4xx_HAL_Driver/Src/stm32l4xx_hal_rtc_ex.c ****         __HAL_RTC_WRITEPROTECTION_ENABLE(hrtc);
 775:Drivers/STM32L4xx_HAL_Driver/Src/stm32l4xx_hal_rtc_ex.c **** 
 776:Drivers/STM32L4xx_HAL_Driver/Src/stm32l4xx_hal_rtc_ex.c ****         hrtc->State = HAL_RTC_STATE_TIMEOUT;
 777:Drivers/STM32L4xx_HAL_Driver/Src/stm32l4xx_hal_rtc_ex.c **** 
 778:Drivers/STM32L4xx_HAL_Driver/Src/stm32l4xx_hal_rtc_ex.c ****         /* Process Unlocked */
 779:Drivers/STM32L4xx_HAL_Driver/Src/stm32l4xx_hal_rtc_ex.c ****         __HAL_UNLOCK(hrtc);
 780:Drivers/STM32L4xx_HAL_Driver/Src/stm32l4xx_hal_rtc_ex.c **** 
 781:Drivers/STM32L4xx_HAL_Driver/Src/stm32l4xx_hal_rtc_ex.c ****         return HAL_TIMEOUT;
 782:Drivers/STM32L4xx_HAL_Driver/Src/stm32l4xx_hal_rtc_ex.c ****       }
 783:Drivers/STM32L4xx_HAL_Driver/Src/stm32l4xx_hal_rtc_ex.c ****     }
 784:Drivers/STM32L4xx_HAL_Driver/Src/stm32l4xx_hal_rtc_ex.c ****   }
 785:Drivers/STM32L4xx_HAL_Driver/Src/stm32l4xx_hal_rtc_ex.c **** 
 786:Drivers/STM32L4xx_HAL_Driver/Src/stm32l4xx_hal_rtc_ex.c ****   /* Configure the clock source */
 787:Drivers/STM32L4xx_HAL_Driver/Src/stm32l4xx_hal_rtc_ex.c ****   MODIFY_REG(hrtc->Instance->CR, RTC_CR_WUCKSEL, (uint32_t)WakeUpClock);
 839              		.loc 1 787 3 is_stmt 1 view .LVU288
 840 003c 2168     		ldr	r1, [r4]
 841 003e 8B69     		ldr	r3, [r1, #24]
 842 0040 23F00703 		bic	r3, r3, #7
 843 0044 3343     		orrs	r3, r3, r6
 844 0046 8B61     		str	r3, [r1, #24]
 788:Drivers/STM32L4xx_HAL_Driver/Src/stm32l4xx_hal_rtc_ex.c **** 
 789:Drivers/STM32L4xx_HAL_Driver/Src/stm32l4xx_hal_rtc_ex.c ****   /* Configure the Wakeup Timer counter */
 790:Drivers/STM32L4xx_HAL_Driver/Src/stm32l4xx_hal_rtc_ex.c ****   WRITE_REG(hrtc->Instance->WUTR, (uint32_t)WakeUpCounter);
 845              		.loc 1 790 3 view .LVU289
 846 0048 2368     		ldr	r3, [r4]
 847 004a 5D61     		str	r5, [r3, #20]
 791:Drivers/STM32L4xx_HAL_Driver/Src/stm32l4xx_hal_rtc_ex.c **** 
 792:Drivers/STM32L4xx_HAL_Driver/Src/stm32l4xx_hal_rtc_ex.c ****   /* Enable the Wakeup Timer */
 793:Drivers/STM32L4xx_HAL_Driver/Src/stm32l4xx_hal_rtc_ex.c ****   SET_BIT(hrtc->Instance->CR, RTC_CR_WUTE);
ARM GAS  /tmp/cc49nhBG.s 			page 30


 848              		.loc 1 793 3 view .LVU290
 849 004c 2268     		ldr	r2, [r4]
 850 004e 9369     		ldr	r3, [r2, #24]
 851 0050 43F48063 		orr	r3, r3, #1024
 852 0054 9361     		str	r3, [r2, #24]
 794:Drivers/STM32L4xx_HAL_Driver/Src/stm32l4xx_hal_rtc_ex.c **** 
 795:Drivers/STM32L4xx_HAL_Driver/Src/stm32l4xx_hal_rtc_ex.c ****   /* Enable the write protection for RTC registers */
 796:Drivers/STM32L4xx_HAL_Driver/Src/stm32l4xx_hal_rtc_ex.c ****   __HAL_RTC_WRITEPROTECTION_ENABLE(hrtc);
 853              		.loc 1 796 3 view .LVU291
 854              		.loc 1 796 3 view .LVU292
 855 0056 2368     		ldr	r3, [r4]
 856 0058 FF22     		movs	r2, #255
 857 005a 5A62     		str	r2, [r3, #36]
 858              		.loc 1 796 3 view .LVU293
 797:Drivers/STM32L4xx_HAL_Driver/Src/stm32l4xx_hal_rtc_ex.c **** 
 798:Drivers/STM32L4xx_HAL_Driver/Src/stm32l4xx_hal_rtc_ex.c ****   hrtc->State = HAL_RTC_STATE_READY;
 859              		.loc 1 798 3 view .LVU294
 860              		.loc 1 798 15 is_stmt 0 view .LVU295
 861 005c 0123     		movs	r3, #1
 862 005e 84F82930 		strb	r3, [r4, #41]
 799:Drivers/STM32L4xx_HAL_Driver/Src/stm32l4xx_hal_rtc_ex.c **** 
 800:Drivers/STM32L4xx_HAL_Driver/Src/stm32l4xx_hal_rtc_ex.c ****   /* Process Unlocked */
 801:Drivers/STM32L4xx_HAL_Driver/Src/stm32l4xx_hal_rtc_ex.c ****   __HAL_UNLOCK(hrtc);
 863              		.loc 1 801 3 is_stmt 1 view .LVU296
 864              		.loc 1 801 3 view .LVU297
 865 0062 0020     		movs	r0, #0
 866 0064 84F82800 		strb	r0, [r4, #40]
 867              		.loc 1 801 3 view .LVU298
 802:Drivers/STM32L4xx_HAL_Driver/Src/stm32l4xx_hal_rtc_ex.c **** 
 803:Drivers/STM32L4xx_HAL_Driver/Src/stm32l4xx_hal_rtc_ex.c ****   return HAL_OK;
 868              		.loc 1 803 3 view .LVU299
 869              	.LVL56:
 870              	.L42:
 804:Drivers/STM32L4xx_HAL_Driver/Src/stm32l4xx_hal_rtc_ex.c **** }
 871              		.loc 1 804 1 is_stmt 0 view .LVU300
 872 0068 F8BD     		pop	{r3, r4, r5, r6, r7, pc}
 873              	.LVL57:
 874              	.L48:
 764:Drivers/STM32L4xx_HAL_Driver/Src/stm32l4xx_hal_rtc_ex.c **** #if defined(STM32L412xx) || defined(STM32L422xx) || defined (STM32L4P5xx) || defined (STM32L4Q5xx)
 875              		.loc 1 764 5 is_stmt 1 view .LVU301
 764:Drivers/STM32L4xx_HAL_Driver/Src/stm32l4xx_hal_rtc_ex.c **** #if defined(STM32L412xx) || defined(STM32L422xx) || defined (STM32L4P5xx) || defined (STM32L4Q5xx)
 876              		.loc 1 764 17 is_stmt 0 view .LVU302
 877 006a FFF7FEFF 		bl	HAL_GetTick
 878              	.LVL58:
 764:Drivers/STM32L4xx_HAL_Driver/Src/stm32l4xx_hal_rtc_ex.c **** #if defined(STM32L412xx) || defined(STM32L422xx) || defined (STM32L4P5xx) || defined (STM32L4Q5xx)
 879              		.loc 1 764 17 view .LVU303
 880 006e 0746     		mov	r7, r0
 881              	.LVL59:
 766:Drivers/STM32L4xx_HAL_Driver/Src/stm32l4xx_hal_rtc_ex.c **** #else
 882              		.loc 1 766 5 is_stmt 1 view .LVU304
 883              	.L44:
 766:Drivers/STM32L4xx_HAL_Driver/Src/stm32l4xx_hal_rtc_ex.c **** #else
 884              		.loc 1 766 11 view .LVU305
 766:Drivers/STM32L4xx_HAL_Driver/Src/stm32l4xx_hal_rtc_ex.c **** #else
 885              		.loc 1 766 12 is_stmt 0 view .LVU306
 886 0070 2368     		ldr	r3, [r4]
 887 0072 DB68     		ldr	r3, [r3, #12]
ARM GAS  /tmp/cc49nhBG.s 			page 31


 766:Drivers/STM32L4xx_HAL_Driver/Src/stm32l4xx_hal_rtc_ex.c **** #else
 888              		.loc 1 766 11 view .LVU307
 889 0074 13F0040F 		tst	r3, #4
 890 0078 E0D1     		bne	.L43
 771:Drivers/STM32L4xx_HAL_Driver/Src/stm32l4xx_hal_rtc_ex.c ****       {
 891              		.loc 1 771 7 is_stmt 1 view .LVU308
 771:Drivers/STM32L4xx_HAL_Driver/Src/stm32l4xx_hal_rtc_ex.c ****       {
 892              		.loc 1 771 12 is_stmt 0 view .LVU309
 893 007a FFF7FEFF 		bl	HAL_GetTick
 894              	.LVL60:
 771:Drivers/STM32L4xx_HAL_Driver/Src/stm32l4xx_hal_rtc_ex.c ****       {
 895              		.loc 1 771 26 view .LVU310
 896 007e C01B     		subs	r0, r0, r7
 771:Drivers/STM32L4xx_HAL_Driver/Src/stm32l4xx_hal_rtc_ex.c ****       {
 897              		.loc 1 771 10 view .LVU311
 898 0080 B0F57A7F 		cmp	r0, #1000
 899 0084 F4D9     		bls	.L44
 774:Drivers/STM32L4xx_HAL_Driver/Src/stm32l4xx_hal_rtc_ex.c **** 
 900              		.loc 1 774 9 is_stmt 1 view .LVU312
 774:Drivers/STM32L4xx_HAL_Driver/Src/stm32l4xx_hal_rtc_ex.c **** 
 901              		.loc 1 774 9 view .LVU313
 902 0086 2368     		ldr	r3, [r4]
 903 0088 FF22     		movs	r2, #255
 904 008a 5A62     		str	r2, [r3, #36]
 774:Drivers/STM32L4xx_HAL_Driver/Src/stm32l4xx_hal_rtc_ex.c **** 
 905              		.loc 1 774 9 view .LVU314
 776:Drivers/STM32L4xx_HAL_Driver/Src/stm32l4xx_hal_rtc_ex.c **** 
 906              		.loc 1 776 9 view .LVU315
 776:Drivers/STM32L4xx_HAL_Driver/Src/stm32l4xx_hal_rtc_ex.c **** 
 907              		.loc 1 776 21 is_stmt 0 view .LVU316
 908 008c 0320     		movs	r0, #3
 909 008e 84F82900 		strb	r0, [r4, #41]
 779:Drivers/STM32L4xx_HAL_Driver/Src/stm32l4xx_hal_rtc_ex.c **** 
 910              		.loc 1 779 9 is_stmt 1 view .LVU317
 779:Drivers/STM32L4xx_HAL_Driver/Src/stm32l4xx_hal_rtc_ex.c **** 
 911              		.loc 1 779 9 view .LVU318
 912 0092 0023     		movs	r3, #0
 913 0094 84F82830 		strb	r3, [r4, #40]
 779:Drivers/STM32L4xx_HAL_Driver/Src/stm32l4xx_hal_rtc_ex.c **** 
 914              		.loc 1 779 9 view .LVU319
 781:Drivers/STM32L4xx_HAL_Driver/Src/stm32l4xx_hal_rtc_ex.c ****       }
 915              		.loc 1 781 9 view .LVU320
 781:Drivers/STM32L4xx_HAL_Driver/Src/stm32l4xx_hal_rtc_ex.c ****       }
 916              		.loc 1 781 16 is_stmt 0 view .LVU321
 917 0098 E6E7     		b	.L42
 918              	.LVL61:
 919              	.L46:
 745:Drivers/STM32L4xx_HAL_Driver/Src/stm32l4xx_hal_rtc_ex.c **** 
 920              		.loc 1 745 3 view .LVU322
 921 009a 0220     		movs	r0, #2
 922              	.LVL62:
 745:Drivers/STM32L4xx_HAL_Driver/Src/stm32l4xx_hal_rtc_ex.c **** 
 923              		.loc 1 745 3 view .LVU323
 924 009c E4E7     		b	.L42
 925              		.cfi_endproc
 926              	.LFE141:
 928              		.section	.text.HAL_RTCEx_SetWakeUpTimer_IT,"ax",%progbits
ARM GAS  /tmp/cc49nhBG.s 			page 32


 929              		.align	1
 930              		.global	HAL_RTCEx_SetWakeUpTimer_IT
 931              		.syntax unified
 932              		.thumb
 933              		.thumb_func
 934              		.fpu fpv4-sp-d16
 936              	HAL_RTCEx_SetWakeUpTimer_IT:
 937              	.LVL63:
 938              	.LFB142:
 805:Drivers/STM32L4xx_HAL_Driver/Src/stm32l4xx_hal_rtc_ex.c **** 
 806:Drivers/STM32L4xx_HAL_Driver/Src/stm32l4xx_hal_rtc_ex.c **** /**
 807:Drivers/STM32L4xx_HAL_Driver/Src/stm32l4xx_hal_rtc_ex.c ****   * @brief  Set wake up timer with interrupt.
 808:Drivers/STM32L4xx_HAL_Driver/Src/stm32l4xx_hal_rtc_ex.c ****   * @param  hrtc RTC handle
 809:Drivers/STM32L4xx_HAL_Driver/Src/stm32l4xx_hal_rtc_ex.c ****   * @param  WakeUpCounter Wake up counter
 810:Drivers/STM32L4xx_HAL_Driver/Src/stm32l4xx_hal_rtc_ex.c ****   * @param  WakeUpClock Wake up clock
 811:Drivers/STM32L4xx_HAL_Driver/Src/stm32l4xx_hal_rtc_ex.c ****   * @param  WakeUpAutoClr Wake up auto clear value (look at WUTOCLR in reference manual)
 812:Drivers/STM32L4xx_HAL_Driver/Src/stm32l4xx_hal_rtc_ex.c ****   *                       - Only available for STM32L412xx and STM32L422xx
 813:Drivers/STM32L4xx_HAL_Driver/Src/stm32l4xx_hal_rtc_ex.c ****   *                       - No effect if WakeUpAutoClr is set to zero
 814:Drivers/STM32L4xx_HAL_Driver/Src/stm32l4xx_hal_rtc_ex.c ****   *                       - This feature is meaningful in case of Low power mode to avoid any RTC s
 815:Drivers/STM32L4xx_HAL_Driver/Src/stm32l4xx_hal_rtc_ex.c ****   *                         That is why when WakeUpAutoClr is set, EXTI is configured as EVENT inst
 816:Drivers/STM32L4xx_HAL_Driver/Src/stm32l4xx_hal_rtc_ex.c ****   * @retval HAL status
 817:Drivers/STM32L4xx_HAL_Driver/Src/stm32l4xx_hal_rtc_ex.c ****   */
 818:Drivers/STM32L4xx_HAL_Driver/Src/stm32l4xx_hal_rtc_ex.c **** #if defined(STM32L412xx) || defined(STM32L422xx) || defined (STM32L4P5xx) || defined (STM32L4Q5xx)
 819:Drivers/STM32L4xx_HAL_Driver/Src/stm32l4xx_hal_rtc_ex.c **** HAL_StatusTypeDef HAL_RTCEx_SetWakeUpTimer_IT(RTC_HandleTypeDef *hrtc, uint32_t WakeUpCounter, uint
 820:Drivers/STM32L4xx_HAL_Driver/Src/stm32l4xx_hal_rtc_ex.c **** #else
 821:Drivers/STM32L4xx_HAL_Driver/Src/stm32l4xx_hal_rtc_ex.c **** HAL_StatusTypeDef HAL_RTCEx_SetWakeUpTimer_IT(RTC_HandleTypeDef *hrtc, uint32_t WakeUpCounter, uint
 822:Drivers/STM32L4xx_HAL_Driver/Src/stm32l4xx_hal_rtc_ex.c **** #endif
 823:Drivers/STM32L4xx_HAL_Driver/Src/stm32l4xx_hal_rtc_ex.c **** {
 939              		.loc 1 823 1 is_stmt 1 view -0
 940              		.cfi_startproc
 941              		@ args = 0, pretend = 0, frame = 0
 942              		@ frame_needed = 0, uses_anonymous_args = 0
 943              		.loc 1 823 1 is_stmt 0 view .LVU325
 944 0000 2DE9F843 		push	{r3, r4, r5, r6, r7, r8, r9, lr}
 945              	.LCFI7:
 946              		.cfi_def_cfa_offset 32
 947              		.cfi_offset 3, -32
 948              		.cfi_offset 4, -28
 949              		.cfi_offset 5, -24
 950              		.cfi_offset 6, -20
 951              		.cfi_offset 7, -16
 952              		.cfi_offset 8, -12
 953              		.cfi_offset 9, -8
 954              		.cfi_offset 14, -4
 955 0004 1F46     		mov	r7, r3
 824:Drivers/STM32L4xx_HAL_Driver/Src/stm32l4xx_hal_rtc_ex.c ****   uint32_t tickstart;
 956              		.loc 1 824 3 is_stmt 1 view .LVU326
 825:Drivers/STM32L4xx_HAL_Driver/Src/stm32l4xx_hal_rtc_ex.c **** 
 826:Drivers/STM32L4xx_HAL_Driver/Src/stm32l4xx_hal_rtc_ex.c ****   /* Check the parameters */
 827:Drivers/STM32L4xx_HAL_Driver/Src/stm32l4xx_hal_rtc_ex.c ****   assert_param(IS_RTC_WAKEUP_CLOCK(WakeUpClock));
 957              		.loc 1 827 3 view .LVU327
 828:Drivers/STM32L4xx_HAL_Driver/Src/stm32l4xx_hal_rtc_ex.c ****   assert_param(IS_RTC_WAKEUP_COUNTER(WakeUpCounter));
 958              		.loc 1 828 3 view .LVU328
 829:Drivers/STM32L4xx_HAL_Driver/Src/stm32l4xx_hal_rtc_ex.c **** #if defined(STM32L412xx) || defined(STM32L422xx) || defined (STM32L4P5xx) || defined (STM32L4Q5xx)
 830:Drivers/STM32L4xx_HAL_Driver/Src/stm32l4xx_hal_rtc_ex.c ****   /* (0x0000<=WUTOCLR<=WUT) */
 831:Drivers/STM32L4xx_HAL_Driver/Src/stm32l4xx_hal_rtc_ex.c ****   assert_param(WakeUpAutoClr <= WakeUpCounter);
 959              		.loc 1 831 3 view .LVU329
ARM GAS  /tmp/cc49nhBG.s 			page 33


 832:Drivers/STM32L4xx_HAL_Driver/Src/stm32l4xx_hal_rtc_ex.c **** #endif
 833:Drivers/STM32L4xx_HAL_Driver/Src/stm32l4xx_hal_rtc_ex.c **** 
 834:Drivers/STM32L4xx_HAL_Driver/Src/stm32l4xx_hal_rtc_ex.c ****   /* Process Locked */
 835:Drivers/STM32L4xx_HAL_Driver/Src/stm32l4xx_hal_rtc_ex.c ****   __HAL_LOCK(hrtc);
 960              		.loc 1 835 3 view .LVU330
 961              		.loc 1 835 3 view .LVU331
 962 0006 90F82830 		ldrb	r3, [r0, #40]	@ zero_extendqisi2
 963              	.LVL64:
 964              		.loc 1 835 3 is_stmt 0 view .LVU332
 965 000a 012B     		cmp	r3, #1
 966 000c 66D0     		beq	.L56
 967 000e 0446     		mov	r4, r0
 968 0010 0E46     		mov	r6, r1
 969 0012 9046     		mov	r8, r2
 970              		.loc 1 835 3 is_stmt 1 discriminator 2 view .LVU333
 971 0014 0123     		movs	r3, #1
 972 0016 80F82830 		strb	r3, [r0, #40]
 973              		.loc 1 835 3 discriminator 2 view .LVU334
 836:Drivers/STM32L4xx_HAL_Driver/Src/stm32l4xx_hal_rtc_ex.c **** 
 837:Drivers/STM32L4xx_HAL_Driver/Src/stm32l4xx_hal_rtc_ex.c ****   hrtc->State = HAL_RTC_STATE_BUSY;
 974              		.loc 1 837 3 discriminator 2 view .LVU335
 975              		.loc 1 837 15 is_stmt 0 discriminator 2 view .LVU336
 976 001a 0223     		movs	r3, #2
 977 001c 80F82930 		strb	r3, [r0, #41]
 838:Drivers/STM32L4xx_HAL_Driver/Src/stm32l4xx_hal_rtc_ex.c **** 
 839:Drivers/STM32L4xx_HAL_Driver/Src/stm32l4xx_hal_rtc_ex.c ****   /* Disable the write protection for RTC registers */
 840:Drivers/STM32L4xx_HAL_Driver/Src/stm32l4xx_hal_rtc_ex.c ****   __HAL_RTC_WRITEPROTECTION_DISABLE(hrtc);
 978              		.loc 1 840 3 is_stmt 1 discriminator 2 view .LVU337
 979              		.loc 1 840 3 discriminator 2 view .LVU338
 980 0020 0368     		ldr	r3, [r0]
 981 0022 CA22     		movs	r2, #202
 982              	.LVL65:
 983              		.loc 1 840 3 is_stmt 0 discriminator 2 view .LVU339
 984 0024 5A62     		str	r2, [r3, #36]
 985              		.loc 1 840 3 is_stmt 1 discriminator 2 view .LVU340
 986 0026 0368     		ldr	r3, [r0]
 987 0028 5322     		movs	r2, #83
 988 002a 5A62     		str	r2, [r3, #36]
 989              		.loc 1 840 3 discriminator 2 view .LVU341
 841:Drivers/STM32L4xx_HAL_Driver/Src/stm32l4xx_hal_rtc_ex.c **** 
 842:Drivers/STM32L4xx_HAL_Driver/Src/stm32l4xx_hal_rtc_ex.c ****   /* Clear WUTE in RTC_CR to disable the wakeup timer */
 843:Drivers/STM32L4xx_HAL_Driver/Src/stm32l4xx_hal_rtc_ex.c ****   CLEAR_BIT(hrtc->Instance->CR, RTC_CR_WUTE);
 990              		.loc 1 843 3 discriminator 2 view .LVU342
 991 002c 0268     		ldr	r2, [r0]
 992 002e 9369     		ldr	r3, [r2, #24]
 993 0030 23F48063 		bic	r3, r3, #1024
 994 0034 9361     		str	r3, [r2, #24]
 844:Drivers/STM32L4xx_HAL_Driver/Src/stm32l4xx_hal_rtc_ex.c **** 
 845:Drivers/STM32L4xx_HAL_Driver/Src/stm32l4xx_hal_rtc_ex.c ****   /* Clear flag Wake-Up */
 846:Drivers/STM32L4xx_HAL_Driver/Src/stm32l4xx_hal_rtc_ex.c ****   __HAL_RTC_WAKEUPTIMER_CLEAR_FLAG(hrtc, RTC_FLAG_WUTF);
 995              		.loc 1 846 3 discriminator 2 view .LVU343
 996 0036 0368     		ldr	r3, [r0]
 997 0038 0422     		movs	r2, #4
 998 003a DA65     		str	r2, [r3, #92]
 847:Drivers/STM32L4xx_HAL_Driver/Src/stm32l4xx_hal_rtc_ex.c **** 
 848:Drivers/STM32L4xx_HAL_Driver/Src/stm32l4xx_hal_rtc_ex.c ****   /* Poll WUTWF until it is set in RTC_ICSR to make sure the access to wakeup autoreload
 849:Drivers/STM32L4xx_HAL_Driver/Src/stm32l4xx_hal_rtc_ex.c ****      counter and to WUCKSEL[2:0] bits is allowed. This step must be skipped in
ARM GAS  /tmp/cc49nhBG.s 			page 34


 850:Drivers/STM32L4xx_HAL_Driver/Src/stm32l4xx_hal_rtc_ex.c ****      calendar initialization mode. */
 851:Drivers/STM32L4xx_HAL_Driver/Src/stm32l4xx_hal_rtc_ex.c **** #if defined(STM32L412xx) || defined(STM32L422xx) || defined (STM32L4P5xx) || defined (STM32L4Q5xx)
 852:Drivers/STM32L4xx_HAL_Driver/Src/stm32l4xx_hal_rtc_ex.c ****   if (READ_BIT(hrtc->Instance->ICSR, RTC_ICSR_INITF) == 0U)
 999              		.loc 1 852 3 discriminator 2 view .LVU344
 1000              		.loc 1 852 7 is_stmt 0 discriminator 2 view .LVU345
 1001 003c 0368     		ldr	r3, [r0]
 1002 003e DB68     		ldr	r3, [r3, #12]
 1003              		.loc 1 852 6 discriminator 2 view .LVU346
 1004 0040 13F0400F 		tst	r3, #64
 1005 0044 2BD0     		beq	.L58
 1006              	.LVL66:
 1007              	.L51:
 853:Drivers/STM32L4xx_HAL_Driver/Src/stm32l4xx_hal_rtc_ex.c **** #else
 854:Drivers/STM32L4xx_HAL_Driver/Src/stm32l4xx_hal_rtc_ex.c ****   if (READ_BIT(hrtc->Instance->ISR, RTC_ISR_INITF) == 0U)
 855:Drivers/STM32L4xx_HAL_Driver/Src/stm32l4xx_hal_rtc_ex.c **** #endif
 856:Drivers/STM32L4xx_HAL_Driver/Src/stm32l4xx_hal_rtc_ex.c ****   {
 857:Drivers/STM32L4xx_HAL_Driver/Src/stm32l4xx_hal_rtc_ex.c ****     tickstart = HAL_GetTick();
 858:Drivers/STM32L4xx_HAL_Driver/Src/stm32l4xx_hal_rtc_ex.c **** #if defined(STM32L412xx) || defined(STM32L422xx) || defined (STM32L4P5xx) || defined (STM32L4Q5xx)
 859:Drivers/STM32L4xx_HAL_Driver/Src/stm32l4xx_hal_rtc_ex.c ****     while (READ_BIT(hrtc->Instance->ICSR, RTC_ICSR_WUTWF) == 0U)
 860:Drivers/STM32L4xx_HAL_Driver/Src/stm32l4xx_hal_rtc_ex.c **** #else
 861:Drivers/STM32L4xx_HAL_Driver/Src/stm32l4xx_hal_rtc_ex.c ****     while (READ_BIT(hrtc->Instance->ISR, RTC_ISR_WUTWF) == 0U)
 862:Drivers/STM32L4xx_HAL_Driver/Src/stm32l4xx_hal_rtc_ex.c **** #endif
 863:Drivers/STM32L4xx_HAL_Driver/Src/stm32l4xx_hal_rtc_ex.c ****     {
 864:Drivers/STM32L4xx_HAL_Driver/Src/stm32l4xx_hal_rtc_ex.c ****       if ((HAL_GetTick() - tickstart) > RTC_TIMEOUT_VALUE)
 865:Drivers/STM32L4xx_HAL_Driver/Src/stm32l4xx_hal_rtc_ex.c ****       {
 866:Drivers/STM32L4xx_HAL_Driver/Src/stm32l4xx_hal_rtc_ex.c ****         /* Enable the write protection for RTC registers */
 867:Drivers/STM32L4xx_HAL_Driver/Src/stm32l4xx_hal_rtc_ex.c ****         __HAL_RTC_WRITEPROTECTION_ENABLE(hrtc);
 868:Drivers/STM32L4xx_HAL_Driver/Src/stm32l4xx_hal_rtc_ex.c **** 
 869:Drivers/STM32L4xx_HAL_Driver/Src/stm32l4xx_hal_rtc_ex.c ****         hrtc->State = HAL_RTC_STATE_TIMEOUT;
 870:Drivers/STM32L4xx_HAL_Driver/Src/stm32l4xx_hal_rtc_ex.c **** 
 871:Drivers/STM32L4xx_HAL_Driver/Src/stm32l4xx_hal_rtc_ex.c ****         /* Process Unlocked */
 872:Drivers/STM32L4xx_HAL_Driver/Src/stm32l4xx_hal_rtc_ex.c ****         __HAL_UNLOCK(hrtc);
 873:Drivers/STM32L4xx_HAL_Driver/Src/stm32l4xx_hal_rtc_ex.c **** 
 874:Drivers/STM32L4xx_HAL_Driver/Src/stm32l4xx_hal_rtc_ex.c ****         return HAL_TIMEOUT;
 875:Drivers/STM32L4xx_HAL_Driver/Src/stm32l4xx_hal_rtc_ex.c ****       }
 876:Drivers/STM32L4xx_HAL_Driver/Src/stm32l4xx_hal_rtc_ex.c ****     }
 877:Drivers/STM32L4xx_HAL_Driver/Src/stm32l4xx_hal_rtc_ex.c ****   }
 878:Drivers/STM32L4xx_HAL_Driver/Src/stm32l4xx_hal_rtc_ex.c **** 
 879:Drivers/STM32L4xx_HAL_Driver/Src/stm32l4xx_hal_rtc_ex.c **** #if defined(STM32L412xx) || defined(STM32L422xx) || defined (STM32L4P5xx) || defined (STM32L4Q5xx)
 880:Drivers/STM32L4xx_HAL_Driver/Src/stm32l4xx_hal_rtc_ex.c ****   /* Configure the Wakeup Timer counter and auto clear value */
 881:Drivers/STM32L4xx_HAL_Driver/Src/stm32l4xx_hal_rtc_ex.c ****   hrtc->Instance->WUTR = (uint32_t)(WakeUpCounter | (WakeUpAutoClr << RTC_WUTR_WUTOCLR_Pos));
 1008              		.loc 1 881 3 is_stmt 1 view .LVU347
 1009              		.loc 1 881 7 is_stmt 0 view .LVU348
 1010 0046 2368     		ldr	r3, [r4]
 1011              		.loc 1 881 51 view .LVU349
 1012 0048 46EA0746 		orr	r6, r6, r7, lsl #16
 1013              	.LVL67:
 1014              		.loc 1 881 24 view .LVU350
 1015 004c 5E61     		str	r6, [r3, #20]
 882:Drivers/STM32L4xx_HAL_Driver/Src/stm32l4xx_hal_rtc_ex.c **** #else
 883:Drivers/STM32L4xx_HAL_Driver/Src/stm32l4xx_hal_rtc_ex.c ****   /* Configure the Wakeup Timer counter */
 884:Drivers/STM32L4xx_HAL_Driver/Src/stm32l4xx_hal_rtc_ex.c ****   hrtc->Instance->WUTR = (uint32_t)WakeUpCounter;
 885:Drivers/STM32L4xx_HAL_Driver/Src/stm32l4xx_hal_rtc_ex.c **** #endif
 886:Drivers/STM32L4xx_HAL_Driver/Src/stm32l4xx_hal_rtc_ex.c **** 
 887:Drivers/STM32L4xx_HAL_Driver/Src/stm32l4xx_hal_rtc_ex.c ****   /* Configure the clock source */
 888:Drivers/STM32L4xx_HAL_Driver/Src/stm32l4xx_hal_rtc_ex.c ****   MODIFY_REG(hrtc->Instance->CR, RTC_CR_WUCKSEL, (uint32_t)WakeUpClock);
 1016              		.loc 1 888 3 is_stmt 1 view .LVU351
ARM GAS  /tmp/cc49nhBG.s 			page 35


 1017 004e 2368     		ldr	r3, [r4]
 1018 0050 9A69     		ldr	r2, [r3, #24]
 1019 0052 22F00702 		bic	r2, r2, #7
 1020 0056 42EA0802 		orr	r2, r2, r8
 1021 005a 9A61     		str	r2, [r3, #24]
 889:Drivers/STM32L4xx_HAL_Driver/Src/stm32l4xx_hal_rtc_ex.c **** 
 890:Drivers/STM32L4xx_HAL_Driver/Src/stm32l4xx_hal_rtc_ex.c **** #if defined(STM32L412xx) || defined(STM32L422xx) || defined (STM32L4P5xx) || defined (STM32L4Q5xx)
 891:Drivers/STM32L4xx_HAL_Driver/Src/stm32l4xx_hal_rtc_ex.c ****   /* In case of WUT autoclr, the IRQ handler should not be called */
 892:Drivers/STM32L4xx_HAL_Driver/Src/stm32l4xx_hal_rtc_ex.c ****   if (WakeUpAutoClr != 0u)
 1022              		.loc 1 892 3 view .LVU352
 1023              		.loc 1 892 6 is_stmt 0 view .LVU353
 1024 005c 002F     		cmp	r7, #0
 1025 005e 37D0     		beq	.L54
 893:Drivers/STM32L4xx_HAL_Driver/Src/stm32l4xx_hal_rtc_ex.c ****   {
 894:Drivers/STM32L4xx_HAL_Driver/Src/stm32l4xx_hal_rtc_ex.c ****     /* RTC WakeUpTimer EXTI Configuration: Event configuration */
 895:Drivers/STM32L4xx_HAL_Driver/Src/stm32l4xx_hal_rtc_ex.c ****     __HAL_RTC_WAKEUPTIMER_EXTI_ENABLE_EVENT();
 1026              		.loc 1 895 5 is_stmt 1 view .LVU354
 1027 0060 1F4A     		ldr	r2, .L59
 1028 0062 5368     		ldr	r3, [r2, #4]
 1029 0064 43F48013 		orr	r3, r3, #1048576
 1030 0068 5360     		str	r3, [r2, #4]
 1031              	.L55:
 896:Drivers/STM32L4xx_HAL_Driver/Src/stm32l4xx_hal_rtc_ex.c ****   }
 897:Drivers/STM32L4xx_HAL_Driver/Src/stm32l4xx_hal_rtc_ex.c ****   else
 898:Drivers/STM32L4xx_HAL_Driver/Src/stm32l4xx_hal_rtc_ex.c ****   {
 899:Drivers/STM32L4xx_HAL_Driver/Src/stm32l4xx_hal_rtc_ex.c ****     /* RTC WakeUpTimer EXTI Configuration: Interrupt configuration */
 900:Drivers/STM32L4xx_HAL_Driver/Src/stm32l4xx_hal_rtc_ex.c ****     __HAL_RTC_WAKEUPTIMER_EXTI_ENABLE_IT();
 901:Drivers/STM32L4xx_HAL_Driver/Src/stm32l4xx_hal_rtc_ex.c ****   }
 902:Drivers/STM32L4xx_HAL_Driver/Src/stm32l4xx_hal_rtc_ex.c **** #else /* defined(STM32L412xx) || defined(STM32L422xx) || defined (STM32L4P5xx) || defined (STM32L4Q
 903:Drivers/STM32L4xx_HAL_Driver/Src/stm32l4xx_hal_rtc_ex.c ****   __HAL_RTC_WAKEUPTIMER_EXTI_ENABLE_IT();
 904:Drivers/STM32L4xx_HAL_Driver/Src/stm32l4xx_hal_rtc_ex.c **** #endif /* defined(STM32L412xx) || defined(STM32L422xx) || defined (STM32L4P5xx) || defined (STM32L4
 905:Drivers/STM32L4xx_HAL_Driver/Src/stm32l4xx_hal_rtc_ex.c **** 
 906:Drivers/STM32L4xx_HAL_Driver/Src/stm32l4xx_hal_rtc_ex.c ****   __HAL_RTC_WAKEUPTIMER_EXTI_ENABLE_RISING_EDGE();
 1032              		.loc 1 906 3 view .LVU355
 1033 006a 1D4A     		ldr	r2, .L59
 1034 006c 9368     		ldr	r3, [r2, #8]
 1035 006e 43F48013 		orr	r3, r3, #1048576
 1036 0072 9360     		str	r3, [r2, #8]
 907:Drivers/STM32L4xx_HAL_Driver/Src/stm32l4xx_hal_rtc_ex.c **** 
 908:Drivers/STM32L4xx_HAL_Driver/Src/stm32l4xx_hal_rtc_ex.c ****   /* Configure the Interrupt in the RTC_CR register */
 909:Drivers/STM32L4xx_HAL_Driver/Src/stm32l4xx_hal_rtc_ex.c ****   __HAL_RTC_WAKEUPTIMER_ENABLE_IT(hrtc, RTC_IT_WUT);
 1037              		.loc 1 909 3 view .LVU356
 1038 0074 2268     		ldr	r2, [r4]
 1039 0076 9369     		ldr	r3, [r2, #24]
 1040 0078 43F48043 		orr	r3, r3, #16384
 1041 007c 9361     		str	r3, [r2, #24]
 910:Drivers/STM32L4xx_HAL_Driver/Src/stm32l4xx_hal_rtc_ex.c **** 
 911:Drivers/STM32L4xx_HAL_Driver/Src/stm32l4xx_hal_rtc_ex.c ****   /* Enable the Wakeup Timer */
 912:Drivers/STM32L4xx_HAL_Driver/Src/stm32l4xx_hal_rtc_ex.c ****   __HAL_RTC_WAKEUPTIMER_ENABLE(hrtc);
 1042              		.loc 1 912 3 view .LVU357
 1043 007e 2268     		ldr	r2, [r4]
 1044 0080 9369     		ldr	r3, [r2, #24]
 1045 0082 43F48063 		orr	r3, r3, #1024
 1046 0086 9361     		str	r3, [r2, #24]
 913:Drivers/STM32L4xx_HAL_Driver/Src/stm32l4xx_hal_rtc_ex.c **** 
 914:Drivers/STM32L4xx_HAL_Driver/Src/stm32l4xx_hal_rtc_ex.c ****   /* Enable the write protection for RTC registers */
 915:Drivers/STM32L4xx_HAL_Driver/Src/stm32l4xx_hal_rtc_ex.c ****   __HAL_RTC_WRITEPROTECTION_ENABLE(hrtc);
ARM GAS  /tmp/cc49nhBG.s 			page 36


 1047              		.loc 1 915 3 view .LVU358
 1048              		.loc 1 915 3 view .LVU359
 1049 0088 2368     		ldr	r3, [r4]
 1050 008a FF22     		movs	r2, #255
 1051 008c 5A62     		str	r2, [r3, #36]
 1052              		.loc 1 915 3 view .LVU360
 916:Drivers/STM32L4xx_HAL_Driver/Src/stm32l4xx_hal_rtc_ex.c **** 
 917:Drivers/STM32L4xx_HAL_Driver/Src/stm32l4xx_hal_rtc_ex.c ****   hrtc->State = HAL_RTC_STATE_READY;
 1053              		.loc 1 917 3 view .LVU361
 1054              		.loc 1 917 15 is_stmt 0 view .LVU362
 1055 008e 0123     		movs	r3, #1
 1056 0090 84F82930 		strb	r3, [r4, #41]
 918:Drivers/STM32L4xx_HAL_Driver/Src/stm32l4xx_hal_rtc_ex.c **** 
 919:Drivers/STM32L4xx_HAL_Driver/Src/stm32l4xx_hal_rtc_ex.c ****   /* Process Unlocked */
 920:Drivers/STM32L4xx_HAL_Driver/Src/stm32l4xx_hal_rtc_ex.c ****   __HAL_UNLOCK(hrtc);
 1057              		.loc 1 920 3 is_stmt 1 view .LVU363
 1058              		.loc 1 920 3 view .LVU364
 1059 0094 0020     		movs	r0, #0
 1060 0096 84F82800 		strb	r0, [r4, #40]
 1061              		.loc 1 920 3 view .LVU365
 921:Drivers/STM32L4xx_HAL_Driver/Src/stm32l4xx_hal_rtc_ex.c **** 
 922:Drivers/STM32L4xx_HAL_Driver/Src/stm32l4xx_hal_rtc_ex.c ****   return HAL_OK;
 1062              		.loc 1 922 3 view .LVU366
 1063              	.LVL68:
 1064              	.L50:
 923:Drivers/STM32L4xx_HAL_Driver/Src/stm32l4xx_hal_rtc_ex.c **** }
 1065              		.loc 1 923 1 is_stmt 0 view .LVU367
 1066 009a BDE8F883 		pop	{r3, r4, r5, r6, r7, r8, r9, pc}
 1067              	.LVL69:
 1068              	.L58:
 857:Drivers/STM32L4xx_HAL_Driver/Src/stm32l4xx_hal_rtc_ex.c **** #if defined(STM32L412xx) || defined(STM32L422xx) || defined (STM32L4P5xx) || defined (STM32L4Q5xx)
 1069              		.loc 1 857 5 is_stmt 1 view .LVU368
 857:Drivers/STM32L4xx_HAL_Driver/Src/stm32l4xx_hal_rtc_ex.c **** #if defined(STM32L412xx) || defined(STM32L422xx) || defined (STM32L4P5xx) || defined (STM32L4Q5xx)
 1070              		.loc 1 857 17 is_stmt 0 view .LVU369
 1071 009e FFF7FEFF 		bl	HAL_GetTick
 1072              	.LVL70:
 857:Drivers/STM32L4xx_HAL_Driver/Src/stm32l4xx_hal_rtc_ex.c **** #if defined(STM32L412xx) || defined(STM32L422xx) || defined (STM32L4P5xx) || defined (STM32L4Q5xx)
 1073              		.loc 1 857 17 view .LVU370
 1074 00a2 8146     		mov	r9, r0
 1075              	.LVL71:
 859:Drivers/STM32L4xx_HAL_Driver/Src/stm32l4xx_hal_rtc_ex.c **** #else
 1076              		.loc 1 859 5 is_stmt 1 view .LVU371
 1077              	.L52:
 859:Drivers/STM32L4xx_HAL_Driver/Src/stm32l4xx_hal_rtc_ex.c **** #else
 1078              		.loc 1 859 11 view .LVU372
 859:Drivers/STM32L4xx_HAL_Driver/Src/stm32l4xx_hal_rtc_ex.c **** #else
 1079              		.loc 1 859 12 is_stmt 0 view .LVU373
 1080 00a4 2368     		ldr	r3, [r4]
 1081 00a6 DD68     		ldr	r5, [r3, #12]
 859:Drivers/STM32L4xx_HAL_Driver/Src/stm32l4xx_hal_rtc_ex.c **** #else
 1082              		.loc 1 859 11 view .LVU374
 1083 00a8 15F0040F 		tst	r5, #4
 1084 00ac CBD1     		bne	.L51
 864:Drivers/STM32L4xx_HAL_Driver/Src/stm32l4xx_hal_rtc_ex.c ****       {
 1085              		.loc 1 864 7 is_stmt 1 view .LVU375
 864:Drivers/STM32L4xx_HAL_Driver/Src/stm32l4xx_hal_rtc_ex.c ****       {
 1086              		.loc 1 864 12 is_stmt 0 view .LVU376
ARM GAS  /tmp/cc49nhBG.s 			page 37


 1087 00ae FFF7FEFF 		bl	HAL_GetTick
 1088              	.LVL72:
 864:Drivers/STM32L4xx_HAL_Driver/Src/stm32l4xx_hal_rtc_ex.c ****       {
 1089              		.loc 1 864 26 view .LVU377
 1090 00b2 A0EB0900 		sub	r0, r0, r9
 864:Drivers/STM32L4xx_HAL_Driver/Src/stm32l4xx_hal_rtc_ex.c ****       {
 1091              		.loc 1 864 10 view .LVU378
 1092 00b6 B0F57A7F 		cmp	r0, #1000
 1093 00ba F3D9     		bls	.L52
 867:Drivers/STM32L4xx_HAL_Driver/Src/stm32l4xx_hal_rtc_ex.c **** 
 1094              		.loc 1 867 9 is_stmt 1 view .LVU379
 867:Drivers/STM32L4xx_HAL_Driver/Src/stm32l4xx_hal_rtc_ex.c **** 
 1095              		.loc 1 867 9 view .LVU380
 1096 00bc 2368     		ldr	r3, [r4]
 1097 00be FF22     		movs	r2, #255
 1098 00c0 5A62     		str	r2, [r3, #36]
 867:Drivers/STM32L4xx_HAL_Driver/Src/stm32l4xx_hal_rtc_ex.c **** 
 1099              		.loc 1 867 9 view .LVU381
 869:Drivers/STM32L4xx_HAL_Driver/Src/stm32l4xx_hal_rtc_ex.c **** 
 1100              		.loc 1 869 9 view .LVU382
 869:Drivers/STM32L4xx_HAL_Driver/Src/stm32l4xx_hal_rtc_ex.c **** 
 1101              		.loc 1 869 21 is_stmt 0 view .LVU383
 1102 00c2 0320     		movs	r0, #3
 1103 00c4 84F82900 		strb	r0, [r4, #41]
 872:Drivers/STM32L4xx_HAL_Driver/Src/stm32l4xx_hal_rtc_ex.c **** 
 1104              		.loc 1 872 9 is_stmt 1 view .LVU384
 872:Drivers/STM32L4xx_HAL_Driver/Src/stm32l4xx_hal_rtc_ex.c **** 
 1105              		.loc 1 872 9 view .LVU385
 1106 00c8 0023     		movs	r3, #0
 1107 00ca 84F82830 		strb	r3, [r4, #40]
 872:Drivers/STM32L4xx_HAL_Driver/Src/stm32l4xx_hal_rtc_ex.c **** 
 1108              		.loc 1 872 9 view .LVU386
 874:Drivers/STM32L4xx_HAL_Driver/Src/stm32l4xx_hal_rtc_ex.c ****       }
 1109              		.loc 1 874 9 view .LVU387
 874:Drivers/STM32L4xx_HAL_Driver/Src/stm32l4xx_hal_rtc_ex.c ****       }
 1110              		.loc 1 874 16 is_stmt 0 view .LVU388
 1111 00ce E4E7     		b	.L50
 1112              	.LVL73:
 1113              	.L54:
 900:Drivers/STM32L4xx_HAL_Driver/Src/stm32l4xx_hal_rtc_ex.c ****   }
 1114              		.loc 1 900 5 is_stmt 1 view .LVU389
 1115 00d0 034A     		ldr	r2, .L59
 1116 00d2 1368     		ldr	r3, [r2]
 1117 00d4 43F48013 		orr	r3, r3, #1048576
 1118 00d8 1360     		str	r3, [r2]
 1119 00da C6E7     		b	.L55
 1120              	.LVL74:
 1121              	.L56:
 835:Drivers/STM32L4xx_HAL_Driver/Src/stm32l4xx_hal_rtc_ex.c **** 
 1122              		.loc 1 835 3 is_stmt 0 view .LVU390
 1123 00dc 0220     		movs	r0, #2
 1124              	.LVL75:
 835:Drivers/STM32L4xx_HAL_Driver/Src/stm32l4xx_hal_rtc_ex.c **** 
 1125              		.loc 1 835 3 view .LVU391
 1126 00de DCE7     		b	.L50
 1127              	.L60:
 1128              		.align	2
ARM GAS  /tmp/cc49nhBG.s 			page 38


 1129              	.L59:
 1130 00e0 00040140 		.word	1073808384
 1131              		.cfi_endproc
 1132              	.LFE142:
 1134              		.section	.text.HAL_RTCEx_DeactivateWakeUpTimer,"ax",%progbits
 1135              		.align	1
 1136              		.global	HAL_RTCEx_DeactivateWakeUpTimer
 1137              		.syntax unified
 1138              		.thumb
 1139              		.thumb_func
 1140              		.fpu fpv4-sp-d16
 1142              	HAL_RTCEx_DeactivateWakeUpTimer:
 1143              	.LVL76:
 1144              	.LFB143:
 924:Drivers/STM32L4xx_HAL_Driver/Src/stm32l4xx_hal_rtc_ex.c **** 
 925:Drivers/STM32L4xx_HAL_Driver/Src/stm32l4xx_hal_rtc_ex.c **** /**
 926:Drivers/STM32L4xx_HAL_Driver/Src/stm32l4xx_hal_rtc_ex.c ****   * @brief  Deactivate wake up timer counter.
 927:Drivers/STM32L4xx_HAL_Driver/Src/stm32l4xx_hal_rtc_ex.c ****   * @param  hrtc RTC handle
 928:Drivers/STM32L4xx_HAL_Driver/Src/stm32l4xx_hal_rtc_ex.c ****   * @retval HAL status
 929:Drivers/STM32L4xx_HAL_Driver/Src/stm32l4xx_hal_rtc_ex.c ****   */
 930:Drivers/STM32L4xx_HAL_Driver/Src/stm32l4xx_hal_rtc_ex.c **** HAL_StatusTypeDef HAL_RTCEx_DeactivateWakeUpTimer(RTC_HandleTypeDef *hrtc)
 931:Drivers/STM32L4xx_HAL_Driver/Src/stm32l4xx_hal_rtc_ex.c **** {
 1145              		.loc 1 931 1 is_stmt 1 view -0
 1146              		.cfi_startproc
 1147              		@ args = 0, pretend = 0, frame = 0
 1148              		@ frame_needed = 0, uses_anonymous_args = 0
 1149              		.loc 1 931 1 is_stmt 0 view .LVU393
 1150 0000 38B5     		push	{r3, r4, r5, lr}
 1151              	.LCFI8:
 1152              		.cfi_def_cfa_offset 16
 1153              		.cfi_offset 3, -16
 1154              		.cfi_offset 4, -12
 1155              		.cfi_offset 5, -8
 1156              		.cfi_offset 14, -4
 932:Drivers/STM32L4xx_HAL_Driver/Src/stm32l4xx_hal_rtc_ex.c ****   uint32_t tickstart;
 1157              		.loc 1 932 3 is_stmt 1 view .LVU394
 933:Drivers/STM32L4xx_HAL_Driver/Src/stm32l4xx_hal_rtc_ex.c **** 
 934:Drivers/STM32L4xx_HAL_Driver/Src/stm32l4xx_hal_rtc_ex.c ****   /* Process Locked */
 935:Drivers/STM32L4xx_HAL_Driver/Src/stm32l4xx_hal_rtc_ex.c ****   __HAL_LOCK(hrtc);
 1158              		.loc 1 935 3 view .LVU395
 1159              		.loc 1 935 3 view .LVU396
 1160 0002 90F82830 		ldrb	r3, [r0, #40]	@ zero_extendqisi2
 1161 0006 012B     		cmp	r3, #1
 1162 0008 37D0     		beq	.L65
 1163 000a 0446     		mov	r4, r0
 1164              		.loc 1 935 3 discriminator 2 view .LVU397
 1165 000c 0123     		movs	r3, #1
 1166 000e 80F82830 		strb	r3, [r0, #40]
 1167              		.loc 1 935 3 discriminator 2 view .LVU398
 936:Drivers/STM32L4xx_HAL_Driver/Src/stm32l4xx_hal_rtc_ex.c **** 
 937:Drivers/STM32L4xx_HAL_Driver/Src/stm32l4xx_hal_rtc_ex.c ****   hrtc->State = HAL_RTC_STATE_BUSY;
 1168              		.loc 1 937 3 discriminator 2 view .LVU399
 1169              		.loc 1 937 15 is_stmt 0 discriminator 2 view .LVU400
 1170 0012 0223     		movs	r3, #2
 1171 0014 80F82930 		strb	r3, [r0, #41]
 938:Drivers/STM32L4xx_HAL_Driver/Src/stm32l4xx_hal_rtc_ex.c **** 
 939:Drivers/STM32L4xx_HAL_Driver/Src/stm32l4xx_hal_rtc_ex.c ****   /* Disable the write protection for RTC registers */
ARM GAS  /tmp/cc49nhBG.s 			page 39


 940:Drivers/STM32L4xx_HAL_Driver/Src/stm32l4xx_hal_rtc_ex.c ****   __HAL_RTC_WRITEPROTECTION_DISABLE(hrtc);
 1172              		.loc 1 940 3 is_stmt 1 discriminator 2 view .LVU401
 1173              		.loc 1 940 3 discriminator 2 view .LVU402
 1174 0018 0368     		ldr	r3, [r0]
 1175 001a CA22     		movs	r2, #202
 1176 001c 5A62     		str	r2, [r3, #36]
 1177              		.loc 1 940 3 discriminator 2 view .LVU403
 1178 001e 0368     		ldr	r3, [r0]
 1179 0020 5322     		movs	r2, #83
 1180 0022 5A62     		str	r2, [r3, #36]
 1181              		.loc 1 940 3 discriminator 2 view .LVU404
 941:Drivers/STM32L4xx_HAL_Driver/Src/stm32l4xx_hal_rtc_ex.c **** 
 942:Drivers/STM32L4xx_HAL_Driver/Src/stm32l4xx_hal_rtc_ex.c ****   /* Disable the Wakeup Timer */
 943:Drivers/STM32L4xx_HAL_Driver/Src/stm32l4xx_hal_rtc_ex.c ****   __HAL_RTC_WAKEUPTIMER_DISABLE(hrtc);
 1182              		.loc 1 943 3 discriminator 2 view .LVU405
 1183 0024 0268     		ldr	r2, [r0]
 1184 0026 9369     		ldr	r3, [r2, #24]
 1185 0028 23F48063 		bic	r3, r3, #1024
 1186 002c 9361     		str	r3, [r2, #24]
 944:Drivers/STM32L4xx_HAL_Driver/Src/stm32l4xx_hal_rtc_ex.c **** 
 945:Drivers/STM32L4xx_HAL_Driver/Src/stm32l4xx_hal_rtc_ex.c ****   /* In case of interrupt mode is used, the interrupt source must disabled */
 946:Drivers/STM32L4xx_HAL_Driver/Src/stm32l4xx_hal_rtc_ex.c ****   __HAL_RTC_WAKEUPTIMER_DISABLE_IT(hrtc, RTC_IT_WUT);
 1187              		.loc 1 946 3 discriminator 2 view .LVU406
 1188 002e 0268     		ldr	r2, [r0]
 1189 0030 9369     		ldr	r3, [r2, #24]
 1190 0032 23F48043 		bic	r3, r3, #16384
 1191 0036 9361     		str	r3, [r2, #24]
 947:Drivers/STM32L4xx_HAL_Driver/Src/stm32l4xx_hal_rtc_ex.c **** 
 948:Drivers/STM32L4xx_HAL_Driver/Src/stm32l4xx_hal_rtc_ex.c ****   tickstart = HAL_GetTick();
 1192              		.loc 1 948 3 discriminator 2 view .LVU407
 1193              		.loc 1 948 15 is_stmt 0 discriminator 2 view .LVU408
 1194 0038 FFF7FEFF 		bl	HAL_GetTick
 1195              	.LVL77:
 1196              		.loc 1 948 15 discriminator 2 view .LVU409
 1197 003c 0546     		mov	r5, r0
 1198              	.LVL78:
 949:Drivers/STM32L4xx_HAL_Driver/Src/stm32l4xx_hal_rtc_ex.c ****   /* Wait till RTC WUTWF flag is set and if Time out is reached exit */
 950:Drivers/STM32L4xx_HAL_Driver/Src/stm32l4xx_hal_rtc_ex.c ****   while (__HAL_RTC_WAKEUPTIMER_GET_FLAG(hrtc, RTC_FLAG_WUTWF) == 0U)
 1199              		.loc 1 950 3 is_stmt 1 discriminator 2 view .LVU410
 1200              	.L63:
 1201              		.loc 1 950 9 view .LVU411
 1202              		.loc 1 950 10 is_stmt 0 view .LVU412
 1203 003e 2368     		ldr	r3, [r4]
 1204 0040 DA68     		ldr	r2, [r3, #12]
 1205              		.loc 1 950 9 view .LVU413
 1206 0042 12F0040F 		tst	r2, #4
 1207 0046 0FD1     		bne	.L67
 951:Drivers/STM32L4xx_HAL_Driver/Src/stm32l4xx_hal_rtc_ex.c ****   {
 952:Drivers/STM32L4xx_HAL_Driver/Src/stm32l4xx_hal_rtc_ex.c ****     if ((HAL_GetTick() - tickstart) > RTC_TIMEOUT_VALUE)
 1208              		.loc 1 952 5 is_stmt 1 view .LVU414
 1209              		.loc 1 952 10 is_stmt 0 view .LVU415
 1210 0048 FFF7FEFF 		bl	HAL_GetTick
 1211              	.LVL79:
 1212              		.loc 1 952 24 view .LVU416
 1213 004c 431B     		subs	r3, r0, r5
 1214              		.loc 1 952 8 view .LVU417
 1215 004e B3F57A7F 		cmp	r3, #1000
ARM GAS  /tmp/cc49nhBG.s 			page 40


 1216 0052 F4D9     		bls	.L63
 953:Drivers/STM32L4xx_HAL_Driver/Src/stm32l4xx_hal_rtc_ex.c ****     {
 954:Drivers/STM32L4xx_HAL_Driver/Src/stm32l4xx_hal_rtc_ex.c ****       /* Enable the write protection for RTC registers */
 955:Drivers/STM32L4xx_HAL_Driver/Src/stm32l4xx_hal_rtc_ex.c ****       __HAL_RTC_WRITEPROTECTION_ENABLE(hrtc);
 1217              		.loc 1 955 7 is_stmt 1 view .LVU418
 1218              		.loc 1 955 7 view .LVU419
 1219 0054 2368     		ldr	r3, [r4]
 1220 0056 FF22     		movs	r2, #255
 1221 0058 5A62     		str	r2, [r3, #36]
 1222              		.loc 1 955 7 view .LVU420
 956:Drivers/STM32L4xx_HAL_Driver/Src/stm32l4xx_hal_rtc_ex.c **** 
 957:Drivers/STM32L4xx_HAL_Driver/Src/stm32l4xx_hal_rtc_ex.c ****       hrtc->State = HAL_RTC_STATE_TIMEOUT;
 1223              		.loc 1 957 7 view .LVU421
 1224              		.loc 1 957 19 is_stmt 0 view .LVU422
 1225 005a 0320     		movs	r0, #3
 1226 005c 84F82900 		strb	r0, [r4, #41]
 958:Drivers/STM32L4xx_HAL_Driver/Src/stm32l4xx_hal_rtc_ex.c **** 
 959:Drivers/STM32L4xx_HAL_Driver/Src/stm32l4xx_hal_rtc_ex.c ****       /* Process Unlocked */
 960:Drivers/STM32L4xx_HAL_Driver/Src/stm32l4xx_hal_rtc_ex.c ****       __HAL_UNLOCK(hrtc);
 1227              		.loc 1 960 7 is_stmt 1 view .LVU423
 1228              		.loc 1 960 7 view .LVU424
 1229 0060 0023     		movs	r3, #0
 1230 0062 84F82830 		strb	r3, [r4, #40]
 1231              		.loc 1 960 7 view .LVU425
 961:Drivers/STM32L4xx_HAL_Driver/Src/stm32l4xx_hal_rtc_ex.c **** 
 962:Drivers/STM32L4xx_HAL_Driver/Src/stm32l4xx_hal_rtc_ex.c ****       return HAL_TIMEOUT;
 1232              		.loc 1 962 7 view .LVU426
 1233              		.loc 1 962 14 is_stmt 0 view .LVU427
 1234 0066 07E0     		b	.L62
 1235              	.L67:
 963:Drivers/STM32L4xx_HAL_Driver/Src/stm32l4xx_hal_rtc_ex.c ****     }
 964:Drivers/STM32L4xx_HAL_Driver/Src/stm32l4xx_hal_rtc_ex.c ****   }
 965:Drivers/STM32L4xx_HAL_Driver/Src/stm32l4xx_hal_rtc_ex.c **** 
 966:Drivers/STM32L4xx_HAL_Driver/Src/stm32l4xx_hal_rtc_ex.c ****   /* Enable the write protection for RTC registers */
 967:Drivers/STM32L4xx_HAL_Driver/Src/stm32l4xx_hal_rtc_ex.c ****   __HAL_RTC_WRITEPROTECTION_ENABLE(hrtc);
 1236              		.loc 1 967 3 is_stmt 1 view .LVU428
 1237              		.loc 1 967 3 view .LVU429
 1238 0068 FF22     		movs	r2, #255
 1239 006a 5A62     		str	r2, [r3, #36]
 1240              		.loc 1 967 3 view .LVU430
 968:Drivers/STM32L4xx_HAL_Driver/Src/stm32l4xx_hal_rtc_ex.c **** 
 969:Drivers/STM32L4xx_HAL_Driver/Src/stm32l4xx_hal_rtc_ex.c ****   hrtc->State = HAL_RTC_STATE_READY;
 1241              		.loc 1 969 3 view .LVU431
 1242              		.loc 1 969 15 is_stmt 0 view .LVU432
 1243 006c 0123     		movs	r3, #1
 1244 006e 84F82930 		strb	r3, [r4, #41]
 970:Drivers/STM32L4xx_HAL_Driver/Src/stm32l4xx_hal_rtc_ex.c **** 
 971:Drivers/STM32L4xx_HAL_Driver/Src/stm32l4xx_hal_rtc_ex.c ****   /* Process Unlocked */
 972:Drivers/STM32L4xx_HAL_Driver/Src/stm32l4xx_hal_rtc_ex.c ****   __HAL_UNLOCK(hrtc);
 1245              		.loc 1 972 3 is_stmt 1 view .LVU433
 1246              		.loc 1 972 3 view .LVU434
 1247 0072 0020     		movs	r0, #0
 1248 0074 84F82800 		strb	r0, [r4, #40]
 1249              		.loc 1 972 3 view .LVU435
 973:Drivers/STM32L4xx_HAL_Driver/Src/stm32l4xx_hal_rtc_ex.c **** 
 974:Drivers/STM32L4xx_HAL_Driver/Src/stm32l4xx_hal_rtc_ex.c ****   return HAL_OK;
 1250              		.loc 1 974 3 view .LVU436
ARM GAS  /tmp/cc49nhBG.s 			page 41


 1251              	.LVL80:
 1252              	.L62:
 975:Drivers/STM32L4xx_HAL_Driver/Src/stm32l4xx_hal_rtc_ex.c **** }
 1253              		.loc 1 975 1 is_stmt 0 view .LVU437
 1254 0078 38BD     		pop	{r3, r4, r5, pc}
 1255              	.LVL81:
 1256              	.L65:
 935:Drivers/STM32L4xx_HAL_Driver/Src/stm32l4xx_hal_rtc_ex.c **** 
 1257              		.loc 1 935 3 view .LVU438
 1258 007a 0220     		movs	r0, #2
 1259              	.LVL82:
 935:Drivers/STM32L4xx_HAL_Driver/Src/stm32l4xx_hal_rtc_ex.c **** 
 1260              		.loc 1 935 3 view .LVU439
 1261 007c FCE7     		b	.L62
 1262              		.cfi_endproc
 1263              	.LFE143:
 1265              		.section	.text.HAL_RTCEx_GetWakeUpTimer,"ax",%progbits
 1266              		.align	1
 1267              		.global	HAL_RTCEx_GetWakeUpTimer
 1268              		.syntax unified
 1269              		.thumb
 1270              		.thumb_func
 1271              		.fpu fpv4-sp-d16
 1273              	HAL_RTCEx_GetWakeUpTimer:
 1274              	.LVL83:
 1275              	.LFB144:
 976:Drivers/STM32L4xx_HAL_Driver/Src/stm32l4xx_hal_rtc_ex.c **** 
 977:Drivers/STM32L4xx_HAL_Driver/Src/stm32l4xx_hal_rtc_ex.c **** /**
 978:Drivers/STM32L4xx_HAL_Driver/Src/stm32l4xx_hal_rtc_ex.c ****   * @brief  Get wake up timer counter.
 979:Drivers/STM32L4xx_HAL_Driver/Src/stm32l4xx_hal_rtc_ex.c ****   * @param  hrtc RTC handle
 980:Drivers/STM32L4xx_HAL_Driver/Src/stm32l4xx_hal_rtc_ex.c ****   * @retval Counter value
 981:Drivers/STM32L4xx_HAL_Driver/Src/stm32l4xx_hal_rtc_ex.c ****   */
 982:Drivers/STM32L4xx_HAL_Driver/Src/stm32l4xx_hal_rtc_ex.c **** uint32_t HAL_RTCEx_GetWakeUpTimer(RTC_HandleTypeDef *hrtc)
 983:Drivers/STM32L4xx_HAL_Driver/Src/stm32l4xx_hal_rtc_ex.c **** {
 1276              		.loc 1 983 1 is_stmt 1 view -0
 1277              		.cfi_startproc
 1278              		@ args = 0, pretend = 0, frame = 0
 1279              		@ frame_needed = 0, uses_anonymous_args = 0
 1280              		@ link register save eliminated.
 984:Drivers/STM32L4xx_HAL_Driver/Src/stm32l4xx_hal_rtc_ex.c ****   /* Get the counter value */
 985:Drivers/STM32L4xx_HAL_Driver/Src/stm32l4xx_hal_rtc_ex.c ****   return ((uint32_t)(hrtc->Instance->WUTR & RTC_WUTR_WUT));
 1281              		.loc 1 985 3 view .LVU441
 1282              		.loc 1 985 26 is_stmt 0 view .LVU442
 1283 0000 0368     		ldr	r3, [r0]
 1284              		.loc 1 985 36 view .LVU443
 1285 0002 5869     		ldr	r0, [r3, #20]
 1286              	.LVL84:
 986:Drivers/STM32L4xx_HAL_Driver/Src/stm32l4xx_hal_rtc_ex.c **** }
 1287              		.loc 1 986 1 view .LVU444
 1288 0004 80B2     		uxth	r0, r0
 1289 0006 7047     		bx	lr
 1290              		.cfi_endproc
 1291              	.LFE144:
 1293              		.section	.text.HAL_RTCEx_WakeUpTimerEventCallback,"ax",%progbits
 1294              		.align	1
 1295              		.weak	HAL_RTCEx_WakeUpTimerEventCallback
 1296              		.syntax unified
ARM GAS  /tmp/cc49nhBG.s 			page 42


 1297              		.thumb
 1298              		.thumb_func
 1299              		.fpu fpv4-sp-d16
 1301              	HAL_RTCEx_WakeUpTimerEventCallback:
 1302              	.LVL85:
 1303              	.LFB146:
 987:Drivers/STM32L4xx_HAL_Driver/Src/stm32l4xx_hal_rtc_ex.c **** 
 988:Drivers/STM32L4xx_HAL_Driver/Src/stm32l4xx_hal_rtc_ex.c **** /**
 989:Drivers/STM32L4xx_HAL_Driver/Src/stm32l4xx_hal_rtc_ex.c ****   * @brief  Handle Wake Up Timer interrupt request.
 990:Drivers/STM32L4xx_HAL_Driver/Src/stm32l4xx_hal_rtc_ex.c ****   * @param  hrtc RTC handle
 991:Drivers/STM32L4xx_HAL_Driver/Src/stm32l4xx_hal_rtc_ex.c ****   * @retval None
 992:Drivers/STM32L4xx_HAL_Driver/Src/stm32l4xx_hal_rtc_ex.c ****   */
 993:Drivers/STM32L4xx_HAL_Driver/Src/stm32l4xx_hal_rtc_ex.c **** void HAL_RTCEx_WakeUpTimerIRQHandler(RTC_HandleTypeDef *hrtc)
 994:Drivers/STM32L4xx_HAL_Driver/Src/stm32l4xx_hal_rtc_ex.c **** {
 995:Drivers/STM32L4xx_HAL_Driver/Src/stm32l4xx_hal_rtc_ex.c ****   /* Clear the EXTI's line Flag for RTC WakeUpTimer */
 996:Drivers/STM32L4xx_HAL_Driver/Src/stm32l4xx_hal_rtc_ex.c ****   __HAL_RTC_WAKEUPTIMER_EXTI_CLEAR_FLAG();
 997:Drivers/STM32L4xx_HAL_Driver/Src/stm32l4xx_hal_rtc_ex.c **** 
 998:Drivers/STM32L4xx_HAL_Driver/Src/stm32l4xx_hal_rtc_ex.c **** 
 999:Drivers/STM32L4xx_HAL_Driver/Src/stm32l4xx_hal_rtc_ex.c **** #if defined(STM32L412xx) || defined(STM32L422xx) || defined (STM32L4P5xx) || defined (STM32L4Q5xx)
1000:Drivers/STM32L4xx_HAL_Driver/Src/stm32l4xx_hal_rtc_ex.c ****   if ((hrtc->Instance->MISR & RTC_MISR_WUTMF) != 0u)
1001:Drivers/STM32L4xx_HAL_Driver/Src/stm32l4xx_hal_rtc_ex.c ****   {
1002:Drivers/STM32L4xx_HAL_Driver/Src/stm32l4xx_hal_rtc_ex.c ****     /* Immediately clear flags */
1003:Drivers/STM32L4xx_HAL_Driver/Src/stm32l4xx_hal_rtc_ex.c ****     hrtc->Instance->SCR = RTC_SCR_CWUTF;
1004:Drivers/STM32L4xx_HAL_Driver/Src/stm32l4xx_hal_rtc_ex.c **** #else
1005:Drivers/STM32L4xx_HAL_Driver/Src/stm32l4xx_hal_rtc_ex.c ****   /* Get the pending status of the WAKEUPTIMER Interrupt */
1006:Drivers/STM32L4xx_HAL_Driver/Src/stm32l4xx_hal_rtc_ex.c ****   if (__HAL_RTC_WAKEUPTIMER_GET_FLAG(hrtc, RTC_FLAG_WUTF) != 0U)
1007:Drivers/STM32L4xx_HAL_Driver/Src/stm32l4xx_hal_rtc_ex.c ****   {
1008:Drivers/STM32L4xx_HAL_Driver/Src/stm32l4xx_hal_rtc_ex.c ****     /* Clear the WAKEUPTIMER interrupt pending bit */
1009:Drivers/STM32L4xx_HAL_Driver/Src/stm32l4xx_hal_rtc_ex.c ****     __HAL_RTC_WAKEUPTIMER_CLEAR_FLAG(hrtc, RTC_FLAG_WUTF);
1010:Drivers/STM32L4xx_HAL_Driver/Src/stm32l4xx_hal_rtc_ex.c **** #endif
1011:Drivers/STM32L4xx_HAL_Driver/Src/stm32l4xx_hal_rtc_ex.c **** 
1012:Drivers/STM32L4xx_HAL_Driver/Src/stm32l4xx_hal_rtc_ex.c ****     /* WAKEUPTIMER callback */
1013:Drivers/STM32L4xx_HAL_Driver/Src/stm32l4xx_hal_rtc_ex.c **** #if (USE_HAL_RTC_REGISTER_CALLBACKS == 1)
1014:Drivers/STM32L4xx_HAL_Driver/Src/stm32l4xx_hal_rtc_ex.c ****     /* Call WakeUpTimerEvent registered Callback */
1015:Drivers/STM32L4xx_HAL_Driver/Src/stm32l4xx_hal_rtc_ex.c ****     hrtc->WakeUpTimerEventCallback(hrtc);
1016:Drivers/STM32L4xx_HAL_Driver/Src/stm32l4xx_hal_rtc_ex.c **** #else
1017:Drivers/STM32L4xx_HAL_Driver/Src/stm32l4xx_hal_rtc_ex.c ****     HAL_RTCEx_WakeUpTimerEventCallback(hrtc);
1018:Drivers/STM32L4xx_HAL_Driver/Src/stm32l4xx_hal_rtc_ex.c **** #endif /* USE_HAL_RTC_REGISTER_CALLBACKS */
1019:Drivers/STM32L4xx_HAL_Driver/Src/stm32l4xx_hal_rtc_ex.c ****   }
1020:Drivers/STM32L4xx_HAL_Driver/Src/stm32l4xx_hal_rtc_ex.c **** 
1021:Drivers/STM32L4xx_HAL_Driver/Src/stm32l4xx_hal_rtc_ex.c ****   /* Change RTC state */
1022:Drivers/STM32L4xx_HAL_Driver/Src/stm32l4xx_hal_rtc_ex.c ****   hrtc->State = HAL_RTC_STATE_READY;
1023:Drivers/STM32L4xx_HAL_Driver/Src/stm32l4xx_hal_rtc_ex.c **** }
1024:Drivers/STM32L4xx_HAL_Driver/Src/stm32l4xx_hal_rtc_ex.c **** 
1025:Drivers/STM32L4xx_HAL_Driver/Src/stm32l4xx_hal_rtc_ex.c **** /**
1026:Drivers/STM32L4xx_HAL_Driver/Src/stm32l4xx_hal_rtc_ex.c ****   * @brief  Wake Up Timer callback.
1027:Drivers/STM32L4xx_HAL_Driver/Src/stm32l4xx_hal_rtc_ex.c ****   * @param  hrtc RTC handle
1028:Drivers/STM32L4xx_HAL_Driver/Src/stm32l4xx_hal_rtc_ex.c ****   * @retval None
1029:Drivers/STM32L4xx_HAL_Driver/Src/stm32l4xx_hal_rtc_ex.c ****   */
1030:Drivers/STM32L4xx_HAL_Driver/Src/stm32l4xx_hal_rtc_ex.c **** __weak void HAL_RTCEx_WakeUpTimerEventCallback(RTC_HandleTypeDef *hrtc)
1031:Drivers/STM32L4xx_HAL_Driver/Src/stm32l4xx_hal_rtc_ex.c **** {
 1304              		.loc 1 1031 1 is_stmt 1 view -0
 1305              		.cfi_startproc
 1306              		@ args = 0, pretend = 0, frame = 0
 1307              		@ frame_needed = 0, uses_anonymous_args = 0
 1308              		@ link register save eliminated.
1032:Drivers/STM32L4xx_HAL_Driver/Src/stm32l4xx_hal_rtc_ex.c ****   /* Prevent unused argument(s) compilation warning */
ARM GAS  /tmp/cc49nhBG.s 			page 43


1033:Drivers/STM32L4xx_HAL_Driver/Src/stm32l4xx_hal_rtc_ex.c ****   UNUSED(hrtc);
 1309              		.loc 1 1033 3 view .LVU446
1034:Drivers/STM32L4xx_HAL_Driver/Src/stm32l4xx_hal_rtc_ex.c **** 
1035:Drivers/STM32L4xx_HAL_Driver/Src/stm32l4xx_hal_rtc_ex.c ****   /* NOTE : This function should not be modified, when the callback is needed,
1036:Drivers/STM32L4xx_HAL_Driver/Src/stm32l4xx_hal_rtc_ex.c ****             the HAL_RTCEx_WakeUpTimerEventCallback could be implemented in the user file
1037:Drivers/STM32L4xx_HAL_Driver/Src/stm32l4xx_hal_rtc_ex.c ****    */
1038:Drivers/STM32L4xx_HAL_Driver/Src/stm32l4xx_hal_rtc_ex.c **** }
 1310              		.loc 1 1038 1 is_stmt 0 view .LVU447
 1311 0000 7047     		bx	lr
 1312              		.cfi_endproc
 1313              	.LFE146:
 1315              		.section	.text.HAL_RTCEx_WakeUpTimerIRQHandler,"ax",%progbits
 1316              		.align	1
 1317              		.global	HAL_RTCEx_WakeUpTimerIRQHandler
 1318              		.syntax unified
 1319              		.thumb
 1320              		.thumb_func
 1321              		.fpu fpv4-sp-d16
 1323              	HAL_RTCEx_WakeUpTimerIRQHandler:
 1324              	.LVL86:
 1325              	.LFB145:
 994:Drivers/STM32L4xx_HAL_Driver/Src/stm32l4xx_hal_rtc_ex.c ****   /* Clear the EXTI's line Flag for RTC WakeUpTimer */
 1326              		.loc 1 994 1 is_stmt 1 view -0
 1327              		.cfi_startproc
 1328              		@ args = 0, pretend = 0, frame = 0
 1329              		@ frame_needed = 0, uses_anonymous_args = 0
 994:Drivers/STM32L4xx_HAL_Driver/Src/stm32l4xx_hal_rtc_ex.c ****   /* Clear the EXTI's line Flag for RTC WakeUpTimer */
 1330              		.loc 1 994 1 is_stmt 0 view .LVU449
 1331 0000 10B5     		push	{r4, lr}
 1332              	.LCFI9:
 1333              		.cfi_def_cfa_offset 8
 1334              		.cfi_offset 4, -8
 1335              		.cfi_offset 14, -4
 1336 0002 0446     		mov	r4, r0
 996:Drivers/STM32L4xx_HAL_Driver/Src/stm32l4xx_hal_rtc_ex.c **** 
 1337              		.loc 1 996 3 is_stmt 1 view .LVU450
 1338 0004 084B     		ldr	r3, .L74
 1339 0006 4FF48012 		mov	r2, #1048576
 1340 000a 5A61     		str	r2, [r3, #20]
1000:Drivers/STM32L4xx_HAL_Driver/Src/stm32l4xx_hal_rtc_ex.c ****   {
 1341              		.loc 1 1000 3 view .LVU451
1000:Drivers/STM32L4xx_HAL_Driver/Src/stm32l4xx_hal_rtc_ex.c ****   {
 1342              		.loc 1 1000 12 is_stmt 0 view .LVU452
 1343 000c 0368     		ldr	r3, [r0]
1000:Drivers/STM32L4xx_HAL_Driver/Src/stm32l4xx_hal_rtc_ex.c ****   {
 1344              		.loc 1 1000 22 view .LVU453
 1345 000e 5A6D     		ldr	r2, [r3, #84]
1000:Drivers/STM32L4xx_HAL_Driver/Src/stm32l4xx_hal_rtc_ex.c ****   {
 1346              		.loc 1 1000 6 view .LVU454
 1347 0010 12F0040F 		tst	r2, #4
 1348 0014 03D1     		bne	.L73
 1349              	.LVL87:
 1350              	.L71:
1022:Drivers/STM32L4xx_HAL_Driver/Src/stm32l4xx_hal_rtc_ex.c **** }
 1351              		.loc 1 1022 3 is_stmt 1 view .LVU455
1022:Drivers/STM32L4xx_HAL_Driver/Src/stm32l4xx_hal_rtc_ex.c **** }
 1352              		.loc 1 1022 15 is_stmt 0 view .LVU456
ARM GAS  /tmp/cc49nhBG.s 			page 44


 1353 0016 0123     		movs	r3, #1
 1354 0018 84F82930 		strb	r3, [r4, #41]
1023:Drivers/STM32L4xx_HAL_Driver/Src/stm32l4xx_hal_rtc_ex.c **** 
 1355              		.loc 1 1023 1 view .LVU457
 1356 001c 10BD     		pop	{r4, pc}
 1357              	.LVL88:
 1358              	.L73:
1003:Drivers/STM32L4xx_HAL_Driver/Src/stm32l4xx_hal_rtc_ex.c **** #else
 1359              		.loc 1 1003 5 is_stmt 1 view .LVU458
1003:Drivers/STM32L4xx_HAL_Driver/Src/stm32l4xx_hal_rtc_ex.c **** #else
 1360              		.loc 1 1003 25 is_stmt 0 view .LVU459
 1361 001e 0422     		movs	r2, #4
 1362 0020 DA65     		str	r2, [r3, #92]
1017:Drivers/STM32L4xx_HAL_Driver/Src/stm32l4xx_hal_rtc_ex.c **** #endif /* USE_HAL_RTC_REGISTER_CALLBACKS */
 1363              		.loc 1 1017 5 is_stmt 1 view .LVU460
 1364 0022 FFF7FEFF 		bl	HAL_RTCEx_WakeUpTimerEventCallback
 1365              	.LVL89:
1017:Drivers/STM32L4xx_HAL_Driver/Src/stm32l4xx_hal_rtc_ex.c **** #endif /* USE_HAL_RTC_REGISTER_CALLBACKS */
 1366              		.loc 1 1017 5 is_stmt 0 view .LVU461
 1367 0026 F6E7     		b	.L71
 1368              	.L75:
 1369              		.align	2
 1370              	.L74:
 1371 0028 00040140 		.word	1073808384
 1372              		.cfi_endproc
 1373              	.LFE145:
 1375              		.section	.text.HAL_RTCEx_PollForWakeUpTimerEvent,"ax",%progbits
 1376              		.align	1
 1377              		.global	HAL_RTCEx_PollForWakeUpTimerEvent
 1378              		.syntax unified
 1379              		.thumb
 1380              		.thumb_func
 1381              		.fpu fpv4-sp-d16
 1383              	HAL_RTCEx_PollForWakeUpTimerEvent:
 1384              	.LVL90:
 1385              	.LFB147:
1039:Drivers/STM32L4xx_HAL_Driver/Src/stm32l4xx_hal_rtc_ex.c **** 
1040:Drivers/STM32L4xx_HAL_Driver/Src/stm32l4xx_hal_rtc_ex.c **** 
1041:Drivers/STM32L4xx_HAL_Driver/Src/stm32l4xx_hal_rtc_ex.c **** /**
1042:Drivers/STM32L4xx_HAL_Driver/Src/stm32l4xx_hal_rtc_ex.c ****   * @brief  Handle Wake Up Timer Polling.
1043:Drivers/STM32L4xx_HAL_Driver/Src/stm32l4xx_hal_rtc_ex.c ****   * @param  hrtc RTC handle
1044:Drivers/STM32L4xx_HAL_Driver/Src/stm32l4xx_hal_rtc_ex.c ****   * @param  Timeout Timeout duration
1045:Drivers/STM32L4xx_HAL_Driver/Src/stm32l4xx_hal_rtc_ex.c ****   * @retval HAL status
1046:Drivers/STM32L4xx_HAL_Driver/Src/stm32l4xx_hal_rtc_ex.c ****   */
1047:Drivers/STM32L4xx_HAL_Driver/Src/stm32l4xx_hal_rtc_ex.c **** HAL_StatusTypeDef HAL_RTCEx_PollForWakeUpTimerEvent(RTC_HandleTypeDef *hrtc, uint32_t Timeout)
1048:Drivers/STM32L4xx_HAL_Driver/Src/stm32l4xx_hal_rtc_ex.c **** {
 1386              		.loc 1 1048 1 is_stmt 1 view -0
 1387              		.cfi_startproc
 1388              		@ args = 0, pretend = 0, frame = 0
 1389              		@ frame_needed = 0, uses_anonymous_args = 0
 1390              		.loc 1 1048 1 is_stmt 0 view .LVU463
 1391 0000 70B5     		push	{r4, r5, r6, lr}
 1392              	.LCFI10:
 1393              		.cfi_def_cfa_offset 16
 1394              		.cfi_offset 4, -16
 1395              		.cfi_offset 5, -12
 1396              		.cfi_offset 6, -8
ARM GAS  /tmp/cc49nhBG.s 			page 45


 1397              		.cfi_offset 14, -4
 1398 0002 0446     		mov	r4, r0
 1399 0004 0D46     		mov	r5, r1
1049:Drivers/STM32L4xx_HAL_Driver/Src/stm32l4xx_hal_rtc_ex.c ****   uint32_t tickstart = HAL_GetTick();
 1400              		.loc 1 1049 3 is_stmt 1 view .LVU464
 1401              		.loc 1 1049 24 is_stmt 0 view .LVU465
 1402 0006 FFF7FEFF 		bl	HAL_GetTick
 1403              	.LVL91:
 1404              		.loc 1 1049 24 view .LVU466
 1405 000a 0646     		mov	r6, r0
 1406              	.LVL92:
1050:Drivers/STM32L4xx_HAL_Driver/Src/stm32l4xx_hal_rtc_ex.c **** 
1051:Drivers/STM32L4xx_HAL_Driver/Src/stm32l4xx_hal_rtc_ex.c ****   while (__HAL_RTC_WAKEUPTIMER_GET_FLAG(hrtc, RTC_FLAG_WUTF) == 0U)
 1407              		.loc 1 1051 3 is_stmt 1 view .LVU467
 1408              	.L78:
 1409              		.loc 1 1051 9 view .LVU468
 1410              		.loc 1 1051 10 is_stmt 0 view .LVU469
 1411 000c 2368     		ldr	r3, [r4]
 1412 000e 1A6D     		ldr	r2, [r3, #80]
 1413              		.loc 1 1051 9 view .LVU470
 1414 0010 12F0040F 		tst	r2, #4
 1415 0014 0DD1     		bne	.L83
1052:Drivers/STM32L4xx_HAL_Driver/Src/stm32l4xx_hal_rtc_ex.c ****   {
1053:Drivers/STM32L4xx_HAL_Driver/Src/stm32l4xx_hal_rtc_ex.c ****     if (Timeout != HAL_MAX_DELAY)
 1416              		.loc 1 1053 5 is_stmt 1 view .LVU471
 1417              		.loc 1 1053 8 is_stmt 0 view .LVU472
 1418 0016 B5F1FF3F 		cmp	r5, #-1
 1419 001a F7D0     		beq	.L78
1054:Drivers/STM32L4xx_HAL_Driver/Src/stm32l4xx_hal_rtc_ex.c ****     {
1055:Drivers/STM32L4xx_HAL_Driver/Src/stm32l4xx_hal_rtc_ex.c ****       if (((HAL_GetTick() - tickstart) > Timeout) || (Timeout == 0U))
 1420              		.loc 1 1055 7 is_stmt 1 view .LVU473
 1421              		.loc 1 1055 13 is_stmt 0 view .LVU474
 1422 001c FFF7FEFF 		bl	HAL_GetTick
 1423              	.LVL93:
 1424              		.loc 1 1055 27 view .LVU475
 1425 0020 801B     		subs	r0, r0, r6
 1426              		.loc 1 1055 10 view .LVU476
 1427 0022 A842     		cmp	r0, r5
 1428 0024 01D8     		bhi	.L79
 1429              		.loc 1 1055 51 discriminator 1 view .LVU477
 1430 0026 002D     		cmp	r5, #0
 1431 0028 F0D1     		bne	.L78
 1432              	.L79:
1056:Drivers/STM32L4xx_HAL_Driver/Src/stm32l4xx_hal_rtc_ex.c ****       {
1057:Drivers/STM32L4xx_HAL_Driver/Src/stm32l4xx_hal_rtc_ex.c ****         hrtc->State = HAL_RTC_STATE_TIMEOUT;
 1433              		.loc 1 1057 9 is_stmt 1 view .LVU478
 1434              		.loc 1 1057 21 is_stmt 0 view .LVU479
 1435 002a 0320     		movs	r0, #3
 1436 002c 84F82900 		strb	r0, [r4, #41]
1058:Drivers/STM32L4xx_HAL_Driver/Src/stm32l4xx_hal_rtc_ex.c ****         return HAL_TIMEOUT;
 1437              		.loc 1 1058 9 is_stmt 1 view .LVU480
 1438              		.loc 1 1058 16 is_stmt 0 view .LVU481
 1439 0030 05E0     		b	.L80
 1440              	.L83:
1059:Drivers/STM32L4xx_HAL_Driver/Src/stm32l4xx_hal_rtc_ex.c ****       }
1060:Drivers/STM32L4xx_HAL_Driver/Src/stm32l4xx_hal_rtc_ex.c ****     }
1061:Drivers/STM32L4xx_HAL_Driver/Src/stm32l4xx_hal_rtc_ex.c ****   }
ARM GAS  /tmp/cc49nhBG.s 			page 46


1062:Drivers/STM32L4xx_HAL_Driver/Src/stm32l4xx_hal_rtc_ex.c **** 
1063:Drivers/STM32L4xx_HAL_Driver/Src/stm32l4xx_hal_rtc_ex.c ****   /* Clear the WAKEUPTIMER Flag */
1064:Drivers/STM32L4xx_HAL_Driver/Src/stm32l4xx_hal_rtc_ex.c ****   __HAL_RTC_WAKEUPTIMER_CLEAR_FLAG(hrtc, RTC_FLAG_WUTF);
 1441              		.loc 1 1064 3 is_stmt 1 view .LVU482
 1442 0032 0422     		movs	r2, #4
 1443 0034 DA65     		str	r2, [r3, #92]
1065:Drivers/STM32L4xx_HAL_Driver/Src/stm32l4xx_hal_rtc_ex.c **** 
1066:Drivers/STM32L4xx_HAL_Driver/Src/stm32l4xx_hal_rtc_ex.c ****   /* Change RTC state */
1067:Drivers/STM32L4xx_HAL_Driver/Src/stm32l4xx_hal_rtc_ex.c ****   hrtc->State = HAL_RTC_STATE_READY;
 1444              		.loc 1 1067 3 view .LVU483
 1445              		.loc 1 1067 15 is_stmt 0 view .LVU484
 1446 0036 0123     		movs	r3, #1
 1447 0038 84F82930 		strb	r3, [r4, #41]
1068:Drivers/STM32L4xx_HAL_Driver/Src/stm32l4xx_hal_rtc_ex.c **** 
1069:Drivers/STM32L4xx_HAL_Driver/Src/stm32l4xx_hal_rtc_ex.c ****   return HAL_OK;
 1448              		.loc 1 1069 3 is_stmt 1 view .LVU485
 1449              		.loc 1 1069 10 is_stmt 0 view .LVU486
 1450 003c 0020     		movs	r0, #0
 1451              	.L80:
1070:Drivers/STM32L4xx_HAL_Driver/Src/stm32l4xx_hal_rtc_ex.c **** }
 1452              		.loc 1 1070 1 view .LVU487
 1453 003e 70BD     		pop	{r4, r5, r6, pc}
 1454              		.loc 1 1070 1 view .LVU488
 1455              		.cfi_endproc
 1456              	.LFE147:
 1458              		.section	.text.HAL_RTCEx_SetSmoothCalib,"ax",%progbits
 1459              		.align	1
 1460              		.global	HAL_RTCEx_SetSmoothCalib
 1461              		.syntax unified
 1462              		.thumb
 1463              		.thumb_func
 1464              		.fpu fpv4-sp-d16
 1466              	HAL_RTCEx_SetSmoothCalib:
 1467              	.LVL94:
 1468              	.LFB148:
1071:Drivers/STM32L4xx_HAL_Driver/Src/stm32l4xx_hal_rtc_ex.c **** 
1072:Drivers/STM32L4xx_HAL_Driver/Src/stm32l4xx_hal_rtc_ex.c **** /**
1073:Drivers/STM32L4xx_HAL_Driver/Src/stm32l4xx_hal_rtc_ex.c ****   * @}
1074:Drivers/STM32L4xx_HAL_Driver/Src/stm32l4xx_hal_rtc_ex.c ****   */
1075:Drivers/STM32L4xx_HAL_Driver/Src/stm32l4xx_hal_rtc_ex.c **** 
1076:Drivers/STM32L4xx_HAL_Driver/Src/stm32l4xx_hal_rtc_ex.c **** 
1077:Drivers/STM32L4xx_HAL_Driver/Src/stm32l4xx_hal_rtc_ex.c **** /** @addtogroup RTCEx_Exported_Functions_Group3
1078:Drivers/STM32L4xx_HAL_Driver/Src/stm32l4xx_hal_rtc_ex.c ****   * @brief    Extended Peripheral Control functions
1079:Drivers/STM32L4xx_HAL_Driver/Src/stm32l4xx_hal_rtc_ex.c ****   *
1080:Drivers/STM32L4xx_HAL_Driver/Src/stm32l4xx_hal_rtc_ex.c **** @verbatim
1081:Drivers/STM32L4xx_HAL_Driver/Src/stm32l4xx_hal_rtc_ex.c ****  ===============================================================================
1082:Drivers/STM32L4xx_HAL_Driver/Src/stm32l4xx_hal_rtc_ex.c ****               ##### Extended Peripheral Control functions #####
1083:Drivers/STM32L4xx_HAL_Driver/Src/stm32l4xx_hal_rtc_ex.c ****  ===============================================================================
1084:Drivers/STM32L4xx_HAL_Driver/Src/stm32l4xx_hal_rtc_ex.c ****     [..]
1085:Drivers/STM32L4xx_HAL_Driver/Src/stm32l4xx_hal_rtc_ex.c ****     This subsection provides functions allowing to
1086:Drivers/STM32L4xx_HAL_Driver/Src/stm32l4xx_hal_rtc_ex.c ****       (+) Write a data in a specified RTC Backup data register
1087:Drivers/STM32L4xx_HAL_Driver/Src/stm32l4xx_hal_rtc_ex.c ****       (+) Read a data in a specified RTC Backup data register
1088:Drivers/STM32L4xx_HAL_Driver/Src/stm32l4xx_hal_rtc_ex.c ****       (+) Set the Coarse calibration parameters.
1089:Drivers/STM32L4xx_HAL_Driver/Src/stm32l4xx_hal_rtc_ex.c ****       (+) Deactivate the Coarse calibration parameters
1090:Drivers/STM32L4xx_HAL_Driver/Src/stm32l4xx_hal_rtc_ex.c ****       (+) Set the Smooth calibration parameters.
1091:Drivers/STM32L4xx_HAL_Driver/Src/stm32l4xx_hal_rtc_ex.c ****       (+) STM32L412xx and STM32L422xx only : Set Low Power calibration parameter.
1092:Drivers/STM32L4xx_HAL_Driver/Src/stm32l4xx_hal_rtc_ex.c ****       (+) Configure the Synchronization Shift Control Settings.
ARM GAS  /tmp/cc49nhBG.s 			page 47


1093:Drivers/STM32L4xx_HAL_Driver/Src/stm32l4xx_hal_rtc_ex.c ****       (+) Configure the Calibration Pinout (RTC_CALIB) Selection (1Hz or 512Hz).
1094:Drivers/STM32L4xx_HAL_Driver/Src/stm32l4xx_hal_rtc_ex.c ****       (+) Deactivate the Calibration Pinout (RTC_CALIB) Selection (1Hz or 512Hz).
1095:Drivers/STM32L4xx_HAL_Driver/Src/stm32l4xx_hal_rtc_ex.c ****       (+) Enable the RTC reference clock detection.
1096:Drivers/STM32L4xx_HAL_Driver/Src/stm32l4xx_hal_rtc_ex.c ****       (+) Disable the RTC reference clock detection.
1097:Drivers/STM32L4xx_HAL_Driver/Src/stm32l4xx_hal_rtc_ex.c ****       (+) Enable the Bypass Shadow feature.
1098:Drivers/STM32L4xx_HAL_Driver/Src/stm32l4xx_hal_rtc_ex.c ****       (+) Disable the Bypass Shadow feature.
1099:Drivers/STM32L4xx_HAL_Driver/Src/stm32l4xx_hal_rtc_ex.c **** 
1100:Drivers/STM32L4xx_HAL_Driver/Src/stm32l4xx_hal_rtc_ex.c **** @endverbatim
1101:Drivers/STM32L4xx_HAL_Driver/Src/stm32l4xx_hal_rtc_ex.c ****   * @{
1102:Drivers/STM32L4xx_HAL_Driver/Src/stm32l4xx_hal_rtc_ex.c ****   */
1103:Drivers/STM32L4xx_HAL_Driver/Src/stm32l4xx_hal_rtc_ex.c **** 
1104:Drivers/STM32L4xx_HAL_Driver/Src/stm32l4xx_hal_rtc_ex.c **** 
1105:Drivers/STM32L4xx_HAL_Driver/Src/stm32l4xx_hal_rtc_ex.c **** /**
1106:Drivers/STM32L4xx_HAL_Driver/Src/stm32l4xx_hal_rtc_ex.c ****   * @brief  Set the Smooth calibration parameters.
1107:Drivers/STM32L4xx_HAL_Driver/Src/stm32l4xx_hal_rtc_ex.c ****   * @param  hrtc RTC handle
1108:Drivers/STM32L4xx_HAL_Driver/Src/stm32l4xx_hal_rtc_ex.c ****   * @param  SmoothCalibPeriod Select the Smooth Calibration Period.
1109:Drivers/STM32L4xx_HAL_Driver/Src/stm32l4xx_hal_rtc_ex.c ****   *          This parameter can be can be one of the following values :
1110:Drivers/STM32L4xx_HAL_Driver/Src/stm32l4xx_hal_rtc_ex.c ****   *             @arg RTC_SMOOTHCALIB_PERIOD_32SEC: The smooth calibration period is 32s.
1111:Drivers/STM32L4xx_HAL_Driver/Src/stm32l4xx_hal_rtc_ex.c ****   *             @arg RTC_SMOOTHCALIB_PERIOD_16SEC: The smooth calibration period is 16s.
1112:Drivers/STM32L4xx_HAL_Driver/Src/stm32l4xx_hal_rtc_ex.c ****   *             @arg RTC_SMOOTHCALIB_PERIOD_8SEC: The smooth calibration period is 8s.
1113:Drivers/STM32L4xx_HAL_Driver/Src/stm32l4xx_hal_rtc_ex.c ****   * @param  SmoothCalibPlusPulses Select to Set or reset the CALP bit.
1114:Drivers/STM32L4xx_HAL_Driver/Src/stm32l4xx_hal_rtc_ex.c ****   *          This parameter can be one of the following values:
1115:Drivers/STM32L4xx_HAL_Driver/Src/stm32l4xx_hal_rtc_ex.c ****   *             @arg RTC_SMOOTHCALIB_PLUSPULSES_SET: Add one RTCCLK pulse every 2*11 pulses.
1116:Drivers/STM32L4xx_HAL_Driver/Src/stm32l4xx_hal_rtc_ex.c ****   *             @arg RTC_SMOOTHCALIB_PLUSPULSES_RESET: No RTCCLK pulses are added.
1117:Drivers/STM32L4xx_HAL_Driver/Src/stm32l4xx_hal_rtc_ex.c ****   * @param  SmoothCalibMinusPulsesValue Select the value of CALM[8:0] bits.
1118:Drivers/STM32L4xx_HAL_Driver/Src/stm32l4xx_hal_rtc_ex.c ****   *          This parameter can be one any value from 0 to 0x000001FF.
1119:Drivers/STM32L4xx_HAL_Driver/Src/stm32l4xx_hal_rtc_ex.c ****   * @note   To deactivate the smooth calibration, the field SmoothCalibPlusPulses
1120:Drivers/STM32L4xx_HAL_Driver/Src/stm32l4xx_hal_rtc_ex.c ****   *         must be equal to SMOOTHCALIB_PLUSPULSES_RESET and the field
1121:Drivers/STM32L4xx_HAL_Driver/Src/stm32l4xx_hal_rtc_ex.c ****   *         SmoothCalibMinusPulsesValue must be equal to 0.
1122:Drivers/STM32L4xx_HAL_Driver/Src/stm32l4xx_hal_rtc_ex.c ****   * @retval HAL status
1123:Drivers/STM32L4xx_HAL_Driver/Src/stm32l4xx_hal_rtc_ex.c ****   */
1124:Drivers/STM32L4xx_HAL_Driver/Src/stm32l4xx_hal_rtc_ex.c **** HAL_StatusTypeDef HAL_RTCEx_SetSmoothCalib(RTC_HandleTypeDef *hrtc, uint32_t SmoothCalibPeriod, uin
1125:Drivers/STM32L4xx_HAL_Driver/Src/stm32l4xx_hal_rtc_ex.c **** {
 1469              		.loc 1 1125 1 is_stmt 1 view -0
 1470              		.cfi_startproc
 1471              		@ args = 0, pretend = 0, frame = 0
 1472              		@ frame_needed = 0, uses_anonymous_args = 0
 1473              		.loc 1 1125 1 is_stmt 0 view .LVU490
 1474 0000 2DE9F041 		push	{r4, r5, r6, r7, r8, lr}
 1475              	.LCFI11:
 1476              		.cfi_def_cfa_offset 24
 1477              		.cfi_offset 4, -24
 1478              		.cfi_offset 5, -20
 1479              		.cfi_offset 6, -16
 1480              		.cfi_offset 7, -12
 1481              		.cfi_offset 8, -8
 1482              		.cfi_offset 14, -4
 1483 0004 1E46     		mov	r6, r3
1126:Drivers/STM32L4xx_HAL_Driver/Src/stm32l4xx_hal_rtc_ex.c ****   uint32_t tickstart;
 1484              		.loc 1 1126 3 is_stmt 1 view .LVU491
1127:Drivers/STM32L4xx_HAL_Driver/Src/stm32l4xx_hal_rtc_ex.c **** 
1128:Drivers/STM32L4xx_HAL_Driver/Src/stm32l4xx_hal_rtc_ex.c ****   /* Check the parameters */
1129:Drivers/STM32L4xx_HAL_Driver/Src/stm32l4xx_hal_rtc_ex.c ****   assert_param(IS_RTC_SMOOTH_CALIB_PERIOD(SmoothCalibPeriod));
 1485              		.loc 1 1129 3 view .LVU492
1130:Drivers/STM32L4xx_HAL_Driver/Src/stm32l4xx_hal_rtc_ex.c ****   assert_param(IS_RTC_SMOOTH_CALIB_PLUS(SmoothCalibPlusPulses));
 1486              		.loc 1 1130 3 view .LVU493
1131:Drivers/STM32L4xx_HAL_Driver/Src/stm32l4xx_hal_rtc_ex.c ****   assert_param(IS_RTC_SMOOTH_CALIB_MINUS(SmoothCalibMinusPulsesValue));
ARM GAS  /tmp/cc49nhBG.s 			page 48


 1487              		.loc 1 1131 3 view .LVU494
1132:Drivers/STM32L4xx_HAL_Driver/Src/stm32l4xx_hal_rtc_ex.c **** 
1133:Drivers/STM32L4xx_HAL_Driver/Src/stm32l4xx_hal_rtc_ex.c ****   /* Process Locked */
1134:Drivers/STM32L4xx_HAL_Driver/Src/stm32l4xx_hal_rtc_ex.c ****   __HAL_LOCK(hrtc);
 1488              		.loc 1 1134 3 view .LVU495
 1489              		.loc 1 1134 3 view .LVU496
 1490 0006 90F82830 		ldrb	r3, [r0, #40]	@ zero_extendqisi2
 1491              	.LVL95:
 1492              		.loc 1 1134 3 is_stmt 0 view .LVU497
 1493 000a 012B     		cmp	r3, #1
 1494 000c 41D0     		beq	.L89
 1495 000e 0446     		mov	r4, r0
 1496 0010 0D46     		mov	r5, r1
 1497 0012 1746     		mov	r7, r2
 1498              		.loc 1 1134 3 is_stmt 1 discriminator 2 view .LVU498
 1499 0014 0123     		movs	r3, #1
 1500 0016 80F82830 		strb	r3, [r0, #40]
 1501              		.loc 1 1134 3 discriminator 2 view .LVU499
1135:Drivers/STM32L4xx_HAL_Driver/Src/stm32l4xx_hal_rtc_ex.c **** 
1136:Drivers/STM32L4xx_HAL_Driver/Src/stm32l4xx_hal_rtc_ex.c ****   hrtc->State = HAL_RTC_STATE_BUSY;
 1502              		.loc 1 1136 3 discriminator 2 view .LVU500
 1503              		.loc 1 1136 15 is_stmt 0 discriminator 2 view .LVU501
 1504 001a 0223     		movs	r3, #2
 1505 001c 80F82930 		strb	r3, [r0, #41]
1137:Drivers/STM32L4xx_HAL_Driver/Src/stm32l4xx_hal_rtc_ex.c **** 
1138:Drivers/STM32L4xx_HAL_Driver/Src/stm32l4xx_hal_rtc_ex.c ****   /* Disable the write protection for RTC registers */
1139:Drivers/STM32L4xx_HAL_Driver/Src/stm32l4xx_hal_rtc_ex.c ****   __HAL_RTC_WRITEPROTECTION_DISABLE(hrtc);
 1506              		.loc 1 1139 3 is_stmt 1 discriminator 2 view .LVU502
 1507              		.loc 1 1139 3 discriminator 2 view .LVU503
 1508 0020 0368     		ldr	r3, [r0]
 1509 0022 CA22     		movs	r2, #202
 1510              	.LVL96:
 1511              		.loc 1 1139 3 is_stmt 0 discriminator 2 view .LVU504
 1512 0024 5A62     		str	r2, [r3, #36]
 1513              		.loc 1 1139 3 is_stmt 1 discriminator 2 view .LVU505
 1514 0026 0368     		ldr	r3, [r0]
 1515 0028 5322     		movs	r2, #83
 1516 002a 5A62     		str	r2, [r3, #36]
 1517              		.loc 1 1139 3 discriminator 2 view .LVU506
1140:Drivers/STM32L4xx_HAL_Driver/Src/stm32l4xx_hal_rtc_ex.c **** 
1141:Drivers/STM32L4xx_HAL_Driver/Src/stm32l4xx_hal_rtc_ex.c ****   /* check if a calibration is pending*/
1142:Drivers/STM32L4xx_HAL_Driver/Src/stm32l4xx_hal_rtc_ex.c **** #if defined(STM32L412xx) || defined(STM32L422xx) || defined (STM32L4P5xx) || defined (STM32L4Q5xx)
1143:Drivers/STM32L4xx_HAL_Driver/Src/stm32l4xx_hal_rtc_ex.c ****   if ((hrtc->Instance->ICSR & RTC_ICSR_RECALPF) != 0U)
 1518              		.loc 1 1143 3 discriminator 2 view .LVU507
 1519              		.loc 1 1143 12 is_stmt 0 discriminator 2 view .LVU508
 1520 002c 0368     		ldr	r3, [r0]
 1521              		.loc 1 1143 22 discriminator 2 view .LVU509
 1522 002e DB68     		ldr	r3, [r3, #12]
 1523              		.loc 1 1143 6 discriminator 2 view .LVU510
 1524 0030 13F4803F 		tst	r3, #65536
 1525 0034 14D1     		bne	.L91
 1526              	.LVL97:
 1527              	.L86:
1144:Drivers/STM32L4xx_HAL_Driver/Src/stm32l4xx_hal_rtc_ex.c **** #else
1145:Drivers/STM32L4xx_HAL_Driver/Src/stm32l4xx_hal_rtc_ex.c ****   if ((hrtc->Instance->ISR & RTC_ISR_RECALPF) != 0U)
1146:Drivers/STM32L4xx_HAL_Driver/Src/stm32l4xx_hal_rtc_ex.c **** #endif
1147:Drivers/STM32L4xx_HAL_Driver/Src/stm32l4xx_hal_rtc_ex.c ****   {
ARM GAS  /tmp/cc49nhBG.s 			page 49


1148:Drivers/STM32L4xx_HAL_Driver/Src/stm32l4xx_hal_rtc_ex.c ****     tickstart = HAL_GetTick();
1149:Drivers/STM32L4xx_HAL_Driver/Src/stm32l4xx_hal_rtc_ex.c **** 
1150:Drivers/STM32L4xx_HAL_Driver/Src/stm32l4xx_hal_rtc_ex.c ****     /* check if a calibration is pending*/
1151:Drivers/STM32L4xx_HAL_Driver/Src/stm32l4xx_hal_rtc_ex.c **** #if defined(STM32L412xx) || defined(STM32L422xx) || defined (STM32L4P5xx) || defined (STM32L4Q5xx)
1152:Drivers/STM32L4xx_HAL_Driver/Src/stm32l4xx_hal_rtc_ex.c ****     while ((hrtc->Instance->ICSR & RTC_ICSR_RECALPF) != 0U)
1153:Drivers/STM32L4xx_HAL_Driver/Src/stm32l4xx_hal_rtc_ex.c **** #else
1154:Drivers/STM32L4xx_HAL_Driver/Src/stm32l4xx_hal_rtc_ex.c ****     while ((hrtc->Instance->ISR & RTC_ISR_RECALPF) != 0U)
1155:Drivers/STM32L4xx_HAL_Driver/Src/stm32l4xx_hal_rtc_ex.c **** #endif
1156:Drivers/STM32L4xx_HAL_Driver/Src/stm32l4xx_hal_rtc_ex.c ****     {
1157:Drivers/STM32L4xx_HAL_Driver/Src/stm32l4xx_hal_rtc_ex.c ****       if ((HAL_GetTick() - tickstart) > RTC_TIMEOUT_VALUE)
1158:Drivers/STM32L4xx_HAL_Driver/Src/stm32l4xx_hal_rtc_ex.c ****       {
1159:Drivers/STM32L4xx_HAL_Driver/Src/stm32l4xx_hal_rtc_ex.c ****         /* Enable the write protection for RTC registers */
1160:Drivers/STM32L4xx_HAL_Driver/Src/stm32l4xx_hal_rtc_ex.c ****         __HAL_RTC_WRITEPROTECTION_ENABLE(hrtc);
1161:Drivers/STM32L4xx_HAL_Driver/Src/stm32l4xx_hal_rtc_ex.c **** 
1162:Drivers/STM32L4xx_HAL_Driver/Src/stm32l4xx_hal_rtc_ex.c ****         /* Change RTC state */
1163:Drivers/STM32L4xx_HAL_Driver/Src/stm32l4xx_hal_rtc_ex.c ****         hrtc->State = HAL_RTC_STATE_TIMEOUT;
1164:Drivers/STM32L4xx_HAL_Driver/Src/stm32l4xx_hal_rtc_ex.c **** 
1165:Drivers/STM32L4xx_HAL_Driver/Src/stm32l4xx_hal_rtc_ex.c ****         /* Process Unlocked */
1166:Drivers/STM32L4xx_HAL_Driver/Src/stm32l4xx_hal_rtc_ex.c ****         __HAL_UNLOCK(hrtc);
1167:Drivers/STM32L4xx_HAL_Driver/Src/stm32l4xx_hal_rtc_ex.c **** 
1168:Drivers/STM32L4xx_HAL_Driver/Src/stm32l4xx_hal_rtc_ex.c ****         return HAL_TIMEOUT;
1169:Drivers/STM32L4xx_HAL_Driver/Src/stm32l4xx_hal_rtc_ex.c ****       }
1170:Drivers/STM32L4xx_HAL_Driver/Src/stm32l4xx_hal_rtc_ex.c ****     }
1171:Drivers/STM32L4xx_HAL_Driver/Src/stm32l4xx_hal_rtc_ex.c ****   }
1172:Drivers/STM32L4xx_HAL_Driver/Src/stm32l4xx_hal_rtc_ex.c **** 
1173:Drivers/STM32L4xx_HAL_Driver/Src/stm32l4xx_hal_rtc_ex.c ****   /* Configure the Smooth calibration settings */
1174:Drivers/STM32L4xx_HAL_Driver/Src/stm32l4xx_hal_rtc_ex.c ****   MODIFY_REG(hrtc->Instance->CALR, (RTC_CALR_CALP | RTC_CALR_CALW8 | RTC_CALR_CALW16 | RTC_CALR_CAL
 1528              		.loc 1 1174 3 is_stmt 1 view .LVU511
 1529 0036 2368     		ldr	r3, [r4]
 1530 0038 986A     		ldr	r0, [r3, #40]
 1531 003a 20F46140 		bic	r0, r0, #57600
 1532 003e 20F0FF00 		bic	r0, r0, #255
 1533 0042 3D43     		orrs	r5, r5, r7
 1534              	.LVL98:
 1535              		.loc 1 1174 3 is_stmt 0 view .LVU512
 1536 0044 2E43     		orrs	r6, r6, r5
 1537              	.LVL99:
 1538              		.loc 1 1174 3 view .LVU513
 1539 0046 3043     		orrs	r0, r0, r6
 1540 0048 9862     		str	r0, [r3, #40]
1175:Drivers/STM32L4xx_HAL_Driver/Src/stm32l4xx_hal_rtc_ex.c **** 
1176:Drivers/STM32L4xx_HAL_Driver/Src/stm32l4xx_hal_rtc_ex.c ****   /* Enable the write protection for RTC registers */
1177:Drivers/STM32L4xx_HAL_Driver/Src/stm32l4xx_hal_rtc_ex.c ****   __HAL_RTC_WRITEPROTECTION_ENABLE(hrtc);
 1541              		.loc 1 1177 3 is_stmt 1 view .LVU514
 1542              		.loc 1 1177 3 view .LVU515
 1543 004a 2368     		ldr	r3, [r4]
 1544 004c FF22     		movs	r2, #255
 1545 004e 5A62     		str	r2, [r3, #36]
 1546              		.loc 1 1177 3 view .LVU516
1178:Drivers/STM32L4xx_HAL_Driver/Src/stm32l4xx_hal_rtc_ex.c **** 
1179:Drivers/STM32L4xx_HAL_Driver/Src/stm32l4xx_hal_rtc_ex.c ****   /* Change RTC state */
1180:Drivers/STM32L4xx_HAL_Driver/Src/stm32l4xx_hal_rtc_ex.c ****   hrtc->State = HAL_RTC_STATE_READY;
 1547              		.loc 1 1180 3 view .LVU517
 1548              		.loc 1 1180 15 is_stmt 0 view .LVU518
 1549 0050 0123     		movs	r3, #1
 1550 0052 84F82930 		strb	r3, [r4, #41]
1181:Drivers/STM32L4xx_HAL_Driver/Src/stm32l4xx_hal_rtc_ex.c **** 
ARM GAS  /tmp/cc49nhBG.s 			page 50


1182:Drivers/STM32L4xx_HAL_Driver/Src/stm32l4xx_hal_rtc_ex.c ****   /* Process Unlocked */
1183:Drivers/STM32L4xx_HAL_Driver/Src/stm32l4xx_hal_rtc_ex.c ****   __HAL_UNLOCK(hrtc);
 1551              		.loc 1 1183 3 is_stmt 1 view .LVU519
 1552              		.loc 1 1183 3 view .LVU520
 1553 0056 0020     		movs	r0, #0
 1554 0058 84F82800 		strb	r0, [r4, #40]
 1555              		.loc 1 1183 3 view .LVU521
1184:Drivers/STM32L4xx_HAL_Driver/Src/stm32l4xx_hal_rtc_ex.c **** 
1185:Drivers/STM32L4xx_HAL_Driver/Src/stm32l4xx_hal_rtc_ex.c ****   return HAL_OK;
 1556              		.loc 1 1185 3 view .LVU522
 1557              	.LVL100:
 1558              	.L85:
1186:Drivers/STM32L4xx_HAL_Driver/Src/stm32l4xx_hal_rtc_ex.c **** }
 1559              		.loc 1 1186 1 is_stmt 0 view .LVU523
 1560 005c BDE8F081 		pop	{r4, r5, r6, r7, r8, pc}
 1561              	.LVL101:
 1562              	.L91:
1148:Drivers/STM32L4xx_HAL_Driver/Src/stm32l4xx_hal_rtc_ex.c **** 
 1563              		.loc 1 1148 5 is_stmt 1 view .LVU524
1148:Drivers/STM32L4xx_HAL_Driver/Src/stm32l4xx_hal_rtc_ex.c **** 
 1564              		.loc 1 1148 17 is_stmt 0 view .LVU525
 1565 0060 FFF7FEFF 		bl	HAL_GetTick
 1566              	.LVL102:
1148:Drivers/STM32L4xx_HAL_Driver/Src/stm32l4xx_hal_rtc_ex.c **** 
 1567              		.loc 1 1148 17 view .LVU526
 1568 0064 8046     		mov	r8, r0
 1569              	.LVL103:
1152:Drivers/STM32L4xx_HAL_Driver/Src/stm32l4xx_hal_rtc_ex.c **** #else
 1570              		.loc 1 1152 5 is_stmt 1 view .LVU527
 1571              	.L87:
1152:Drivers/STM32L4xx_HAL_Driver/Src/stm32l4xx_hal_rtc_ex.c **** #else
 1572              		.loc 1 1152 11 view .LVU528
1152:Drivers/STM32L4xx_HAL_Driver/Src/stm32l4xx_hal_rtc_ex.c **** #else
 1573              		.loc 1 1152 17 is_stmt 0 view .LVU529
 1574 0066 2368     		ldr	r3, [r4]
1152:Drivers/STM32L4xx_HAL_Driver/Src/stm32l4xx_hal_rtc_ex.c **** #else
 1575              		.loc 1 1152 27 view .LVU530
 1576 0068 DB68     		ldr	r3, [r3, #12]
1152:Drivers/STM32L4xx_HAL_Driver/Src/stm32l4xx_hal_rtc_ex.c **** #else
 1577              		.loc 1 1152 11 view .LVU531
 1578 006a 13F4803F 		tst	r3, #65536
 1579 006e E2D0     		beq	.L86
1157:Drivers/STM32L4xx_HAL_Driver/Src/stm32l4xx_hal_rtc_ex.c ****       {
 1580              		.loc 1 1157 7 is_stmt 1 view .LVU532
1157:Drivers/STM32L4xx_HAL_Driver/Src/stm32l4xx_hal_rtc_ex.c ****       {
 1581              		.loc 1 1157 12 is_stmt 0 view .LVU533
 1582 0070 FFF7FEFF 		bl	HAL_GetTick
 1583              	.LVL104:
1157:Drivers/STM32L4xx_HAL_Driver/Src/stm32l4xx_hal_rtc_ex.c ****       {
 1584              		.loc 1 1157 26 view .LVU534
 1585 0074 A0EB0800 		sub	r0, r0, r8
1157:Drivers/STM32L4xx_HAL_Driver/Src/stm32l4xx_hal_rtc_ex.c ****       {
 1586              		.loc 1 1157 10 view .LVU535
 1587 0078 B0F57A7F 		cmp	r0, #1000
 1588 007c F3D9     		bls	.L87
1160:Drivers/STM32L4xx_HAL_Driver/Src/stm32l4xx_hal_rtc_ex.c **** 
 1589              		.loc 1 1160 9 is_stmt 1 view .LVU536
ARM GAS  /tmp/cc49nhBG.s 			page 51


1160:Drivers/STM32L4xx_HAL_Driver/Src/stm32l4xx_hal_rtc_ex.c **** 
 1590              		.loc 1 1160 9 view .LVU537
 1591 007e 2368     		ldr	r3, [r4]
 1592 0080 FF22     		movs	r2, #255
 1593 0082 5A62     		str	r2, [r3, #36]
1160:Drivers/STM32L4xx_HAL_Driver/Src/stm32l4xx_hal_rtc_ex.c **** 
 1594              		.loc 1 1160 9 view .LVU538
1163:Drivers/STM32L4xx_HAL_Driver/Src/stm32l4xx_hal_rtc_ex.c **** 
 1595              		.loc 1 1163 9 view .LVU539
1163:Drivers/STM32L4xx_HAL_Driver/Src/stm32l4xx_hal_rtc_ex.c **** 
 1596              		.loc 1 1163 21 is_stmt 0 view .LVU540
 1597 0084 0320     		movs	r0, #3
 1598 0086 84F82900 		strb	r0, [r4, #41]
1166:Drivers/STM32L4xx_HAL_Driver/Src/stm32l4xx_hal_rtc_ex.c **** 
 1599              		.loc 1 1166 9 is_stmt 1 view .LVU541
1166:Drivers/STM32L4xx_HAL_Driver/Src/stm32l4xx_hal_rtc_ex.c **** 
 1600              		.loc 1 1166 9 view .LVU542
 1601 008a 0023     		movs	r3, #0
 1602 008c 84F82830 		strb	r3, [r4, #40]
1166:Drivers/STM32L4xx_HAL_Driver/Src/stm32l4xx_hal_rtc_ex.c **** 
 1603              		.loc 1 1166 9 view .LVU543
1168:Drivers/STM32L4xx_HAL_Driver/Src/stm32l4xx_hal_rtc_ex.c ****       }
 1604              		.loc 1 1168 9 view .LVU544
1168:Drivers/STM32L4xx_HAL_Driver/Src/stm32l4xx_hal_rtc_ex.c ****       }
 1605              		.loc 1 1168 16 is_stmt 0 view .LVU545
 1606 0090 E4E7     		b	.L85
 1607              	.LVL105:
 1608              	.L89:
1134:Drivers/STM32L4xx_HAL_Driver/Src/stm32l4xx_hal_rtc_ex.c **** 
 1609              		.loc 1 1134 3 view .LVU546
 1610 0092 0220     		movs	r0, #2
 1611              	.LVL106:
1134:Drivers/STM32L4xx_HAL_Driver/Src/stm32l4xx_hal_rtc_ex.c **** 
 1612              		.loc 1 1134 3 view .LVU547
 1613 0094 E2E7     		b	.L85
 1614              		.cfi_endproc
 1615              	.LFE148:
 1617              		.section	.text.HAL_RTCEx_SetLowPowerCalib,"ax",%progbits
 1618              		.align	1
 1619              		.global	HAL_RTCEx_SetLowPowerCalib
 1620              		.syntax unified
 1621              		.thumb
 1622              		.thumb_func
 1623              		.fpu fpv4-sp-d16
 1625              	HAL_RTCEx_SetLowPowerCalib:
 1626              	.LVL107:
 1627              	.LFB149:
1187:Drivers/STM32L4xx_HAL_Driver/Src/stm32l4xx_hal_rtc_ex.c **** 
1188:Drivers/STM32L4xx_HAL_Driver/Src/stm32l4xx_hal_rtc_ex.c **** #if defined(STM32L412xx) || defined(STM32L422xx) || defined (STM32L4P5xx) || defined (STM32L4Q5xx)
1189:Drivers/STM32L4xx_HAL_Driver/Src/stm32l4xx_hal_rtc_ex.c **** /**
1190:Drivers/STM32L4xx_HAL_Driver/Src/stm32l4xx_hal_rtc_ex.c ****   * @brief  Select the low power Calibration mode.
1191:Drivers/STM32L4xx_HAL_Driver/Src/stm32l4xx_hal_rtc_ex.c ****   * @param  hrtc RTC handle
1192:Drivers/STM32L4xx_HAL_Driver/Src/stm32l4xx_hal_rtc_ex.c ****   * @param  LowPowerCalib Low power Calibration mode.
1193:Drivers/STM32L4xx_HAL_Driver/Src/stm32l4xx_hal_rtc_ex.c ****   *          This parameter can be can be one of the following values :
1194:Drivers/STM32L4xx_HAL_Driver/Src/stm32l4xx_hal_rtc_ex.c ****   *             @arg RTC_LPCAL_SET: Low power mode.
1195:Drivers/STM32L4xx_HAL_Driver/Src/stm32l4xx_hal_rtc_ex.c ****   *             @arg RTC_LPCAL_RESET: High consumption mode.
1196:Drivers/STM32L4xx_HAL_Driver/Src/stm32l4xx_hal_rtc_ex.c ****   * @retval HAL status
ARM GAS  /tmp/cc49nhBG.s 			page 52


1197:Drivers/STM32L4xx_HAL_Driver/Src/stm32l4xx_hal_rtc_ex.c ****   */
1198:Drivers/STM32L4xx_HAL_Driver/Src/stm32l4xx_hal_rtc_ex.c **** HAL_StatusTypeDef HAL_RTCEx_SetLowPowerCalib(RTC_HandleTypeDef *hrtc, uint32_t LowPowerCalib)
1199:Drivers/STM32L4xx_HAL_Driver/Src/stm32l4xx_hal_rtc_ex.c **** {
 1628              		.loc 1 1199 1 is_stmt 1 view -0
 1629              		.cfi_startproc
 1630              		@ args = 0, pretend = 0, frame = 0
 1631              		@ frame_needed = 0, uses_anonymous_args = 0
 1632              		@ link register save eliminated.
1200:Drivers/STM32L4xx_HAL_Driver/Src/stm32l4xx_hal_rtc_ex.c ****   /* Check the parameters */
1201:Drivers/STM32L4xx_HAL_Driver/Src/stm32l4xx_hal_rtc_ex.c ****   assert_param(IS_RTC_LOW_POWER_CALIB(LowPowerCalib));
 1633              		.loc 1 1201 3 view .LVU549
1202:Drivers/STM32L4xx_HAL_Driver/Src/stm32l4xx_hal_rtc_ex.c **** 
1203:Drivers/STM32L4xx_HAL_Driver/Src/stm32l4xx_hal_rtc_ex.c ****   /* Process Locked */
1204:Drivers/STM32L4xx_HAL_Driver/Src/stm32l4xx_hal_rtc_ex.c ****   __HAL_LOCK(hrtc);
 1634              		.loc 1 1204 3 view .LVU550
 1635              		.loc 1 1204 3 view .LVU551
 1636 0000 90F82830 		ldrb	r3, [r0, #40]	@ zero_extendqisi2
 1637 0004 012B     		cmp	r3, #1
 1638 0006 1ED0     		beq	.L94
1199:Drivers/STM32L4xx_HAL_Driver/Src/stm32l4xx_hal_rtc_ex.c ****   /* Check the parameters */
 1639              		.loc 1 1199 1 is_stmt 0 discriminator 2 view .LVU552
 1640 0008 10B4     		push	{r4}
 1641              	.LCFI12:
 1642              		.cfi_def_cfa_offset 4
 1643              		.cfi_offset 4, -4
 1644              		.loc 1 1204 3 is_stmt 1 discriminator 2 view .LVU553
 1645 000a 0122     		movs	r2, #1
 1646 000c 80F82820 		strb	r2, [r0, #40]
 1647              		.loc 1 1204 3 discriminator 2 view .LVU554
1205:Drivers/STM32L4xx_HAL_Driver/Src/stm32l4xx_hal_rtc_ex.c **** 
1206:Drivers/STM32L4xx_HAL_Driver/Src/stm32l4xx_hal_rtc_ex.c ****   hrtc->State = HAL_RTC_STATE_BUSY;
 1648              		.loc 1 1206 3 discriminator 2 view .LVU555
 1649              		.loc 1 1206 15 is_stmt 0 discriminator 2 view .LVU556
 1650 0010 0223     		movs	r3, #2
 1651 0012 80F82930 		strb	r3, [r0, #41]
1207:Drivers/STM32L4xx_HAL_Driver/Src/stm32l4xx_hal_rtc_ex.c **** 
1208:Drivers/STM32L4xx_HAL_Driver/Src/stm32l4xx_hal_rtc_ex.c ****   /* Disable the write protection for RTC registers */
1209:Drivers/STM32L4xx_HAL_Driver/Src/stm32l4xx_hal_rtc_ex.c ****   __HAL_RTC_WRITEPROTECTION_DISABLE(hrtc);
 1652              		.loc 1 1209 3 is_stmt 1 discriminator 2 view .LVU557
 1653              		.loc 1 1209 3 discriminator 2 view .LVU558
 1654 0016 0368     		ldr	r3, [r0]
 1655 0018 CA24     		movs	r4, #202
 1656 001a 5C62     		str	r4, [r3, #36]
 1657              		.loc 1 1209 3 discriminator 2 view .LVU559
 1658 001c 0368     		ldr	r3, [r0]
 1659 001e 5324     		movs	r4, #83
 1660 0020 5C62     		str	r4, [r3, #36]
 1661              		.loc 1 1209 3 discriminator 2 view .LVU560
1210:Drivers/STM32L4xx_HAL_Driver/Src/stm32l4xx_hal_rtc_ex.c **** 
1211:Drivers/STM32L4xx_HAL_Driver/Src/stm32l4xx_hal_rtc_ex.c ****   /* Configure the Smooth calibration settings */
1212:Drivers/STM32L4xx_HAL_Driver/Src/stm32l4xx_hal_rtc_ex.c ****   MODIFY_REG(hrtc->Instance->CALR, RTC_CALR_LPCAL, LowPowerCalib);
 1662              		.loc 1 1212 3 discriminator 2 view .LVU561
 1663 0022 0468     		ldr	r4, [r0]
 1664 0024 A36A     		ldr	r3, [r4, #40]
 1665 0026 23F48053 		bic	r3, r3, #4096
 1666 002a 1943     		orrs	r1, r1, r3
 1667              	.LVL108:
ARM GAS  /tmp/cc49nhBG.s 			page 53


 1668              		.loc 1 1212 3 is_stmt 0 discriminator 2 view .LVU562
 1669 002c A162     		str	r1, [r4, #40]
1213:Drivers/STM32L4xx_HAL_Driver/Src/stm32l4xx_hal_rtc_ex.c **** 
1214:Drivers/STM32L4xx_HAL_Driver/Src/stm32l4xx_hal_rtc_ex.c ****   /* Enable the write protection for RTC registers */
1215:Drivers/STM32L4xx_HAL_Driver/Src/stm32l4xx_hal_rtc_ex.c ****   __HAL_RTC_WRITEPROTECTION_ENABLE(hrtc);
 1670              		.loc 1 1215 3 is_stmt 1 discriminator 2 view .LVU563
 1671              		.loc 1 1215 3 discriminator 2 view .LVU564
 1672 002e 0368     		ldr	r3, [r0]
 1673 0030 FF21     		movs	r1, #255
 1674 0032 5962     		str	r1, [r3, #36]
 1675              		.loc 1 1215 3 discriminator 2 view .LVU565
1216:Drivers/STM32L4xx_HAL_Driver/Src/stm32l4xx_hal_rtc_ex.c **** 
1217:Drivers/STM32L4xx_HAL_Driver/Src/stm32l4xx_hal_rtc_ex.c ****   /* Change RTC state */
1218:Drivers/STM32L4xx_HAL_Driver/Src/stm32l4xx_hal_rtc_ex.c ****   hrtc->State = HAL_RTC_STATE_READY;
 1676              		.loc 1 1218 3 discriminator 2 view .LVU566
 1677              		.loc 1 1218 15 is_stmt 0 discriminator 2 view .LVU567
 1678 0034 80F82920 		strb	r2, [r0, #41]
1219:Drivers/STM32L4xx_HAL_Driver/Src/stm32l4xx_hal_rtc_ex.c **** 
1220:Drivers/STM32L4xx_HAL_Driver/Src/stm32l4xx_hal_rtc_ex.c ****   /* Process Unlocked */
1221:Drivers/STM32L4xx_HAL_Driver/Src/stm32l4xx_hal_rtc_ex.c ****   __HAL_UNLOCK(hrtc);
 1679              		.loc 1 1221 3 is_stmt 1 discriminator 2 view .LVU568
 1680              		.loc 1 1221 3 discriminator 2 view .LVU569
 1681 0038 0023     		movs	r3, #0
 1682 003a 80F82830 		strb	r3, [r0, #40]
 1683              		.loc 1 1221 3 discriminator 2 view .LVU570
1222:Drivers/STM32L4xx_HAL_Driver/Src/stm32l4xx_hal_rtc_ex.c **** 
1223:Drivers/STM32L4xx_HAL_Driver/Src/stm32l4xx_hal_rtc_ex.c ****   return HAL_OK;
 1684              		.loc 1 1223 3 discriminator 2 view .LVU571
 1685              		.loc 1 1223 10 is_stmt 0 discriminator 2 view .LVU572
 1686 003e 1846     		mov	r0, r3
 1687              	.LVL109:
1224:Drivers/STM32L4xx_HAL_Driver/Src/stm32l4xx_hal_rtc_ex.c **** }
 1688              		.loc 1 1224 1 discriminator 2 view .LVU573
 1689 0040 5DF8044B 		ldr	r4, [sp], #4
 1690              	.LCFI13:
 1691              		.cfi_restore 4
 1692              		.cfi_def_cfa_offset 0
 1693 0044 7047     		bx	lr
 1694              	.LVL110:
 1695              	.L94:
1204:Drivers/STM32L4xx_HAL_Driver/Src/stm32l4xx_hal_rtc_ex.c **** 
 1696              		.loc 1 1204 3 view .LVU574
 1697 0046 0220     		movs	r0, #2
 1698              	.LVL111:
 1699              		.loc 1 1224 1 view .LVU575
 1700 0048 7047     		bx	lr
 1701              		.cfi_endproc
 1702              	.LFE149:
 1704              		.section	.text.HAL_RTCEx_SetSynchroShift,"ax",%progbits
 1705              		.align	1
 1706              		.global	HAL_RTCEx_SetSynchroShift
 1707              		.syntax unified
 1708              		.thumb
 1709              		.thumb_func
 1710              		.fpu fpv4-sp-d16
 1712              	HAL_RTCEx_SetSynchroShift:
 1713              	.LVL112:
ARM GAS  /tmp/cc49nhBG.s 			page 54


 1714              	.LFB150:
1225:Drivers/STM32L4xx_HAL_Driver/Src/stm32l4xx_hal_rtc_ex.c **** #endif /* #if defined(STM32L412xx) || defined(STM32L422xx) || defined (STM32L4P5xx) || defined (STM
1226:Drivers/STM32L4xx_HAL_Driver/Src/stm32l4xx_hal_rtc_ex.c **** 
1227:Drivers/STM32L4xx_HAL_Driver/Src/stm32l4xx_hal_rtc_ex.c **** /**
1228:Drivers/STM32L4xx_HAL_Driver/Src/stm32l4xx_hal_rtc_ex.c ****   * @brief  Configure the Synchronization Shift Control Settings.
1229:Drivers/STM32L4xx_HAL_Driver/Src/stm32l4xx_hal_rtc_ex.c ****   * @note   When REFCKON is set, firmware must not write to Shift control register.
1230:Drivers/STM32L4xx_HAL_Driver/Src/stm32l4xx_hal_rtc_ex.c ****   * @param  hrtc RTC handle
1231:Drivers/STM32L4xx_HAL_Driver/Src/stm32l4xx_hal_rtc_ex.c ****   * @param  ShiftAdd1S Select to add or not 1 second to the time calendar.
1232:Drivers/STM32L4xx_HAL_Driver/Src/stm32l4xx_hal_rtc_ex.c ****   *          This parameter can be one of the following values:
1233:Drivers/STM32L4xx_HAL_Driver/Src/stm32l4xx_hal_rtc_ex.c ****   *             @arg RTC_SHIFTADD1S_SET: Add one second to the clock calendar.
1234:Drivers/STM32L4xx_HAL_Driver/Src/stm32l4xx_hal_rtc_ex.c ****   *             @arg RTC_SHIFTADD1S_RESET: No effect.
1235:Drivers/STM32L4xx_HAL_Driver/Src/stm32l4xx_hal_rtc_ex.c ****   * @param  ShiftSubFS Select the number of Second Fractions to substitute.
1236:Drivers/STM32L4xx_HAL_Driver/Src/stm32l4xx_hal_rtc_ex.c ****   *          This parameter can be one any value from 0 to 0x7FFF.
1237:Drivers/STM32L4xx_HAL_Driver/Src/stm32l4xx_hal_rtc_ex.c ****   * @retval HAL status
1238:Drivers/STM32L4xx_HAL_Driver/Src/stm32l4xx_hal_rtc_ex.c ****   */
1239:Drivers/STM32L4xx_HAL_Driver/Src/stm32l4xx_hal_rtc_ex.c **** HAL_StatusTypeDef HAL_RTCEx_SetSynchroShift(RTC_HandleTypeDef *hrtc, uint32_t ShiftAdd1S, uint32_t 
1240:Drivers/STM32L4xx_HAL_Driver/Src/stm32l4xx_hal_rtc_ex.c **** {
 1715              		.loc 1 1240 1 is_stmt 1 view -0
 1716              		.cfi_startproc
 1717              		@ args = 0, pretend = 0, frame = 0
 1718              		@ frame_needed = 0, uses_anonymous_args = 0
1241:Drivers/STM32L4xx_HAL_Driver/Src/stm32l4xx_hal_rtc_ex.c ****   uint32_t tickstart;
 1719              		.loc 1 1241 3 view .LVU577
1242:Drivers/STM32L4xx_HAL_Driver/Src/stm32l4xx_hal_rtc_ex.c **** 
1243:Drivers/STM32L4xx_HAL_Driver/Src/stm32l4xx_hal_rtc_ex.c ****   /* Check the parameters */
1244:Drivers/STM32L4xx_HAL_Driver/Src/stm32l4xx_hal_rtc_ex.c ****   assert_param(IS_RTC_SHIFT_ADD1S(ShiftAdd1S));
 1720              		.loc 1 1244 3 view .LVU578
1245:Drivers/STM32L4xx_HAL_Driver/Src/stm32l4xx_hal_rtc_ex.c ****   assert_param(IS_RTC_SHIFT_SUBFS(ShiftSubFS));
 1721              		.loc 1 1245 3 view .LVU579
1246:Drivers/STM32L4xx_HAL_Driver/Src/stm32l4xx_hal_rtc_ex.c **** 
1247:Drivers/STM32L4xx_HAL_Driver/Src/stm32l4xx_hal_rtc_ex.c ****   /* Process Locked */
1248:Drivers/STM32L4xx_HAL_Driver/Src/stm32l4xx_hal_rtc_ex.c ****   __HAL_LOCK(hrtc);
 1722              		.loc 1 1248 3 view .LVU580
 1723              		.loc 1 1248 3 view .LVU581
 1724 0000 90F82830 		ldrb	r3, [r0, #40]	@ zero_extendqisi2
 1725 0004 012B     		cmp	r3, #1
 1726 0006 59D0     		beq	.L105
1240:Drivers/STM32L4xx_HAL_Driver/Src/stm32l4xx_hal_rtc_ex.c ****   uint32_t tickstart;
 1727              		.loc 1 1240 1 is_stmt 0 discriminator 2 view .LVU582
 1728 0008 2DE9F041 		push	{r4, r5, r6, r7, r8, lr}
 1729              	.LCFI14:
 1730              		.cfi_def_cfa_offset 24
 1731              		.cfi_offset 4, -24
 1732              		.cfi_offset 5, -20
 1733              		.cfi_offset 6, -16
 1734              		.cfi_offset 7, -12
 1735              		.cfi_offset 8, -8
 1736              		.cfi_offset 14, -4
 1737 000c 0446     		mov	r4, r0
 1738 000e 8846     		mov	r8, r1
 1739 0010 1746     		mov	r7, r2
 1740              		.loc 1 1248 3 is_stmt 1 discriminator 2 view .LVU583
 1741 0012 0123     		movs	r3, #1
 1742 0014 80F82830 		strb	r3, [r0, #40]
 1743              		.loc 1 1248 3 discriminator 2 view .LVU584
1249:Drivers/STM32L4xx_HAL_Driver/Src/stm32l4xx_hal_rtc_ex.c **** 
1250:Drivers/STM32L4xx_HAL_Driver/Src/stm32l4xx_hal_rtc_ex.c ****   hrtc->State = HAL_RTC_STATE_BUSY;
ARM GAS  /tmp/cc49nhBG.s 			page 55


 1744              		.loc 1 1250 3 discriminator 2 view .LVU585
 1745              		.loc 1 1250 15 is_stmt 0 discriminator 2 view .LVU586
 1746 0018 0223     		movs	r3, #2
 1747 001a 80F82930 		strb	r3, [r0, #41]
1251:Drivers/STM32L4xx_HAL_Driver/Src/stm32l4xx_hal_rtc_ex.c **** 
1252:Drivers/STM32L4xx_HAL_Driver/Src/stm32l4xx_hal_rtc_ex.c ****   /* Disable the write protection for RTC registers */
1253:Drivers/STM32L4xx_HAL_Driver/Src/stm32l4xx_hal_rtc_ex.c ****   __HAL_RTC_WRITEPROTECTION_DISABLE(hrtc);
 1748              		.loc 1 1253 3 is_stmt 1 discriminator 2 view .LVU587
 1749              		.loc 1 1253 3 discriminator 2 view .LVU588
 1750 001e 0368     		ldr	r3, [r0]
 1751 0020 CA22     		movs	r2, #202
 1752              	.LVL113:
 1753              		.loc 1 1253 3 is_stmt 0 discriminator 2 view .LVU589
 1754 0022 5A62     		str	r2, [r3, #36]
 1755              		.loc 1 1253 3 is_stmt 1 discriminator 2 view .LVU590
 1756 0024 0368     		ldr	r3, [r0]
 1757 0026 5322     		movs	r2, #83
 1758 0028 5A62     		str	r2, [r3, #36]
 1759              		.loc 1 1253 3 discriminator 2 view .LVU591
1254:Drivers/STM32L4xx_HAL_Driver/Src/stm32l4xx_hal_rtc_ex.c **** 
1255:Drivers/STM32L4xx_HAL_Driver/Src/stm32l4xx_hal_rtc_ex.c ****   tickstart = HAL_GetTick();
 1760              		.loc 1 1255 3 discriminator 2 view .LVU592
 1761              		.loc 1 1255 15 is_stmt 0 discriminator 2 view .LVU593
 1762 002a FFF7FEFF 		bl	HAL_GetTick
 1763              	.LVL114:
 1764              		.loc 1 1255 15 discriminator 2 view .LVU594
 1765 002e 0646     		mov	r6, r0
 1766              	.LVL115:
1256:Drivers/STM32L4xx_HAL_Driver/Src/stm32l4xx_hal_rtc_ex.c **** 
1257:Drivers/STM32L4xx_HAL_Driver/Src/stm32l4xx_hal_rtc_ex.c ****   /* Wait until the shift is completed*/
1258:Drivers/STM32L4xx_HAL_Driver/Src/stm32l4xx_hal_rtc_ex.c **** #if defined(STM32L412xx) || defined(STM32L422xx) || defined (STM32L4P5xx) || defined (STM32L4Q5xx)
1259:Drivers/STM32L4xx_HAL_Driver/Src/stm32l4xx_hal_rtc_ex.c ****   while ((hrtc->Instance->ICSR & RTC_ICSR_SHPF) != 0U)
 1767              		.loc 1 1259 3 is_stmt 1 discriminator 2 view .LVU595
 1768              	.L101:
 1769              		.loc 1 1259 9 view .LVU596
 1770              		.loc 1 1259 15 is_stmt 0 view .LVU597
 1771 0030 2368     		ldr	r3, [r4]
 1772              		.loc 1 1259 25 view .LVU598
 1773 0032 DD68     		ldr	r5, [r3, #12]
 1774              		.loc 1 1259 9 view .LVU599
 1775 0034 15F0080F 		tst	r5, #8
 1776 0038 10D0     		beq	.L110
1260:Drivers/STM32L4xx_HAL_Driver/Src/stm32l4xx_hal_rtc_ex.c **** #else
1261:Drivers/STM32L4xx_HAL_Driver/Src/stm32l4xx_hal_rtc_ex.c ****   while ((hrtc->Instance->ISR & RTC_ISR_SHPF) != 0U)
1262:Drivers/STM32L4xx_HAL_Driver/Src/stm32l4xx_hal_rtc_ex.c **** #endif
1263:Drivers/STM32L4xx_HAL_Driver/Src/stm32l4xx_hal_rtc_ex.c ****   {
1264:Drivers/STM32L4xx_HAL_Driver/Src/stm32l4xx_hal_rtc_ex.c ****     if ((HAL_GetTick() - tickstart) > RTC_TIMEOUT_VALUE)
 1777              		.loc 1 1264 5 is_stmt 1 view .LVU600
 1778              		.loc 1 1264 10 is_stmt 0 view .LVU601
 1779 003a FFF7FEFF 		bl	HAL_GetTick
 1780              	.LVL116:
 1781              		.loc 1 1264 24 view .LVU602
 1782 003e 831B     		subs	r3, r0, r6
 1783              		.loc 1 1264 8 view .LVU603
 1784 0040 B3F57A7F 		cmp	r3, #1000
 1785 0044 F4D9     		bls	.L101
1265:Drivers/STM32L4xx_HAL_Driver/Src/stm32l4xx_hal_rtc_ex.c ****     {
ARM GAS  /tmp/cc49nhBG.s 			page 56


1266:Drivers/STM32L4xx_HAL_Driver/Src/stm32l4xx_hal_rtc_ex.c ****       /* Enable the write protection for RTC registers */
1267:Drivers/STM32L4xx_HAL_Driver/Src/stm32l4xx_hal_rtc_ex.c ****       __HAL_RTC_WRITEPROTECTION_ENABLE(hrtc);
 1786              		.loc 1 1267 7 is_stmt 1 view .LVU604
 1787              		.loc 1 1267 7 view .LVU605
 1788 0046 2368     		ldr	r3, [r4]
 1789 0048 FF22     		movs	r2, #255
 1790 004a 5A62     		str	r2, [r3, #36]
 1791              		.loc 1 1267 7 view .LVU606
1268:Drivers/STM32L4xx_HAL_Driver/Src/stm32l4xx_hal_rtc_ex.c **** 
1269:Drivers/STM32L4xx_HAL_Driver/Src/stm32l4xx_hal_rtc_ex.c ****       hrtc->State = HAL_RTC_STATE_TIMEOUT;
 1792              		.loc 1 1269 7 view .LVU607
 1793              		.loc 1 1269 19 is_stmt 0 view .LVU608
 1794 004c 0320     		movs	r0, #3
 1795 004e 84F82900 		strb	r0, [r4, #41]
1270:Drivers/STM32L4xx_HAL_Driver/Src/stm32l4xx_hal_rtc_ex.c **** 
1271:Drivers/STM32L4xx_HAL_Driver/Src/stm32l4xx_hal_rtc_ex.c ****       /* Process Unlocked */
1272:Drivers/STM32L4xx_HAL_Driver/Src/stm32l4xx_hal_rtc_ex.c ****       __HAL_UNLOCK(hrtc);
 1796              		.loc 1 1272 7 is_stmt 1 view .LVU609
 1797              		.loc 1 1272 7 view .LVU610
 1798 0052 0023     		movs	r3, #0
 1799 0054 84F82830 		strb	r3, [r4, #40]
 1800              		.loc 1 1272 7 view .LVU611
1273:Drivers/STM32L4xx_HAL_Driver/Src/stm32l4xx_hal_rtc_ex.c **** 
1274:Drivers/STM32L4xx_HAL_Driver/Src/stm32l4xx_hal_rtc_ex.c ****       return HAL_TIMEOUT;
 1801              		.loc 1 1274 7 view .LVU612
 1802              	.LVL117:
 1803              	.L100:
1275:Drivers/STM32L4xx_HAL_Driver/Src/stm32l4xx_hal_rtc_ex.c ****     }
1276:Drivers/STM32L4xx_HAL_Driver/Src/stm32l4xx_hal_rtc_ex.c ****   }
1277:Drivers/STM32L4xx_HAL_Driver/Src/stm32l4xx_hal_rtc_ex.c **** 
1278:Drivers/STM32L4xx_HAL_Driver/Src/stm32l4xx_hal_rtc_ex.c ****   /* Check if the reference clock detection is disabled */
1279:Drivers/STM32L4xx_HAL_Driver/Src/stm32l4xx_hal_rtc_ex.c ****   if ((hrtc->Instance->CR & RTC_CR_REFCKON) == 0U)
1280:Drivers/STM32L4xx_HAL_Driver/Src/stm32l4xx_hal_rtc_ex.c ****   {
1281:Drivers/STM32L4xx_HAL_Driver/Src/stm32l4xx_hal_rtc_ex.c ****     /* Configure the Shift settings */
1282:Drivers/STM32L4xx_HAL_Driver/Src/stm32l4xx_hal_rtc_ex.c ****     hrtc->Instance->SHIFTR = (uint32_t)(uint32_t)(ShiftSubFS) | (uint32_t)(ShiftAdd1S);
1283:Drivers/STM32L4xx_HAL_Driver/Src/stm32l4xx_hal_rtc_ex.c **** 
1284:Drivers/STM32L4xx_HAL_Driver/Src/stm32l4xx_hal_rtc_ex.c ****     /* If  RTC_CR_BYPSHAD bit = 0, wait for synchro else this check is not needed */
1285:Drivers/STM32L4xx_HAL_Driver/Src/stm32l4xx_hal_rtc_ex.c ****     if ((hrtc->Instance->CR & RTC_CR_BYPSHAD) == 0U)
1286:Drivers/STM32L4xx_HAL_Driver/Src/stm32l4xx_hal_rtc_ex.c ****     {
1287:Drivers/STM32L4xx_HAL_Driver/Src/stm32l4xx_hal_rtc_ex.c ****       if (HAL_RTC_WaitForSynchro(hrtc) != HAL_OK)
1288:Drivers/STM32L4xx_HAL_Driver/Src/stm32l4xx_hal_rtc_ex.c ****       {
1289:Drivers/STM32L4xx_HAL_Driver/Src/stm32l4xx_hal_rtc_ex.c ****         /* Enable the write protection for RTC registers */
1290:Drivers/STM32L4xx_HAL_Driver/Src/stm32l4xx_hal_rtc_ex.c ****         __HAL_RTC_WRITEPROTECTION_ENABLE(hrtc);
1291:Drivers/STM32L4xx_HAL_Driver/Src/stm32l4xx_hal_rtc_ex.c **** 
1292:Drivers/STM32L4xx_HAL_Driver/Src/stm32l4xx_hal_rtc_ex.c ****         hrtc->State = HAL_RTC_STATE_ERROR;
1293:Drivers/STM32L4xx_HAL_Driver/Src/stm32l4xx_hal_rtc_ex.c **** 
1294:Drivers/STM32L4xx_HAL_Driver/Src/stm32l4xx_hal_rtc_ex.c ****         /* Process Unlocked */
1295:Drivers/STM32L4xx_HAL_Driver/Src/stm32l4xx_hal_rtc_ex.c ****         __HAL_UNLOCK(hrtc);
1296:Drivers/STM32L4xx_HAL_Driver/Src/stm32l4xx_hal_rtc_ex.c **** 
1297:Drivers/STM32L4xx_HAL_Driver/Src/stm32l4xx_hal_rtc_ex.c ****         return HAL_ERROR;
1298:Drivers/STM32L4xx_HAL_Driver/Src/stm32l4xx_hal_rtc_ex.c ****       }
1299:Drivers/STM32L4xx_HAL_Driver/Src/stm32l4xx_hal_rtc_ex.c ****     }
1300:Drivers/STM32L4xx_HAL_Driver/Src/stm32l4xx_hal_rtc_ex.c ****   }
1301:Drivers/STM32L4xx_HAL_Driver/Src/stm32l4xx_hal_rtc_ex.c ****   else
1302:Drivers/STM32L4xx_HAL_Driver/Src/stm32l4xx_hal_rtc_ex.c ****   {
1303:Drivers/STM32L4xx_HAL_Driver/Src/stm32l4xx_hal_rtc_ex.c ****     /* Enable the write protection for RTC registers */
1304:Drivers/STM32L4xx_HAL_Driver/Src/stm32l4xx_hal_rtc_ex.c ****     __HAL_RTC_WRITEPROTECTION_ENABLE(hrtc);
ARM GAS  /tmp/cc49nhBG.s 			page 57


1305:Drivers/STM32L4xx_HAL_Driver/Src/stm32l4xx_hal_rtc_ex.c **** 
1306:Drivers/STM32L4xx_HAL_Driver/Src/stm32l4xx_hal_rtc_ex.c ****     /* Change RTC state */
1307:Drivers/STM32L4xx_HAL_Driver/Src/stm32l4xx_hal_rtc_ex.c ****     hrtc->State = HAL_RTC_STATE_ERROR;
1308:Drivers/STM32L4xx_HAL_Driver/Src/stm32l4xx_hal_rtc_ex.c **** 
1309:Drivers/STM32L4xx_HAL_Driver/Src/stm32l4xx_hal_rtc_ex.c ****     /* Process Unlocked */
1310:Drivers/STM32L4xx_HAL_Driver/Src/stm32l4xx_hal_rtc_ex.c ****     __HAL_UNLOCK(hrtc);
1311:Drivers/STM32L4xx_HAL_Driver/Src/stm32l4xx_hal_rtc_ex.c **** 
1312:Drivers/STM32L4xx_HAL_Driver/Src/stm32l4xx_hal_rtc_ex.c ****     return HAL_ERROR;
1313:Drivers/STM32L4xx_HAL_Driver/Src/stm32l4xx_hal_rtc_ex.c ****   }
1314:Drivers/STM32L4xx_HAL_Driver/Src/stm32l4xx_hal_rtc_ex.c **** 
1315:Drivers/STM32L4xx_HAL_Driver/Src/stm32l4xx_hal_rtc_ex.c ****   /* Enable the write protection for RTC registers */
1316:Drivers/STM32L4xx_HAL_Driver/Src/stm32l4xx_hal_rtc_ex.c ****   __HAL_RTC_WRITEPROTECTION_ENABLE(hrtc);
1317:Drivers/STM32L4xx_HAL_Driver/Src/stm32l4xx_hal_rtc_ex.c **** 
1318:Drivers/STM32L4xx_HAL_Driver/Src/stm32l4xx_hal_rtc_ex.c ****   /* Change RTC state */
1319:Drivers/STM32L4xx_HAL_Driver/Src/stm32l4xx_hal_rtc_ex.c ****   hrtc->State = HAL_RTC_STATE_READY;
1320:Drivers/STM32L4xx_HAL_Driver/Src/stm32l4xx_hal_rtc_ex.c **** 
1321:Drivers/STM32L4xx_HAL_Driver/Src/stm32l4xx_hal_rtc_ex.c ****   /* Process Unlocked */
1322:Drivers/STM32L4xx_HAL_Driver/Src/stm32l4xx_hal_rtc_ex.c ****   __HAL_UNLOCK(hrtc);
1323:Drivers/STM32L4xx_HAL_Driver/Src/stm32l4xx_hal_rtc_ex.c **** 
1324:Drivers/STM32L4xx_HAL_Driver/Src/stm32l4xx_hal_rtc_ex.c ****   return HAL_OK;
1325:Drivers/STM32L4xx_HAL_Driver/Src/stm32l4xx_hal_rtc_ex.c **** }
 1804              		.loc 1 1325 1 is_stmt 0 view .LVU613
 1805 0058 BDE8F081 		pop	{r4, r5, r6, r7, r8, pc}
 1806              	.LVL118:
 1807              	.L110:
1279:Drivers/STM32L4xx_HAL_Driver/Src/stm32l4xx_hal_rtc_ex.c ****   {
 1808              		.loc 1 1279 3 is_stmt 1 view .LVU614
1279:Drivers/STM32L4xx_HAL_Driver/Src/stm32l4xx_hal_rtc_ex.c ****   {
 1809              		.loc 1 1279 22 is_stmt 0 view .LVU615
 1810 005c 9A69     		ldr	r2, [r3, #24]
1279:Drivers/STM32L4xx_HAL_Driver/Src/stm32l4xx_hal_rtc_ex.c ****   {
 1811              		.loc 1 1279 6 view .LVU616
 1812 005e 12F0100F 		tst	r2, #16
 1813 0062 21D1     		bne	.L103
1282:Drivers/STM32L4xx_HAL_Driver/Src/stm32l4xx_hal_rtc_ex.c **** 
 1814              		.loc 1 1282 5 is_stmt 1 view .LVU617
1282:Drivers/STM32L4xx_HAL_Driver/Src/stm32l4xx_hal_rtc_ex.c **** 
 1815              		.loc 1 1282 63 is_stmt 0 view .LVU618
 1816 0064 47EA0807 		orr	r7, r7, r8
 1817              	.LVL119:
1282:Drivers/STM32L4xx_HAL_Driver/Src/stm32l4xx_hal_rtc_ex.c **** 
 1818              		.loc 1 1282 28 view .LVU619
 1819 0068 DF62     		str	r7, [r3, #44]
1285:Drivers/STM32L4xx_HAL_Driver/Src/stm32l4xx_hal_rtc_ex.c ****     {
 1820              		.loc 1 1285 5 is_stmt 1 view .LVU620
1285:Drivers/STM32L4xx_HAL_Driver/Src/stm32l4xx_hal_rtc_ex.c ****     {
 1821              		.loc 1 1285 14 is_stmt 0 view .LVU621
 1822 006a 2368     		ldr	r3, [r4]
1285:Drivers/STM32L4xx_HAL_Driver/Src/stm32l4xx_hal_rtc_ex.c ****     {
 1823              		.loc 1 1285 24 view .LVU622
 1824 006c 9B69     		ldr	r3, [r3, #24]
1285:Drivers/STM32L4xx_HAL_Driver/Src/stm32l4xx_hal_rtc_ex.c ****     {
 1825              		.loc 1 1285 8 view .LVU623
 1826 006e 13F0200F 		tst	r3, #32
 1827 0072 09D0     		beq	.L111
 1828              	.L104:
1316:Drivers/STM32L4xx_HAL_Driver/Src/stm32l4xx_hal_rtc_ex.c **** 
ARM GAS  /tmp/cc49nhBG.s 			page 58


 1829              		.loc 1 1316 3 is_stmt 1 view .LVU624
1316:Drivers/STM32L4xx_HAL_Driver/Src/stm32l4xx_hal_rtc_ex.c **** 
 1830              		.loc 1 1316 3 view .LVU625
 1831 0074 2368     		ldr	r3, [r4]
 1832 0076 FF22     		movs	r2, #255
 1833 0078 5A62     		str	r2, [r3, #36]
1316:Drivers/STM32L4xx_HAL_Driver/Src/stm32l4xx_hal_rtc_ex.c **** 
 1834              		.loc 1 1316 3 view .LVU626
1319:Drivers/STM32L4xx_HAL_Driver/Src/stm32l4xx_hal_rtc_ex.c **** 
 1835              		.loc 1 1319 3 view .LVU627
1319:Drivers/STM32L4xx_HAL_Driver/Src/stm32l4xx_hal_rtc_ex.c **** 
 1836              		.loc 1 1319 15 is_stmt 0 view .LVU628
 1837 007a 0123     		movs	r3, #1
 1838 007c 84F82930 		strb	r3, [r4, #41]
1322:Drivers/STM32L4xx_HAL_Driver/Src/stm32l4xx_hal_rtc_ex.c **** 
 1839              		.loc 1 1322 3 is_stmt 1 view .LVU629
1322:Drivers/STM32L4xx_HAL_Driver/Src/stm32l4xx_hal_rtc_ex.c **** 
 1840              		.loc 1 1322 3 view .LVU630
 1841 0080 0020     		movs	r0, #0
 1842 0082 84F82800 		strb	r0, [r4, #40]
1322:Drivers/STM32L4xx_HAL_Driver/Src/stm32l4xx_hal_rtc_ex.c **** 
 1843              		.loc 1 1322 3 view .LVU631
1324:Drivers/STM32L4xx_HAL_Driver/Src/stm32l4xx_hal_rtc_ex.c **** }
 1844              		.loc 1 1324 3 view .LVU632
1324:Drivers/STM32L4xx_HAL_Driver/Src/stm32l4xx_hal_rtc_ex.c **** }
 1845              		.loc 1 1324 10 is_stmt 0 view .LVU633
 1846 0086 E7E7     		b	.L100
 1847              	.L111:
1287:Drivers/STM32L4xx_HAL_Driver/Src/stm32l4xx_hal_rtc_ex.c ****       {
 1848              		.loc 1 1287 7 is_stmt 1 view .LVU634
1287:Drivers/STM32L4xx_HAL_Driver/Src/stm32l4xx_hal_rtc_ex.c ****       {
 1849              		.loc 1 1287 11 is_stmt 0 view .LVU635
 1850 0088 2046     		mov	r0, r4
 1851 008a FFF7FEFF 		bl	HAL_RTC_WaitForSynchro
 1852              	.LVL120:
1287:Drivers/STM32L4xx_HAL_Driver/Src/stm32l4xx_hal_rtc_ex.c ****       {
 1853              		.loc 1 1287 10 view .LVU636
 1854 008e 0028     		cmp	r0, #0
 1855 0090 F0D0     		beq	.L104
1290:Drivers/STM32L4xx_HAL_Driver/Src/stm32l4xx_hal_rtc_ex.c **** 
 1856              		.loc 1 1290 9 is_stmt 1 view .LVU637
1290:Drivers/STM32L4xx_HAL_Driver/Src/stm32l4xx_hal_rtc_ex.c **** 
 1857              		.loc 1 1290 9 view .LVU638
 1858 0092 2368     		ldr	r3, [r4]
 1859 0094 FF22     		movs	r2, #255
 1860 0096 5A62     		str	r2, [r3, #36]
1290:Drivers/STM32L4xx_HAL_Driver/Src/stm32l4xx_hal_rtc_ex.c **** 
 1861              		.loc 1 1290 9 view .LVU639
1292:Drivers/STM32L4xx_HAL_Driver/Src/stm32l4xx_hal_rtc_ex.c **** 
 1862              		.loc 1 1292 9 view .LVU640
1292:Drivers/STM32L4xx_HAL_Driver/Src/stm32l4xx_hal_rtc_ex.c **** 
 1863              		.loc 1 1292 21 is_stmt 0 view .LVU641
 1864 0098 0423     		movs	r3, #4
 1865 009a 84F82930 		strb	r3, [r4, #41]
1295:Drivers/STM32L4xx_HAL_Driver/Src/stm32l4xx_hal_rtc_ex.c **** 
 1866              		.loc 1 1295 9 is_stmt 1 view .LVU642
1295:Drivers/STM32L4xx_HAL_Driver/Src/stm32l4xx_hal_rtc_ex.c **** 
ARM GAS  /tmp/cc49nhBG.s 			page 59


 1867              		.loc 1 1295 9 view .LVU643
 1868 009e 0023     		movs	r3, #0
 1869 00a0 84F82830 		strb	r3, [r4, #40]
1295:Drivers/STM32L4xx_HAL_Driver/Src/stm32l4xx_hal_rtc_ex.c **** 
 1870              		.loc 1 1295 9 view .LVU644
1297:Drivers/STM32L4xx_HAL_Driver/Src/stm32l4xx_hal_rtc_ex.c ****       }
 1871              		.loc 1 1297 9 view .LVU645
1297:Drivers/STM32L4xx_HAL_Driver/Src/stm32l4xx_hal_rtc_ex.c ****       }
 1872              		.loc 1 1297 16 is_stmt 0 view .LVU646
 1873 00a4 0120     		movs	r0, #1
 1874 00a6 D7E7     		b	.L100
 1875              	.LVL121:
 1876              	.L103:
1304:Drivers/STM32L4xx_HAL_Driver/Src/stm32l4xx_hal_rtc_ex.c **** 
 1877              		.loc 1 1304 5 is_stmt 1 view .LVU647
1304:Drivers/STM32L4xx_HAL_Driver/Src/stm32l4xx_hal_rtc_ex.c **** 
 1878              		.loc 1 1304 5 view .LVU648
 1879 00a8 FF22     		movs	r2, #255
 1880 00aa 5A62     		str	r2, [r3, #36]
1304:Drivers/STM32L4xx_HAL_Driver/Src/stm32l4xx_hal_rtc_ex.c **** 
 1881              		.loc 1 1304 5 view .LVU649
1307:Drivers/STM32L4xx_HAL_Driver/Src/stm32l4xx_hal_rtc_ex.c **** 
 1882              		.loc 1 1307 5 view .LVU650
1307:Drivers/STM32L4xx_HAL_Driver/Src/stm32l4xx_hal_rtc_ex.c **** 
 1883              		.loc 1 1307 17 is_stmt 0 view .LVU651
 1884 00ac 0423     		movs	r3, #4
 1885 00ae 84F82930 		strb	r3, [r4, #41]
1310:Drivers/STM32L4xx_HAL_Driver/Src/stm32l4xx_hal_rtc_ex.c **** 
 1886              		.loc 1 1310 5 is_stmt 1 view .LVU652
1310:Drivers/STM32L4xx_HAL_Driver/Src/stm32l4xx_hal_rtc_ex.c **** 
 1887              		.loc 1 1310 5 view .LVU653
 1888 00b2 0023     		movs	r3, #0
 1889 00b4 84F82830 		strb	r3, [r4, #40]
1310:Drivers/STM32L4xx_HAL_Driver/Src/stm32l4xx_hal_rtc_ex.c **** 
 1890              		.loc 1 1310 5 view .LVU654
1312:Drivers/STM32L4xx_HAL_Driver/Src/stm32l4xx_hal_rtc_ex.c ****   }
 1891              		.loc 1 1312 5 view .LVU655
1312:Drivers/STM32L4xx_HAL_Driver/Src/stm32l4xx_hal_rtc_ex.c ****   }
 1892              		.loc 1 1312 12 is_stmt 0 view .LVU656
 1893 00b8 0120     		movs	r0, #1
 1894 00ba CDE7     		b	.L100
 1895              	.LVL122:
 1896              	.L105:
 1897              	.LCFI15:
 1898              		.cfi_def_cfa_offset 0
 1899              		.cfi_restore 4
 1900              		.cfi_restore 5
 1901              		.cfi_restore 6
 1902              		.cfi_restore 7
 1903              		.cfi_restore 8
 1904              		.cfi_restore 14
1248:Drivers/STM32L4xx_HAL_Driver/Src/stm32l4xx_hal_rtc_ex.c **** 
 1905              		.loc 1 1248 3 view .LVU657
 1906 00bc 0220     		movs	r0, #2
 1907              	.LVL123:
 1908              		.loc 1 1325 1 view .LVU658
 1909 00be 7047     		bx	lr
ARM GAS  /tmp/cc49nhBG.s 			page 60


 1910              		.cfi_endproc
 1911              	.LFE150:
 1913              		.section	.text.HAL_RTCEx_SetCalibrationOutPut,"ax",%progbits
 1914              		.align	1
 1915              		.global	HAL_RTCEx_SetCalibrationOutPut
 1916              		.syntax unified
 1917              		.thumb
 1918              		.thumb_func
 1919              		.fpu fpv4-sp-d16
 1921              	HAL_RTCEx_SetCalibrationOutPut:
 1922              	.LVL124:
 1923              	.LFB151:
1326:Drivers/STM32L4xx_HAL_Driver/Src/stm32l4xx_hal_rtc_ex.c **** 
1327:Drivers/STM32L4xx_HAL_Driver/Src/stm32l4xx_hal_rtc_ex.c **** /**
1328:Drivers/STM32L4xx_HAL_Driver/Src/stm32l4xx_hal_rtc_ex.c ****   * @brief  Configure the Calibration Pinout (RTC_CALIB) Selection (1Hz or 512Hz).
1329:Drivers/STM32L4xx_HAL_Driver/Src/stm32l4xx_hal_rtc_ex.c ****   * @param  hrtc RTC handle
1330:Drivers/STM32L4xx_HAL_Driver/Src/stm32l4xx_hal_rtc_ex.c ****   * @param  CalibOutput Select the Calibration output Selection .
1331:Drivers/STM32L4xx_HAL_Driver/Src/stm32l4xx_hal_rtc_ex.c ****   *          This parameter can be one of the following values:
1332:Drivers/STM32L4xx_HAL_Driver/Src/stm32l4xx_hal_rtc_ex.c ****   *             @arg RTC_CALIBOUTPUT_512HZ: A signal has a regular waveform at 512Hz.
1333:Drivers/STM32L4xx_HAL_Driver/Src/stm32l4xx_hal_rtc_ex.c ****   *             @arg RTC_CALIBOUTPUT_1HZ: A signal has a regular waveform at 1Hz.
1334:Drivers/STM32L4xx_HAL_Driver/Src/stm32l4xx_hal_rtc_ex.c ****   * @retval HAL status
1335:Drivers/STM32L4xx_HAL_Driver/Src/stm32l4xx_hal_rtc_ex.c ****   */
1336:Drivers/STM32L4xx_HAL_Driver/Src/stm32l4xx_hal_rtc_ex.c **** HAL_StatusTypeDef HAL_RTCEx_SetCalibrationOutPut(RTC_HandleTypeDef *hrtc, uint32_t CalibOutput)
1337:Drivers/STM32L4xx_HAL_Driver/Src/stm32l4xx_hal_rtc_ex.c **** {
 1924              		.loc 1 1337 1 is_stmt 1 view -0
 1925              		.cfi_startproc
 1926              		@ args = 0, pretend = 0, frame = 0
 1927              		@ frame_needed = 0, uses_anonymous_args = 0
 1928              		@ link register save eliminated.
1338:Drivers/STM32L4xx_HAL_Driver/Src/stm32l4xx_hal_rtc_ex.c ****   /* Check the parameters */
1339:Drivers/STM32L4xx_HAL_Driver/Src/stm32l4xx_hal_rtc_ex.c ****   assert_param(IS_RTC_CALIB_OUTPUT(CalibOutput));
 1929              		.loc 1 1339 3 view .LVU660
1340:Drivers/STM32L4xx_HAL_Driver/Src/stm32l4xx_hal_rtc_ex.c **** 
1341:Drivers/STM32L4xx_HAL_Driver/Src/stm32l4xx_hal_rtc_ex.c ****   /* Process Locked */
1342:Drivers/STM32L4xx_HAL_Driver/Src/stm32l4xx_hal_rtc_ex.c ****   __HAL_LOCK(hrtc);
 1930              		.loc 1 1342 3 view .LVU661
 1931              		.loc 1 1342 3 view .LVU662
 1932 0000 90F82830 		ldrb	r3, [r0, #40]	@ zero_extendqisi2
 1933 0004 012B     		cmp	r3, #1
 1934 0006 26D0     		beq	.L114
1337:Drivers/STM32L4xx_HAL_Driver/Src/stm32l4xx_hal_rtc_ex.c ****   /* Check the parameters */
 1935              		.loc 1 1337 1 is_stmt 0 discriminator 2 view .LVU663
 1936 0008 10B4     		push	{r4}
 1937              	.LCFI16:
 1938              		.cfi_def_cfa_offset 4
 1939              		.cfi_offset 4, -4
 1940              		.loc 1 1342 3 is_stmt 1 discriminator 2 view .LVU664
 1941 000a 0122     		movs	r2, #1
 1942 000c 80F82820 		strb	r2, [r0, #40]
 1943              		.loc 1 1342 3 discriminator 2 view .LVU665
1343:Drivers/STM32L4xx_HAL_Driver/Src/stm32l4xx_hal_rtc_ex.c **** 
1344:Drivers/STM32L4xx_HAL_Driver/Src/stm32l4xx_hal_rtc_ex.c ****   hrtc->State = HAL_RTC_STATE_BUSY;
 1944              		.loc 1 1344 3 discriminator 2 view .LVU666
 1945              		.loc 1 1344 15 is_stmt 0 discriminator 2 view .LVU667
 1946 0010 0223     		movs	r3, #2
 1947 0012 80F82930 		strb	r3, [r0, #41]
1345:Drivers/STM32L4xx_HAL_Driver/Src/stm32l4xx_hal_rtc_ex.c **** 
ARM GAS  /tmp/cc49nhBG.s 			page 61


1346:Drivers/STM32L4xx_HAL_Driver/Src/stm32l4xx_hal_rtc_ex.c ****   /* Disable the write protection for RTC registers */
1347:Drivers/STM32L4xx_HAL_Driver/Src/stm32l4xx_hal_rtc_ex.c ****   __HAL_RTC_WRITEPROTECTION_DISABLE(hrtc);
 1948              		.loc 1 1347 3 is_stmt 1 discriminator 2 view .LVU668
 1949              		.loc 1 1347 3 discriminator 2 view .LVU669
 1950 0016 0368     		ldr	r3, [r0]
 1951 0018 CA24     		movs	r4, #202
 1952 001a 5C62     		str	r4, [r3, #36]
 1953              		.loc 1 1347 3 discriminator 2 view .LVU670
 1954 001c 0368     		ldr	r3, [r0]
 1955 001e 5324     		movs	r4, #83
 1956 0020 5C62     		str	r4, [r3, #36]
 1957              		.loc 1 1347 3 discriminator 2 view .LVU671
1348:Drivers/STM32L4xx_HAL_Driver/Src/stm32l4xx_hal_rtc_ex.c **** 
1349:Drivers/STM32L4xx_HAL_Driver/Src/stm32l4xx_hal_rtc_ex.c ****   /* Clear flags before config */
1350:Drivers/STM32L4xx_HAL_Driver/Src/stm32l4xx_hal_rtc_ex.c ****   hrtc->Instance->CR &= (uint32_t)~RTC_CR_COSEL;
 1958              		.loc 1 1350 3 discriminator 2 view .LVU672
 1959              		.loc 1 1350 7 is_stmt 0 discriminator 2 view .LVU673
 1960 0022 0468     		ldr	r4, [r0]
 1961              		.loc 1 1350 22 discriminator 2 view .LVU674
 1962 0024 A369     		ldr	r3, [r4, #24]
 1963 0026 23F40023 		bic	r3, r3, #524288
 1964 002a A361     		str	r3, [r4, #24]
1351:Drivers/STM32L4xx_HAL_Driver/Src/stm32l4xx_hal_rtc_ex.c **** 
1352:Drivers/STM32L4xx_HAL_Driver/Src/stm32l4xx_hal_rtc_ex.c ****   /* Configure the RTC_CR register */
1353:Drivers/STM32L4xx_HAL_Driver/Src/stm32l4xx_hal_rtc_ex.c ****   hrtc->Instance->CR |= (uint32_t)CalibOutput;
 1965              		.loc 1 1353 3 is_stmt 1 discriminator 2 view .LVU675
 1966              		.loc 1 1353 7 is_stmt 0 discriminator 2 view .LVU676
 1967 002c 0468     		ldr	r4, [r0]
 1968              		.loc 1 1353 22 discriminator 2 view .LVU677
 1969 002e A369     		ldr	r3, [r4, #24]
 1970 0030 1943     		orrs	r1, r1, r3
 1971              	.LVL125:
 1972              		.loc 1 1353 22 discriminator 2 view .LVU678
 1973 0032 A161     		str	r1, [r4, #24]
1354:Drivers/STM32L4xx_HAL_Driver/Src/stm32l4xx_hal_rtc_ex.c **** 
1355:Drivers/STM32L4xx_HAL_Driver/Src/stm32l4xx_hal_rtc_ex.c ****   __HAL_RTC_CALIBRATION_OUTPUT_ENABLE(hrtc);
 1974              		.loc 1 1355 3 is_stmt 1 discriminator 2 view .LVU679
 1975 0034 0168     		ldr	r1, [r0]
 1976 0036 8B69     		ldr	r3, [r1, #24]
 1977 0038 43F40003 		orr	r3, r3, #8388608
 1978 003c 8B61     		str	r3, [r1, #24]
1356:Drivers/STM32L4xx_HAL_Driver/Src/stm32l4xx_hal_rtc_ex.c **** 
1357:Drivers/STM32L4xx_HAL_Driver/Src/stm32l4xx_hal_rtc_ex.c ****   /* Enable the write protection for RTC registers */
1358:Drivers/STM32L4xx_HAL_Driver/Src/stm32l4xx_hal_rtc_ex.c ****   __HAL_RTC_WRITEPROTECTION_ENABLE(hrtc);
 1979              		.loc 1 1358 3 discriminator 2 view .LVU680
 1980              		.loc 1 1358 3 discriminator 2 view .LVU681
 1981 003e 0368     		ldr	r3, [r0]
 1982 0040 FF21     		movs	r1, #255
 1983 0042 5962     		str	r1, [r3, #36]
 1984              		.loc 1 1358 3 discriminator 2 view .LVU682
1359:Drivers/STM32L4xx_HAL_Driver/Src/stm32l4xx_hal_rtc_ex.c **** 
1360:Drivers/STM32L4xx_HAL_Driver/Src/stm32l4xx_hal_rtc_ex.c ****   /* Change RTC state */
1361:Drivers/STM32L4xx_HAL_Driver/Src/stm32l4xx_hal_rtc_ex.c ****   hrtc->State = HAL_RTC_STATE_READY;
 1985              		.loc 1 1361 3 discriminator 2 view .LVU683
 1986              		.loc 1 1361 15 is_stmt 0 discriminator 2 view .LVU684
 1987 0044 80F82920 		strb	r2, [r0, #41]
1362:Drivers/STM32L4xx_HAL_Driver/Src/stm32l4xx_hal_rtc_ex.c **** 
ARM GAS  /tmp/cc49nhBG.s 			page 62


1363:Drivers/STM32L4xx_HAL_Driver/Src/stm32l4xx_hal_rtc_ex.c ****   /* Process Unlocked */
1364:Drivers/STM32L4xx_HAL_Driver/Src/stm32l4xx_hal_rtc_ex.c ****   __HAL_UNLOCK(hrtc);
 1988              		.loc 1 1364 3 is_stmt 1 discriminator 2 view .LVU685
 1989              		.loc 1 1364 3 discriminator 2 view .LVU686
 1990 0048 0023     		movs	r3, #0
 1991 004a 80F82830 		strb	r3, [r0, #40]
 1992              		.loc 1 1364 3 discriminator 2 view .LVU687
1365:Drivers/STM32L4xx_HAL_Driver/Src/stm32l4xx_hal_rtc_ex.c **** 
1366:Drivers/STM32L4xx_HAL_Driver/Src/stm32l4xx_hal_rtc_ex.c ****   return HAL_OK;
 1993              		.loc 1 1366 3 discriminator 2 view .LVU688
 1994              		.loc 1 1366 10 is_stmt 0 discriminator 2 view .LVU689
 1995 004e 1846     		mov	r0, r3
 1996              	.LVL126:
1367:Drivers/STM32L4xx_HAL_Driver/Src/stm32l4xx_hal_rtc_ex.c **** }
 1997              		.loc 1 1367 1 discriminator 2 view .LVU690
 1998 0050 5DF8044B 		ldr	r4, [sp], #4
 1999              	.LCFI17:
 2000              		.cfi_restore 4
 2001              		.cfi_def_cfa_offset 0
 2002 0054 7047     		bx	lr
 2003              	.LVL127:
 2004              	.L114:
1342:Drivers/STM32L4xx_HAL_Driver/Src/stm32l4xx_hal_rtc_ex.c **** 
 2005              		.loc 1 1342 3 view .LVU691
 2006 0056 0220     		movs	r0, #2
 2007              	.LVL128:
 2008              		.loc 1 1367 1 view .LVU692
 2009 0058 7047     		bx	lr
 2010              		.cfi_endproc
 2011              	.LFE151:
 2013              		.section	.text.HAL_RTCEx_DeactivateCalibrationOutPut,"ax",%progbits
 2014              		.align	1
 2015              		.global	HAL_RTCEx_DeactivateCalibrationOutPut
 2016              		.syntax unified
 2017              		.thumb
 2018              		.thumb_func
 2019              		.fpu fpv4-sp-d16
 2021              	HAL_RTCEx_DeactivateCalibrationOutPut:
 2022              	.LVL129:
 2023              	.LFB152:
1368:Drivers/STM32L4xx_HAL_Driver/Src/stm32l4xx_hal_rtc_ex.c **** 
1369:Drivers/STM32L4xx_HAL_Driver/Src/stm32l4xx_hal_rtc_ex.c **** /**
1370:Drivers/STM32L4xx_HAL_Driver/Src/stm32l4xx_hal_rtc_ex.c ****   * @brief  Deactivate the Calibration Pinout (RTC_CALIB) Selection (1Hz or 512Hz).
1371:Drivers/STM32L4xx_HAL_Driver/Src/stm32l4xx_hal_rtc_ex.c ****   * @param  hrtc RTC handle
1372:Drivers/STM32L4xx_HAL_Driver/Src/stm32l4xx_hal_rtc_ex.c ****   * @retval HAL status
1373:Drivers/STM32L4xx_HAL_Driver/Src/stm32l4xx_hal_rtc_ex.c ****   */
1374:Drivers/STM32L4xx_HAL_Driver/Src/stm32l4xx_hal_rtc_ex.c **** HAL_StatusTypeDef HAL_RTCEx_DeactivateCalibrationOutPut(RTC_HandleTypeDef *hrtc)
1375:Drivers/STM32L4xx_HAL_Driver/Src/stm32l4xx_hal_rtc_ex.c **** {
 2024              		.loc 1 1375 1 is_stmt 1 view -0
 2025              		.cfi_startproc
 2026              		@ args = 0, pretend = 0, frame = 0
 2027              		@ frame_needed = 0, uses_anonymous_args = 0
 2028              		@ link register save eliminated.
1376:Drivers/STM32L4xx_HAL_Driver/Src/stm32l4xx_hal_rtc_ex.c ****   /* Process Locked */
1377:Drivers/STM32L4xx_HAL_Driver/Src/stm32l4xx_hal_rtc_ex.c ****   __HAL_LOCK(hrtc);
 2029              		.loc 1 1377 3 view .LVU694
 2030              		.loc 1 1377 3 view .LVU695
ARM GAS  /tmp/cc49nhBG.s 			page 63


 2031 0000 90F82830 		ldrb	r3, [r0, #40]	@ zero_extendqisi2
 2032 0004 012B     		cmp	r3, #1
 2033 0006 1AD0     		beq	.L121
 2034              		.loc 1 1377 3 discriminator 2 view .LVU696
 2035 0008 0122     		movs	r2, #1
 2036 000a 80F82820 		strb	r2, [r0, #40]
 2037              		.loc 1 1377 3 discriminator 2 view .LVU697
1378:Drivers/STM32L4xx_HAL_Driver/Src/stm32l4xx_hal_rtc_ex.c **** 
1379:Drivers/STM32L4xx_HAL_Driver/Src/stm32l4xx_hal_rtc_ex.c ****   hrtc->State = HAL_RTC_STATE_BUSY;
 2038              		.loc 1 1379 3 discriminator 2 view .LVU698
 2039              		.loc 1 1379 15 is_stmt 0 discriminator 2 view .LVU699
 2040 000e 0223     		movs	r3, #2
 2041 0010 80F82930 		strb	r3, [r0, #41]
1380:Drivers/STM32L4xx_HAL_Driver/Src/stm32l4xx_hal_rtc_ex.c **** 
1381:Drivers/STM32L4xx_HAL_Driver/Src/stm32l4xx_hal_rtc_ex.c ****   /* Disable the write protection for RTC registers */
1382:Drivers/STM32L4xx_HAL_Driver/Src/stm32l4xx_hal_rtc_ex.c ****   __HAL_RTC_WRITEPROTECTION_DISABLE(hrtc);
 2042              		.loc 1 1382 3 is_stmt 1 discriminator 2 view .LVU700
 2043              		.loc 1 1382 3 discriminator 2 view .LVU701
 2044 0014 0368     		ldr	r3, [r0]
 2045 0016 CA21     		movs	r1, #202
 2046 0018 5962     		str	r1, [r3, #36]
 2047              		.loc 1 1382 3 discriminator 2 view .LVU702
 2048 001a 0368     		ldr	r3, [r0]
 2049 001c 5321     		movs	r1, #83
 2050 001e 5962     		str	r1, [r3, #36]
 2051              		.loc 1 1382 3 discriminator 2 view .LVU703
1383:Drivers/STM32L4xx_HAL_Driver/Src/stm32l4xx_hal_rtc_ex.c **** 
1384:Drivers/STM32L4xx_HAL_Driver/Src/stm32l4xx_hal_rtc_ex.c ****   __HAL_RTC_CALIBRATION_OUTPUT_DISABLE(hrtc);
 2052              		.loc 1 1384 3 discriminator 2 view .LVU704
 2053 0020 0168     		ldr	r1, [r0]
 2054 0022 8B69     		ldr	r3, [r1, #24]
 2055 0024 23F40003 		bic	r3, r3, #8388608
 2056 0028 8B61     		str	r3, [r1, #24]
1385:Drivers/STM32L4xx_HAL_Driver/Src/stm32l4xx_hal_rtc_ex.c **** 
1386:Drivers/STM32L4xx_HAL_Driver/Src/stm32l4xx_hal_rtc_ex.c ****   /* Enable the write protection for RTC registers */
1387:Drivers/STM32L4xx_HAL_Driver/Src/stm32l4xx_hal_rtc_ex.c ****   __HAL_RTC_WRITEPROTECTION_ENABLE(hrtc);
 2057              		.loc 1 1387 3 discriminator 2 view .LVU705
 2058              		.loc 1 1387 3 discriminator 2 view .LVU706
 2059 002a 0368     		ldr	r3, [r0]
 2060 002c FF21     		movs	r1, #255
 2061 002e 5962     		str	r1, [r3, #36]
 2062              		.loc 1 1387 3 discriminator 2 view .LVU707
1388:Drivers/STM32L4xx_HAL_Driver/Src/stm32l4xx_hal_rtc_ex.c **** 
1389:Drivers/STM32L4xx_HAL_Driver/Src/stm32l4xx_hal_rtc_ex.c ****   /* Change RTC state */
1390:Drivers/STM32L4xx_HAL_Driver/Src/stm32l4xx_hal_rtc_ex.c ****   hrtc->State = HAL_RTC_STATE_READY;
 2063              		.loc 1 1390 3 discriminator 2 view .LVU708
 2064              		.loc 1 1390 15 is_stmt 0 discriminator 2 view .LVU709
 2065 0030 80F82920 		strb	r2, [r0, #41]
1391:Drivers/STM32L4xx_HAL_Driver/Src/stm32l4xx_hal_rtc_ex.c **** 
1392:Drivers/STM32L4xx_HAL_Driver/Src/stm32l4xx_hal_rtc_ex.c ****   /* Process Unlocked */
1393:Drivers/STM32L4xx_HAL_Driver/Src/stm32l4xx_hal_rtc_ex.c ****   __HAL_UNLOCK(hrtc);
 2066              		.loc 1 1393 3 is_stmt 1 discriminator 2 view .LVU710
 2067              		.loc 1 1393 3 discriminator 2 view .LVU711
 2068 0034 0023     		movs	r3, #0
 2069 0036 80F82830 		strb	r3, [r0, #40]
 2070              		.loc 1 1393 3 discriminator 2 view .LVU712
1394:Drivers/STM32L4xx_HAL_Driver/Src/stm32l4xx_hal_rtc_ex.c **** 
ARM GAS  /tmp/cc49nhBG.s 			page 64


1395:Drivers/STM32L4xx_HAL_Driver/Src/stm32l4xx_hal_rtc_ex.c ****   return HAL_OK;
 2071              		.loc 1 1395 3 discriminator 2 view .LVU713
 2072              		.loc 1 1395 10 is_stmt 0 discriminator 2 view .LVU714
 2073 003a 1846     		mov	r0, r3
 2074              	.LVL130:
 2075              		.loc 1 1395 10 discriminator 2 view .LVU715
 2076 003c 7047     		bx	lr
 2077              	.LVL131:
 2078              	.L121:
1377:Drivers/STM32L4xx_HAL_Driver/Src/stm32l4xx_hal_rtc_ex.c **** 
 2079              		.loc 1 1377 3 view .LVU716
 2080 003e 0220     		movs	r0, #2
 2081              	.LVL132:
1396:Drivers/STM32L4xx_HAL_Driver/Src/stm32l4xx_hal_rtc_ex.c **** }
 2082              		.loc 1 1396 1 view .LVU717
 2083 0040 7047     		bx	lr
 2084              		.cfi_endproc
 2085              	.LFE152:
 2087              		.section	.text.HAL_RTCEx_SetRefClock,"ax",%progbits
 2088              		.align	1
 2089              		.global	HAL_RTCEx_SetRefClock
 2090              		.syntax unified
 2091              		.thumb
 2092              		.thumb_func
 2093              		.fpu fpv4-sp-d16
 2095              	HAL_RTCEx_SetRefClock:
 2096              	.LVL133:
 2097              	.LFB153:
1397:Drivers/STM32L4xx_HAL_Driver/Src/stm32l4xx_hal_rtc_ex.c **** 
1398:Drivers/STM32L4xx_HAL_Driver/Src/stm32l4xx_hal_rtc_ex.c **** /**
1399:Drivers/STM32L4xx_HAL_Driver/Src/stm32l4xx_hal_rtc_ex.c ****   * @brief  Enable the RTC reference clock detection.
1400:Drivers/STM32L4xx_HAL_Driver/Src/stm32l4xx_hal_rtc_ex.c ****   * @param  hrtc RTC handle
1401:Drivers/STM32L4xx_HAL_Driver/Src/stm32l4xx_hal_rtc_ex.c ****   * @retval HAL status
1402:Drivers/STM32L4xx_HAL_Driver/Src/stm32l4xx_hal_rtc_ex.c ****   */
1403:Drivers/STM32L4xx_HAL_Driver/Src/stm32l4xx_hal_rtc_ex.c **** HAL_StatusTypeDef HAL_RTCEx_SetRefClock(RTC_HandleTypeDef *hrtc)
1404:Drivers/STM32L4xx_HAL_Driver/Src/stm32l4xx_hal_rtc_ex.c **** {
 2098              		.loc 1 1404 1 is_stmt 1 view -0
 2099              		.cfi_startproc
 2100              		@ args = 0, pretend = 0, frame = 0
 2101              		@ frame_needed = 0, uses_anonymous_args = 0
1405:Drivers/STM32L4xx_HAL_Driver/Src/stm32l4xx_hal_rtc_ex.c ****   HAL_StatusTypeDef status;
 2102              		.loc 1 1405 3 view .LVU719
1406:Drivers/STM32L4xx_HAL_Driver/Src/stm32l4xx_hal_rtc_ex.c **** 
1407:Drivers/STM32L4xx_HAL_Driver/Src/stm32l4xx_hal_rtc_ex.c ****   /* Process Locked */
1408:Drivers/STM32L4xx_HAL_Driver/Src/stm32l4xx_hal_rtc_ex.c ****   __HAL_LOCK(hrtc);
 2103              		.loc 1 1408 3 view .LVU720
 2104              		.loc 1 1408 3 view .LVU721
 2105 0000 90F82830 		ldrb	r3, [r0, #40]	@ zero_extendqisi2
 2106 0004 012B     		cmp	r3, #1
 2107 0006 24D0     		beq	.L126
1404:Drivers/STM32L4xx_HAL_Driver/Src/stm32l4xx_hal_rtc_ex.c ****   HAL_StatusTypeDef status;
 2108              		.loc 1 1404 1 is_stmt 0 discriminator 2 view .LVU722
 2109 0008 10B5     		push	{r4, lr}
 2110              	.LCFI18:
 2111              		.cfi_def_cfa_offset 8
 2112              		.cfi_offset 4, -8
 2113              		.cfi_offset 14, -4
ARM GAS  /tmp/cc49nhBG.s 			page 65


 2114 000a 0446     		mov	r4, r0
 2115              		.loc 1 1408 3 is_stmt 1 discriminator 2 view .LVU723
 2116 000c 0123     		movs	r3, #1
 2117 000e 80F82830 		strb	r3, [r0, #40]
 2118              		.loc 1 1408 3 discriminator 2 view .LVU724
1409:Drivers/STM32L4xx_HAL_Driver/Src/stm32l4xx_hal_rtc_ex.c **** 
1410:Drivers/STM32L4xx_HAL_Driver/Src/stm32l4xx_hal_rtc_ex.c ****   hrtc->State = HAL_RTC_STATE_BUSY;
 2119              		.loc 1 1410 3 discriminator 2 view .LVU725
 2120              		.loc 1 1410 15 is_stmt 0 discriminator 2 view .LVU726
 2121 0012 0223     		movs	r3, #2
 2122 0014 80F82930 		strb	r3, [r0, #41]
1411:Drivers/STM32L4xx_HAL_Driver/Src/stm32l4xx_hal_rtc_ex.c **** 
1412:Drivers/STM32L4xx_HAL_Driver/Src/stm32l4xx_hal_rtc_ex.c ****   /* Disable the write protection for RTC registers */
1413:Drivers/STM32L4xx_HAL_Driver/Src/stm32l4xx_hal_rtc_ex.c ****   __HAL_RTC_WRITEPROTECTION_DISABLE(hrtc);
 2123              		.loc 1 1413 3 is_stmt 1 discriminator 2 view .LVU727
 2124              		.loc 1 1413 3 discriminator 2 view .LVU728
 2125 0018 0368     		ldr	r3, [r0]
 2126 001a CA22     		movs	r2, #202
 2127 001c 5A62     		str	r2, [r3, #36]
 2128              		.loc 1 1413 3 discriminator 2 view .LVU729
 2129 001e 0368     		ldr	r3, [r0]
 2130 0020 5322     		movs	r2, #83
 2131 0022 5A62     		str	r2, [r3, #36]
 2132              		.loc 1 1413 3 discriminator 2 view .LVU730
1414:Drivers/STM32L4xx_HAL_Driver/Src/stm32l4xx_hal_rtc_ex.c **** 
1415:Drivers/STM32L4xx_HAL_Driver/Src/stm32l4xx_hal_rtc_ex.c ****   /* Enter Initialization mode */
1416:Drivers/STM32L4xx_HAL_Driver/Src/stm32l4xx_hal_rtc_ex.c ****   status = RTC_EnterInitMode(hrtc);
 2133              		.loc 1 1416 3 discriminator 2 view .LVU731
 2134              		.loc 1 1416 12 is_stmt 0 discriminator 2 view .LVU732
 2135 0024 FFF7FEFF 		bl	RTC_EnterInitMode
 2136              	.LVL134:
1417:Drivers/STM32L4xx_HAL_Driver/Src/stm32l4xx_hal_rtc_ex.c ****   if (status == HAL_OK)
 2137              		.loc 1 1417 3 is_stmt 1 discriminator 2 view .LVU733
 2138              		.loc 1 1417 6 is_stmt 0 discriminator 2 view .LVU734
 2139 0028 50B1     		cbz	r0, .L131
 2140              	.L124:
1418:Drivers/STM32L4xx_HAL_Driver/Src/stm32l4xx_hal_rtc_ex.c ****   {
1419:Drivers/STM32L4xx_HAL_Driver/Src/stm32l4xx_hal_rtc_ex.c ****     __HAL_RTC_CLOCKREF_DETECTION_ENABLE(hrtc);
1420:Drivers/STM32L4xx_HAL_Driver/Src/stm32l4xx_hal_rtc_ex.c **** 
1421:Drivers/STM32L4xx_HAL_Driver/Src/stm32l4xx_hal_rtc_ex.c ****     /* Exit Initialization mode */
1422:Drivers/STM32L4xx_HAL_Driver/Src/stm32l4xx_hal_rtc_ex.c ****     status = RTC_ExitInitMode(hrtc);
1423:Drivers/STM32L4xx_HAL_Driver/Src/stm32l4xx_hal_rtc_ex.c ****   }
1424:Drivers/STM32L4xx_HAL_Driver/Src/stm32l4xx_hal_rtc_ex.c **** 
1425:Drivers/STM32L4xx_HAL_Driver/Src/stm32l4xx_hal_rtc_ex.c ****   /* Enable the write protection for RTC registers */
1426:Drivers/STM32L4xx_HAL_Driver/Src/stm32l4xx_hal_rtc_ex.c ****   __HAL_RTC_WRITEPROTECTION_ENABLE(hrtc);
 2141              		.loc 1 1426 3 is_stmt 1 view .LVU735
 2142              		.loc 1 1426 3 view .LVU736
 2143 002a 2368     		ldr	r3, [r4]
 2144 002c FF22     		movs	r2, #255
