ARM GAS  /tmp/ccYXXIsR.s 			page 1


   1              		.cpu cortex-m4
   2              		.eabi_attribute 27, 1
   3              		.eabi_attribute 28, 1
   4              		.eabi_attribute 20, 1
   5              		.eabi_attribute 21, 1
   6              		.eabi_attribute 23, 3
   7              		.eabi_attribute 24, 1
   8              		.eabi_attribute 25, 1
   9              		.eabi_attribute 26, 1
  10              		.eabi_attribute 30, 1
  11              		.eabi_attribute 34, 1
  12              		.eabi_attribute 18, 4
  13              		.file	"temperature_humidity_sensor.c"
  14              		.text
  15              	.Ltext0:
  16              		.cfi_sections	.debug_frame
  17              		.section	.text.handleError,"ax",%progbits
  18              		.align	1
  19              		.arch armv7e-m
  20              		.syntax unified
  21              		.thumb
  22              		.thumb_func
  23              		.fpu fpv4-sp-d16
  25              	handleError:
  26              	.LVL0:
  27              	.LFB145:
  28              		.file 1 "app/tasks/temperature_humidity_sensor/temperature_humidity_sensor.c"
   1:app/tasks/temperature_humidity_sensor/temperature_humidity_sensor.c **** /*!
   2:app/tasks/temperature_humidity_sensor/temperature_humidity_sensor.c ****  * @file temperature_humidity_sensor.c
   3:app/tasks/temperature_humidity_sensor/temperature_humidity_sensor.c ****  * @brief implementation of temperature_humidity_sensor
   4:app/tasks/temperature_humidity_sensor/temperature_humidity_sensor.c ****  *
   5:app/tasks/temperature_humidity_sensor/temperature_humidity_sensor.c ****  * Detailed description of the implementation file.
   6:app/tasks/temperature_humidity_sensor/temperature_humidity_sensor.c ****  *
   7:app/tasks/temperature_humidity_sensor/temperature_humidity_sensor.c ****  * @date 17/07/2024
   8:app/tasks/temperature_humidity_sensor/temperature_humidity_sensor.c ****  * @author artempolisskyi
   9:app/tasks/temperature_humidity_sensor/temperature_humidity_sensor.c ****  */
  10:app/tasks/temperature_humidity_sensor/temperature_humidity_sensor.c **** 
  11:app/tasks/temperature_humidity_sensor/temperature_humidity_sensor.c **** #include "temperature_humidity_sensor.h"
  12:app/tasks/temperature_humidity_sensor/temperature_humidity_sensor.c **** 
  13:app/tasks/temperature_humidity_sensor/temperature_humidity_sensor.c **** static osStatus_t handleTHSensorFSM(TH_SENS_Actor_t *this, message_t *message);
  14:app/tasks/temperature_humidity_sensor/temperature_humidity_sensor.c **** /** states handlers */
  15:app/tasks/temperature_humidity_sensor/temperature_humidity_sensor.c **** static osStatus_t handleInit(TH_SENS_Actor_t *this, message_t *message);
  16:app/tasks/temperature_humidity_sensor/temperature_humidity_sensor.c **** static osStatus_t handleIdle(TH_SENS_Actor_t *this, message_t *message);
  17:app/tasks/temperature_humidity_sensor/temperature_humidity_sensor.c **** static osStatus_t handleContinuousMeasure(TH_SENS_Actor_t *this, message_t *message);
  18:app/tasks/temperature_humidity_sensor/temperature_humidity_sensor.c **** static osStatus_t handleError(TH_SENS_Actor_t *this, message_t *message);
  19:app/tasks/temperature_humidity_sensor/temperature_humidity_sensor.c **** /** utils */
  20:app/tasks/temperature_humidity_sensor/temperature_humidity_sensor.c **** static uint32_t delayMs(uint32_t ms);
  21:app/tasks/temperature_humidity_sensor/temperature_humidity_sensor.c **** 
  22:app/tasks/temperature_humidity_sensor/temperature_humidity_sensor.c **** extern actor_t* ACTORS_LIST_SystemRegistry[MAX_ACTORS];
  23:app/tasks/temperature_humidity_sensor/temperature_humidity_sensor.c **** 
  24:app/tasks/temperature_humidity_sensor/temperature_humidity_sensor.c **** TH_SENS_Actor_t TH_SENS_Actor = {
  25:app/tasks/temperature_humidity_sensor/temperature_humidity_sensor.c ****         .super = {
  26:app/tasks/temperature_humidity_sensor/temperature_humidity_sensor.c ****                 .actorId = TEMPERATURE_HUMIDITY_SENSOR_ACTOR_ID,
  27:app/tasks/temperature_humidity_sensor/temperature_humidity_sensor.c ****                 .messageHandler = (messageHandler_t) handleTHSensorFSM,
  28:app/tasks/temperature_humidity_sensor/temperature_humidity_sensor.c ****                 .osMessageQueueId = NULL,
  29:app/tasks/temperature_humidity_sensor/temperature_humidity_sensor.c ****                 .osThreadId = NULL,
  30:app/tasks/temperature_humidity_sensor/temperature_humidity_sensor.c ****         },
ARM GAS  /tmp/ccYXXIsR.s 			page 2


  31:app/tasks/temperature_humidity_sensor/temperature_humidity_sensor.c ****         .state = TH_SENS_NO_STATE,
  32:app/tasks/temperature_humidity_sensor/temperature_humidity_sensor.c ****         .rawTemperature = 0x0000,
  33:app/tasks/temperature_humidity_sensor/temperature_humidity_sensor.c ****         .rawHumidity = 0x0000,
  34:app/tasks/temperature_humidity_sensor/temperature_humidity_sensor.c **** };
  35:app/tasks/temperature_humidity_sensor/temperature_humidity_sensor.c **** 
  36:app/tasks/temperature_humidity_sensor/temperature_humidity_sensor.c **** uint32_t thSensorTaskBuffer[DEFAULT_TASK_STACK_SIZE_WORDS];
  37:app/tasks/temperature_humidity_sensor/temperature_humidity_sensor.c **** StaticTask_t thSensorTaskControlBlock;
  38:app/tasks/temperature_humidity_sensor/temperature_humidity_sensor.c **** const osThreadAttr_t thSensorTaskDescription = {
  39:app/tasks/temperature_humidity_sensor/temperature_humidity_sensor.c ****         .name = "thSensorTask",
  40:app/tasks/temperature_humidity_sensor/temperature_humidity_sensor.c ****         .cb_mem = &thSensorTaskControlBlock,
  41:app/tasks/temperature_humidity_sensor/temperature_humidity_sensor.c ****         .cb_size = sizeof(thSensorTaskControlBlock),
  42:app/tasks/temperature_humidity_sensor/temperature_humidity_sensor.c ****         .stack_mem = &thSensorTaskBuffer[0],
  43:app/tasks/temperature_humidity_sensor/temperature_humidity_sensor.c ****         .stack_size = sizeof(thSensorTaskBuffer),
  44:app/tasks/temperature_humidity_sensor/temperature_humidity_sensor.c ****         .priority = (osPriority_t) osPriorityNormal,
  45:app/tasks/temperature_humidity_sensor/temperature_humidity_sensor.c **** };
  46:app/tasks/temperature_humidity_sensor/temperature_humidity_sensor.c **** 
  47:app/tasks/temperature_humidity_sensor/temperature_humidity_sensor.c **** actor_t* TH_SENS_TaskInit(void) {
  48:app/tasks/temperature_humidity_sensor/temperature_humidity_sensor.c ****   TH_SENS_Actor.super.osMessageQueueId = osMessageQueueNew(DEFAULT_QUEUE_SIZE, DEFAULT_QUEUE_MESSAG
  49:app/tasks/temperature_humidity_sensor/temperature_humidity_sensor.c ****           .name = "thSensorQueue"
  50:app/tasks/temperature_humidity_sensor/temperature_humidity_sensor.c ****   });
  51:app/tasks/temperature_humidity_sensor/temperature_humidity_sensor.c ****   TH_SENS_Actor.super.osThreadId = osThreadNew(TH_SENS_Task, NULL, &thSensorTaskDescription);
  52:app/tasks/temperature_humidity_sensor/temperature_humidity_sensor.c **** 
  53:app/tasks/temperature_humidity_sensor/temperature_humidity_sensor.c ****   return (actor_t*) &TH_SENS_Actor;
  54:app/tasks/temperature_humidity_sensor/temperature_humidity_sensor.c ****  }
  55:app/tasks/temperature_humidity_sensor/temperature_humidity_sensor.c **** 
  56:app/tasks/temperature_humidity_sensor/temperature_humidity_sensor.c **** void TH_SENS_Task(void *argument) {
  57:app/tasks/temperature_humidity_sensor/temperature_humidity_sensor.c ****   (void) argument; // Avoid unused parameter warning
  58:app/tasks/temperature_humidity_sensor/temperature_humidity_sensor.c ****   message_t msg;
  59:app/tasks/temperature_humidity_sensor/temperature_humidity_sensor.c **** 
  60:app/tasks/temperature_humidity_sensor/temperature_humidity_sensor.c ****   fprintf(stdout, "Task %s started\n", thSensorTaskDescription.name);
  61:app/tasks/temperature_humidity_sensor/temperature_humidity_sensor.c **** 
  62:app/tasks/temperature_humidity_sensor/temperature_humidity_sensor.c ****   for (;;) {
  63:app/tasks/temperature_humidity_sensor/temperature_humidity_sensor.c ****     // Wait for messages from the queue
  64:app/tasks/temperature_humidity_sensor/temperature_humidity_sensor.c ****     if (osMessageQueueGet(TH_SENS_Actor.super.osMessageQueueId, &msg, NULL, osWaitForever) == osOK)
  65:app/tasks/temperature_humidity_sensor/temperature_humidity_sensor.c ****       osStatus_t handleMessageStatus = TH_SENS_Actor.super.messageHandler((actor_t *) &TH_SENS_Acto
  66:app/tasks/temperature_humidity_sensor/temperature_humidity_sensor.c **** 
  67:app/tasks/temperature_humidity_sensor/temperature_humidity_sensor.c ****       if (handleMessageStatus != osOK) {
  68:app/tasks/temperature_humidity_sensor/temperature_humidity_sensor.c ****         fprintf(stderr, "%s: Error handling event %u in state %ul\n", thSensorTaskDescription.name,
  69:app/tasks/temperature_humidity_sensor/temperature_humidity_sensor.c ****         osMessageQueueId_t evManagerQueue = ACTORS_LIST_SystemRegistry[EV_MANAGER_ACTOR_ID]->osMess
  70:app/tasks/temperature_humidity_sensor/temperature_humidity_sensor.c ****         osMessageQueuePut(evManagerQueue, &(message_t){GLOBAL_ERROR, .payload.value = TEMPERATURE_H
  71:app/tasks/temperature_humidity_sensor/temperature_humidity_sensor.c ****         TO_STATE(&TH_SENS_Actor, TH_SENS_STATE_ERROR);
  72:app/tasks/temperature_humidity_sensor/temperature_humidity_sensor.c ****       }
  73:app/tasks/temperature_humidity_sensor/temperature_humidity_sensor.c ****     }
  74:app/tasks/temperature_humidity_sensor/temperature_humidity_sensor.c ****   }
  75:app/tasks/temperature_humidity_sensor/temperature_humidity_sensor.c **** }
  76:app/tasks/temperature_humidity_sensor/temperature_humidity_sensor.c **** 
  77:app/tasks/temperature_humidity_sensor/temperature_humidity_sensor.c **** static osStatus_t handleTHSensorFSM(TH_SENS_Actor_t *this, message_t *message) {
  78:app/tasks/temperature_humidity_sensor/temperature_humidity_sensor.c ****   switch (this->state) {
  79:app/tasks/temperature_humidity_sensor/temperature_humidity_sensor.c ****     case TH_SENS_NO_STATE:
  80:app/tasks/temperature_humidity_sensor/temperature_humidity_sensor.c ****       return handleInit(this, message);
  81:app/tasks/temperature_humidity_sensor/temperature_humidity_sensor.c ****     case TH_SENS_IDLE_STATE:
  82:app/tasks/temperature_humidity_sensor/temperature_humidity_sensor.c ****       return handleIdle(this, message);
  83:app/tasks/temperature_humidity_sensor/temperature_humidity_sensor.c ****     case TH_SENS_CONTINUOUS_MEASURE_STATE:
  84:app/tasks/temperature_humidity_sensor/temperature_humidity_sensor.c ****       return handleContinuousMeasure(this, message);
  85:app/tasks/temperature_humidity_sensor/temperature_humidity_sensor.c ****     case TH_SENS_STATE_ERROR:
  86:app/tasks/temperature_humidity_sensor/temperature_humidity_sensor.c ****       // TODO implement error handling
  87:app/tasks/temperature_humidity_sensor/temperature_humidity_sensor.c ****       return handleError(this, message);
ARM GAS  /tmp/ccYXXIsR.s 			page 3


  88:app/tasks/temperature_humidity_sensor/temperature_humidity_sensor.c ****     default:
  89:app/tasks/temperature_humidity_sensor/temperature_humidity_sensor.c ****       return osOK;
  90:app/tasks/temperature_humidity_sensor/temperature_humidity_sensor.c ****   }
  91:app/tasks/temperature_humidity_sensor/temperature_humidity_sensor.c **** }
  92:app/tasks/temperature_humidity_sensor/temperature_humidity_sensor.c **** 
  93:app/tasks/temperature_humidity_sensor/temperature_humidity_sensor.c **** static osStatus_t handleInit(TH_SENS_Actor_t *this, message_t *message) {
  94:app/tasks/temperature_humidity_sensor/temperature_humidity_sensor.c ****   if (GLOBAL_CMD_INITIALIZE == message->event) {
  95:app/tasks/temperature_humidity_sensor/temperature_humidity_sensor.c ****     // provide IO functions to the sensor driver
  96:app/tasks/temperature_humidity_sensor/temperature_humidity_sensor.c ****     osStatus_t ioStatus = SHT3x_InitIO(TH_SENS_I2C_ADDRESS, BSP_I2C1_Send, BSP_I2C1_Recv, delayMs, 
  97:app/tasks/temperature_humidity_sensor/temperature_humidity_sensor.c **** 
  98:app/tasks/temperature_humidity_sensor/temperature_humidity_sensor.c ****     if (ioStatus != osOK) return osError;
  99:app/tasks/temperature_humidity_sensor/temperature_humidity_sensor.c **** 
 100:app/tasks/temperature_humidity_sensor/temperature_humidity_sensor.c ****     // reset the sensor by pulling down _TEMP_RESET, at least 1uS duration required
 101:app/tasks/temperature_humidity_sensor/temperature_humidity_sensor.c ****     HAL_GPIO_WritePin(_TEMP_RESET_GPIO_Port, _TEMP_RESET_Pin, GPIO_PIN_RESET);
 102:app/tasks/temperature_humidity_sensor/temperature_humidity_sensor.c ****     delayMs(1);
 103:app/tasks/temperature_humidity_sensor/temperature_humidity_sensor.c ****     HAL_GPIO_WritePin(_TEMP_RESET_GPIO_Port, _TEMP_RESET_Pin, GPIO_PIN_SET);
 104:app/tasks/temperature_humidity_sensor/temperature_humidity_sensor.c ****     delayMs(1);
 105:app/tasks/temperature_humidity_sensor/temperature_humidity_sensor.c **** 
 106:app/tasks/temperature_humidity_sensor/temperature_humidity_sensor.c ****     // read sensor ID
 107:app/tasks/temperature_humidity_sensor/temperature_humidity_sensor.c ****     uint32_t sht3xId = 0x00000000;
 108:app/tasks/temperature_humidity_sensor/temperature_humidity_sensor.c ****     ioStatus = SHT3x_ReadDeviceID(&sht3xId);
 109:app/tasks/temperature_humidity_sensor/temperature_humidity_sensor.c **** 
 110:app/tasks/temperature_humidity_sensor/temperature_humidity_sensor.c ****     if (ioStatus != osOK) return osError;
 111:app/tasks/temperature_humidity_sensor/temperature_humidity_sensor.c ****     fprintf(stdout, "SHT3x ID: %lu\n", sht3xId);
 112:app/tasks/temperature_humidity_sensor/temperature_humidity_sensor.c **** 
 113:app/tasks/temperature_humidity_sensor/temperature_humidity_sensor.c ****     // publish to event manager that the sensor is initialized
 114:app/tasks/temperature_humidity_sensor/temperature_humidity_sensor.c ****     osMessageQueueId_t evManagerQueue = ACTORS_LIST_SystemRegistry[EV_MANAGER_ACTOR_ID]->osMessageQ
 115:app/tasks/temperature_humidity_sensor/temperature_humidity_sensor.c ****     osMessageQueuePut(evManagerQueue, &(message_t){GLOBAL_INITIALIZE_SUCCESS, .payload.value = TEMP
 116:app/tasks/temperature_humidity_sensor/temperature_humidity_sensor.c **** 
 117:app/tasks/temperature_humidity_sensor/temperature_humidity_sensor.c ****     fprintf(stdout, "Temperature & Humidity sensor %ul initialized\n", TEMPERATURE_HUMIDITY_SENSOR_
 118:app/tasks/temperature_humidity_sensor/temperature_humidity_sensor.c ****     TO_STATE(this, TH_SENS_IDLE_STATE);
 119:app/tasks/temperature_humidity_sensor/temperature_humidity_sensor.c ****   }
 120:app/tasks/temperature_humidity_sensor/temperature_humidity_sensor.c **** 
 121:app/tasks/temperature_humidity_sensor/temperature_humidity_sensor.c ****   return osOK;
 122:app/tasks/temperature_humidity_sensor/temperature_humidity_sensor.c **** }
 123:app/tasks/temperature_humidity_sensor/temperature_humidity_sensor.c **** 
 124:app/tasks/temperature_humidity_sensor/temperature_humidity_sensor.c **** static osStatus_t handleIdle(TH_SENS_Actor_t *this, message_t *message) {
 125:app/tasks/temperature_humidity_sensor/temperature_humidity_sensor.c ****   osStatus_t  ioStatus = osOK;
 126:app/tasks/temperature_humidity_sensor/temperature_humidity_sensor.c **** 
 127:app/tasks/temperature_humidity_sensor/temperature_humidity_sensor.c ****   switch (message->event) {
 128:app/tasks/temperature_humidity_sensor/temperature_humidity_sensor.c ****     case GLOBAL_CMD_START_CONTINUOUS_SENSING:
 129:app/tasks/temperature_humidity_sensor/temperature_humidity_sensor.c ****       ioStatus = SHT3x_PeriodicAcquisitionMode(SHT3x_START_MEASUREMENT_0_5_MPS_LOW_REPEATABILITY_CM
 130:app/tasks/temperature_humidity_sensor/temperature_humidity_sensor.c ****       if (ioStatus != osOK) return osError;
 131:app/tasks/temperature_humidity_sensor/temperature_humidity_sensor.c **** 
 132:app/tasks/temperature_humidity_sensor/temperature_humidity_sensor.c ****       TO_STATE(this, TH_SENS_CONTINUOUS_MEASURE_STATE);
 133:app/tasks/temperature_humidity_sensor/temperature_humidity_sensor.c ****       return osOK;
 134:app/tasks/temperature_humidity_sensor/temperature_humidity_sensor.c ****     case TH_SENS_START_SINGLE_SHOT_READ:
 135:app/tasks/temperature_humidity_sensor/temperature_humidity_sensor.c ****       // TODO run single shot measurement
 136:app/tasks/temperature_humidity_sensor/temperature_humidity_sensor.c ****       fprintf(stdout, "Raw: temperature: %d humidity %d\n", this->rawTemperature, this->rawHumidity
 137:app/tasks/temperature_humidity_sensor/temperature_humidity_sensor.c ****       TO_STATE(this, TH_SENS_IDLE_STATE);
 138:app/tasks/temperature_humidity_sensor/temperature_humidity_sensor.c ****       return osOK;
 139:app/tasks/temperature_humidity_sensor/temperature_humidity_sensor.c ****     default:
 140:app/tasks/temperature_humidity_sensor/temperature_humidity_sensor.c ****       return osOK;
 141:app/tasks/temperature_humidity_sensor/temperature_humidity_sensor.c ****   }
 142:app/tasks/temperature_humidity_sensor/temperature_humidity_sensor.c **** }
 143:app/tasks/temperature_humidity_sensor/temperature_humidity_sensor.c **** 
 144:app/tasks/temperature_humidity_sensor/temperature_humidity_sensor.c **** static osStatus_t handleContinuousMeasure(TH_SENS_Actor_t *this, message_t *message) {
ARM GAS  /tmp/ccYXXIsR.s 			page 4


 145:app/tasks/temperature_humidity_sensor/temperature_humidity_sensor.c ****   osStatus_t  ioStatus = osOK;
 146:app/tasks/temperature_humidity_sensor/temperature_humidity_sensor.c **** 
 147:app/tasks/temperature_humidity_sensor/temperature_humidity_sensor.c ****   switch (message->event) {
 148:app/tasks/temperature_humidity_sensor/temperature_humidity_sensor.c ****     case GLOBAL_WAKE_N_READ:
 149:app/tasks/temperature_humidity_sensor/temperature_humidity_sensor.c ****       ioStatus = SHT3x_ReadMeasurements(&this->rawTemperature, &this->rawHumidity);
 150:app/tasks/temperature_humidity_sensor/temperature_humidity_sensor.c ****       if (ioStatus != osOK) return osError;
 151:app/tasks/temperature_humidity_sensor/temperature_humidity_sensor.c **** 
 152:app/tasks/temperature_humidity_sensor/temperature_humidity_sensor.c ****       float t = SHT3x_RawToTemperatureC(this->rawTemperature);
 153:app/tasks/temperature_humidity_sensor/temperature_humidity_sensor.c ****       float rh = SHT3x_RawToHumidityRH(this->rawHumidity);
 154:app/tasks/temperature_humidity_sensor/temperature_humidity_sensor.c ****       fprintf(stdout, "Temperature: %.2f humidity %.2f\n", t, rh);
 155:app/tasks/temperature_humidity_sensor/temperature_humidity_sensor.c **** 
 156:app/tasks/temperature_humidity_sensor/temperature_humidity_sensor.c ****       TO_STATE(this, TH_SENS_CONTINUOUS_MEASURE_STATE);
 157:app/tasks/temperature_humidity_sensor/temperature_humidity_sensor.c ****       return osOK;
 158:app/tasks/temperature_humidity_sensor/temperature_humidity_sensor.c ****     default:
 159:app/tasks/temperature_humidity_sensor/temperature_humidity_sensor.c ****       return osOK;
 160:app/tasks/temperature_humidity_sensor/temperature_humidity_sensor.c ****   }
 161:app/tasks/temperature_humidity_sensor/temperature_humidity_sensor.c **** }
 162:app/tasks/temperature_humidity_sensor/temperature_humidity_sensor.c **** 
 163:app/tasks/temperature_humidity_sensor/temperature_humidity_sensor.c **** static osStatus_t handleError(TH_SENS_Actor_t *this, message_t *message) {
  29              		.loc 1 163 74 view -0
  30              		.cfi_startproc
  31              		@ args = 0, pretend = 0, frame = 0
  32              		@ frame_needed = 0, uses_anonymous_args = 0
  33              		@ link register save eliminated.
 164:app/tasks/temperature_humidity_sensor/temperature_humidity_sensor.c ****   return osOK;
  34              		.loc 1 164 3 view .LVU1
 165:app/tasks/temperature_humidity_sensor/temperature_humidity_sensor.c **** }
  35              		.loc 1 165 1 is_stmt 0 view .LVU2
  36 0000 0020     		movs	r0, #0
  37              	.LVL1:
  38              		.loc 1 165 1 view .LVU3
  39 0002 7047     		bx	lr
  40              		.cfi_endproc
  41              	.LFE145:
  43              		.section	.text.delayMs,"ax",%progbits
  44              		.align	1
  45              		.syntax unified
  46              		.thumb
  47              		.thumb_func
  48              		.fpu fpv4-sp-d16
  50              	delayMs:
  51              	.LVL2:
  52              	.LFB146:
 166:app/tasks/temperature_humidity_sensor/temperature_humidity_sensor.c **** 
 167:app/tasks/temperature_humidity_sensor/temperature_humidity_sensor.c **** static uint32_t delayMs(uint32_t ms) {
  53              		.loc 1 167 38 is_stmt 1 view -0
  54              		.cfi_startproc
  55              		@ args = 0, pretend = 0, frame = 0
  56              		@ frame_needed = 0, uses_anonymous_args = 0
  57              		.loc 1 167 38 is_stmt 0 view .LVU5
  58 0000 08B5     		push	{r3, lr}
  59              	.LCFI0:
  60              		.cfi_def_cfa_offset 8
  61              		.cfi_offset 3, -8
  62              		.cfi_offset 14, -4
 168:app/tasks/temperature_humidity_sensor/temperature_humidity_sensor.c ****   uint32_t ticks = (ms * configTICK_RATE_HZ) / 1000;
  63              		.loc 1 168 3 is_stmt 1 view .LVU6
ARM GAS  /tmp/ccYXXIsR.s 			page 5


  64              		.loc 1 168 24 is_stmt 0 view .LVU7
  65 0002 4FF47A73 		mov	r3, #1000
  66 0006 03FB00F0 		mul	r0, r3, r0
  67              	.LVL3:
  68              		.loc 1 168 12 view .LVU8
  69 000a 034B     		ldr	r3, .L4
  70 000c A3FB0030 		umull	r3, r0, r3, r0
  71              	.LVL4:
 169:app/tasks/temperature_humidity_sensor/temperature_humidity_sensor.c ****   return osDelay(ticks);
  72              		.loc 1 169 3 is_stmt 1 view .LVU9
  73              		.loc 1 169 10 is_stmt 0 view .LVU10
  74 0010 8009     		lsrs	r0, r0, #6
  75              	.LVL5:
  76              		.loc 1 169 10 view .LVU11
  77 0012 FFF7FEFF 		bl	osDelay
  78              	.LVL6:
 170:app/tasks/temperature_humidity_sensor/temperature_humidity_sensor.c **** }...
  79              		.loc 1 170 1 view .LVU12
  80 0016 08BD     		pop	{r3, pc}
  81              	.L5:
  82              		.align	2
  83              	.L4:
  84 0018 D34D6210 		.word	274877907
  85              		.cfi_endproc
  86              	.LFE146:
  88              		.section	.rodata.handleInit.str1.4,"aMS",%progbits,1
  89              		.align	2
  90              	.LC0:
  91 0000 53485433 		.ascii	"SHT3x ID: %lu\012\000"
  91      78204944 
  91      3A20256C 
  91      750A00
  92 000f 00       		.align	2
  93              	.LC1:
  94 0010 54656D70 		.ascii	"Temperature & Humidity sensor %ul initialized\012\000"
  94      65726174 
  94      75726520 
  94      26204875 
  94      6D696469 
  95 003f 00       		.align	2
  96              	.LC2:
  97 0040 54485F53 		.ascii	"TH_SENS_IDLE_STATE\000"
  97      454E535F 
  97      49444C45 
  97      5F535441 
  97      544500
  98 0053 00       		.align	2
  99              	.LC3:
 100 0054 256C753A 		.ascii	"%lu: %s\012\000"
 100      2025730A 
 100      00
 101              		.section	.text.handleInit,"ax",%progbits
 102              		.align	1
 103              		.syntax unified
 104              		.thumb
 105              		.thumb_func
 106              		.fpu fpv4-sp-d16
ARM GAS  /tmp/ccYXXIsR.s 			page 6


 108              	handleInit:
 109              	.LVL7:
 110              	.LFB142:
  93:app/tasks/temperature_humidity_sensor/temperature_humidity_sensor.c **** static osStatus_t handleInit(TH_SENS_Actor_t *this, message_t *message) {
 111              		.loc 1 93 73 is_stmt 1 view -0
 112              		.cfi_startproc
 113              		@ args = 0, pretend = 0, frame = 16
 114              		@ frame_needed = 0, uses_anonymous_args = 0
  93:app/tasks/temperature_humidity_sensor/temperature_humidity_sensor.c **** static osStatus_t handleInit(TH_SENS_Actor_t *this, message_t *message) {
 115              		.loc 1 93 73 is_stmt 0 view .LVU14
 116 0000 F0B5     		push	{r4, r5, r6, r7, lr}
 117              	.LCFI1:
 118              		.cfi_def_cfa_offset 20
 119              		.cfi_offset 4, -20
 120              		.cfi_offset 5, -16
 121              		.cfi_offset 6, -12
 122              		.cfi_offset 7, -8
 123              		.cfi_offset 14, -4
 124 0002 87B0     		sub	sp, sp, #28
 125              	.LCFI2:
 126              		.cfi_def_cfa_offset 48
  94:app/tasks/temperature_humidity_sensor/temperature_humidity_sensor.c ****   if (GLOBAL_CMD_INITIALIZE == message->event) {
 127              		.loc 1 94 3 is_stmt 1 view .LVU15
  94:app/tasks/temperature_humidity_sensor/temperature_humidity_sensor.c ****   if (GLOBAL_CMD_INITIALIZE == message->event) {
 128              		.loc 1 94 39 is_stmt 0 view .LVU16
 129 0004 0B78     		ldrb	r3, [r1]	@ zero_extendqisi2
  94:app/tasks/temperature_humidity_sensor/temperature_humidity_sensor.c ****   if (GLOBAL_CMD_INITIALIZE == message->event) {
 130              		.loc 1 94 6 view .LVU17
 131 0006 012B     		cmp	r3, #1
 132 0008 03D0     		beq	.L11
 121:app/tasks/temperature_humidity_sensor/temperature_humidity_sensor.c ****   return osOK;
 133              		.loc 1 121 10 view .LVU18
 134 000a 0024     		movs	r4, #0
 135              	.LVL8:
 136              	.L6:
 122:app/tasks/temperature_humidity_sensor/temperature_humidity_sensor.c **** }
 137              		.loc 1 122 1 view .LVU19
 138 000c 2046     		mov	r0, r4
 139 000e 07B0     		add	sp, sp, #28
 140              	.LCFI3:
 141              		.cfi_remember_state
 142              		.cfi_def_cfa_offset 20
 143              		@ sp needed
 144 0010 F0BD     		pop	{r4, r5, r6, r7, pc}
 145              	.LVL9:
 146              	.L11:
 147              	.LCFI4:
 148              		.cfi_restore_state
 122:app/tasks/temperature_humidity_sensor/temperature_humidity_sensor.c **** }
 149              		.loc 1 122 1 view .LVU20
 150 0012 0546     		mov	r5, r0
 151              	.LBB2:
  96:app/tasks/temperature_humidity_sensor/temperature_humidity_sensor.c ****     osStatus_t ioStatus = SHT3x_InitIO(TH_SENS_I2C_ADDRESS, BSP_I2C1_Send, BSP_I2C1_Recv, delayMs, 
 152              		.loc 1 96 5 is_stmt 1 view .LVU21
  96:app/tasks/temperature_humidity_sensor/temperature_humidity_sensor.c ****     osStatus_t ioStatus = SHT3x_InitIO(TH_SENS_I2C_ADDRESS, BSP_I2C1_Send, BSP_I2C1_Recv, delayMs, 
 153              		.loc 1 96 27 is_stmt 0 view .LVU22
 154 0014 0023     		movs	r3, #0
ARM GAS  /tmp/ccYXXIsR.s 			page 7


 155 0016 0093     		str	r3, [sp]
 156 0018 244B     		ldr	r3, .L12
 157 001a 254A     		ldr	r2, .L12+4
 158 001c 2549     		ldr	r1, .L12+8
 159              	.LVL10:
  96:app/tasks/temperature_humidity_sensor/temperature_humidity_sensor.c ****     osStatus_t ioStatus = SHT3x_InitIO(TH_SENS_I2C_ADDRESS, BSP_I2C1_Send, BSP_I2C1_Recv, delayMs, 
 160              		.loc 1 96 27 view .LVU23
 161 001e 8820     		movs	r0, #136
 162              	.LVL11:
  96:app/tasks/temperature_humidity_sensor/temperature_humidity_sensor.c ****     osStatus_t ioStatus = SHT3x_InitIO(TH_SENS_I2C_ADDRESS, BSP_I2C1_Send, BSP_I2C1_Recv, delayMs, 
 163              		.loc 1 96 27 view .LVU24
 164 0020 FFF7FEFF 		bl	SHT3x_InitIO
 165              	.LVL12:
  98:app/tasks/temperature_humidity_sensor/temperature_humidity_sensor.c ****     if (ioStatus != osOK) return osError;
 166              		.loc 1 98 5 is_stmt 1 view .LVU25
  98:app/tasks/temperature_humidity_sensor/temperature_humidity_sensor.c ****     if (ioStatus != osOK) return osError;
 167              		.loc 1 98 8 is_stmt 0 view .LVU26
 168 0024 0028     		cmp	r0, #0
 169 0026 3ED1     		bne	.L8
 101:app/tasks/temperature_humidity_sensor/temperature_humidity_sensor.c ****     HAL_GPIO_WritePin(_TEMP_RESET_GPIO_Port, _TEMP_RESET_Pin, GPIO_PIN_RESET);
 170              		.loc 1 101 5 is_stmt 1 view .LVU27
 171 0028 234C     		ldr	r4, .L12+12
 172 002a 0022     		movs	r2, #0
 173 002c 1021     		movs	r1, #16
 174 002e 2046     		mov	r0, r4
 175              	.LVL13:
 101:app/tasks/temperature_humidity_sensor/temperature_humidity_sensor.c ****     HAL_GPIO_WritePin(_TEMP_RESET_GPIO_Port, _TEMP_RESET_Pin, GPIO_PIN_RESET);
 176              		.loc 1 101 5 is_stmt 0 view .LVU28
 177 0030 FFF7FEFF 		bl	HAL_GPIO_WritePin
 178              	.LVL14:
 102:app/tasks/temperature_humidity_sensor/temperature_humidity_sensor.c ****     delayMs(1);
 179              		.loc 1 102 5 is_stmt 1 view .LVU29
 180 0034 0120     		movs	r0, #1
 181 0036 FFF7FEFF 		bl	delayMs
 182              	.LVL15:
 103:app/tasks/temperature_humidity_sensor/temperature_humidity_sensor.c ****     HAL_GPIO_WritePin(_TEMP_RESET_GPIO_Port, _TEMP_RESET_Pin, GPIO_PIN_SET);
 183              		.loc 1 103 5 view .LVU30
 184 003a 0122     		movs	r2, #1
 185 003c 1021     		movs	r1, #16
 186 003e 2046     		mov	r0, r4
 187 0040 FFF7FEFF 		bl	HAL_GPIO_WritePin
 188              	.LVL16:
 104:app/tasks/temperature_humidity_sensor/temperature_humidity_sensor.c ****     delayMs(1);
 189              		.loc 1 104 5 view .LVU31
 190 0044 0120     		movs	r0, #1
 191 0046 FFF7FEFF 		bl	delayMs
 192              	.LVL17:
 107:app/tasks/temperature_humidity_sensor/temperature_humidity_sensor.c ****     uint32_t sht3xId = 0x00000000;
 193              		.loc 1 107 5 view .LVU32
 107:app/tasks/temperature_humidity_sensor/temperature_humidity_sensor.c ****     uint32_t sht3xId = 0x00000000;
 194              		.loc 1 107 14 is_stmt 0 view .LVU33
 195 004a 0023     		movs	r3, #0
 196 004c 0293     		str	r3, [sp, #8]
 108:app/tasks/temperature_humidity_sensor/temperature_humidity_sensor.c ****     ioStatus = SHT3x_ReadDeviceID(&sht3xId);
 197              		.loc 1 108 5 is_stmt 1 view .LVU34
 108:app/tasks/temperature_humidity_sensor/temperature_humidity_sensor.c ****     ioStatus = SHT3x_ReadDeviceID(&sht3xId);
 198              		.loc 1 108 16 is_stmt 0 view .LVU35
ARM GAS  /tmp/ccYXXIsR.s 			page 8


 199 004e 02A8     		add	r0, sp, #8
 200 0050 FFF7FEFF 		bl	SHT3x_ReadDeviceID
 201              	.LVL18:
 110:app/tasks/temperature_humidity_sensor/temperature_humidity_sensor.c ****     if (ioStatus != osOK) return osError;
 202              		.loc 1 110 5 is_stmt 1 view .LVU36
 110:app/tasks/temperature_humidity_sensor/temperature_humidity_sensor.c ****     if (ioStatus != osOK) return osError;
 203              		.loc 1 110 8 is_stmt 0 view .LVU37
 204 0054 0446     		mov	r4, r0
 205 0056 30BB     		cbnz	r0, .L8
 111:app/tasks/temperature_humidity_sensor/temperature_humidity_sensor.c ****     fprintf(stdout, "SHT3x ID: %lu\n", sht3xId);
 206              		.loc 1 111 5 is_stmt 1 view .LVU38
 111:app/tasks/temperature_humidity_sensor/temperature_humidity_sensor.c ****     fprintf(stdout, "SHT3x ID: %lu\n", sht3xId);
 207              		.loc 1 111 13 is_stmt 0 view .LVU39
 208 0058 184E     		ldr	r6, .L12+16
 209 005a 3368     		ldr	r3, [r6]
 111:app/tasks/temperature_humidity_sensor/temperature_humidity_sensor.c ****     fprintf(stdout, "SHT3x ID: %lu\n", sht3xId);
 210              		.loc 1 111 5 view .LVU40
 211 005c 029A     		ldr	r2, [sp, #8]
 212 005e 1849     		ldr	r1, .L12+20
 213 0060 9868     		ldr	r0, [r3, #8]
 214              	.LVL19:
 111:app/tasks/temperature_humidity_sensor/temperature_humidity_sensor.c ****     fprintf(stdout, "SHT3x ID: %lu\n", sht3xId);
 215              		.loc 1 111 5 view .LVU41
 216 0062 FFF7FEFF 		bl	fprintf
 217              	.LVL20:
 114:app/tasks/temperature_humidity_sensor/temperature_humidity_sensor.c ****     osMessageQueueId_t evManagerQueue = ACTORS_LIST_SystemRegistry[EV_MANAGER_ACTOR_ID]->osMessageQ
 218              		.loc 1 114 5 is_stmt 1 view .LVU42
 114:app/tasks/temperature_humidity_sensor/temperature_humidity_sensor.c ****     osMessageQueueId_t evManagerQueue = ACTORS_LIST_SystemRegistry[EV_MANAGER_ACTOR_ID]->osMessageQ
 219              		.loc 1 114 67 is_stmt 0 view .LVU43
 220 0066 174B     		ldr	r3, .L12+24
 221 0068 5B68     		ldr	r3, [r3, #4]
 114:app/tasks/temperature_humidity_sensor/temperature_humidity_sensor.c ****     osMessageQueueId_t evManagerQueue = ACTORS_LIST_SystemRegistry[EV_MANAGER_ACTOR_ID]->osMessageQ
 222              		.loc 1 114 24 view .LVU44
 223 006a 9868     		ldr	r0, [r3, #8]
 224              	.LVL21:
 115:app/tasks/temperature_humidity_sensor/temperature_humidity_sensor.c ****     osMessageQueuePut(evManagerQueue, &(message_t){GLOBAL_INITIALIZE_SUCCESS, .payload.value = TEMP
 225              		.loc 1 115 5 is_stmt 1 view .LVU45
 115:app/tasks/temperature_humidity_sensor/temperature_humidity_sensor.c ****     osMessageQueuePut(evManagerQueue, &(message_t){GLOBAL_INITIALIZE_SUCCESS, .payload.value = TEMP
 226              		.loc 1 115 51 is_stmt 0 view .LVU46
 227 006c 0022     		movs	r2, #0
 228 006e 0392     		str	r2, [sp, #12]
 229 0070 0492     		str	r2, [sp, #16]
 230 0072 0592     		str	r2, [sp, #20]
 231 0074 0223     		movs	r3, #2
 232 0076 8DF80C30 		strb	r3, [sp, #12]
 233 007a 0627     		movs	r7, #6
 234 007c 0497     		str	r7, [sp, #16]
 115:app/tasks/temperature_humidity_sensor/temperature_humidity_sensor.c ****     osMessageQueuePut(evManagerQueue, &(message_t){GLOBAL_INITIALIZE_SUCCESS, .payload.value = TEMP
 235              		.loc 1 115 5 view .LVU47
 236 007e 1346     		mov	r3, r2
 237 0080 03A9     		add	r1, sp, #12
 238 0082 FFF7FEFF 		bl	osMessageQueuePut
 239              	.LVL22:
 117:app/tasks/temperature_humidity_sensor/temperature_humidity_sensor.c ****     fprintf(stdout, "Temperature & Humidity sensor %ul initialized\n", TEMPERATURE_HUMIDITY_SENSOR_
 240              		.loc 1 117 5 is_stmt 1 view .LVU48
 117:app/tasks/temperature_humidity_sensor/temperature_humidity_sensor.c ****     fprintf(stdout, "Temperature & Humidity sensor %ul initialized\n", TEMPERATURE_HUMIDITY_SENSOR_
 241              		.loc 1 117 13 is_stmt 0 view .LVU49
ARM GAS  /tmp/ccYXXIsR.s 			page 9


 242 0086 3368     		ldr	r3, [r6]
 117:app/tasks/temperature_humidity_sensor/temperature_humidity_sensor.c ****     fprintf(stdout, "Temperature & Humidity sensor %ul initialized\n", TEMPERATURE_HUMIDITY_SENSOR_
 243              		.loc 1 117 5 view .LVU50
 244 0088 3A46     		mov	r2, r7
 245 008a 0F49     		ldr	r1, .L12+28
 246 008c 9868     		ldr	r0, [r3, #8]
 247 008e FFF7FEFF 		bl	fprintf
 248              	.LVL23:
 118:app/tasks/temperature_humidity_sensor/temperature_humidity_sensor.c ****     TO_STATE(this, TH_SENS_IDLE_STATE);
 249              		.loc 1 118 5 is_stmt 1 view .LVU51
 118:app/tasks/temperature_humidity_sensor/temperature_humidity_sensor.c ****     TO_STATE(this, TH_SENS_IDLE_STATE);
 250              		.loc 1 118 5 view .LVU52
 251 0092 0123     		movs	r3, #1
 252 0094 2B74     		strb	r3, [r5, #16]
 118:app/tasks/temperature_humidity_sensor/temperature_humidity_sensor.c ****     TO_STATE(this, TH_SENS_IDLE_STATE);
 253              		.loc 1 118 5 view .LVU53
 254 0096 3068     		ldr	r0, [r6]
 255 0098 0C4B     		ldr	r3, .L12+32
 256 009a 2A68     		ldr	r2, [r5]
 257 009c 0C49     		ldr	r1, .L12+36
 258 009e 8068     		ldr	r0, [r0, #8]
 259 00a0 FFF7FEFF 		bl	fprintf
 260              	.LVL24:
 118:app/tasks/temperature_humidity_sensor/temperature_humidity_sensor.c ****     TO_STATE(this, TH_SENS_IDLE_STATE);
 261              		.loc 1 118 5 view .LVU54
 118:app/tasks/temperature_humidity_sensor/temperature_humidity_sensor.c ****     TO_STATE(this, TH_SENS_IDLE_STATE);
 262              		.loc 1 118 39 view .LVU55
 263 00a4 B2E7     		b	.L6
 264              	.LVL25:
 265              	.L8:
  98:app/tasks/temperature_humidity_sensor/temperature_humidity_sensor.c ****     if (ioStatus != osOK) return osError;
 266              		.loc 1 98 34 is_stmt 0 discriminator 2 view .LVU56
 267 00a6 4FF0FF34 		mov	r4, #-1
 268 00aa AFE7     		b	.L6
 269              	.L13:
 270              		.align	2
 271              	.L12:
 272 00ac 00000000 		.word	delayMs
 273 00b0 00000000 		.word	BSP_I2C1_Recv
 274 00b4 00000000 		.word	BSP_I2C1_Send
 275 00b8 00040048 		.word	1207960576
 276 00bc 00000000 		.word	_impure_ptr
 277 00c0 00000000 		.word	.LC0
 278 00c4 00000000 		.word	ACTORS_LIST_SystemRegistry
 279 00c8 10000000 		.word	.LC1
 280 00cc 40000000 		.word	.LC2
 281 00d0 54000000 		.word	.LC3
 282              	.LBE2:
 283              		.cfi_endproc
 284              	.LFE142:
 286              		.section	.rodata.handleIdle.str1.4,"aMS",%progbits,1
 287              		.align	2
 288              	.LC4:
 289 0000 54485F53 		.ascii	"TH_SENS_CONTINUOUS_MEASURE_STATE\000"
 289      454E535F 
 289      434F4E54 
 289      494E554F 
ARM GAS  /tmp/ccYXXIsR.s 			page 10


 289      55535F4D 
 290 0021 000000   		.align	2
 291              	.LC5:
 292 0024 5261773A 		.ascii	"Raw: temperature: %d humidity %d\012\000"
 292      2074656D 
 292      70657261 
 292      74757265 
 292      3A202564 
 293              		.section	.text.handleIdle,"ax",%progbits
 294              		.align	1
 295              		.syntax unified
 296              		.thumb
 297              		.thumb_func
 298              		.fpu fpv4-sp-d16
 300              	handleIdle:
 301              	.LVL26:
 302              	.LFB143:
 124:app/tasks/temperature_humidity_sensor/temperature_humidity_sensor.c **** static osStatus_t handleIdle(TH_SENS_Actor_t *this, message_t *message) {
 303              		.loc 1 124 73 is_stmt 1 view -0
 304              		.cfi_startproc
 305              		@ args = 0, pretend = 0, frame = 0
 306              		@ frame_needed = 0, uses_anonymous_args = 0
 124:app/tasks/temperature_humidity_sensor/temperature_humidity_sensor.c **** static osStatus_t handleIdle(TH_SENS_Actor_t *this, message_t *message) {
 307              		.loc 1 124 73 is_stmt 0 view .LVU58
 308 0000 38B5     		push	{r3, r4, r5, lr}
 309              	.LCFI5:
 310              		.cfi_def_cfa_offset 16
 311              		.cfi_offset 3, -16
 312              		.cfi_offset 4, -12
 313              		.cfi_offset 5, -8
 314              		.cfi_offset 14, -4
 315 0002 0446     		mov	r4, r0
 125:app/tasks/temperature_humidity_sensor/temperature_humidity_sensor.c ****   osStatus_t  ioStatus = osOK;
 316              		.loc 1 125 3 is_stmt 1 view .LVU59
 317              	.LVL27:
 127:app/tasks/temperature_humidity_sensor/temperature_humidity_sensor.c ****   switch (message->event) {
 318              		.loc 1 127 3 view .LVU60
 127:app/tasks/temperature_humidity_sensor/temperature_humidity_sensor.c ****   switch (message->event) {
 319              		.loc 1 127 18 is_stmt 0 view .LVU61
 320 0004 0B78     		ldrb	r3, [r1]	@ zero_extendqisi2
 127:app/tasks/temperature_humidity_sensor/temperature_humidity_sensor.c ****   switch (message->event) {
 321              		.loc 1 127 3 view .LVU62
 322 0006 0A2B     		cmp	r3, #10
 323 0008 04D0     		beq	.L15
 324 000a 112B     		cmp	r3, #17
 325 000c 13D0     		beq	.L16
 326 000e 0025     		movs	r5, #0
 327              	.LVL28:
 328              	.L14:
 142:app/tasks/temperature_humidity_sensor/temperature_humidity_sensor.c **** }
 329              		.loc 1 142 1 view .LVU63
 330 0010 2846     		mov	r0, r5
 331 0012 38BD     		pop	{r3, r4, r5, pc}
 332              	.LVL29:
 333              	.L15:
 129:app/tasks/temperature_humidity_sensor/temperature_humidity_sensor.c ****       ioStatus = SHT3x_PeriodicAcquisitionMode(SHT3x_START_MEASUREMENT_0_5_MPS_LOW_REPEATABILITY_CM
 334              		.loc 1 129 7 is_stmt 1 view .LVU64
ARM GAS  /tmp/ccYXXIsR.s 			page 11


 129:app/tasks/temperature_humidity_sensor/temperature_humidity_sensor.c ****       ioStatus = SHT3x_PeriodicAcquisitionMode(SHT3x_START_MEASUREMENT_0_5_MPS_LOW_REPEATABILITY_CM
 335              		.loc 1 129 18 is_stmt 0 view .LVU65
 336 0014 42F22F00 		movw	r0, #8239
 337              	.LVL30:
 129:app/tasks/temperature_humidity_sensor/temperature_humidity_sensor.c ****       ioStatus = SHT3x_PeriodicAcquisitionMode(SHT3x_START_MEASUREMENT_0_5_MPS_LOW_REPEATABILITY_CM
 338              		.loc 1 129 18 view .LVU66
 339 0018 FFF7FEFF 		bl	SHT3x_PeriodicAcquisitionMode
 340              	.LVL31:
 130:app/tasks/temperature_humidity_sensor/temperature_humidity_sensor.c ****       if (ioStatus != osOK) return osError;
 341              		.loc 1 130 7 is_stmt 1 view .LVU67
 130:app/tasks/temperature_humidity_sensor/temperature_humidity_sensor.c ****       if (ioStatus != osOK) return osError;
 342              		.loc 1 130 10 is_stmt 0 view .LVU68
 343 001c 0546     		mov	r5, r0
 344 001e E8B9     		cbnz	r0, .L18
 132:app/tasks/temperature_humidity_sensor/temperature_humidity_sensor.c ****       TO_STATE(this, TH_SENS_CONTINUOUS_MEASURE_STATE);
 345              		.loc 1 132 7 is_stmt 1 view .LVU69
 132:app/tasks/temperature_humidity_sensor/temperature_humidity_sensor.c ****       TO_STATE(this, TH_SENS_CONTINUOUS_MEASURE_STATE);
 346              		.loc 1 132 7 view .LVU70
 347 0020 0323     		movs	r3, #3
 348 0022 2374     		strb	r3, [r4, #16]
 132:app/tasks/temperature_humidity_sensor/temperature_humidity_sensor.c ****       TO_STATE(this, TH_SENS_CONTINUOUS_MEASURE_STATE);
 349              		.loc 1 132 7 view .LVU71
 350 0024 0F4B     		ldr	r3, .L20
 351 0026 1868     		ldr	r0, [r3]
 352              	.LVL32:
 132:app/tasks/temperature_humidity_sensor/temperature_humidity_sensor.c ****       TO_STATE(this, TH_SENS_CONTINUOUS_MEASURE_STATE);
 353              		.loc 1 132 7 is_stmt 0 view .LVU72
 354 0028 0F4B     		ldr	r3, .L20+4
 355 002a 2268     		ldr	r2, [r4]
 356 002c 0F49     		ldr	r1, .L20+8
 357 002e 8068     		ldr	r0, [r0, #8]
 358 0030 FFF7FEFF 		bl	fprintf
 359              	.LVL33:
 132:app/tasks/temperature_humidity_sensor/temperature_humidity_sensor.c ****       TO_STATE(this, TH_SENS_CONTINUOUS_MEASURE_STATE);
 360              		.loc 1 132 7 is_stmt 1 view .LVU73
 132:app/tasks/temperature_humidity_sensor/temperature_humidity_sensor.c ****       TO_STATE(this, TH_SENS_CONTINUOUS_MEASURE_STATE);
 361              		.loc 1 132 55 view .LVU74
 133:app/tasks/temperature_humidity_sensor/temperature_humidity_sensor.c ****       return osOK;
 362              		.loc 1 133 7 view .LVU75
 133:app/tasks/temperature_humidity_sensor/temperature_humidity_sensor.c ****       return osOK;
 363              		.loc 1 133 14 is_stmt 0 view .LVU76
 364 0034 ECE7     		b	.L14
 365              	.LVL34:
 366              	.L16:
 136:app/tasks/temperature_humidity_sensor/temperature_humidity_sensor.c ****       fprintf(stdout, "Raw: temperature: %d humidity %d\n", this->rawTemperature, this->rawHumidity
 367              		.loc 1 136 7 is_stmt 1 view .LVU77
 136:app/tasks/temperature_humidity_sensor/temperature_humidity_sensor.c ****       fprintf(stdout, "Raw: temperature: %d humidity %d\n", this->rawTemperature, this->rawHumidity
 368              		.loc 1 136 15 is_stmt 0 view .LVU78
 369 0036 0B4D     		ldr	r5, .L20
 370 0038 2868     		ldr	r0, [r5]
 371              	.LVL35:
 136:app/tasks/temperature_humidity_sensor/temperature_humidity_sensor.c ****       fprintf(stdout, "Raw: temperature: %d humidity %d\n", this->rawTemperature, this->rawHumidity
 372              		.loc 1 136 7 view .LVU79
 373 003a A38A     		ldrh	r3, [r4, #20]
 374 003c 628A     		ldrh	r2, [r4, #18]
 375 003e 0C49     		ldr	r1, .L20+12
 376              	.LVL36:
ARM GAS  /tmp/ccYXXIsR.s 			page 12


 136:app/tasks/temperature_humidity_sensor/temperature_humidity_sensor.c ****       fprintf(stdout, "Raw: temperature: %d humidity %d\n", this->rawTemperature, this->rawHumidity
 377              		.loc 1 136 7 view .LVU80
 378 0040 8068     		ldr	r0, [r0, #8]
 379 0042 FFF7FEFF 		bl	fprintf
 380              	.LVL37:
 137:app/tasks/temperature_humidity_sensor/temperature_humidity_sensor.c ****       TO_STATE(this, TH_SENS_IDLE_STATE);
 381              		.loc 1 137 7 is_stmt 1 view .LVU81
 137:app/tasks/temperature_humidity_sensor/temperature_humidity_sensor.c ****       TO_STATE(this, TH_SENS_IDLE_STATE);
 382              		.loc 1 137 7 view .LVU82
 383 0046 0123     		movs	r3, #1
 384 0048 2374     		strb	r3, [r4, #16]
 137:app/tasks/temperature_humidity_sensor/temperature_humidity_sensor.c ****       TO_STATE(this, TH_SENS_IDLE_STATE);
 385              		.loc 1 137 7 view .LVU83
 386 004a 2868     		ldr	r0, [r5]
 387 004c 094B     		ldr	r3, .L20+16
 388 004e 2268     		ldr	r2, [r4]
 389 0050 0649     		ldr	r1, .L20+8
 390 0052 8068     		ldr	r0, [r0, #8]
 391 0054 FFF7FEFF 		bl	fprintf
 392              	.LVL38:
 137:app/tasks/temperature_humidity_sensor/temperature_humidity_sensor.c ****       TO_STATE(this, TH_SENS_IDLE_STATE);
 393              		.loc 1 137 7 view .LVU84
 137:app/tasks/temperature_humidity_sensor/temperature_humidity_sensor.c ****       TO_STATE(this, TH_SENS_IDLE_STATE);
 394              		.loc 1 137 41 view .LVU85
 138:app/tasks/temperature_humidity_sensor/temperature_humidity_sensor.c ****       return osOK;
 395              		.loc 1 138 7 view .LVU86
 138:app/tasks/temperature_humidity_sensor/temperature_humidity_sensor.c ****       return osOK;
 396              		.loc 1 138 14 is_stmt 0 view .LVU87
 397 0058 0025     		movs	r5, #0
 398 005a D9E7     		b	.L14
 399              	.LVL39:
 400              	.L18:
 130:app/tasks/temperature_humidity_sensor/temperature_humidity_sensor.c ****       if (ioStatus != osOK) return osError;
 401              		.loc 1 130 36 view .LVU88
 402 005c 4FF0FF35 		mov	r5, #-1
 403 0060 D6E7     		b	.L14
 404              	.L21:
 405 0062 00BF     		.align	2
 406              	.L20:
 407 0064 00000000 		.word	_impure_ptr
 408 0068 00000000 		.word	.LC4
 409 006c 54000000 		.word	.LC3
 410 0070 24000000 		.word	.LC5
 411 0074 40000000 		.word	.LC2
 412              		.cfi_endproc
 413              	.LFE143:
 415              		.global	__aeabi_f2d
 416              		.section	.rodata.handleContinuousMeasure.str1.4,"aMS",%progbits,1
 417              		.align	2
 418              	.LC6:
 419 0000 54656D70 		.ascii	"Temperature: %.2f humidity %.2f\012\000"
 419      65726174 
 419      7572653A 
 419      20252E32 
 419      66206875 
 420              		.section	.text.handleContinuousMeasure,"ax",%progbits
 421              		.align	1
ARM GAS  /tmp/ccYXXIsR.s 			page 13


 422              		.syntax unified
 423              		.thumb
 424              		.thumb_func
 425              		.fpu fpv4-sp-d16
 427              	handleContinuousMeasure:
 428              	.LVL40:
 429              	.LFB144:
 144:app/tasks/temperature_humidity_sensor/temperature_humidity_sensor.c **** static osStatus_t handleContinuousMeasure(TH_SENS_Actor_t *this, message_t *message) {
 430              		.loc 1 144 86 is_stmt 1 view -0
 431              		.cfi_startproc
 432              		@ args = 0, pretend = 0, frame = 0
 433              		@ frame_needed = 0, uses_anonymous_args = 0
 144:app/tasks/temperature_humidity_sensor/temperature_humidity_sensor.c **** static osStatus_t handleContinuousMeasure(TH_SENS_Actor_t *this, message_t *message) {
 434              		.loc 1 144 86 is_stmt 0 view .LVU90
 435 0000 2DE9F047 		push	{r4, r5, r6, r7, r8, r9, r10, lr}
 436              	.LCFI6:
 437              		.cfi_def_cfa_offset 32
 438              		.cfi_offset 4, -32
 439              		.cfi_offset 5, -28
 440              		.cfi_offset 6, -24
 441              		.cfi_offset 7, -20
 442              		.cfi_offset 8, -16
 443              		.cfi_offset 9, -12
 444              		.cfi_offset 10, -8
 445              		.cfi_offset 14, -4
 446 0004 82B0     		sub	sp, sp, #8
 447              	.LCFI7:
 448              		.cfi_def_cfa_offset 40
 145:app/tasks/temperature_humidity_sensor/temperature_humidity_sensor.c ****   osStatus_t  ioStatus = osOK;
 449              		.loc 1 145 3 is_stmt 1 view .LVU91
 450              	.LVL41:
 147:app/tasks/temperature_humidity_sensor/temperature_humidity_sensor.c ****   switch (message->event) {
 451              		.loc 1 147 3 view .LVU92
 147:app/tasks/temperature_humidity_sensor/temperature_humidity_sensor.c ****   switch (message->event) {
 452              		.loc 1 147 18 is_stmt 0 view .LVU93
 453 0006 0B78     		ldrb	r3, [r1]	@ zero_extendqisi2
 147:app/tasks/temperature_humidity_sensor/temperature_humidity_sensor.c ****   switch (message->event) {
 454              		.loc 1 147 3 view .LVU94
 455 0008 032B     		cmp	r3, #3
 456 000a 04D0     		beq	.L27
 457              	.LBB3:
 159:app/tasks/temperature_humidity_sensor/temperature_humidity_sensor.c ****       return osOK;
 458              		.loc 1 159 14 view .LVU95
 459 000c 0025     		movs	r5, #0
 460              	.LVL42:
 461              	.L22:
 159:app/tasks/temperature_humidity_sensor/temperature_humidity_sensor.c ****       return osOK;
 462              		.loc 1 159 14 view .LVU96
 463              	.LBE3:
 161:app/tasks/temperature_humidity_sensor/temperature_humidity_sensor.c **** }
 464              		.loc 1 161 1 view .LVU97
 465 000e 2846     		mov	r0, r5
 466 0010 02B0     		add	sp, sp, #8
 467              	.LCFI8:
 468              		.cfi_remember_state
 469              		.cfi_def_cfa_offset 32
 470              		@ sp needed
ARM GAS  /tmp/ccYXXIsR.s 			page 14


 471 0012 BDE8F087 		pop	{r4, r5, r6, r7, r8, r9, r10, pc}
 472              	.LVL43:
 473              	.L27:
 474              	.LCFI9:
 475              		.cfi_restore_state
 161:app/tasks/temperature_humidity_sensor/temperature_humidity_sensor.c **** }
 476              		.loc 1 161 1 view .LVU98
 477 0016 0446     		mov	r4, r0
 478              	.LBB4:
 149:app/tasks/temperature_humidity_sensor/temperature_humidity_sensor.c ****       ioStatus = SHT3x_ReadMeasurements(&this->rawTemperature, &this->rawHumidity);
 479              		.loc 1 149 7 is_stmt 1 view .LVU99
 149:app/tasks/temperature_humidity_sensor/temperature_humidity_sensor.c ****       ioStatus = SHT3x_ReadMeasurements(&this->rawTemperature, &this->rawHumidity);
 480              		.loc 1 149 18 is_stmt 0 view .LVU100
 481 0018 00F11401 		add	r1, r0, #20
 482              	.LVL44:
 149:app/tasks/temperature_humidity_sensor/temperature_humidity_sensor.c ****       ioStatus = SHT3x_ReadMeasurements(&this->rawTemperature, &this->rawHumidity);
 483              		.loc 1 149 18 view .LVU101
 484 001c 1230     		adds	r0, r0, #18
 485              	.LVL45:
 149:app/tasks/temperature_humidity_sensor/temperature_humidity_sensor.c ****       ioStatus = SHT3x_ReadMeasurements(&this->rawTemperature, &this->rawHumidity);
 486              		.loc 1 149 18 view .LVU102
 487 001e FFF7FEFF 		bl	SHT3x_ReadMeasurements
 488              	.LVL46:
 150:app/tasks/temperature_humidity_sensor/temperature_humidity_sensor.c ****       if (ioStatus != osOK) return osError;
 489              		.loc 1 150 7 is_stmt 1 view .LVU103
 150:app/tasks/temperature_humidity_sensor/temperature_humidity_sensor.c ****       if (ioStatus != osOK) return osError;
 490              		.loc 1 150 10 is_stmt 0 view .LVU104
 491 0022 0546     		mov	r5, r0
 492 0024 50BB     		cbnz	r0, .L25
 152:app/tasks/temperature_humidity_sensor/temperature_humidity_sensor.c ****       float t = SHT3x_RawToTemperatureC(this->rawTemperature);
 493              		.loc 1 152 7 is_stmt 1 view .LVU105
 152:app/tasks/temperature_humidity_sensor/temperature_humidity_sensor.c ****       float t = SHT3x_RawToTemperatureC(this->rawTemperature);
 494              		.loc 1 152 17 is_stmt 0 view .LVU106
 495 0026 608A     		ldrh	r0, [r4, #18]
 496              	.LVL47:
 152:app/tasks/temperature_humidity_sensor/temperature_humidity_sensor.c ****       float t = SHT3x_RawToTemperatureC(this->rawTemperature);
 497              		.loc 1 152 17 view .LVU107
 498 0028 FFF7FEFF 		bl	SHT3x_RawToTemperatureC
 499              	.LVL48:
 500 002c 10EE106A 		vmov	r6, s0
 501              	.LVL49:
 153:app/tasks/temperature_humidity_sensor/temperature_humidity_sensor.c ****       float rh = SHT3x_RawToHumidityRH(this->rawHumidity);
 502              		.loc 1 153 7 is_stmt 1 view .LVU108
 153:app/tasks/temperature_humidity_sensor/temperature_humidity_sensor.c ****       float rh = SHT3x_RawToHumidityRH(this->rawHumidity);
 503              		.loc 1 153 18 is_stmt 0 view .LVU109
 504 0030 A08A     		ldrh	r0, [r4, #20]
 505 0032 FFF7FEFF 		bl	SHT3x_RawToHumidityRH
 506              	.LVL50:
 507 0036 10EE108A 		vmov	r8, s0
 508              	.LVL51:
 154:app/tasks/temperature_humidity_sensor/temperature_humidity_sensor.c ****       fprintf(stdout, "Temperature: %.2f humidity %.2f\n", t, rh);
 509              		.loc 1 154 7 is_stmt 1 view .LVU110
 154:app/tasks/temperature_humidity_sensor/temperature_humidity_sensor.c ****       fprintf(stdout, "Temperature: %.2f humidity %.2f\n", t, rh);
 510              		.loc 1 154 15 is_stmt 0 view .LVU111
 511 003a DFF85490 		ldr	r9, .L28+12
 512 003e D9F80030 		ldr	r3, [r9]
 513 0042 D3F808A0 		ldr	r10, [r3, #8]
ARM GAS  /tmp/ccYXXIsR.s 			page 15


 154:app/tasks/temperature_humidity_sensor/temperature_humidity_sensor.c ****       fprintf(stdout, "Temperature: %.2f humidity %.2f\n", t, rh);
 514              		.loc 1 154 7 view .LVU112
 515 0046 3046     		mov	r0, r6	@ float
 516 0048 FFF7FEFF 		bl	__aeabi_f2d
 517              	.LVL52:
 518 004c 0646     		mov	r6, r0
 519              	.LVL53:
 154:app/tasks/temperature_humidity_sensor/temperature_humidity_sensor.c ****       fprintf(stdout, "Temperature: %.2f humidity %.2f\n", t, rh);
 520              		.loc 1 154 7 view .LVU113
 521 004e 0F46     		mov	r7, r1
 522 0050 4046     		mov	r0, r8	@ float
 523 0052 FFF7FEFF 		bl	__aeabi_f2d
 524              	.LVL54:
 525 0056 CDE90001 		strd	r0, [sp]
 526 005a 3246     		mov	r2, r6
 527 005c 3B46     		mov	r3, r7
 528 005e 0949     		ldr	r1, .L28
 529 0060 5046     		mov	r0, r10
 530 0062 FFF7FEFF 		bl	fprintf
 531              	.LVL55:
 156:app/tasks/temperature_humidity_sensor/temperature_humidity_sensor.c ****       TO_STATE(this, TH_SENS_CONTINUOUS_MEASURE_STATE);
 532              		.loc 1 156 7 is_stmt 1 view .LVU114
 156:app/tasks/temperature_humidity_sensor/temperature_humidity_sensor.c ****       TO_STATE(this, TH_SENS_CONTINUOUS_MEASURE_STATE);
 533              		.loc 1 156 7 view .LVU115
 534 0066 0323     		movs	r3, #3
 535 0068 2374     		strb	r3, [r4, #16]
 156:app/tasks/temperature_humidity_sensor/temperature_humidity_sensor.c ****       TO_STATE(this, TH_SENS_CONTINUOUS_MEASURE_STATE);
 536              		.loc 1 156 7 view .LVU116
 537 006a D9F80000 		ldr	r0, [r9]
 538 006e 064B     		ldr	r3, .L28+4
 539 0070 2268     		ldr	r2, [r4]
 540 0072 0649     		ldr	r1, .L28+8
 541 0074 8068     		ldr	r0, [r0, #8]
 542 0076 FFF7FEFF 		bl	fprintf
 543              	.LVL56:
 156:app/tasks/temperature_humidity_sensor/temperature_humidity_sensor.c ****       TO_STATE(this, TH_SENS_CONTINUOUS_MEASURE_STATE);
 544              		.loc 1 156 7 view .LVU117
 156:app/tasks/temperature_humidity_sensor/temperature_humidity_sensor.c ****       TO_STATE(this, TH_SENS_CONTINUOUS_MEASURE_STATE);
 545              		.loc 1 156 55 view .LVU118
 157:app/tasks/temperature_humidity_sensor/temperature_humidity_sensor.c ****       return osOK;
 546              		.loc 1 157 7 view .LVU119
 157:app/tasks/temperature_humidity_sensor/temperature_humidity_sensor.c ****       return osOK;
 547              		.loc 1 157 14 is_stmt 0 view .LVU120
 548 007a C8E7     		b	.L22
 549              	.LVL57:
 550              	.L25:
 150:app/tasks/temperature_humidity_sensor/temperature_humidity_sensor.c ****       if (ioStatus != osOK) return osError;
 551              		.loc 1 150 36 view .LVU121
 552 007c 4FF0FF35 		mov	r5, #-1
 553 0080 C5E7     		b	.L22
 554              	.L29:
 555 0082 00BF     		.align	2
 556              	.L28:
 557 0084 00000000 		.word	.LC6
 558 0088 00000000 		.word	.LC4
 559 008c 54000000 		.word	.LC3
 560 0090 00000000 		.word	_impure_ptr
ARM GAS  /tmp/ccYXXIsR.s 			page 16


 561              	.LBE4:
 562              		.cfi_endproc
 563              	.LFE144:
 565              		.section	.text.handleTHSensorFSM,"ax",%progbits
 566              		.align	1
 567              		.syntax unified
 568              		.thumb
 569              		.thumb_func
 570              		.fpu fpv4-sp-d16
 572              	handleTHSensorFSM:
 573              	.LVL58:
 574              	.LFB141:
  77:app/tasks/temperature_humidity_sensor/temperature_humidity_sensor.c **** static osStatus_t handleTHSensorFSM(TH_SENS_Actor_t *this, message_t *message) {
 575              		.loc 1 77 80 is_stmt 1 view -0
 576              		.cfi_startproc
 577              		@ args = 0, pretend = 0, frame = 0
 578              		@ frame_needed = 0, uses_anonymous_args = 0
  77:app/tasks/temperature_humidity_sensor/temperature_humidity_sensor.c **** static osStatus_t handleTHSensorFSM(TH_SENS_Actor_t *this, message_t *message) {
 579              		.loc 1 77 80 is_stmt 0 view .LVU123
 580 0000 08B5     		push	{r3, lr}
 581              	.LCFI10:
 582              		.cfi_def_cfa_offset 8
 583              		.cfi_offset 3, -8
 584              		.cfi_offset 14, -4
  78:app/tasks/temperature_humidity_sensor/temperature_humidity_sensor.c ****   switch (this->state) {
 585              		.loc 1 78 3 is_stmt 1 view .LVU124
  78:app/tasks/temperature_humidity_sensor/temperature_humidity_sensor.c ****   switch (this->state) {
 586              		.loc 1 78 15 is_stmt 0 view .LVU125
 587 0002 037C     		ldrb	r3, [r0, #16]	@ zero_extendqisi2
  78:app/tasks/temperature_humidity_sensor/temperature_humidity_sensor.c ****   switch (this->state) {
 588              		.loc 1 78 3 view .LVU126
 589 0004 042B     		cmp	r3, #4
 590 0006 10D8     		bhi	.L37
 591 0008 DFE803F0 		tbb	[pc, r3]
 592              	.L33:
 593 000c 03       		.byte	(.L36-.L33)/2
 594 000d 06       		.byte	(.L35-.L33)/2
 595 000e 0F       		.byte	(.L37-.L33)/2
 596 000f 09       		.byte	(.L34-.L33)/2
 597 0010 0C       		.byte	(.L32-.L33)/2
 598 0011 00       		.p2align 1
 599              	.L36:
  80:app/tasks/temperature_humidity_sensor/temperature_humidity_sensor.c ****       return handleInit(this, message);
 600              		.loc 1 80 7 is_stmt 1 view .LVU127
  80:app/tasks/temperature_humidity_sensor/temperature_humidity_sensor.c ****       return handleInit(this, message);
 601              		.loc 1 80 14 is_stmt 0 view .LVU128
 602 0012 FFF7FEFF 		bl	handleInit
 603              	.LVL59:
 604              	.L30:
  91:app/tasks/temperature_humidity_sensor/temperature_humidity_sensor.c **** }
 605              		.loc 1 91 1 view .LVU129
 606 0016 08BD     		pop	{r3, pc}
 607              	.LVL60:
 608              	.L35:
  82:app/tasks/temperature_humidity_sensor/temperature_humidity_sensor.c ****       return handleIdle(this, message);
 609              		.loc 1 82 7 is_stmt 1 view .LVU130
  82:app/tasks/temperature_humidity_sensor/temperature_humidity_sensor.c ****       return handleIdle(this, message);
ARM GAS  /tmp/ccYXXIsR.s 			page 17


 610              		.loc 1 82 14 is_stmt 0 view .LVU131
 611 0018 FFF7FEFF 		bl	handleIdle
 612              	.LVL61:
  82:app/tasks/temperature_humidity_sensor/temperature_humidity_sensor.c ****       return handleIdle(this, message);
 613              		.loc 1 82 14 view .LVU132
 614 001c FBE7     		b	.L30
 615              	.LVL62:
 616              	.L34:
  84:app/tasks/temperature_humidity_sensor/temperature_humidity_sensor.c ****       return handleContinuousMeasure(this, message);
 617              		.loc 1 84 7 is_stmt 1 view .LVU133
  84:app/tasks/temperature_humidity_sensor/temperature_humidity_sensor.c ****       return handleContinuousMeasure(this, message);
 618              		.loc 1 84 14 is_stmt 0 view .LVU134
 619 001e FFF7FEFF 		bl	handleContinuousMeasure
 620              	.LVL63:
  84:app/tasks/temperature_humidity_sensor/temperature_humidity_sensor.c ****       return handleContinuousMeasure(this, message);
 621              		.loc 1 84 14 view .LVU135
 622 0022 F8E7     		b	.L30
 623              	.LVL64:
 624              	.L32:
  87:app/tasks/temperature_humidity_sensor/temperature_humidity_sensor.c ****       return handleError(this, message);
 625              		.loc 1 87 7 is_stmt 1 view .LVU136
  87:app/tasks/temperature_humidity_sensor/temperature_humidity_sensor.c ****       return handleError(this, message);
 626              		.loc 1 87 14 is_stmt 0 view .LVU137
 627 0024 FFF7FEFF 		bl	handleError
 628              	.LVL65:
  87:app/tasks/temperature_humidity_sensor/temperature_humidity_sensor.c ****       return handleError(this, message);
 629              		.loc 1 87 14 view .LVU138
 630 0028 F5E7     		b	.L30
 631              	.LVL66:
 632              	.L37:
  78:app/tasks/temperature_humidity_sensor/temperature_humidity_sensor.c ****   switch (this->state) {
 633              		.loc 1 78 3 view .LVU139
 634 002a 0020     		movs	r0, #0
 635              	.LVL67:
  78:app/tasks/temperature_humidity_sensor/temperature_humidity_sensor.c ****   switch (this->state) {
 636              		.loc 1 78 3 view .LVU140
 637 002c F3E7     		b	.L30
 638              		.cfi_endproc
 639              	.LFE141:
 641              		.section	.rodata.TH_SENS_Task.str1.4,"aMS",%progbits,1
 642              		.align	2
 643              	.LC7:
 644 0000 74685365 		.ascii	"thSensorTask\000"
 644      6E736F72 
 644      5461736B 
 644      00
 645 000d 000000   		.align	2
 646              	.LC8:
 647 0010 5461736B 		.ascii	"Task %s started\012\000"
 647      20257320 
 647      73746172 
 647      7465640A 
 647      00
 648 0021 000000   		.align	2
 649              	.LC9:
 650 0024 25733A20 		.ascii	"%s: Error handling event %u in state %ul\012\000"
 650      4572726F 
ARM GAS  /tmp/ccYXXIsR.s 			page 18


 650      72206861 
 650      6E646C69 
 650      6E672065 
 651 004e 0000     		.align	2
 652              	.LC10:
 653 0050 54485F53 		.ascii	"TH_SENS_STATE_ERROR\000"
 653      454E535F 
 653      53544154 
 653      455F4552 
 653      524F5200 
 654              		.section	.text.TH_SENS_Task,"ax",%progbits
 655              		.align	1
 656              		.global	TH_SENS_Task
 657              		.syntax unified
 658              		.thumb
 659              		.thumb_func
 660              		.fpu fpv4-sp-d16
 662              	TH_SENS_Task:
 663              	.LVL68:
 664              	.LFB140:
  56:app/tasks/temperature_humidity_sensor/temperature_humidity_sensor.c **** void TH_SENS_Task(void *argument) {
 665              		.loc 1 56 35 is_stmt 1 view -0
 666              		.cfi_startproc
 667              		@ args = 0, pretend = 0, frame = 24
 668              		@ frame_needed = 0, uses_anonymous_args = 0
  56:app/tasks/temperature_humidity_sensor/temperature_humidity_sensor.c **** void TH_SENS_Task(void *argument) {
 669              		.loc 1 56 35 is_stmt 0 view .LVU142
 670 0000 30B5     		push	{r4, r5, lr}
 671              	.LCFI11:
 672              		.cfi_def_cfa_offset 12
 673              		.cfi_offset 4, -12
 674              		.cfi_offset 5, -8
 675              		.cfi_offset 14, -4
 676 0002 89B0     		sub	sp, sp, #36
 677              	.LCFI12:
 678              		.cfi_def_cfa_offset 48
  57:app/tasks/temperature_humidity_sensor/temperature_humidity_sensor.c ****   (void) argument; // Avoid unused parameter warning
 679              		.loc 1 57 3 is_stmt 1 view .LVU143
  58:app/tasks/temperature_humidity_sensor/temperature_humidity_sensor.c ****   message_t msg;
 680              		.loc 1 58 3 view .LVU144
  60:app/tasks/temperature_humidity_sensor/temperature_humidity_sensor.c ****   fprintf(stdout, "Task %s started\n", thSensorTaskDescription.name);
 681              		.loc 1 60 3 view .LVU145
  60:app/tasks/temperature_humidity_sensor/temperature_humidity_sensor.c ****   fprintf(stdout, "Task %s started\n", thSensorTaskDescription.name);
 682              		.loc 1 60 11 is_stmt 0 view .LVU146
 683 0004 1E4B     		ldr	r3, .L44
 684 0006 1B68     		ldr	r3, [r3]
  60:app/tasks/temperature_humidity_sensor/temperature_humidity_sensor.c ****   fprintf(stdout, "Task %s started\n", thSensorTaskDescription.name);
 685              		.loc 1 60 3 view .LVU147
 686 0008 1E4A     		ldr	r2, .L44+4
 687 000a 1F49     		ldr	r1, .L44+8
 688 000c 9868     		ldr	r0, [r3, #8]
 689              	.LVL69:
  60:app/tasks/temperature_humidity_sensor/temperature_humidity_sensor.c ****   fprintf(stdout, "Task %s started\n", thSensorTaskDescription.name);
 690              		.loc 1 60 3 view .LVU148
 691 000e FFF7FEFF 		bl	fprintf
 692              	.LVL70:
 693              	.L40:
ARM GAS  /tmp/ccYXXIsR.s 			page 19


  62:app/tasks/temperature_humidity_sensor/temperature_humidity_sensor.c ****   for (;;) {
 694              		.loc 1 62 3 is_stmt 1 view .LVU149
  64:app/tasks/temperature_humidity_sensor/temperature_humidity_sensor.c ****     if (osMessageQueueGet(TH_SENS_Actor.super.osMessageQueueId, &msg, NULL, osWaitForever) == osOK)
 695              		.loc 1 64 5 view .LVU150
  64:app/tasks/temperature_humidity_sensor/temperature_humidity_sensor.c ****     if (osMessageQueueGet(TH_SENS_Actor.super.osMessageQueueId, &msg, NULL, osWaitForever) == osOK)
 696              		.loc 1 64 9 is_stmt 0 view .LVU151
 697 0012 4FF0FF33 		mov	r3, #-1
 698 0016 0022     		movs	r2, #0
 699 0018 02A9     		add	r1, sp, #8
 700 001a 1C48     		ldr	r0, .L44+12
 701 001c 8068     		ldr	r0, [r0, #8]
 702 001e FFF7FEFF 		bl	osMessageQueueGet
 703              	.LVL71:
  64:app/tasks/temperature_humidity_sensor/temperature_humidity_sensor.c ****     if (osMessageQueueGet(TH_SENS_Actor.super.osMessageQueueId, &msg, NULL, osWaitForever) == osOK)
 704              		.loc 1 64 8 view .LVU152
 705 0022 0028     		cmp	r0, #0
 706 0024 F5D1     		bne	.L40
 707              	.LBB5:
  65:app/tasks/temperature_humidity_sensor/temperature_humidity_sensor.c ****       osStatus_t handleMessageStatus = TH_SENS_Actor.super.messageHandler((actor_t *) &TH_SENS_Acto
 708              		.loc 1 65 7 is_stmt 1 view .LVU153
  65:app/tasks/temperature_humidity_sensor/temperature_humidity_sensor.c ****       osStatus_t handleMessageStatus = TH_SENS_Actor.super.messageHandler((actor_t *) &TH_SENS_Acto
 709              		.loc 1 65 59 is_stmt 0 view .LVU154
 710 0026 1948     		ldr	r0, .L44+12
 711 0028 C368     		ldr	r3, [r0, #12]
  65:app/tasks/temperature_humidity_sensor/temperature_humidity_sensor.c ****       osStatus_t handleMessageStatus = TH_SENS_Actor.super.messageHandler((actor_t *) &TH_SENS_Acto
 712              		.loc 1 65 40 view .LVU155
 713 002a 02A9     		add	r1, sp, #8
 714 002c 9847     		blx	r3
 715              	.LVL72:
  67:app/tasks/temperature_humidity_sensor/temperature_humidity_sensor.c ****       if (handleMessageStatus != osOK) {
 716              		.loc 1 67 7 is_stmt 1 view .LVU156
  67:app/tasks/temperature_humidity_sensor/temperature_humidity_sensor.c ****       if (handleMessageStatus != osOK) {
 717              		.loc 1 67 10 is_stmt 0 view .LVU157
 718 002e 0028     		cmp	r0, #0
 719 0030 EFD0     		beq	.L40
 720              	.LBB6:
  68:app/tasks/temperature_humidity_sensor/temperature_humidity_sensor.c ****         fprintf(stderr, "%s: Error handling event %u in state %ul\n", thSensorTaskDescription.name,
 721              		.loc 1 68 9 is_stmt 1 view .LVU158
  68:app/tasks/temperature_humidity_sensor/temperature_humidity_sensor.c ****         fprintf(stderr, "%s: Error handling event %u in state %ul\n", thSensorTaskDescription.name,
 722              		.loc 1 68 17 is_stmt 0 view .LVU159
 723 0032 134D     		ldr	r5, .L44
 724 0034 2B68     		ldr	r3, [r5]
 725 0036 D868     		ldr	r0, [r3, #12]
 726              	.LVL73:
  68:app/tasks/temperature_humidity_sensor/temperature_humidity_sensor.c ****         fprintf(stderr, "%s: Error handling event %u in state %ul\n", thSensorTaskDescription.name,
 727              		.loc 1 68 125 view .LVU160
 728 0038 144C     		ldr	r4, .L44+12
 729 003a 237C     		ldrb	r3, [r4, #16]	@ zero_extendqisi2
  68:app/tasks/temperature_humidity_sensor/temperature_humidity_sensor.c ****         fprintf(stderr, "%s: Error handling event %u in state %ul\n", thSensorTaskDescription.name,
 730              		.loc 1 68 9 view .LVU161
 731 003c 0093     		str	r3, [sp]
 732 003e 9DF80830 		ldrb	r3, [sp, #8]	@ zero_extendqisi2
 733 0042 104A     		ldr	r2, .L44+4
 734 0044 1249     		ldr	r1, .L44+16
 735 0046 FFF7FEFF 		bl	fprintf
 736              	.LVL74:
  69:app/tasks/temperature_humidity_sensor/temperature_humidity_sensor.c ****         osMessageQueueId_t evManagerQueue = ACTORS_LIST_SystemRegistry[EV_MANAGER_ACTOR_ID]->osMess
ARM GAS  /tmp/ccYXXIsR.s 			page 20


 737              		.loc 1 69 9 is_stmt 1 view .LVU162
  69:app/tasks/temperature_humidity_sensor/temperature_humidity_sensor.c ****         osMessageQueueId_t evManagerQueue = ACTORS_LIST_SystemRegistry[EV_MANAGER_ACTOR_ID]->osMess
 738              		.loc 1 69 71 is_stmt 0 view .LVU163
 739 004a 124B     		ldr	r3, .L44+20
 740 004c 5B68     		ldr	r3, [r3, #4]
  69:app/tasks/temperature_humidity_sensor/temperature_humidity_sensor.c ****         osMessageQueueId_t evManagerQueue = ACTORS_LIST_SystemRegistry[EV_MANAGER_ACTOR_ID]->osMess
 741              		.loc 1 69 28 view .LVU164
 742 004e 9868     		ldr	r0, [r3, #8]
 743              	.LVL75:
  70:app/tasks/temperature_humidity_sensor/temperature_humidity_sensor.c ****         osMessageQueuePut(evManagerQueue, &(message_t){GLOBAL_ERROR, .payload.value = TEMPERATURE_H
 744              		.loc 1 70 9 is_stmt 1 view .LVU165
  70:app/tasks/temperature_humidity_sensor/temperature_humidity_sensor.c ****         osMessageQueuePut(evManagerQueue, &(message_t){GLOBAL_ERROR, .payload.value = TEMPERATURE_H
 745              		.loc 1 70 55 is_stmt 0 view .LVU166
 746 0050 0022     		movs	r2, #0
 747 0052 0592     		str	r2, [sp, #20]
 748 0054 0692     		str	r2, [sp, #24]
 749 0056 0792     		str	r2, [sp, #28]
 750 0058 0C23     		movs	r3, #12
 751 005a 8DF81430 		strb	r3, [sp, #20]
 752 005e 0623     		movs	r3, #6
 753 0060 0693     		str	r3, [sp, #24]
  70:app/tasks/temperature_humidity_sensor/temperature_humidity_sensor.c ****         osMessageQueuePut(evManagerQueue, &(message_t){GLOBAL_ERROR, .payload.value = TEMPERATURE_H
 754              		.loc 1 70 9 view .LVU167
 755 0062 1346     		mov	r3, r2
 756 0064 05A9     		add	r1, sp, #20
 757 0066 FFF7FEFF 		bl	osMessageQueuePut
 758              	.LVL76:
  71:app/tasks/temperature_humidity_sensor/temperature_humidity_sensor.c ****         TO_STATE(&TH_SENS_Actor, TH_SENS_STATE_ERROR);
 759              		.loc 1 71 9 is_stmt 1 view .LVU168
  71:app/tasks/temperature_humidity_sensor/temperature_humidity_sensor.c ****         TO_STATE(&TH_SENS_Actor, TH_SENS_STATE_ERROR);
 760              		.loc 1 71 9 view .LVU169
 761 006a 0423     		movs	r3, #4
 762 006c 2374     		strb	r3, [r4, #16]
  71:app/tasks/temperature_humidity_sensor/temperature_humidity_sensor.c ****         TO_STATE(&TH_SENS_Actor, TH_SENS_STATE_ERROR);
 763              		.loc 1 71 9 view .LVU170
 764 006e 2868     		ldr	r0, [r5]
 765 0070 094B     		ldr	r3, .L44+24
 766 0072 2268     		ldr	r2, [r4]
 767 0074 0949     		ldr	r1, .L44+28
 768 0076 8068     		ldr	r0, [r0, #8]
 769 0078 FFF7FEFF 		bl	fprintf
 770              	.LVL77:
  71:app/tasks/temperature_humidity_sensor/temperature_humidity_sensor.c ****         TO_STATE(&TH_SENS_Actor, TH_SENS_STATE_ERROR);
 771              		.loc 1 71 9 view .LVU171
  71:app/tasks/temperature_humidity_sensor/temperature_humidity_sensor.c ****         TO_STATE(&TH_SENS_Actor, TH_SENS_STATE_ERROR);
 772              		.loc 1 71 54 view .LVU172
 773 007c C9E7     		b	.L40
 774              	.L45:
 775 007e 00BF     		.align	2
 776              	.L44:
 777 0080 00000000 		.word	_impure_ptr
 778 0084 00000000 		.word	.LC7
 779 0088 10000000 		.word	.LC8
 780 008c 00000000 		.word	.LANCHOR0
 781 0090 24000000 		.word	.LC9
 782 0094 00000000 		.word	ACTORS_LIST_SystemRegistry
 783 0098 50000000 		.word	.LC10
ARM GAS  /tmp/ccYXXIsR.s 			page 21


 784 009c 54000000 		.word	.LC3
 785              	.LBE6:
 786              	.LBE5:
 787              		.cfi_endproc
 788              	.LFE140:
 790              		.section	.rodata.TH_SENS_TaskInit.str1.4,"aMS",%progbits,1
 791              		.align	2
 792              	.LC11:
 793 0000 74685365 		.ascii	"thSensorQueue\000"
 793      6E736F72 
 793      51756575 
 793      6500
 794              		.section	.text.TH_SENS_TaskInit,"ax",%progbits
 795              		.align	1
 796              		.global	TH_SENS_TaskInit
 797              		.syntax unified
 798              		.thumb
 799              		.thumb_func
 800              		.fpu fpv4-sp-d16
 802              	TH_SENS_TaskInit:
 803              	.LFB139:
  47:app/tasks/temperature_humidity_sensor/temperature_humidity_sensor.c **** actor_t* TH_SENS_TaskInit(void) {
 804              		.loc 1 47 33 view -0
 805              		.cfi_startproc
 806              		@ args = 0, pretend = 0, frame = 24
 807              		@ frame_needed = 0, uses_anonymous_args = 0
 808 0000 30B5     		push	{r4, r5, lr}
 809              	.LCFI13:
 810              		.cfi_def_cfa_offset 12
 811              		.cfi_offset 4, -12
 812              		.cfi_offset 5, -8
 813              		.cfi_offset 14, -4
 814 0002 87B0     		sub	sp, sp, #28
 815              	.LCFI14:
 816              		.cfi_def_cfa_offset 40
  48:app/tasks/temperature_humidity_sensor/temperature_humidity_sensor.c ****   TH_SENS_Actor.super.osMessageQueueId = osMessageQueueNew(DEFAULT_QUEUE_SIZE, DEFAULT_QUEUE_MESSAG
 817              		.loc 1 48 3 view .LVU174
  48:app/tasks/temperature_humidity_sensor/temperature_humidity_sensor.c ****   TH_SENS_Actor.super.osMessageQueueId = osMessageQueueNew(DEFAULT_QUEUE_SIZE, DEFAULT_QUEUE_MESSAG
 818              		.loc 1 48 131 is_stmt 0 view .LVU175
 819 0004 0024     		movs	r4, #0
 820 0006 0094     		str	r4, [sp]
 821 0008 0194     		str	r4, [sp, #4]
 822 000a 0294     		str	r4, [sp, #8]
 823 000c 0394     		str	r4, [sp, #12]
 824 000e 0494     		str	r4, [sp, #16]
 825 0010 0594     		str	r4, [sp, #20]
 826 0012 094B     		ldr	r3, .L48
 827 0014 0093     		str	r3, [sp]
  48:app/tasks/temperature_humidity_sensor/temperature_humidity_sensor.c ****   TH_SENS_Actor.super.osMessageQueueId = osMessageQueueNew(DEFAULT_QUEUE_SIZE, DEFAULT_QUEUE_MESSAG
 828              		.loc 1 48 42 view .LVU176
 829 0016 6A46     		mov	r2, sp
 830 0018 0C21     		movs	r1, #12
 831 001a 0820     		movs	r0, #8
 832 001c FFF7FEFF 		bl	osMessageQueueNew
 833              	.LVL78:
  48:app/tasks/temperature_humidity_sensor/temperature_humidity_sensor.c ****   TH_SENS_Actor.super.osMessageQueueId = osMessageQueueNew(DEFAULT_QUEUE_SIZE, DEFAULT_QUEUE_MESSAG
 834              		.loc 1 48 40 view .LVU177
ARM GAS  /tmp/ccYXXIsR.s 			page 22


 835 0020 064D     		ldr	r5, .L48+4
 836 0022 A860     		str	r0, [r5, #8]
  51:app/tasks/temperature_humidity_sensor/temperature_humidity_sensor.c ****   TH_SENS_Actor.super.osThreadId = osThreadNew(TH_SENS_Task, NULL, &thSensorTaskDescription);
 837              		.loc 1 51 3 is_stmt 1 view .LVU178
  51:app/tasks/temperature_humidity_sensor/temperature_humidity_sensor.c ****   TH_SENS_Actor.super.osThreadId = osThreadNew(TH_SENS_Task, NULL, &thSensorTaskDescription);
 838              		.loc 1 51 36 is_stmt 0 view .LVU179
 839 0024 064A     		ldr	r2, .L48+8
 840 0026 2146     		mov	r1, r4
 841 0028 0648     		ldr	r0, .L48+12
 842 002a FFF7FEFF 		bl	osThreadNew
 843              	.LVL79:
  51:app/tasks/temperature_humidity_sensor/temperature_humidity_sensor.c ****   TH_SENS_Actor.super.osThreadId = osThreadNew(TH_SENS_Task, NULL, &thSensorTaskDescription);
 844              		.loc 1 51 34 view .LVU180
 845 002e 6860     		str	r0, [r5, #4]
  53:app/tasks/temperature_humidity_sensor/temperature_humidity_sensor.c ****   return (actor_t*) &TH_SENS_Actor;
 846              		.loc 1 53 3 is_stmt 1 view .LVU181
  54:app/tasks/temperature_humidity_sensor/temperature_humidity_sensor.c ****  }
 847              		.loc 1 54 2 is_stmt 0 view .LVU182
 848 0030 2846     		mov	r0, r5
 849 0032 07B0     		add	sp, sp, #28
 850              	.LCFI15:
 851              		.cfi_def_cfa_offset 12
 852              		@ sp needed
 853 0034 30BD     		pop	{r4, r5, pc}
 854              	.L49:
 855 0036 00BF     		.align	2
 856              	.L48:
 857 0038 00000000 		.word	.LC11
 858 003c 00000000 		.word	.LANCHOR0
 859 0040 00000000 		.word	.LANCHOR1
 860 0044 00000000 		.word	TH_SENS_Task
 861              		.cfi_endproc
 862              	.LFE139:
 864              		.global	thSensorTaskDescription
 865              		.global	thSensorTaskControlBlock
 866              		.global	thSensorTaskBuffer
 867              		.global	TH_SENS_Actor
 868              		.section	.bss.thSensorTaskBuffer,"aw",%nobits
 869              		.align	2
 872              	thSensorTaskBuffer:
 873 0000 00000000 		.space	512
 873      00000000 
 873      00000000 
 873      00000000 
 873      00000000 
 874              		.section	.bss.thSensorTaskControlBlock,"aw",%nobits
 875              		.align	2
 878              	thSensorTaskControlBlock:
 879 0000 00000000 		.space	92
 879      00000000 
 879      00000000 
 879      00000000 
 879      00000000 
 880              		.section	.data.TH_SENS_Actor,"aw"
 881              		.align	2
 882              		.set	.LANCHOR0,. + 0
 885              	TH_SENS_Actor:
ARM GAS  /tmp/ccYXXIsR.s 			page 23


 886 0000 06000000 		.word	6
 887 0004 00000000 		.word	0
 888 0008 00000000 		.word	0
 889 000c 00000000 		.word	handleTHSensorFSM
 890 0010 00       		.byte	0
 891 0011 00       		.space	1
 892 0012 0000     		.short	0
 893 0014 0000     		.short	0
 894 0016 0000     		.space	2
 895              		.section	.rodata.thSensorTaskDescription,"a"
 896              		.align	2
 897              		.set	.LANCHOR1,. + 0
 900              	thSensorTaskDescription:
 901 0000 00000000 		.word	.LC7
 902 0004 00000000 		.space	4
 903 0008 00000000 		.word	thSensorTaskControlBlock
 904 000c 5C000000 		.word	92
 905 0010 00000000 		.word	thSensorTaskBuffer
 906 0014 00020000 		.word	512
 907 0018 18000000 		.word	24
 908 001c 00000000 		.space	8
 908      00000000 
 909              		.text
 910              	.Letext0:
 911              		.file 2 "/usr/include/newlib/machine/_default_types.h"
 912              		.file 3 "/usr/lib/gcc/arm-none-eabi/10.3.1/include/stddef.h"
 913              		.file 4 "/usr/include/newlib/sys/_types.h"
 914              		.file 5 "/usr/include/newlib/sys/reent.h"
 915              		.file 6 "/usr/include/newlib/sys/lock.h"
 916              		.file 7 "/usr/include/newlib/sys/_stdint.h"
 917              		.file 8 "/usr/include/newlib/sys/types.h"
 918              		.file 9 "Drivers/CMSIS/Device/ST/STM32L4xx/Include/stm32l412xx.h"
 919              		.file 10 "Drivers/STM32L4xx_HAL_Driver/Inc/stm32l4xx_hal_gpio.h"
 920              		.file 11 "Middlewares/Third_Party/FreeRTOS/Source/CMSIS_RTOS_V2/cmsis_os2.h"
 921              		.file 12 "app/core/actor/../config/events_list/events_list.h"
 922              		.file 13 "app/core/actor/../config/actors_list/actors_list.h"
 923              		.file 14 "app/core/actor/actor.h"
 924              		.file 15 "Middlewares/Third_Party/FreeRTOS/Source/portable/GCC/ARM_CM4F/portmacro.h"
 925              		.file 16 "Middlewares/Third_Party/FreeRTOS/Source/include/FreeRTOS.h"
 926              		.file 17 "app/tasks/temperature_humidity_sensor/temperature_humidity_sensor.h"
 927              		.file 18 "app/drivers/sht3x/sht3x.h"
 928              		.file 19 "/usr/include/newlib/stdio.h"
ARM GAS  /tmp/ccYXXIsR.s 			page 24


DEFINED SYMBOLS
                            *ABS*:0000000000000000 temperature_humidity_sensor.c
     /tmp/ccYXXIsR.s:18     .text.handleError:0000000000000000 $t
     /tmp/ccYXXIsR.s:25     .text.handleError:0000000000000000 handleError
     /tmp/ccYXXIsR.s:44     .text.delayMs:0000000000000000 $t
     /tmp/ccYXXIsR.s:50     .text.delayMs:0000000000000000 delayMs
     /tmp/ccYXXIsR.s:84     .text.delayMs:0000000000000018 $d
     /tmp/ccYXXIsR.s:89     .rodata.handleInit.str1.4:0000000000000000 $d
     /tmp/ccYXXIsR.s:102    .text.handleInit:0000000000000000 $t
     /tmp/ccYXXIsR.s:108    .text.handleInit:0000000000000000 handleInit
     /tmp/ccYXXIsR.s:272    .text.handleInit:00000000000000ac $d
     /tmp/ccYXXIsR.s:287    .rodata.handleIdle.str1.4:0000000000000000 $d
     /tmp/ccYXXIsR.s:294    .text.handleIdle:0000000000000000 $t
     /tmp/ccYXXIsR.s:300    .text.handleIdle:0000000000000000 handleIdle
     /tmp/ccYXXIsR.s:407    .text.handleIdle:0000000000000064 $d
     /tmp/ccYXXIsR.s:417    .rodata.handleContinuousMeasure.str1.4:0000000000000000 $d
     /tmp/ccYXXIsR.s:421    .text.handleContinuousMeasure:0000000000000000 $t
     /tmp/ccYXXIsR.s:427    .text.handleContinuousMeasure:0000000000000000 handleContinuousMeasure
     /tmp/ccYXXIsR.s:557    .text.handleContinuousMeasure:0000000000000084 $d
     /tmp/ccYXXIsR.s:566    .text.handleTHSensorFSM:0000000000000000 $t
     /tmp/ccYXXIsR.s:572    .text.handleTHSensorFSM:0000000000000000 handleTHSensorFSM
     /tmp/ccYXXIsR.s:593    .text.handleTHSensorFSM:000000000000000c $d
     /tmp/ccYXXIsR.s:642    .rodata.TH_SENS_Task.str1.4:0000000000000000 $d
     /tmp/ccYXXIsR.s:655    .text.TH_SENS_Task:0000000000000000 $t
     /tmp/ccYXXIsR.s:662    .text.TH_SENS_Task:0000000000000000 TH_SENS_Task
     /tmp/ccYXXIsR.s:777    .text.TH_SENS_Task:0000000000000080 $d
     /tmp/ccYXXIsR.s:791    .rodata.TH_SENS_TaskInit.str1.4:0000000000000000 $d
     /tmp/ccYXXIsR.s:795    .text.TH_SENS_TaskInit:0000000000000000 $t
     /tmp/ccYXXIsR.s:802    .text.TH_SENS_TaskInit:0000000000000000 TH_SENS_TaskInit
     /tmp/ccYXXIsR.s:857    .text.TH_SENS_TaskInit:0000000000000038 $d
     /tmp/ccYXXIsR.s:900    .rodata.thSensorTaskDescription:0000000000000000 thSensorTaskDescription
     /tmp/ccYXXIsR.s:878    .bss.thSensorTaskControlBlock:0000000000000000 thSensorTaskControlBlock
     /tmp/ccYXXIsR.s:872    .bss.thSensorTaskBuffer:0000000000000000 thSensorTaskBuffer
     /tmp/ccYXXIsR.s:885    .data.TH_SENS_Actor:0000000000000000 TH_SENS_Actor
     /tmp/ccYXXIsR.s:869    .bss.thSensorTaskBuffer:0000000000000000 $d
     /tmp/ccYXXIsR.s:875    .bss.thSensorTaskControlBlock:0000000000000000 $d
     /tmp/ccYXXIsR.s:881    .data.TH_SENS_Actor:0000000000000000 $d
     /tmp/ccYXXIsR.s:896    .rodata.thSensorTaskDescription:0000000000000000 $d
     /tmp/ccYXXIsR.s:598    .text.handleTHSensorFSM:0000000000000011 $d
     /tmp/ccYXXIsR.s:598    .text.handleTHSensorFSM:0000000000000012 $t

UNDEFINED SYMBOLS
osDelay
SHT3x_InitIO
HAL_GPIO_WritePin
SHT3x_ReadDeviceID
fprintf
osMessageQueuePut
BSP_I2C1_Recv
BSP_I2C1_Send
_impure_ptr
ACTORS_LIST_SystemRegistry
SHT3x_PeriodicAcquisitionMode
__aeabi_f2d
SHT3x_ReadMeasurements
SHT3x_RawToTemperatureC
SHT3x_RawToHumidityRH
ARM GAS  /tmp/ccYXXIsR.s 			page 25


osMessageQueueGet
osMessageQueueNew
osThreadNew
