ARM GAS  /tmp/ccjd67eq.s 			page 1


   1              		.cpu cortex-m4
   2              		.eabi_attribute 27, 1
   3              		.eabi_attribute 28, 1
   4              		.eabi_attribute 20, 1
   5              		.eabi_attribute 21, 1
   6              		.eabi_attribute 23, 3
   7              		.eabi_attribute 24, 1
   8              		.eabi_attribute 25, 1
   9              		.eabi_attribute 26, 1
  10              		.eabi_attribute 30, 1
  11              		.eabi_attribute 34, 1
  12              		.eabi_attribute 18, 4
  13              		.file	"temperature_humidity_sensor.c"
  14              		.text
  15              	.Ltext0:
  16              		.cfi_sections	.debug_frame
  17              		.section	.text.handleError,"ax",%progbits
  18              		.align	1
  19              		.arch armv7e-m
  20              		.syntax unified
  21              		.thumb
  22              		.thumb_func
  23              		.fpu fpv4-sp-d16
  25              	handleError:
  26              	.LVL0:
  27              	.LFB145:
  28              		.file 1 "app/tasks/temperature_humidity_sensor/temperature_humidity_sensor.c"
   1:app/tasks/temperature_humidity_sensor/temperature_humidity_sensor.c **** /*!
   2:app/tasks/temperature_humidity_sensor/temperature_humidity_sensor.c ****  * @file temperature_humidity_sensor.c
   3:app/tasks/temperature_humidity_sensor/temperature_humidity_sensor.c ****  * @brief implementation of temperature_humidity_sensor
   4:app/tasks/temperature_humidity_sensor/temperature_humidity_sensor.c ****  *
   5:app/tasks/temperature_humidity_sensor/temperature_humidity_sensor.c ****  * Detailed description of the implementation file.
   6:app/tasks/temperature_humidity_sensor/temperature_humidity_sensor.c ****  *
   7:app/tasks/temperature_humidity_sensor/temperature_humidity_sensor.c ****  * @date 17/07/2024
   8:app/tasks/temperature_humidity_sensor/temperature_humidity_sensor.c ****  * @author artempolisskyi
   9:app/tasks/temperature_humidity_sensor/temperature_humidity_sensor.c ****  */
  10:app/tasks/temperature_humidity_sensor/temperature_humidity_sensor.c **** 
  11:app/tasks/temperature_humidity_sensor/temperature_humidity_sensor.c **** #include "temperature_humidity_sensor.h"
  12:app/tasks/temperature_humidity_sensor/temperature_humidity_sensor.c **** 
  13:app/tasks/temperature_humidity_sensor/temperature_humidity_sensor.c **** static osStatus_t handleTHSensorFSM(TH_SENS_Actor_t *this, message_t *message);
  14:app/tasks/temperature_humidity_sensor/temperature_humidity_sensor.c **** /** states handlers */
  15:app/tasks/temperature_humidity_sensor/temperature_humidity_sensor.c **** static osStatus_t handleInit(TH_SENS_Actor_t *this, message_t *message);
  16:app/tasks/temperature_humidity_sensor/temperature_humidity_sensor.c **** static osStatus_t handleIdle(TH_SENS_Actor_t *this, message_t *message);
  17:app/tasks/temperature_humidity_sensor/temperature_humidity_sensor.c **** static osStatus_t handleContinuousMeasure(TH_SENS_Actor_t *this, message_t *message);
  18:app/tasks/temperature_humidity_sensor/temperature_humidity_sensor.c **** static osStatus_t handleError(TH_SENS_Actor_t *this, message_t *message);
  19:app/tasks/temperature_humidity_sensor/temperature_humidity_sensor.c **** /** utils */
  20:app/tasks/temperature_humidity_sensor/temperature_humidity_sensor.c **** static uint32_t delayMs(uint32_t ms);
  21:app/tasks/temperature_humidity_sensor/temperature_humidity_sensor.c **** 
  22:app/tasks/temperature_humidity_sensor/temperature_humidity_sensor.c **** extern actor_t* ACTORS_LIST_SystemRegistry[MAX_ACTORS];
  23:app/tasks/temperature_humidity_sensor/temperature_humidity_sensor.c **** 
  24:app/tasks/temperature_humidity_sensor/temperature_humidity_sensor.c **** /**
  25:app/tasks/temperature_humidity_sensor/temperature_humidity_sensor.c ****  * @brief Temperature & Humidity Sensor actor struct
  26:app/tasks/temperature_humidity_sensor/temperature_humidity_sensor.c ****  * @extends actor_t
  27:app/tasks/temperature_humidity_sensor/temperature_humidity_sensor.c ****  */
  28:app/tasks/temperature_humidity_sensor/temperature_humidity_sensor.c **** TH_SENS_Actor_t TH_SENS_Actor = {
  29:app/tasks/temperature_humidity_sensor/temperature_humidity_sensor.c ****         .super = {
  30:app/tasks/temperature_humidity_sensor/temperature_humidity_sensor.c ****                 .actorId = TEMPERATURE_HUMIDITY_SENSOR_ACTOR_ID,
ARM GAS  /tmp/ccjd67eq.s 			page 2


  31:app/tasks/temperature_humidity_sensor/temperature_humidity_sensor.c ****                 .messageHandler = (messageHandler_t) handleTHSensorFSM,
  32:app/tasks/temperature_humidity_sensor/temperature_humidity_sensor.c ****                 .osMessageQueueId = NULL,
  33:app/tasks/temperature_humidity_sensor/temperature_humidity_sensor.c ****                 .osThreadId = NULL,
  34:app/tasks/temperature_humidity_sensor/temperature_humidity_sensor.c ****         },
  35:app/tasks/temperature_humidity_sensor/temperature_humidity_sensor.c ****         .state = TH_SENS_NO_STATE,
  36:app/tasks/temperature_humidity_sensor/temperature_humidity_sensor.c ****         .rawTemperature = 0x0000,    ///< raw temperature value
  37:app/tasks/temperature_humidity_sensor/temperature_humidity_sensor.c ****         .rawHumidity = 0x0000,       ///< raw humidity value
  38:app/tasks/temperature_humidity_sensor/temperature_humidity_sensor.c **** };
  39:app/tasks/temperature_humidity_sensor/temperature_humidity_sensor.c **** 
  40:app/tasks/temperature_humidity_sensor/temperature_humidity_sensor.c **** // task description required for static task creation
  41:app/tasks/temperature_humidity_sensor/temperature_humidity_sensor.c **** uint32_t thSensorTaskBuffer[DEFAULT_TASK_STACK_SIZE_WORDS];
  42:app/tasks/temperature_humidity_sensor/temperature_humidity_sensor.c **** StaticTask_t thSensorTaskControlBlock;
  43:app/tasks/temperature_humidity_sensor/temperature_humidity_sensor.c **** const osThreadAttr_t thSensorTaskDescription = {
  44:app/tasks/temperature_humidity_sensor/temperature_humidity_sensor.c ****         .name = "thSensorTask",
  45:app/tasks/temperature_humidity_sensor/temperature_humidity_sensor.c ****         .cb_mem = &thSensorTaskControlBlock,
  46:app/tasks/temperature_humidity_sensor/temperature_humidity_sensor.c ****         .cb_size = sizeof(thSensorTaskControlBlock),
  47:app/tasks/temperature_humidity_sensor/temperature_humidity_sensor.c ****         .stack_mem = &thSensorTaskBuffer[0],
  48:app/tasks/temperature_humidity_sensor/temperature_humidity_sensor.c ****         .stack_size = sizeof(thSensorTaskBuffer),
  49:app/tasks/temperature_humidity_sensor/temperature_humidity_sensor.c ****         .priority = (osPriority_t) osPriorityNormal,
  50:app/tasks/temperature_humidity_sensor/temperature_humidity_sensor.c **** };
  51:app/tasks/temperature_humidity_sensor/temperature_humidity_sensor.c **** 
  52:app/tasks/temperature_humidity_sensor/temperature_humidity_sensor.c **** /**
  53:app/tasks/temperature_humidity_sensor/temperature_humidity_sensor.c ****  * @brief Initializes the Temperature and Humidity Sensor task.
  54:app/tasks/temperature_humidity_sensor/temperature_humidity_sensor.c ****  * @return {actor_t*} - pointer to the actor base struct
  55:app/tasks/temperature_humidity_sensor/temperature_humidity_sensor.c ****  */
  56:app/tasks/temperature_humidity_sensor/temperature_humidity_sensor.c **** actor_t* TH_SENS_TaskInit(void) {
  57:app/tasks/temperature_humidity_sensor/temperature_humidity_sensor.c ****   TH_SENS_Actor.super.osMessageQueueId = osMessageQueueNew(DEFAULT_QUEUE_SIZE, DEFAULT_QUEUE_MESSAG
  58:app/tasks/temperature_humidity_sensor/temperature_humidity_sensor.c ****           .name = "thSensorQueue"
  59:app/tasks/temperature_humidity_sensor/temperature_humidity_sensor.c ****   });
  60:app/tasks/temperature_humidity_sensor/temperature_humidity_sensor.c ****   TH_SENS_Actor.super.osThreadId = osThreadNew(TH_SENS_Task, NULL, &thSensorTaskDescription);
  61:app/tasks/temperature_humidity_sensor/temperature_humidity_sensor.c **** 
  62:app/tasks/temperature_humidity_sensor/temperature_humidity_sensor.c ****   return (actor_t*) &TH_SENS_Actor;
  63:app/tasks/temperature_humidity_sensor/temperature_humidity_sensor.c ****  }
  64:app/tasks/temperature_humidity_sensor/temperature_humidity_sensor.c **** 
  65:app/tasks/temperature_humidity_sensor/temperature_humidity_sensor.c **** /**
  66:app/tasks/temperature_humidity_sensor/temperature_humidity_sensor.c ****  * @brief Temperature & Humidity Sensor task
  67:app/tasks/temperature_humidity_sensor/temperature_humidity_sensor.c ****  * Waits for message from the queue and proceed it in FSM
  68:app/tasks/temperature_humidity_sensor/temperature_humidity_sensor.c ****  * Enters ERROR state if message handling failed
  69:app/tasks/temperature_humidity_sensor/temperature_humidity_sensor.c ****  */
  70:app/tasks/temperature_humidity_sensor/temperature_humidity_sensor.c **** void TH_SENS_Task(void *argument) {
  71:app/tasks/temperature_humidity_sensor/temperature_humidity_sensor.c ****   (void) argument; // Avoid unused parameter warning
  72:app/tasks/temperature_humidity_sensor/temperature_humidity_sensor.c ****   message_t msg;
  73:app/tasks/temperature_humidity_sensor/temperature_humidity_sensor.c **** 
  74:app/tasks/temperature_humidity_sensor/temperature_humidity_sensor.c ****   #ifdef DEBUG
  75:app/tasks/temperature_humidity_sensor/temperature_humidity_sensor.c ****     fprintf(stdout, "Task %s started\n", thSensorTaskDescription.name);
  76:app/tasks/temperature_humidity_sensor/temperature_humidity_sensor.c ****   #endif
  77:app/tasks/temperature_humidity_sensor/temperature_humidity_sensor.c **** 
  78:app/tasks/temperature_humidity_sensor/temperature_humidity_sensor.c ****   for (;;) {
  79:app/tasks/temperature_humidity_sensor/temperature_humidity_sensor.c ****     // Wait for messages from the queue
  80:app/tasks/temperature_humidity_sensor/temperature_humidity_sensor.c ****     if (osMessageQueueGet(TH_SENS_Actor.super.osMessageQueueId, &msg, NULL, osWaitForever) == osOK)
  81:app/tasks/temperature_humidity_sensor/temperature_humidity_sensor.c ****       osStatus_t handleMessageStatus = TH_SENS_Actor.super.messageHandler((actor_t *) &TH_SENS_Acto
  82:app/tasks/temperature_humidity_sensor/temperature_humidity_sensor.c **** 
  83:app/tasks/temperature_humidity_sensor/temperature_humidity_sensor.c ****       if (handleMessageStatus != osOK) {
  84:app/tasks/temperature_humidity_sensor/temperature_humidity_sensor.c ****         #ifdef DEBUG
  85:app/tasks/temperature_humidity_sensor/temperature_humidity_sensor.c ****           fprintf(stderr, "%s: Error handling event %u in state %ul\n", thSensorTaskDescription.nam
  86:app/tasks/temperature_humidity_sensor/temperature_humidity_sensor.c ****         #endif
  87:app/tasks/temperature_humidity_sensor/temperature_humidity_sensor.c **** 
ARM GAS  /tmp/ccjd67eq.s 			page 3


  88:app/tasks/temperature_humidity_sensor/temperature_humidity_sensor.c ****         osMessageQueueId_t evManagerQueue = ACTORS_LIST_SystemRegistry[EV_MANAGER_ACTOR_ID]->osMess
  89:app/tasks/temperature_humidity_sensor/temperature_humidity_sensor.c ****         osMessageQueuePut(evManagerQueue, &(message_t){GLOBAL_ERROR, .payload.value = TEMPERATURE_H
  90:app/tasks/temperature_humidity_sensor/temperature_humidity_sensor.c ****         TO_STATE(&TH_SENS_Actor, TH_SENS_STATE_ERROR);
  91:app/tasks/temperature_humidity_sensor/temperature_humidity_sensor.c ****       }
  92:app/tasks/temperature_humidity_sensor/temperature_humidity_sensor.c ****     }
  93:app/tasks/temperature_humidity_sensor/temperature_humidity_sensor.c ****   }
  94:app/tasks/temperature_humidity_sensor/temperature_humidity_sensor.c **** }
  95:app/tasks/temperature_humidity_sensor/temperature_humidity_sensor.c **** 
  96:app/tasks/temperature_humidity_sensor/temperature_humidity_sensor.c **** static osStatus_t handleTHSensorFSM(TH_SENS_Actor_t *this, message_t *message) {
  97:app/tasks/temperature_humidity_sensor/temperature_humidity_sensor.c ****   switch (this->state) {
  98:app/tasks/temperature_humidity_sensor/temperature_humidity_sensor.c ****     case TH_SENS_NO_STATE:
  99:app/tasks/temperature_humidity_sensor/temperature_humidity_sensor.c ****       return handleInit(this, message);
 100:app/tasks/temperature_humidity_sensor/temperature_humidity_sensor.c ****     case TH_SENS_IDLE_STATE:
 101:app/tasks/temperature_humidity_sensor/temperature_humidity_sensor.c ****       return handleIdle(this, message);
 102:app/tasks/temperature_humidity_sensor/temperature_humidity_sensor.c ****     case TH_SENS_CONTINUOUS_MEASURE_STATE:
 103:app/tasks/temperature_humidity_sensor/temperature_humidity_sensor.c ****       return handleContinuousMeasure(this, message);
 104:app/tasks/temperature_humidity_sensor/temperature_humidity_sensor.c ****     case TH_SENS_STATE_ERROR:
 105:app/tasks/temperature_humidity_sensor/temperature_humidity_sensor.c ****       // TODO implement error handling
 106:app/tasks/temperature_humidity_sensor/temperature_humidity_sensor.c ****       return handleError(this, message);
 107:app/tasks/temperature_humidity_sensor/temperature_humidity_sensor.c ****     default:
 108:app/tasks/temperature_humidity_sensor/temperature_humidity_sensor.c ****       return osOK;
 109:app/tasks/temperature_humidity_sensor/temperature_humidity_sensor.c ****   }
 110:app/tasks/temperature_humidity_sensor/temperature_humidity_sensor.c **** }
 111:app/tasks/temperature_humidity_sensor/temperature_humidity_sensor.c **** 
 112:app/tasks/temperature_humidity_sensor/temperature_humidity_sensor.c **** static osStatus_t handleInit(TH_SENS_Actor_t *this, message_t *message) {
 113:app/tasks/temperature_humidity_sensor/temperature_humidity_sensor.c ****   if (GLOBAL_CMD_INITIALIZE == message->event) {
 114:app/tasks/temperature_humidity_sensor/temperature_humidity_sensor.c ****     // provide IO functions to the sensor driver
 115:app/tasks/temperature_humidity_sensor/temperature_humidity_sensor.c ****     osStatus_t ioStatus = SHT3x_InitIO(TH_SENS_I2C_ADDRESS, I2C_Send, I2C_Recv, delayMs, NULL);
 116:app/tasks/temperature_humidity_sensor/temperature_humidity_sensor.c **** 
 117:app/tasks/temperature_humidity_sensor/temperature_humidity_sensor.c ****     if (ioStatus != osOK) return osError;
 118:app/tasks/temperature_humidity_sensor/temperature_humidity_sensor.c **** 
 119:app/tasks/temperature_humidity_sensor/temperature_humidity_sensor.c ****     // reset the sensor by pulling down _TEMP_RESET, at least 1uS duration required
 120:app/tasks/temperature_humidity_sensor/temperature_humidity_sensor.c ****     HAL_GPIO_WritePin(_TEMP_RESET_GPIO_Port, _TEMP_RESET_Pin, GPIO_PIN_RESET);
 121:app/tasks/temperature_humidity_sensor/temperature_humidity_sensor.c ****     osDelay(1);
 122:app/tasks/temperature_humidity_sensor/temperature_humidity_sensor.c ****     HAL_GPIO_WritePin(_TEMP_RESET_GPIO_Port, _TEMP_RESET_Pin, GPIO_PIN_SET);
 123:app/tasks/temperature_humidity_sensor/temperature_humidity_sensor.c ****     osDelay(1);
 124:app/tasks/temperature_humidity_sensor/temperature_humidity_sensor.c **** 
 125:app/tasks/temperature_humidity_sensor/temperature_humidity_sensor.c ****     // read sensor ID
 126:app/tasks/temperature_humidity_sensor/temperature_humidity_sensor.c ****     uint32_t sht3xId = 0x00000000;
 127:app/tasks/temperature_humidity_sensor/temperature_humidity_sensor.c ****     ioStatus = SHT3x_ReadDeviceID(&sht3xId);
 128:app/tasks/temperature_humidity_sensor/temperature_humidity_sensor.c **** 
 129:app/tasks/temperature_humidity_sensor/temperature_humidity_sensor.c ****     if (ioStatus != osOK) return osError;
 130:app/tasks/temperature_humidity_sensor/temperature_humidity_sensor.c **** 
 131:app/tasks/temperature_humidity_sensor/temperature_humidity_sensor.c ****     #ifdef DEBUG
 132:app/tasks/temperature_humidity_sensor/temperature_humidity_sensor.c ****       fprintf(stdout, "SHT3x ID: %lu\n", sht3xId);
 133:app/tasks/temperature_humidity_sensor/temperature_humidity_sensor.c ****     #endif
 134:app/tasks/temperature_humidity_sensor/temperature_humidity_sensor.c **** 
 135:app/tasks/temperature_humidity_sensor/temperature_humidity_sensor.c ****     // publish to event manager that the sensor is initialized
 136:app/tasks/temperature_humidity_sensor/temperature_humidity_sensor.c ****     osMessageQueueId_t evManagerQueue = ACTORS_LIST_SystemRegistry[EV_MANAGER_ACTOR_ID]->osMessageQ
 137:app/tasks/temperature_humidity_sensor/temperature_humidity_sensor.c ****     osMessageQueuePut(evManagerQueue, &(message_t){GLOBAL_INITIALIZE_SUCCESS, .payload.value = TEMP
 138:app/tasks/temperature_humidity_sensor/temperature_humidity_sensor.c **** 
 139:app/tasks/temperature_humidity_sensor/temperature_humidity_sensor.c ****     #ifdef DEBUG
 140:app/tasks/temperature_humidity_sensor/temperature_humidity_sensor.c ****       fprintf(stdout, "Temperature & Humidity sensor %u initialized\n", TEMPERATURE_HUMIDITY_SENSOR
 141:app/tasks/temperature_humidity_sensor/temperature_humidity_sensor.c ****     #endif
 142:app/tasks/temperature_humidity_sensor/temperature_humidity_sensor.c **** 
 143:app/tasks/temperature_humidity_sensor/temperature_humidity_sensor.c ****     TO_STATE(this, TH_SENS_IDLE_STATE);
 144:app/tasks/temperature_humidity_sensor/temperature_humidity_sensor.c ****   }
ARM GAS  /tmp/ccjd67eq.s 			page 4


 145:app/tasks/temperature_humidity_sensor/temperature_humidity_sensor.c **** 
 146:app/tasks/temperature_humidity_sensor/temperature_humidity_sensor.c ****   return osOK;
 147:app/tasks/temperature_humidity_sensor/temperature_humidity_sensor.c **** }
 148:app/tasks/temperature_humidity_sensor/temperature_humidity_sensor.c **** 
 149:app/tasks/temperature_humidity_sensor/temperature_humidity_sensor.c **** static osStatus_t handleIdle(TH_SENS_Actor_t *this, message_t *message) {
 150:app/tasks/temperature_humidity_sensor/temperature_humidity_sensor.c ****   osStatus_t  ioStatus = osOK;
 151:app/tasks/temperature_humidity_sensor/temperature_humidity_sensor.c **** 
 152:app/tasks/temperature_humidity_sensor/temperature_humidity_sensor.c ****   switch (message->event) {
 153:app/tasks/temperature_humidity_sensor/temperature_humidity_sensor.c ****     case GLOBAL_CMD_START_CONTINUOUS_SENSING:
 154:app/tasks/temperature_humidity_sensor/temperature_humidity_sensor.c ****       ioStatus = SHT3x_PeriodicAcquisitionMode(SHT3x_START_MEASUREMENT_0_5_MPS_LOW_REPEATABILITY_CM
 155:app/tasks/temperature_humidity_sensor/temperature_humidity_sensor.c ****       if (ioStatus != osOK) return osError;
 156:app/tasks/temperature_humidity_sensor/temperature_humidity_sensor.c **** 
 157:app/tasks/temperature_humidity_sensor/temperature_humidity_sensor.c ****       TO_STATE(this, TH_SENS_CONTINUOUS_MEASURE_STATE);
 158:app/tasks/temperature_humidity_sensor/temperature_humidity_sensor.c ****       return osOK;
 159:app/tasks/temperature_humidity_sensor/temperature_humidity_sensor.c ****     case TH_SENS_START_SINGLE_SHOT_READ:
 160:app/tasks/temperature_humidity_sensor/temperature_humidity_sensor.c ****       // TODO run single shot measurement
 161:app/tasks/temperature_humidity_sensor/temperature_humidity_sensor.c **** //      #ifdef DEBUG
 162:app/tasks/temperature_humidity_sensor/temperature_humidity_sensor.c **** //        fprintf(stdout, "Raw: temperature: %d humidity %d\n", this->rawTemperature, this->rawHumi
 163:app/tasks/temperature_humidity_sensor/temperature_humidity_sensor.c **** //      #endif
 164:app/tasks/temperature_humidity_sensor/temperature_humidity_sensor.c **** 
 165:app/tasks/temperature_humidity_sensor/temperature_humidity_sensor.c ****       TO_STATE(this, TH_SENS_IDLE_STATE);
 166:app/tasks/temperature_humidity_sensor/temperature_humidity_sensor.c ****       return osOK;
 167:app/tasks/temperature_humidity_sensor/temperature_humidity_sensor.c ****     default:
 168:app/tasks/temperature_humidity_sensor/temperature_humidity_sensor.c ****       return osOK;
 169:app/tasks/temperature_humidity_sensor/temperature_humidity_sensor.c ****   }
 170:app/tasks/temperature_humidity_sensor/temperature_humidity_sensor.c **** }
 171:app/tasks/temperature_humidity_sensor/temperature_humidity_sensor.c **** 
 172:app/tasks/temperature_humidity_sensor/temperature_humidity_sensor.c **** static osStatus_t handleContinuousMeasure(TH_SENS_Actor_t *this, message_t *message) {
 173:app/tasks/temperature_humidity_sensor/temperature_humidity_sensor.c ****   osStatus_t  ioStatus = osOK;
 174:app/tasks/temperature_humidity_sensor/temperature_humidity_sensor.c **** 
 175:app/tasks/temperature_humidity_sensor/temperature_humidity_sensor.c ****   switch (message->event) {
 176:app/tasks/temperature_humidity_sensor/temperature_humidity_sensor.c ****     case GLOBAL_WAKE_N_READ:
 177:app/tasks/temperature_humidity_sensor/temperature_humidity_sensor.c ****       ioStatus = SHT3x_ReadMeasurements(&this->rawTemperature, &this->rawHumidity);
 178:app/tasks/temperature_humidity_sensor/temperature_humidity_sensor.c ****       if (ioStatus != osOK) return osError;
 179:app/tasks/temperature_humidity_sensor/temperature_humidity_sensor.c **** 
 180:app/tasks/temperature_humidity_sensor/temperature_humidity_sensor.c **** //      uint16_t t = SHT3x_RawToTemperatureC(this->rawTemperature);
 181:app/tasks/temperature_humidity_sensor/temperature_humidity_sensor.c **** //      uint16_t rh = SHT3x_RawToHumidityRH(this->rawHumidity);
 182:app/tasks/temperature_humidity_sensor/temperature_humidity_sensor.c **** //
 183:app/tasks/temperature_humidity_sensor/temperature_humidity_sensor.c **** //      #ifdef DEBUG
 184:app/tasks/temperature_humidity_sensor/temperature_humidity_sensor.c **** //        fprintf(stdout, "Temperature: %d humidity %d\n", t, rh);
 185:app/tasks/temperature_humidity_sensor/temperature_humidity_sensor.c **** //      #endif
 186:app/tasks/temperature_humidity_sensor/temperature_humidity_sensor.c **** 
 187:app/tasks/temperature_humidity_sensor/temperature_humidity_sensor.c ****       TO_STATE(this, TH_SENS_CONTINUOUS_MEASURE_STATE);
 188:app/tasks/temperature_humidity_sensor/temperature_humidity_sensor.c ****       return osOK;
 189:app/tasks/temperature_humidity_sensor/temperature_humidity_sensor.c ****     default:
 190:app/tasks/temperature_humidity_sensor/temperature_humidity_sensor.c ****       return osOK;
 191:app/tasks/temperature_humidity_sensor/temperature_humidity_sensor.c ****   }
 192:app/tasks/temperature_humidity_sensor/temperature_humidity_sensor.c **** }
 193:app/tasks/temperature_humidity_sensor/temperature_humidity_sensor.c **** 
 194:app/tasks/temperature_humidity_sensor/temperature_humidity_sensor.c **** static osStatus_t handleError(TH_SENS_Actor_t *this, message_t *message) {
  29              		.loc 1 194 74 view -0
  30              		.cfi_startproc
  31              		@ args = 0, pretend = 0, frame = 0
  32              		@ frame_needed = 0, uses_anonymous_args = 0
  33              		@ link register save eliminated.
 195:app/tasks/temperature_humidity_sensor/temperature_humidity_sensor.c ****   return osOK;
  34              		.loc 1 195 3 view .LVU1
ARM GAS  /tmp/ccjd67eq.s 			page 5


 196:app/tasks/temperature_humidity_sensor/temperature_humidity_sensor.c **** }
  35              		.loc 1 196 1 is_stmt 0 view .LVU2
  36 0000 0020     		movs	r0, #0
  37              	.LVL1:
  38              		.loc 1 196 1 view .LVU3
  39 0002 7047     		bx	lr
  40              		.cfi_endproc
  41              	.LFE145:
  43              		.section	.text.delayMs,"ax",%progbits
  44              		.align	1
  45              		.syntax unified
  46              		.thumb
  47              		.thumb_func
  48              		.fpu fpv4-sp-d16
  50              	delayMs:
  51              	.LVL2:
  52              	.LFB146:
 197:app/tasks/temperature_humidity_sensor/temperature_humidity_sensor.c **** 
 198:app/tasks/temperature_humidity_sensor/temperature_humidity_sensor.c **** static uint32_t delayMs(uint32_t ms) {
  53              		.loc 1 198 38 is_stmt 1 view -0
  54              		.cfi_startproc
  55              		@ args = 0, pretend = 0, frame = 0
  56              		@ frame_needed = 0, uses_anonymous_args = 0
  57              		.loc 1 198 38 is_stmt 0 view .LVU5
  58 0000 08B5     		push	{r3, lr}
  59              	.LCFI0:
  60              		.cfi_def_cfa_offset 8
  61              		.cfi_offset 3, -8
  62              		.cfi_offset 14, -4
 199:app/tasks/temperature_humidity_sensor/temperature_humidity_sensor.c ****   uint32_t ticks = (ms * configTICK_RATE_HZ) / 1000;
  63              		.loc 1 199 3 is_stmt 1 view .LVU6
  64              		.loc 1 199 24 is_stmt 0 view .LVU7
  65 0002 4FF47A73 		mov	r3, #1000
  66 0006 03FB00F0 		mul	r0, r3, r0
  67              	.LVL3:
  68              		.loc 1 199 12 view .LVU8
  69 000a 034B     		ldr	r3, .L4
  70 000c A3FB0030 		umull	r3, r0, r3, r0
  71              	.LVL4:
 200:app/tasks/temperature_humidity_sensor/temperature_humidity_sensor.c ****   return osDelay(ticks);
  72              		.loc 1 200 3 is_stmt 1 view .LVU9
  73              		.loc 1 200 10 is_stmt 0 view .LVU10
  74 0010 8009     		lsrs	r0, r0, #6
  75              	.LVL5:
  76              		.loc 1 200 10 view .LVU11
  77 0012 FFF7FEFF 		bl	osDelay
  78              	.LVL6:
 201:app/tasks/temperature_humidity_sensor/temperature_humidity_sensor.c **** }...
  79              		.loc 1 201 1 view .LVU12
  80 0016 08BD     		pop	{r3, pc}
  81              	.L5:
  82              		.align	2
  83              	.L4:
  84 0018 D34D6210 		.word	274877907
  85              		.cfi_endproc
  86              	.LFE146:
  88              		.section	.rodata.handleInit.str1.4,"aMS",%progbits,1
ARM GAS  /tmp/ccjd67eq.s 			page 6


  89              		.align	2
  90              	.LC0:
  91 0000 53485433 		.ascii	"SHT3x ID: %lu\012\000"
  91      78204944 
  91      3A20256C 
  91      750A00
  92 000f 00       		.align	2
  93              	.LC1:
  94 0010 54656D70 		.ascii	"Temperature & Humidity sensor %u initialized\012\000"
  94      65726174 
  94      75726520 
  94      26204875 
  94      6D696469 
  95 003e 0000     		.align	2
  96              	.LC2:
  97 0040 54485F53 		.ascii	"TH_SENS_IDLE_STATE\000"
  97      454E535F 
  97      49444C45 
  97      5F535441 
  97      544500
  98 0053 00       		.align	2
  99              	.LC3:
 100 0054 256C753A 		.ascii	"%lu: %s\012\000"
 100      2025730A 
 100      00
 101              		.section	.text.handleInit,"ax",%progbits
 102              		.align	1
 103              		.syntax unified
 104              		.thumb
 105              		.thumb_func
 106              		.fpu fpv4-sp-d16
 108              	handleInit:
 109              	.LVL7:
 110              	.LFB142:
 112:app/tasks/temperature_humidity_sensor/temperature_humidity_sensor.c **** static osStatus_t handleInit(TH_SENS_Actor_t *this, message_t *message) {
 111              		.loc 1 112 73 is_stmt 1 view -0
 112              		.cfi_startproc
 113              		@ args = 0, pretend = 0, frame = 16
 114              		@ frame_needed = 0, uses_anonymous_args = 0
 112:app/tasks/temperature_humidity_sensor/temperature_humidity_sensor.c **** static osStatus_t handleInit(TH_SENS_Actor_t *this, message_t *message) {
 115              		.loc 1 112 73 is_stmt 0 view .LVU14
 116 0000 F0B5     		push	{r4, r5, r6, r7, lr}
 117              	.LCFI1:
 118              		.cfi_def_cfa_offset 20
 119              		.cfi_offset 4, -20
 120              		.cfi_offset 5, -16
 121              		.cfi_offset 6, -12
 122              		.cfi_offset 7, -8
 123              		.cfi_offset 14, -4
 124 0002 87B0     		sub	sp, sp, #28
 125              	.LCFI2:
 126              		.cfi_def_cfa_offset 48
 113:app/tasks/temperature_humidity_sensor/temperature_humidity_sensor.c ****   if (GLOBAL_CMD_INITIALIZE == message->event) {
 127              		.loc 1 113 3 is_stmt 1 view .LVU15
 113:app/tasks/temperature_humidity_sensor/temperature_humidity_sensor.c ****   if (GLOBAL_CMD_INITIALIZE == message->event) {
 128              		.loc 1 113 39 is_stmt 0 view .LVU16
 129 0004 0B78     		ldrb	r3, [r1]	@ zero_extendqisi2
ARM GAS  /tmp/ccjd67eq.s 			page 7


 113:app/tasks/temperature_humidity_sensor/temperature_humidity_sensor.c ****   if (GLOBAL_CMD_INITIALIZE == message->event) {
 130              		.loc 1 113 6 view .LVU17
 131 0006 012B     		cmp	r3, #1
 132 0008 03D0     		beq	.L11
 146:app/tasks/temperature_humidity_sensor/temperature_humidity_sensor.c ****   return osOK;
 133              		.loc 1 146 10 view .LVU18
 134 000a 0024     		movs	r4, #0
 135              	.LVL8:
 136              	.L6:
 147:app/tasks/temperature_humidity_sensor/temperature_humidity_sensor.c **** }
 137              		.loc 1 147 1 view .LVU19
 138 000c 2046     		mov	r0, r4
 139 000e 07B0     		add	sp, sp, #28
 140              	.LCFI3:
 141              		.cfi_remember_state
 142              		.cfi_def_cfa_offset 20
 143              		@ sp needed
 144 0010 F0BD     		pop	{r4, r5, r6, r7, pc}
 145              	.LVL9:
 146              	.L11:
 147              	.LCFI4:
 148              		.cfi_restore_state
 147:app/tasks/temperature_humidity_sensor/temperature_humidity_sensor.c **** }
 149              		.loc 1 147 1 view .LVU20
 150 0012 0546     		mov	r5, r0
 151              	.LBB2:
 115:app/tasks/temperature_humidity_sensor/temperature_humidity_sensor.c ****     osStatus_t ioStatus = SHT3x_InitIO(TH_SENS_I2C_ADDRESS, I2C_Send, I2C_Recv, delayMs, NULL);
 152              		.loc 1 115 5 is_stmt 1 view .LVU21
 115:app/tasks/temperature_humidity_sensor/temperature_humidity_sensor.c ****     osStatus_t ioStatus = SHT3x_InitIO(TH_SENS_I2C_ADDRESS, I2C_Send, I2C_Recv, delayMs, NULL);
 153              		.loc 1 115 27 is_stmt 0 view .LVU22
 154 0014 0023     		movs	r3, #0
 155 0016 0093     		str	r3, [sp]
 156 0018 244B     		ldr	r3, .L12
 157 001a 254A     		ldr	r2, .L12+4
 158 001c 2549     		ldr	r1, .L12+8
 159              	.LVL10:
 115:app/tasks/temperature_humidity_sensor/temperature_humidity_sensor.c ****     osStatus_t ioStatus = SHT3x_InitIO(TH_SENS_I2C_ADDRESS, I2C_Send, I2C_Recv, delayMs, NULL);
 160              		.loc 1 115 27 view .LVU23
 161 001e 8820     		movs	r0, #136
 162              	.LVL11:
 115:app/tasks/temperature_humidity_sensor/temperature_humidity_sensor.c ****     osStatus_t ioStatus = SHT3x_InitIO(TH_SENS_I2C_ADDRESS, I2C_Send, I2C_Recv, delayMs, NULL);
 163              		.loc 1 115 27 view .LVU24
 164 0020 FFF7FEFF 		bl	SHT3x_InitIO
 165              	.LVL12:
 117:app/tasks/temperature_humidity_sensor/temperature_humidity_sensor.c ****     if (ioStatus != osOK) return osError;
 166              		.loc 1 117 5 is_stmt 1 view .LVU25
 117:app/tasks/temperature_humidity_sensor/temperature_humidity_sensor.c ****     if (ioStatus != osOK) return osError;
 167              		.loc 1 117 8 is_stmt 0 view .LVU26
 168 0024 0028     		cmp	r0, #0
 169 0026 3ED1     		bne	.L8
 120:app/tasks/temperature_humidity_sensor/temperature_humidity_sensor.c ****     HAL_GPIO_WritePin(_TEMP_RESET_GPIO_Port, _TEMP_RESET_Pin, GPIO_PIN_RESET);
 170              		.loc 1 120 5 is_stmt 1 view .LVU27
 171 0028 234C     		ldr	r4, .L12+12
 172 002a 0022     		movs	r2, #0
 173 002c 1021     		movs	r1, #16
 174 002e 2046     		mov	r0, r4
 175              	.LVL13:
ARM GAS  /tmp/ccjd67eq.s 			page 8


 120:app/tasks/temperature_humidity_sensor/temperature_humidity_sensor.c ****     HAL_GPIO_WritePin(_TEMP_RESET_GPIO_Port, _TEMP_RESET_Pin, GPIO_PIN_RESET);
 176              		.loc 1 120 5 is_stmt 0 view .LVU28
 177 0030 FFF7FEFF 		bl	HAL_GPIO_WritePin
 178              	.LVL14:
 121:app/tasks/temperature_humidity_sensor/temperature_humidity_sensor.c ****     osDelay(1);
 179              		.loc 1 121 5 is_stmt 1 view .LVU29
 180 0034 0120     		movs	r0, #1
 181 0036 FFF7FEFF 		bl	osDelay
 182              	.LVL15:
 122:app/tasks/temperature_humidity_sensor/temperature_humidity_sensor.c ****     HAL_GPIO_WritePin(_TEMP_RESET_GPIO_Port, _TEMP_RESET_Pin, GPIO_PIN_SET);
 183              		.loc 1 122 5 view .LVU30
 184 003a 0122     		movs	r2, #1
 185 003c 1021     		movs	r1, #16
 186 003e 2046     		mov	r0, r4
 187 0040 FFF7FEFF 		bl	HAL_GPIO_WritePin
 188              	.LVL16:
 123:app/tasks/temperature_humidity_sensor/temperature_humidity_sensor.c ****     osDelay(1);
 189              		.loc 1 123 5 view .LVU31
 190 0044 0120     		movs	r0, #1
 191 0046 FFF7FEFF 		bl	osDelay
 192              	.LVL17:
 126:app/tasks/temperature_humidity_sensor/temperature_humidity_sensor.c ****     uint32_t sht3xId = 0x00000000;
 193              		.loc 1 126 5 view .LVU32
 126:app/tasks/temperature_humidity_sensor/temperature_humidity_sensor.c ****     uint32_t sht3xId = 0x00000000;
 194              		.loc 1 126 14 is_stmt 0 view .LVU33
 195 004a 0023     		movs	r3, #0
 196 004c 0293     		str	r3, [sp, #8]
 127:app/tasks/temperature_humidity_sensor/temperature_humidity_sensor.c ****     ioStatus = SHT3x_ReadDeviceID(&sht3xId);
 197              		.loc 1 127 5 is_stmt 1 view .LVU34
 127:app/tasks/temperature_humidity_sensor/temperature_humidity_sensor.c ****     ioStatus = SHT3x_ReadDeviceID(&sht3xId);
 198              		.loc 1 127 16 is_stmt 0 view .LVU35
 199 004e 02A8     		add	r0, sp, #8
 200 0050 FFF7FEFF 		bl	SHT3x_ReadDeviceID
 201              	.LVL18:
 129:app/tasks/temperature_humidity_sensor/temperature_humidity_sensor.c ****     if (ioStatus != osOK) return osError;
 202              		.loc 1 129 5 is_stmt 1 view .LVU36
 129:app/tasks/temperature_humidity_sensor/temperature_humidity_sensor.c ****     if (ioStatus != osOK) return osError;
 203              		.loc 1 129 8 is_stmt 0 view .LVU37
 204 0054 0446     		mov	r4, r0
 205 0056 30BB     		cbnz	r0, .L8
 132:app/tasks/temperature_humidity_sensor/temperature_humidity_sensor.c ****       fprintf(stdout, "SHT3x ID: %lu\n", sht3xId);
 206              		.loc 1 132 7 is_stmt 1 view .LVU38
 132:app/tasks/temperature_humidity_sensor/temperature_humidity_sensor.c ****       fprintf(stdout, "SHT3x ID: %lu\n", sht3xId);
 207              		.loc 1 132 15 is_stmt 0 view .LVU39
 208 0058 184E     		ldr	r6, .L12+16
 209 005a 3368     		ldr	r3, [r6]
 132:app/tasks/temperature_humidity_sensor/temperature_humidity_sensor.c ****       fprintf(stdout, "SHT3x ID: %lu\n", sht3xId);
 210              		.loc 1 132 7 view .LVU40
 211 005c 029A     		ldr	r2, [sp, #8]
 212 005e 1849     		ldr	r1, .L12+20
 213 0060 9868     		ldr	r0, [r3, #8]
 214              	.LVL19:
 132:app/tasks/temperature_humidity_sensor/temperature_humidity_sensor.c ****       fprintf(stdout, "SHT3x ID: %lu\n", sht3xId);
 215              		.loc 1 132 7 view .LVU41
 216 0062 FFF7FEFF 		bl	fprintf
 217              	.LVL20:
 136:app/tasks/temperature_humidity_sensor/temperature_humidity_sensor.c ****     osMessageQueueId_t evManagerQueue = ACTORS_LIST_SystemRegistry[EV_MANAGER_ACTOR_ID]->osMessageQ
ARM GAS  /tmp/ccjd67eq.s 			page 9


 218              		.loc 1 136 5 is_stmt 1 view .LVU42
 136:app/tasks/temperature_humidity_sensor/temperature_humidity_sensor.c ****     osMessageQueueId_t evManagerQueue = ACTORS_LIST_SystemRegistry[EV_MANAGER_ACTOR_ID]->osMessageQ
 219              		.loc 1 136 67 is_stmt 0 view .LVU43
 220 0066 174B     		ldr	r3, .L12+24
 221 0068 5B68     		ldr	r3, [r3, #4]
 136:app/tasks/temperature_humidity_sensor/temperature_humidity_sensor.c ****     osMessageQueueId_t evManagerQueue = ACTORS_LIST_SystemRegistry[EV_MANAGER_ACTOR_ID]->osMessageQ
 222              		.loc 1 136 24 view .LVU44
 223 006a 9868     		ldr	r0, [r3, #8]
 224              	.LVL21:
 137:app/tasks/temperature_humidity_sensor/temperature_humidity_sensor.c ****     osMessageQueuePut(evManagerQueue, &(message_t){GLOBAL_INITIALIZE_SUCCESS, .payload.value = TEMP
 225              		.loc 1 137 5 is_stmt 1 view .LVU45
 137:app/tasks/temperature_humidity_sensor/temperature_humidity_sensor.c ****     osMessageQueuePut(evManagerQueue, &(message_t){GLOBAL_INITIALIZE_SUCCESS, .payload.value = TEMP
 226              		.loc 1 137 51 is_stmt 0 view .LVU46
 227 006c 0022     		movs	r2, #0
 228 006e 0392     		str	r2, [sp, #12]
 229 0070 0492     		str	r2, [sp, #16]
 230 0072 0592     		str	r2, [sp, #20]
 231 0074 0223     		movs	r3, #2
 232 0076 8DF80C30 		strb	r3, [sp, #12]
 233 007a 0627     		movs	r7, #6
 234 007c 0497     		str	r7, [sp, #16]
 137:app/tasks/temperature_humidity_sensor/temperature_humidity_sensor.c ****     osMessageQueuePut(evManagerQueue, &(message_t){GLOBAL_INITIALIZE_SUCCESS, .payload.value = TEMP
 235              		.loc 1 137 5 view .LVU47
 236 007e 1346     		mov	r3, r2
 237 0080 03A9     		add	r1, sp, #12
 238 0082 FFF7FEFF 		bl	osMessageQueuePut
 239              	.LVL22:
 140:app/tasks/temperature_humidity_sensor/temperature_humidity_sensor.c ****       fprintf(stdout, "Temperature & Humidity sensor %u initialized\n", TEMPERATURE_HUMIDITY_SENSOR
 240              		.loc 1 140 7 is_stmt 1 view .LVU48
 140:app/tasks/temperature_humidity_sensor/temperature_humidity_sensor.c ****       fprintf(stdout, "Temperature & Humidity sensor %u initialized\n", TEMPERATURE_HUMIDITY_SENSOR
 241              		.loc 1 140 15 is_stmt 0 view .LVU49
 242 0086 3368     		ldr	r3, [r6]
 140:app/tasks/temperature_humidity_sensor/temperature_humidity_sensor.c ****       fprintf(stdout, "Temperature & Humidity sensor %u initialized\n", TEMPERATURE_HUMIDITY_SENSOR
 243              		.loc 1 140 7 view .LVU50
 244 0088 3A46     		mov	r2, r7
 245 008a 0F49     		ldr	r1, .L12+28
 246 008c 9868     		ldr	r0, [r3, #8]
 247 008e FFF7FEFF 		bl	fprintf
 248              	.LVL23:
 143:app/tasks/temperature_humidity_sensor/temperature_humidity_sensor.c ****     TO_STATE(this, TH_SENS_IDLE_STATE);
 249              		.loc 1 143 5 is_stmt 1 view .LVU51
 143:app/tasks/temperature_humidity_sensor/temperature_humidity_sensor.c ****     TO_STATE(this, TH_SENS_IDLE_STATE);
 250              		.loc 1 143 5 view .LVU52
 251 0092 0123     		movs	r3, #1
 252 0094 2B74     		strb	r3, [r5, #16]
 143:app/tasks/temperature_humidity_sensor/temperature_humidity_sensor.c ****     TO_STATE(this, TH_SENS_IDLE_STATE);
 253              		.loc 1 143 5 view .LVU53
 254 0096 3068     		ldr	r0, [r6]
 255 0098 0C4B     		ldr	r3, .L12+32
 256 009a 2A68     		ldr	r2, [r5]
 257 009c 0C49     		ldr	r1, .L12+36
 258 009e 8068     		ldr	r0, [r0, #8]
 259 00a0 FFF7FEFF 		bl	fprintf
 260              	.LVL24:
 143:app/tasks/temperature_humidity_sensor/temperature_humidity_sensor.c ****     TO_STATE(this, TH_SENS_IDLE_STATE);
 261              		.loc 1 143 5 view .LVU54
 143:app/tasks/temperature_humidity_sensor/temperature_humidity_sensor.c ****     TO_STATE(this, TH_SENS_IDLE_STATE);
ARM GAS  /tmp/ccjd67eq.s 			page 10


 262              		.loc 1 143 39 view .LVU55
 263 00a4 B2E7     		b	.L6
 264              	.LVL25:
 265              	.L8:
 117:app/tasks/temperature_humidity_sensor/temperature_humidity_sensor.c ****     if (ioStatus != osOK) return osError;
 266              		.loc 1 117 34 is_stmt 0 discriminator 2 view .LVU56
 267 00a6 4FF0FF34 		mov	r4, #-1
 268 00aa AFE7     		b	.L6
 269              	.L13:
 270              		.align	2
 271              	.L12:
 272 00ac 00000000 		.word	delayMs
 273 00b0 00000000 		.word	I2C_Recv
 274 00b4 00000000 		.word	I2C_Send
 275 00b8 00040048 		.word	1207960576
 276 00bc 00000000 		.word	_impure_ptr
 277 00c0 00000000 		.word	.LC0
 278 00c4 00000000 		.word	ACTORS_LIST_SystemRegistry
 279 00c8 10000000 		.word	.LC1
 280 00cc 40000000 		.word	.LC2
 281 00d0 54000000 		.word	.LC3
 282              	.LBE2:
 283              		.cfi_endproc
 284              	.LFE142:
 286              		.section	.rodata.handleIdle.str1.4,"aMS",%progbits,1
 287              		.align	2
 288              	.LC4:
 289 0000 54485F53 		.ascii	"TH_SENS_CONTINUOUS_MEASURE_STATE\000"
 289      454E535F 
 289      434F4E54 
 289      494E554F 
 289      55535F4D 
 290              		.section	.text.handleIdle,"ax",%progbits
 291              		.align	1
 292              		.syntax unified
 293              		.thumb
 294              		.thumb_func
 295              		.fpu fpv4-sp-d16
 297              	handleIdle:
 298              	.LVL26:
 299              	.LFB143:
 149:app/tasks/temperature_humidity_sensor/temperature_humidity_sensor.c **** static osStatus_t handleIdle(TH_SENS_Actor_t *this, message_t *message) {
 300              		.loc 1 149 73 is_stmt 1 view -0
 301              		.cfi_startproc
 302              		@ args = 0, pretend = 0, frame = 0
 303              		@ frame_needed = 0, uses_anonymous_args = 0
 149:app/tasks/temperature_humidity_sensor/temperature_humidity_sensor.c **** static osStatus_t handleIdle(TH_SENS_Actor_t *this, message_t *message) {
 304              		.loc 1 149 73 is_stmt 0 view .LVU58
 305 0000 38B5     		push	{r3, r4, r5, lr}
 306              	.LCFI5:
 307              		.cfi_def_cfa_offset 16
 308              		.cfi_offset 3, -16
 309              		.cfi_offset 4, -12
 310              		.cfi_offset 5, -8
 311              		.cfi_offset 14, -4
 312 0002 0446     		mov	r4, r0
 150:app/tasks/temperature_humidity_sensor/temperature_humidity_sensor.c ****   osStatus_t  ioStatus = osOK;
ARM GAS  /tmp/ccjd67eq.s 			page 11


 313              		.loc 1 150 3 is_stmt 1 view .LVU59
 314              	.LVL27:
 152:app/tasks/temperature_humidity_sensor/temperature_humidity_sensor.c ****   switch (message->event) {
 315              		.loc 1 152 3 view .LVU60
 152:app/tasks/temperature_humidity_sensor/temperature_humidity_sensor.c ****   switch (message->event) {
 316              		.loc 1 152 18 is_stmt 0 view .LVU61
 317 0004 0B78     		ldrb	r3, [r1]	@ zero_extendqisi2
 152:app/tasks/temperature_humidity_sensor/temperature_humidity_sensor.c ****   switch (message->event) {
 318              		.loc 1 152 3 view .LVU62
 319 0006 0A2B     		cmp	r3, #10
 320 0008 04D0     		beq	.L15
 321 000a 112B     		cmp	r3, #17
 322 000c 13D0     		beq	.L16
 323 000e 0025     		movs	r5, #0
 324              	.LVL28:
 325              	.L14:
 170:app/tasks/temperature_humidity_sensor/temperature_humidity_sensor.c **** }
 326              		.loc 1 170 1 view .LVU63
 327 0010 2846     		mov	r0, r5
 328 0012 38BD     		pop	{r3, r4, r5, pc}
 329              	.LVL29:
 330              	.L15:
 154:app/tasks/temperature_humidity_sensor/temperature_humidity_sensor.c ****       ioStatus = SHT3x_PeriodicAcquisitionMode(SHT3x_START_MEASUREMENT_0_5_MPS_LOW_REPEATABILITY_CM
 331              		.loc 1 154 7 is_stmt 1 view .LVU64
 154:app/tasks/temperature_humidity_sensor/temperature_humidity_sensor.c ****       ioStatus = SHT3x_PeriodicAcquisitionMode(SHT3x_START_MEASUREMENT_0_5_MPS_LOW_REPEATABILITY_CM
 332              		.loc 1 154 18 is_stmt 0 view .LVU65
 333 0014 42F22F00 		movw	r0, #8239
 334              	.LVL30:
 154:app/tasks/temperature_humidity_sensor/temperature_humidity_sensor.c ****       ioStatus = SHT3x_PeriodicAcquisitionMode(SHT3x_START_MEASUREMENT_0_5_MPS_LOW_REPEATABILITY_CM
 335              		.loc 1 154 18 view .LVU66
 336 0018 FFF7FEFF 		bl	SHT3x_PeriodicAcquisitionMode
 337              	.LVL31:
 155:app/tasks/temperature_humidity_sensor/temperature_humidity_sensor.c ****       if (ioStatus != osOK) return osError;
 338              		.loc 1 155 7 is_stmt 1 view .LVU67
 155:app/tasks/temperature_humidity_sensor/temperature_humidity_sensor.c ****       if (ioStatus != osOK) return osError;
 339              		.loc 1 155 10 is_stmt 0 view .LVU68
 340 001c 0546     		mov	r5, r0
 341 001e B0B9     		cbnz	r0, .L18
 157:app/tasks/temperature_humidity_sensor/temperature_humidity_sensor.c ****       TO_STATE(this, TH_SENS_CONTINUOUS_MEASURE_STATE);
 342              		.loc 1 157 7 is_stmt 1 view .LVU69
 157:app/tasks/temperature_humidity_sensor/temperature_humidity_sensor.c ****       TO_STATE(this, TH_SENS_CONTINUOUS_MEASURE_STATE);
 343              		.loc 1 157 7 view .LVU70
 344 0020 0323     		movs	r3, #3
 345 0022 2374     		strb	r3, [r4, #16]
 157:app/tasks/temperature_humidity_sensor/temperature_humidity_sensor.c ****       TO_STATE(this, TH_SENS_CONTINUOUS_MEASURE_STATE);
 346              		.loc 1 157 7 view .LVU71
 347 0024 0B4B     		ldr	r3, .L20
 348 0026 1868     		ldr	r0, [r3]
 349              	.LVL32:
 157:app/tasks/temperature_humidity_sensor/temperature_humidity_sensor.c ****       TO_STATE(this, TH_SENS_CONTINUOUS_MEASURE_STATE);
 350              		.loc 1 157 7 is_stmt 0 view .LVU72
 351 0028 0B4B     		ldr	r3, .L20+4
 352 002a 2268     		ldr	r2, [r4]
 353 002c 0B49     		ldr	r1, .L20+8
 354 002e 8068     		ldr	r0, [r0, #8]
 355 0030 FFF7FEFF 		bl	fprintf
 356              	.LVL33:
ARM GAS  /tmp/ccjd67eq.s 			page 12


 157:app/tasks/temperature_humidity_sensor/temperature_humidity_sensor.c ****       TO_STATE(this, TH_SENS_CONTINUOUS_MEASURE_STATE);
 357              		.loc 1 157 7 is_stmt 1 view .LVU73
 157:app/tasks/temperature_humidity_sensor/temperature_humidity_sensor.c ****       TO_STATE(this, TH_SENS_CONTINUOUS_MEASURE_STATE);
 358              		.loc 1 157 55 view .LVU74
 158:app/tasks/temperature_humidity_sensor/temperature_humidity_sensor.c ****       return osOK;
 359              		.loc 1 158 7 view .LVU75
 158:app/tasks/temperature_humidity_sensor/temperature_humidity_sensor.c ****       return osOK;
 360              		.loc 1 158 14 is_stmt 0 view .LVU76
 361 0034 ECE7     		b	.L14
 362              	.LVL34:
 363              	.L16:
 165:app/tasks/temperature_humidity_sensor/temperature_humidity_sensor.c ****       TO_STATE(this, TH_SENS_IDLE_STATE);
 364              		.loc 1 165 7 is_stmt 1 view .LVU77
 165:app/tasks/temperature_humidity_sensor/temperature_humidity_sensor.c ****       TO_STATE(this, TH_SENS_IDLE_STATE);
 365              		.loc 1 165 7 view .LVU78
 366 0036 0123     		movs	r3, #1
 367 0038 0374     		strb	r3, [r0, #16]
 165:app/tasks/temperature_humidity_sensor/temperature_humidity_sensor.c ****       TO_STATE(this, TH_SENS_IDLE_STATE);
 368              		.loc 1 165 7 view .LVU79
 369 003a 064B     		ldr	r3, .L20
 370 003c 1868     		ldr	r0, [r3]
 371              	.LVL35:
 165:app/tasks/temperature_humidity_sensor/temperature_humidity_sensor.c ****       TO_STATE(this, TH_SENS_IDLE_STATE);
 372              		.loc 1 165 7 is_stmt 0 view .LVU80
 373 003e 084B     		ldr	r3, .L20+12
 374 0040 2268     		ldr	r2, [r4]
 375 0042 0649     		ldr	r1, .L20+8
 376              	.LVL36:
 165:app/tasks/temperature_humidity_sensor/temperature_humidity_sensor.c ****       TO_STATE(this, TH_SENS_IDLE_STATE);
 377              		.loc 1 165 7 view .LVU81
 378 0044 8068     		ldr	r0, [r0, #8]
 379 0046 FFF7FEFF 		bl	fprintf
 380              	.LVL37:
 165:app/tasks/temperature_humidity_sensor/temperature_humidity_sensor.c ****       TO_STATE(this, TH_SENS_IDLE_STATE);
 381              		.loc 1 165 7 is_stmt 1 view .LVU82
 165:app/tasks/temperature_humidity_sensor/temperature_humidity_sensor.c ****       TO_STATE(this, TH_SENS_IDLE_STATE);
 382              		.loc 1 165 41 view .LVU83
 166:app/tasks/temperature_humidity_sensor/temperature_humidity_sensor.c ****       return osOK;
 383              		.loc 1 166 7 view .LVU84
 166:app/tasks/temperature_humidity_sensor/temperature_humidity_sensor.c ****       return osOK;
 384              		.loc 1 166 14 is_stmt 0 view .LVU85
 385 004a 0025     		movs	r5, #0
 386 004c E0E7     		b	.L14
 387              	.LVL38:
 388              	.L18:
 155:app/tasks/temperature_humidity_sensor/temperature_humidity_sensor.c ****       if (ioStatus != osOK) return osError;
 389              		.loc 1 155 36 view .LVU86
 390 004e 4FF0FF35 		mov	r5, #-1
 391 0052 DDE7     		b	.L14
 392              	.L21:
 393              		.align	2
 394              	.L20:
 395 0054 00000000 		.word	_impure_ptr
 396 0058 00000000 		.word	.LC4
 397 005c 54000000 		.word	.LC3
 398 0060 40000000 		.word	.LC2
 399              		.cfi_endproc
ARM GAS  /tmp/ccjd67eq.s 			page 13


 400              	.LFE143:
 402              		.section	.text.handleContinuousMeasure,"ax",%progbits
 403              		.align	1
 404              		.syntax unified
 405              		.thumb
 406              		.thumb_func
 407              		.fpu fpv4-sp-d16
 409              	handleContinuousMeasure:
 410              	.LVL39:
 411              	.LFB144:
 172:app/tasks/temperature_humidity_sensor/temperature_humidity_sensor.c **** static osStatus_t handleContinuousMeasure(TH_SENS_Actor_t *this, message_t *message) {
 412              		.loc 1 172 86 is_stmt 1 view -0
 413              		.cfi_startproc
 414              		@ args = 0, pretend = 0, frame = 0
 415              		@ frame_needed = 0, uses_anonymous_args = 0
 172:app/tasks/temperature_humidity_sensor/temperature_humidity_sensor.c **** static osStatus_t handleContinuousMeasure(TH_SENS_Actor_t *this, message_t *message) {
 416              		.loc 1 172 86 is_stmt 0 view .LVU88
 417 0000 38B5     		push	{r3, r4, r5, lr}
 418              	.LCFI6:
 419              		.cfi_def_cfa_offset 16
 420              		.cfi_offset 3, -16
 421              		.cfi_offset 4, -12
 422              		.cfi_offset 5, -8
 423              		.cfi_offset 14, -4
 173:app/tasks/temperature_humidity_sensor/temperature_humidity_sensor.c ****   osStatus_t  ioStatus = osOK;
 424              		.loc 1 173 3 is_stmt 1 view .LVU89
 425              	.LVL40:
 175:app/tasks/temperature_humidity_sensor/temperature_humidity_sensor.c ****   switch (message->event) {
 426              		.loc 1 175 3 view .LVU90
 175:app/tasks/temperature_humidity_sensor/temperature_humidity_sensor.c ****   switch (message->event) {
 427              		.loc 1 175 18 is_stmt 0 view .LVU91
 428 0002 0B78     		ldrb	r3, [r1]	@ zero_extendqisi2
 175:app/tasks/temperature_humidity_sensor/temperature_humidity_sensor.c ****   switch (message->event) {
 429              		.loc 1 175 3 view .LVU92
 430 0004 032B     		cmp	r3, #3
 431 0006 02D0     		beq	.L27
 190:app/tasks/temperature_humidity_sensor/temperature_humidity_sensor.c ****       return osOK;
 432              		.loc 1 190 14 view .LVU93
 433 0008 0025     		movs	r5, #0
 434              	.LVL41:
 435              	.L22:
 192:app/tasks/temperature_humidity_sensor/temperature_humidity_sensor.c **** }
 436              		.loc 1 192 1 view .LVU94
 437 000a 2846     		mov	r0, r5
 438 000c 38BD     		pop	{r3, r4, r5, pc}
 439              	.LVL42:
 440              	.L27:
 192:app/tasks/temperature_humidity_sensor/temperature_humidity_sensor.c **** }
 441              		.loc 1 192 1 view .LVU95
 442 000e 0446     		mov	r4, r0
 177:app/tasks/temperature_humidity_sensor/temperature_humidity_sensor.c ****       ioStatus = SHT3x_ReadMeasurements(&this->rawTemperature, &this->rawHumidity);
 443              		.loc 1 177 7 is_stmt 1 view .LVU96
 177:app/tasks/temperature_humidity_sensor/temperature_humidity_sensor.c ****       ioStatus = SHT3x_ReadMeasurements(&this->rawTemperature, &this->rawHumidity);
 444              		.loc 1 177 18 is_stmt 0 view .LVU97
 445 0010 00F11401 		add	r1, r0, #20
 446              	.LVL43:
 177:app/tasks/temperature_humidity_sensor/temperature_humidity_sensor.c ****       ioStatus = SHT3x_ReadMeasurements(&this->rawTemperature, &this->rawHumidity);
ARM GAS  /tmp/ccjd67eq.s 			page 14


 447              		.loc 1 177 18 view .LVU98
 448 0014 1230     		adds	r0, r0, #18
 449              	.LVL44:
 177:app/tasks/temperature_humidity_sensor/temperature_humidity_sensor.c ****       ioStatus = SHT3x_ReadMeasurements(&this->rawTemperature, &this->rawHumidity);
 450              		.loc 1 177 18 view .LVU99
 451 0016 FFF7FEFF 		bl	SHT3x_ReadMeasurements
 452              	.LVL45:
 178:app/tasks/temperature_humidity_sensor/temperature_humidity_sensor.c ****       if (ioStatus != osOK) return osError;
 453              		.loc 1 178 7 is_stmt 1 view .LVU100
 178:app/tasks/temperature_humidity_sensor/temperature_humidity_sensor.c ****       if (ioStatus != osOK) return osError;
 454              		.loc 1 178 10 is_stmt 0 view .LVU101
 455 001a 0546     		mov	r5, r0
 456 001c 50B9     		cbnz	r0, .L25
 187:app/tasks/temperature_humidity_sensor/temperature_humidity_sensor.c ****       TO_STATE(this, TH_SENS_CONTINUOUS_MEASURE_STATE);
 457              		.loc 1 187 7 is_stmt 1 view .LVU102
 187:app/tasks/temperature_humidity_sensor/temperature_humidity_sensor.c ****       TO_STATE(this, TH_SENS_CONTINUOUS_MEASURE_STATE);
 458              		.loc 1 187 7 view .LVU103
 459 001e 0323     		movs	r3, #3
 460 0020 2374     		strb	r3, [r4, #16]
 187:app/tasks/temperature_humidity_sensor/temperature_humidity_sensor.c ****       TO_STATE(this, TH_SENS_CONTINUOUS_MEASURE_STATE);
 461              		.loc 1 187 7 view .LVU104
 462 0022 064B     		ldr	r3, .L28
 463 0024 1868     		ldr	r0, [r3]
 464              	.LVL46:
 187:app/tasks/temperature_humidity_sensor/temperature_humidity_sensor.c ****       TO_STATE(this, TH_SENS_CONTINUOUS_MEASURE_STATE);
 465              		.loc 1 187 7 is_stmt 0 view .LVU105
 466 0026 064B     		ldr	r3, .L28+4
 467 0028 2268     		ldr	r2, [r4]
 468 002a 0649     		ldr	r1, .L28+8
 469 002c 8068     		ldr	r0, [r0, #8]
 470 002e FFF7FEFF 		bl	fprintf
 471              	.LVL47:
 187:app/tasks/temperature_humidity_sensor/temperature_humidity_sensor.c ****       TO_STATE(this, TH_SENS_CONTINUOUS_MEASURE_STATE);
 472              		.loc 1 187 7 is_stmt 1 view .LVU106
 187:app/tasks/temperature_humidity_sensor/temperature_humidity_sensor.c ****       TO_STATE(this, TH_SENS_CONTINUOUS_MEASURE_STATE);
 473              		.loc 1 187 55 view .LVU107
 188:app/tasks/temperature_humidity_sensor/temperature_humidity_sensor.c ****       return osOK;
 474              		.loc 1 188 7 view .LVU108
 188:app/tasks/temperature_humidity_sensor/temperature_humidity_sensor.c ****       return osOK;
 475              		.loc 1 188 14 is_stmt 0 view .LVU109
 476 0032 EAE7     		b	.L22
 477              	.LVL48:
 478              	.L25:
 178:app/tasks/temperature_humidity_sensor/temperature_humidity_sensor.c ****       if (ioStatus != osOK) return osError;
 479              		.loc 1 178 36 view .LVU110
 480 0034 4FF0FF35 		mov	r5, #-1
 481 0038 E7E7     		b	.L22
 482              	.L29:
 483 003a 00BF     		.align	2
 484              	.L28:
 485 003c 00000000 		.word	_impure_ptr
 486 0040 00000000 		.word	.LC4
 487 0044 54000000 		.word	.LC3
 488              		.cfi_endproc
 489              	.LFE144:
 491              		.section	.text.handleTHSensorFSM,"ax",%progbits
 492              		.align	1
ARM GAS  /tmp/ccjd67eq.s 			page 15


 493              		.syntax unified
 494              		.thumb
 495              		.thumb_func
 496              		.fpu fpv4-sp-d16
 498              	handleTHSensorFSM:
 499              	.LVL49:
 500              	.LFB141:
  96:app/tasks/temperature_humidity_sensor/temperature_humidity_sensor.c **** static osStatus_t handleTHSensorFSM(TH_SENS_Actor_t *this, message_t *message) {
 501              		.loc 1 96 80 is_stmt 1 view -0
 502              		.cfi_startproc
 503              		@ args = 0, pretend = 0, frame = 0
 504              		@ frame_needed = 0, uses_anonymous_args = 0
  96:app/tasks/temperature_humidity_sensor/temperature_humidity_sensor.c **** static osStatus_t handleTHSensorFSM(TH_SENS_Actor_t *this, message_t *message) {
 505              		.loc 1 96 80 is_stmt 0 view .LVU112
 506 0000 08B5     		push	{r3, lr}
 507              	.LCFI7:
 508              		.cfi_def_cfa_offset 8
 509              		.cfi_offset 3, -8
 510              		.cfi_offset 14, -4
  97:app/tasks/temperature_humidity_sensor/temperature_humidity_sensor.c ****   switch (this->state) {
 511              		.loc 1 97 3 is_stmt 1 view .LVU113
  97:app/tasks/temperature_humidity_sensor/temperature_humidity_sensor.c ****   switch (this->state) {
 512              		.loc 1 97 15 is_stmt 0 view .LVU114
 513 0002 037C     		ldrb	r3, [r0, #16]	@ zero_extendqisi2
  97:app/tasks/temperature_humidity_sensor/temperature_humidity_sensor.c ****   switch (this->state) {
 514              		.loc 1 97 3 view .LVU115
 515 0004 042B     		cmp	r3, #4
 516 0006 10D8     		bhi	.L37
 517 0008 DFE803F0 		tbb	[pc, r3]
 518              	.L33:
 519 000c 03       		.byte	(.L36-.L33)/2
 520 000d 06       		.byte	(.L35-.L33)/2
 521 000e 0F       		.byte	(.L37-.L33)/2
 522 000f 09       		.byte	(.L34-.L33)/2
 523 0010 0C       		.byte	(.L32-.L33)/2
 524 0011 00       		.p2align 1
 525              	.L36:
  99:app/tasks/temperature_humidity_sensor/temperature_humidity_sensor.c ****       return handleInit(this, message);
 526              		.loc 1 99 7 is_stmt 1 view .LVU116
  99:app/tasks/temperature_humidity_sensor/temperature_humidity_sensor.c ****       return handleInit(this, message);
 527              		.loc 1 99 14 is_stmt 0 view .LVU117
 528 0012 FFF7FEFF 		bl	handleInit
 529              	.LVL50:
 530              	.L30:
 110:app/tasks/temperature_humidity_sensor/temperature_humidity_sensor.c **** }
 531              		.loc 1 110 1 view .LVU118
 532 0016 08BD     		pop	{r3, pc}
 533              	.LVL51:
 534              	.L35:
 101:app/tasks/temperature_humidity_sensor/temperature_humidity_sensor.c ****       return handleIdle(this, message);
 535              		.loc 1 101 7 is_stmt 1 view .LVU119
 101:app/tasks/temperature_humidity_sensor/temperature_humidity_sensor.c ****       return handleIdle(this, message);
 536              		.loc 1 101 14 is_stmt 0 view .LVU120
 537 0018 FFF7FEFF 		bl	handleIdle
 538              	.LVL52:
 101:app/tasks/temperature_humidity_sensor/temperature_humidity_sensor.c ****       return handleIdle(this, message);
 539              		.loc 1 101 14 view .LVU121
ARM GAS  /tmp/ccjd67eq.s 			page 16


 540 001c FBE7     		b	.L30
 541              	.LVL53:
 542              	.L34:
 103:app/tasks/temperature_humidity_sensor/temperature_humidity_sensor.c ****       return handleContinuousMeasure(this, message);
 543              		.loc 1 103 7 is_stmt 1 view .LVU122
 103:app/tasks/temperature_humidity_sensor/temperature_humidity_sensor.c ****       return handleContinuousMeasure(this, message);
 544              		.loc 1 103 14 is_stmt 0 view .LVU123
 545 001e FFF7FEFF 		bl	handleContinuousMeasure
 546              	.LVL54:
 103:app/tasks/temperature_humidity_sensor/temperature_humidity_sensor.c ****       return handleContinuousMeasure(this, message);
 547              		.loc 1 103 14 view .LVU124
 548 0022 F8E7     		b	.L30
 549              	.LVL55:
 550              	.L32:
 106:app/tasks/temperature_humidity_sensor/temperature_humidity_sensor.c ****       return handleError(this, message);
 551              		.loc 1 106 7 is_stmt 1 view .LVU125
 106:app/tasks/temperature_humidity_sensor/temperature_humidity_sensor.c ****       return handleError(this, message);
 552              		.loc 1 106 14 is_stmt 0 view .LVU126
 553 0024 FFF7FEFF 		bl	handleError
 554              	.LVL56:
 106:app/tasks/temperature_humidity_sensor/temperature_humidity_sensor.c ****       return handleError(this, message);
 555              		.loc 1 106 14 view .LVU127
 556 0028 F5E7     		b	.L30
 557              	.LVL57:
 558              	.L37:
  97:app/tasks/temperature_humidity_sensor/temperature_humidity_sensor.c ****   switch (this->state) {
 559              		.loc 1 97 3 view .LVU128
 560 002a 0020     		movs	r0, #0
 561              	.LVL58:
  97:app/tasks/temperature_humidity_sensor/temperature_humidity_sensor.c ****   switch (this->state) {
 562              		.loc 1 97 3 view .LVU129
 563 002c F3E7     		b	.L30
 564              		.cfi_endproc
 565              	.LFE141:
 567              		.section	.rodata.TH_SENS_Task.str1.4,"aMS",%progbits,1
 568              		.align	2
 569              	.LC5:
 570 0000 74685365 		.ascii	"thSensorTask\000"
 570      6E736F72 
 570      5461736B 
 570      00
 571 000d 000000   		.align	2
 572              	.LC6:
 573 0010 5461736B 		.ascii	"Task %s started\012\000"
 573      20257320 
 573      73746172 
 573      7465640A 
 573      00
 574 0021 000000   		.align	2
 575              	.LC7:
 576 0024 25733A20 		.ascii	"%s: Error handling event %u in state %ul\012\000"
 576      4572726F 
 576      72206861 
 576      6E646C69 
 576      6E672065 
 577 004e 0000     		.align	2
 578              	.LC8:
ARM GAS  /tmp/ccjd67eq.s 			page 17


 579 0050 54485F53 		.ascii	"TH_SENS_STATE_ERROR\000"
 579      454E535F 
 579      53544154 
 579      455F4552 
 579      524F5200 
 580              		.section	.text.TH_SENS_Task,"ax",%progbits
 581              		.align	1
 582              		.global	TH_SENS_Task
 583              		.syntax unified
 584              		.thumb
 585              		.thumb_func
 586              		.fpu fpv4-sp-d16
 588              	TH_SENS_Task:
 589              	.LVL59:
 590              	.LFB140:
  70:app/tasks/temperature_humidity_sensor/temperature_humidity_sensor.c **** void TH_SENS_Task(void *argument) {
 591              		.loc 1 70 35 is_stmt 1 view -0
 592              		.cfi_startproc
 593              		@ args = 0, pretend = 0, frame = 24
 594              		@ frame_needed = 0, uses_anonymous_args = 0
  70:app/tasks/temperature_humidity_sensor/temperature_humidity_sensor.c **** void TH_SENS_Task(void *argument) {
 595              		.loc 1 70 35 is_stmt 0 view .LVU131
 596 0000 30B5     		push	{r4, r5, lr}
 597              	.LCFI8:
 598              		.cfi_def_cfa_offset 12
 599              		.cfi_offset 4, -12
 600              		.cfi_offset 5, -8
 601              		.cfi_offset 14, -4
 602 0002 89B0     		sub	sp, sp, #36
 603              	.LCFI9:
 604              		.cfi_def_cfa_offset 48
  71:app/tasks/temperature_humidity_sensor/temperature_humidity_sensor.c ****   (void) argument; // Avoid unused parameter warning
 605              		.loc 1 71 3 is_stmt 1 view .LVU132
  72:app/tasks/temperature_humidity_sensor/temperature_humidity_sensor.c ****   message_t msg;
 606              		.loc 1 72 3 view .LVU133
  75:app/tasks/temperature_humidity_sensor/temperature_humidity_sensor.c ****     fprintf(stdout, "Task %s started\n", thSensorTaskDescription.name);
 607              		.loc 1 75 5 view .LVU134
  75:app/tasks/temperature_humidity_sensor/temperature_humidity_sensor.c ****     fprintf(stdout, "Task %s started\n", thSensorTaskDescription.name);
 608              		.loc 1 75 13 is_stmt 0 view .LVU135
 609 0004 1E4B     		ldr	r3, .L44
 610 0006 1B68     		ldr	r3, [r3]
  75:app/tasks/temperature_humidity_sensor/temperature_humidity_sensor.c ****     fprintf(stdout, "Task %s started\n", thSensorTaskDescription.name);
 611              		.loc 1 75 5 view .LVU136
 612 0008 1E4A     		ldr	r2, .L44+4
 613 000a 1F49     		ldr	r1, .L44+8
 614 000c 9868     		ldr	r0, [r3, #8]
 615              	.LVL60:
  75:app/tasks/temperature_humidity_sensor/temperature_humidity_sensor.c ****     fprintf(stdout, "Task %s started\n", thSensorTaskDescription.name);
 616              		.loc 1 75 5 view .LVU137
 617 000e FFF7FEFF 		bl	fprintf
 618              	.LVL61:
 619              	.L40:
  78:app/tasks/temperature_humidity_sensor/temperature_humidity_sensor.c ****   for (;;) {
 620              		.loc 1 78 3 is_stmt 1 view .LVU138
  80:app/tasks/temperature_humidity_sensor/temperature_humidity_sensor.c ****     if (osMessageQueueGet(TH_SENS_Actor.super.osMessageQueueId, &msg, NULL, osWaitForever) == osOK)
 621              		.loc 1 80 5 view .LVU139
  80:app/tasks/temperature_humidity_sensor/temperature_humidity_sensor.c ****     if (osMessageQueueGet(TH_SENS_Actor.super.osMessageQueueId, &msg, NULL, osWaitForever) == osOK)
ARM GAS  /tmp/ccjd67eq.s 			page 18


 622              		.loc 1 80 9 is_stmt 0 view .LVU140
 623 0012 4FF0FF33 		mov	r3, #-1
 624 0016 0022     		movs	r2, #0
 625 0018 02A9     		add	r1, sp, #8
 626 001a 1C48     		ldr	r0, .L44+12
 627 001c 8068     		ldr	r0, [r0, #8]
 628 001e FFF7FEFF 		bl	osMessageQueueGet
 629              	.LVL62:
  80:app/tasks/temperature_humidity_sensor/temperature_humidity_sensor.c ****     if (osMessageQueueGet(TH_SENS_Actor.super.osMessageQueueId, &msg, NULL, osWaitForever) == osOK)
 630              		.loc 1 80 8 view .LVU141
 631 0022 0028     		cmp	r0, #0
 632 0024 F5D1     		bne	.L40
 633              	.LBB3:
  81:app/tasks/temperature_humidity_sensor/temperature_humidity_sensor.c ****       osStatus_t handleMessageStatus = TH_SENS_Actor.super.messageHandler((actor_t *) &TH_SENS_Acto
 634              		.loc 1 81 7 is_stmt 1 view .LVU142
  81:app/tasks/temperature_humidity_sensor/temperature_humidity_sensor.c ****       osStatus_t handleMessageStatus = TH_SENS_Actor.super.messageHandler((actor_t *) &TH_SENS_Acto
 635              		.loc 1 81 59 is_stmt 0 view .LVU143
 636 0026 1948     		ldr	r0, .L44+12
 637 0028 C368     		ldr	r3, [r0, #12]
  81:app/tasks/temperature_humidity_sensor/temperature_humidity_sensor.c ****       osStatus_t handleMessageStatus = TH_SENS_Actor.super.messageHandler((actor_t *) &TH_SENS_Acto
 638              		.loc 1 81 40 view .LVU144
 639 002a 02A9     		add	r1, sp, #8
 640 002c 9847     		blx	r3
 641              	.LVL63:
  83:app/tasks/temperature_humidity_sensor/temperature_humidity_sensor.c ****       if (handleMessageStatus != osOK) {
 642              		.loc 1 83 7 is_stmt 1 view .LVU145
  83:app/tasks/temperature_humidity_sensor/temperature_humidity_sensor.c ****       if (handleMessageStatus != osOK) {
 643              		.loc 1 83 10 is_stmt 0 view .LVU146
 644 002e 0028     		cmp	r0, #0
 645 0030 EFD0     		beq	.L40
 646              	.LBB4:
  85:app/tasks/temperature_humidity_sensor/temperature_humidity_sensor.c ****           fprintf(stderr, "%s: Error handling event %u in state %ul\n", thSensorTaskDescription.nam
 647              		.loc 1 85 11 is_stmt 1 view .LVU147
  85:app/tasks/temperature_humidity_sensor/temperature_humidity_sensor.c ****           fprintf(stderr, "%s: Error handling event %u in state %ul\n", thSensorTaskDescription.nam
 648              		.loc 1 85 19 is_stmt 0 view .LVU148
 649 0032 134D     		ldr	r5, .L44
 650 0034 2B68     		ldr	r3, [r5]
 651 0036 D868     		ldr	r0, [r3, #12]
 652              	.LVL64:
  85:app/tasks/temperature_humidity_sensor/temperature_humidity_sensor.c ****           fprintf(stderr, "%s: Error handling event %u in state %ul\n", thSensorTaskDescription.nam
 653              		.loc 1 85 127 view .LVU149
 654 0038 144C     		ldr	r4, .L44+12
 655 003a 237C     		ldrb	r3, [r4, #16]	@ zero_extendqisi2
  85:app/tasks/temperature_humidity_sensor/temperature_humidity_sensor.c ****           fprintf(stderr, "%s: Error handling event %u in state %ul\n", thSensorTaskDescription.nam
 656              		.loc 1 85 11 view .LVU150
 657 003c 0093     		str	r3, [sp]
 658 003e 9DF80830 		ldrb	r3, [sp, #8]	@ zero_extendqisi2
 659 0042 104A     		ldr	r2, .L44+4
 660 0044 1249     		ldr	r1, .L44+16
 661 0046 FFF7FEFF 		bl	fprintf
 662              	.LVL65:
  88:app/tasks/temperature_humidity_sensor/temperature_humidity_sensor.c ****         osMessageQueueId_t evManagerQueue = ACTORS_LIST_SystemRegistry[EV_MANAGER_ACTOR_ID]->osMess
 663              		.loc 1 88 9 is_stmt 1 view .LVU151
  88:app/tasks/temperature_humidity_sensor/temperature_humidity_sensor.c ****         osMessageQueueId_t evManagerQueue = ACTORS_LIST_SystemRegistry[EV_MANAGER_ACTOR_ID]->osMess
 664              		.loc 1 88 71 is_stmt 0 view .LVU152
 665 004a 124B     		ldr	r3, .L44+20
 666 004c 5B68     		ldr	r3, [r3, #4]
ARM GAS  /tmp/ccjd67eq.s 			page 19


  88:app/tasks/temperature_humidity_sensor/temperature_humidity_sensor.c ****         osMessageQueueId_t evManagerQueue = ACTORS_LIST_SystemRegistry[EV_MANAGER_ACTOR_ID]->osMess
 667              		.loc 1 88 28 view .LVU153
 668 004e 9868     		ldr	r0, [r3, #8]
 669              	.LVL66:
  89:app/tasks/temperature_humidity_sensor/temperature_humidity_sensor.c ****         osMessageQueuePut(evManagerQueue, &(message_t){GLOBAL_ERROR, .payload.value = TEMPERATURE_H
 670              		.loc 1 89 9 is_stmt 1 view .LVU154
  89:app/tasks/temperature_humidity_sensor/temperature_humidity_sensor.c ****         osMessageQueuePut(evManagerQueue, &(message_t){GLOBAL_ERROR, .payload.value = TEMPERATURE_H
 671              		.loc 1 89 55 is_stmt 0 view .LVU155
 672 0050 0022     		movs	r2, #0
 673 0052 0592     		str	r2, [sp, #20]
 674 0054 0692     		str	r2, [sp, #24]
 675 0056 0792     		str	r2, [sp, #28]
 676 0058 0C23     		movs	r3, #12
 677 005a 8DF81430 		strb	r3, [sp, #20]
 678 005e 0623     		movs	r3, #6
 679 0060 0693     		str	r3, [sp, #24]
  89:app/tasks/temperature_humidity_sensor/temperature_humidity_sensor.c ****         osMessageQueuePut(evManagerQueue, &(message_t){GLOBAL_ERROR, .payload.value = TEMPERATURE_H
 680              		.loc 1 89 9 view .LVU156
 681 0062 1346     		mov	r3, r2
 682 0064 05A9     		add	r1, sp, #20
 683 0066 FFF7FEFF 		bl	osMessageQueuePut
 684              	.LVL67:
  90:app/tasks/temperature_humidity_sensor/temperature_humidity_sensor.c ****         TO_STATE(&TH_SENS_Actor, TH_SENS_STATE_ERROR);
 685              		.loc 1 90 9 is_stmt 1 view .LVU157
  90:app/tasks/temperature_humidity_sensor/temperature_humidity_sensor.c ****         TO_STATE(&TH_SENS_Actor, TH_SENS_STATE_ERROR);
 686              		.loc 1 90 9 view .LVU158
 687 006a 0423     		movs	r3, #4
 688 006c 2374     		strb	r3, [r4, #16]
  90:app/tasks/temperature_humidity_sensor/temperature_humidity_sensor.c ****         TO_STATE(&TH_SENS_Actor, TH_SENS_STATE_ERROR);
 689              		.loc 1 90 9 view .LVU159
 690 006e 2868     		ldr	r0, [r5]
 691 0070 094B     		ldr	r3, .L44+24
 692 0072 2268     		ldr	r2, [r4]
 693 0074 0949     		ldr	r1, .L44+28
 694 0076 8068     		ldr	r0, [r0, #8]
 695 0078 FFF7FEFF 		bl	fprintf
 696              	.LVL68:
  90:app/tasks/temperature_humidity_sensor/temperature_humidity_sensor.c ****         TO_STATE(&TH_SENS_Actor, TH_SENS_STATE_ERROR);
 697              		.loc 1 90 9 view .LVU160
  90:app/tasks/temperature_humidity_sensor/temperature_humidity_sensor.c ****         TO_STATE(&TH_SENS_Actor, TH_SENS_STATE_ERROR);
 698              		.loc 1 90 54 view .LVU161
 699 007c C9E7     		b	.L40
 700              	.L45:
 701 007e 00BF     		.align	2
 702              	.L44:
 703 0080 00000000 		.word	_impure_ptr
 704 0084 00000000 		.word	.LC5
 705 0088 10000000 		.word	.LC6
 706 008c 00000000 		.word	.LANCHOR0
 707 0090 24000000 		.word	.LC7
 708 0094 00000000 		.word	ACTORS_LIST_SystemRegistry
 709 0098 50000000 		.word	.LC8
 710 009c 54000000 		.word	.LC3
 711              	.LBE4:
 712              	.LBE3:
 713              		.cfi_endproc
 714              	.LFE140:
ARM GAS  /tmp/ccjd67eq.s 			page 20


 716              		.section	.rodata.TH_SENS_TaskInit.str1.4,"aMS",%progbits,1
 717              		.align	2
 718              	.LC9:
 719 0000 74685365 		.ascii	"thSensorQueue\000"
 719      6E736F72 
 719      51756575 
 719      6500
 720              		.section	.text.TH_SENS_TaskInit,"ax",%progbits
 721              		.align	1
 722              		.global	TH_SENS_TaskInit
 723              		.syntax unified
 724              		.thumb
 725              		.thumb_func
 726              		.fpu fpv4-sp-d16
 728              	TH_SENS_TaskInit:
 729              	.LFB139:
  56:app/tasks/temperature_humidity_sensor/temperature_humidity_sensor.c **** actor_t* TH_SENS_TaskInit(void) {
 730              		.loc 1 56 33 view -0
 731              		.cfi_startproc
 732              		@ args = 0, pretend = 0, frame = 24
 733              		@ frame_needed = 0, uses_anonymous_args = 0
 734 0000 30B5     		push	{r4, r5, lr}
 735              	.LCFI10:
 736              		.cfi_def_cfa_offset 12
 737              		.cfi_offset 4, -12
 738              		.cfi_offset 5, -8
 739              		.cfi_offset 14, -4
 740 0002 87B0     		sub	sp, sp, #28
 741              	.LCFI11:
 742              		.cfi_def_cfa_offset 40
  57:app/tasks/temperature_humidity_sensor/temperature_humidity_sensor.c ****   TH_SENS_Actor.super.osMessageQueueId = osMessageQueueNew(DEFAULT_QUEUE_SIZE, DEFAULT_QUEUE_MESSAG
 743              		.loc 1 57 3 view .LVU163
  57:app/tasks/temperature_humidity_sensor/temperature_humidity_sensor.c ****   TH_SENS_Actor.super.osMessageQueueId = osMessageQueueNew(DEFAULT_QUEUE_SIZE, DEFAULT_QUEUE_MESSAG
 744              		.loc 1 57 131 is_stmt 0 view .LVU164
 745 0004 0024     		movs	r4, #0
 746 0006 0094     		str	r4, [sp]
 747 0008 0194     		str	r4, [sp, #4]
 748 000a 0294     		str	r4, [sp, #8]
 749 000c 0394     		str	r4, [sp, #12]
 750 000e 0494     		str	r4, [sp, #16]
 751 0010 0594     		str	r4, [sp, #20]
 752 0012 094B     		ldr	r3, .L48
 753 0014 0093     		str	r3, [sp]
  57:app/tasks/temperature_humidity_sensor/temperature_humidity_sensor.c ****   TH_SENS_Actor.super.osMessageQueueId = osMessageQueueNew(DEFAULT_QUEUE_SIZE, DEFAULT_QUEUE_MESSAG
 754              		.loc 1 57 42 view .LVU165
 755 0016 6A46     		mov	r2, sp
 756 0018 0C21     		movs	r1, #12
 757 001a 0820     		movs	r0, #8
 758 001c FFF7FEFF 		bl	osMessageQueueNew
 759              	.LVL69:
  57:app/tasks/temperature_humidity_sensor/temperature_humidity_sensor.c ****   TH_SENS_Actor.super.osMessageQueueId = osMessageQueueNew(DEFAULT_QUEUE_SIZE, DEFAULT_QUEUE_MESSAG
 760              		.loc 1 57 40 view .LVU166
 761 0020 064D     		ldr	r5, .L48+4
 762 0022 A860     		str	r0, [r5, #8]
  60:app/tasks/temperature_humidity_sensor/temperature_humidity_sensor.c ****   TH_SENS_Actor.super.osThreadId = osThreadNew(TH_SENS_Task, NULL, &thSensorTaskDescription);
 763              		.loc 1 60 3 is_stmt 1 view .LVU167
  60:app/tasks/temperature_humidity_sensor/temperature_humidity_sensor.c ****   TH_SENS_Actor.super.osThreadId = osThreadNew(TH_SENS_Task, NULL, &thSensorTaskDescription);
ARM GAS  /tmp/ccjd67eq.s 			page 21


 764              		.loc 1 60 36 is_stmt 0 view .LVU168
 765 0024 064A     		ldr	r2, .L48+8
 766 0026 2146     		mov	r1, r4
 767 0028 0648     		ldr	r0, .L48+12
 768 002a FFF7FEFF 		bl	osThreadNew
 769              	.LVL70:
  60:app/tasks/temperature_humidity_sensor/temperature_humidity_sensor.c ****   TH_SENS_Actor.super.osThreadId = osThreadNew(TH_SENS_Task, NULL, &thSensorTaskDescription);
 770              		.loc 1 60 34 view .LVU169
 771 002e 6860     		str	r0, [r5, #4]
  62:app/tasks/temperature_humidity_sensor/temperature_humidity_sensor.c ****   return (actor_t*) &TH_SENS_Actor;
 772              		.loc 1 62 3 is_stmt 1 view .LVU170
  63:app/tasks/temperature_humidity_sensor/temperature_humidity_sensor.c ****  }
 773              		.loc 1 63 2 is_stmt 0 view .LVU171
 774 0030 2846     		mov	r0, r5
 775 0032 07B0     		add	sp, sp, #28
 776              	.LCFI12:
 777              		.cfi_def_cfa_offset 12
 778              		@ sp needed
 779 0034 30BD     		pop	{r4, r5, pc}
 780              	.L49:
 781 0036 00BF     		.align	2
 782              	.L48:
 783 0038 00000000 		.word	.LC9
 784 003c 00000000 		.word	.LANCHOR0
 785 0040 00000000 		.word	.LANCHOR1
 786 0044 00000000 		.word	TH_SENS_Task
 787              		.cfi_endproc
 788              	.LFE139:
 790              		.global	thSensorTaskDescription
 791              		.global	thSensorTaskControlBlock
 792              		.global	thSensorTaskBuffer
 793              		.global	TH_SENS_Actor
 794              		.section	.bss.thSensorTaskBuffer,"aw",%nobits
 795              		.align	2
 798              	thSensorTaskBuffer:
 799 0000 00000000 		.space	512
 799      00000000 
 799      00000000 
 799      00000000 
 799      00000000 
 800              		.section	.bss.thSensorTaskControlBlock,"aw",%nobits
 801              		.align	2
 804              	thSensorTaskControlBlock:
 805 0000 00000000 		.space	92
 805      00000000 
 805      00000000 
 805      00000000 
 805      00000000 
 806              		.section	.data.TH_SENS_Actor,"aw"
 807              		.align	2
 808              		.set	.LANCHOR0,. + 0
 811              	TH_SENS_Actor:
 812 0000 06000000 		.word	6
 813 0004 00000000 		.word	0
 814 0008 00000000 		.word	0
 815 000c 00000000 		.word	handleTHSensorFSM
 816 0010 00       		.byte	0
ARM GAS  /tmp/ccjd67eq.s 			page 22


 817 0011 00       		.space	1
 818 0012 0000     		.short	0
 819 0014 0000     		.short	0
 820 0016 0000     		.space	2
 821              		.section	.rodata.thSensorTaskDescription,"a"
 822              		.align	2
 823              		.set	.LANCHOR1,. + 0
 826              	thSensorTaskDescription:
 827 0000 00000000 		.word	.LC5
 828 0004 00000000 		.space	4
 829 0008 00000000 		.word	thSensorTaskControlBlock
 830 000c 5C000000 		.word	92
 831 0010 00000000 		.word	thSensorTaskBuffer
 832 0014 00020000 		.word	512
 833 0018 18000000 		.word	24
 834 001c 00000000 		.space	8
 834      00000000 
 835              		.text
 836              	.Letext0:
 837              		.file 2 "/usr/include/newlib/machine/_default_types.h"
 838              		.file 3 "/usr/lib/gcc/arm-none-eabi/10.3.1/include/stddef.h"
 839              		.file 4 "/usr/include/newlib/sys/_types.h"
 840              		.file 5 "/usr/include/newlib/sys/reent.h"
 841              		.file 6 "/usr/include/newlib/sys/lock.h"
 842              		.file 7 "/usr/include/newlib/sys/_stdint.h"
 843              		.file 8 "/usr/include/newlib/sys/types.h"
 844              		.file 9 "Drivers/CMSIS/Device/ST/STM32L4xx/Include/stm32l412xx.h"
 845              		.file 10 "Drivers/STM32L4xx_HAL_Driver/Inc/stm32l4xx_hal_gpio.h"
 846              		.file 11 "Middlewares/Third_Party/FreeRTOS/Source/CMSIS_RTOS_V2/cmsis_os2.h"
 847              		.file 12 "app/core/actor/../../config/events_list/events_list.h"
 848              		.file 13 "app/core/actor/../../config/actors_list/actors_list.h"
 849              		.file 14 "app/core/actor/actor.h"
 850              		.file 15 "Middlewares/Third_Party/FreeRTOS/Source/portable/GCC/ARM_CM4F/portmacro.h"
 851              		.file 16 "Middlewares/Third_Party/FreeRTOS/Source/include/FreeRTOS.h"
 852              		.file 17 "app/tasks/temperature_humidity_sensor/temperature_humidity_sensor.h"
 853              		.file 18 "app/drivers/sht3x/sht3x.h"
 854              		.file 19 "/usr/include/newlib/stdio.h"
ARM GAS  /tmp/ccjd67eq.s 			page 23


DEFINED SYMBOLS
                            *ABS*:0000000000000000 temperature_humidity_sensor.c
     /tmp/ccjd67eq.s:18     .text.handleError:0000000000000000 $t
     /tmp/ccjd67eq.s:25     .text.handleError:0000000000000000 handleError
     /tmp/ccjd67eq.s:44     .text.delayMs:0000000000000000 $t
     /tmp/ccjd67eq.s:50     .text.delayMs:0000000000000000 delayMs
     /tmp/ccjd67eq.s:84     .text.delayMs:0000000000000018 $d
     /tmp/ccjd67eq.s:89     .rodata.handleInit.str1.4:0000000000000000 $d
     /tmp/ccjd67eq.s:102    .text.handleInit:0000000000000000 $t
     /tmp/ccjd67eq.s:108    .text.handleInit:0000000000000000 handleInit
     /tmp/ccjd67eq.s:272    .text.handleInit:00000000000000ac $d
     /tmp/ccjd67eq.s:287    .rodata.handleIdle.str1.4:0000000000000000 $d
     /tmp/ccjd67eq.s:291    .text.handleIdle:0000000000000000 $t
     /tmp/ccjd67eq.s:297    .text.handleIdle:0000000000000000 handleIdle
     /tmp/ccjd67eq.s:395    .text.handleIdle:0000000000000054 $d
     /tmp/ccjd67eq.s:403    .text.handleContinuousMeasure:0000000000000000 $t
     /tmp/ccjd67eq.s:409    .text.handleContinuousMeasure:0000000000000000 handleContinuousMeasure
     /tmp/ccjd67eq.s:485    .text.handleContinuousMeasure:000000000000003c $d
     /tmp/ccjd67eq.s:492    .text.handleTHSensorFSM:0000000000000000 $t
     /tmp/ccjd67eq.s:498    .text.handleTHSensorFSM:0000000000000000 handleTHSensorFSM
     /tmp/ccjd67eq.s:519    .text.handleTHSensorFSM:000000000000000c $d
     /tmp/ccjd67eq.s:568    .rodata.TH_SENS_Task.str1.4:0000000000000000 $d
     /tmp/ccjd67eq.s:581    .text.TH_SENS_Task:0000000000000000 $t
     /tmp/ccjd67eq.s:588    .text.TH_SENS_Task:0000000000000000 TH_SENS_Task
     /tmp/ccjd67eq.s:703    .text.TH_SENS_Task:0000000000000080 $d
     /tmp/ccjd67eq.s:717    .rodata.TH_SENS_TaskInit.str1.4:0000000000000000 $d
     /tmp/ccjd67eq.s:721    .text.TH_SENS_TaskInit:0000000000000000 $t
     /tmp/ccjd67eq.s:728    .text.TH_SENS_TaskInit:0000000000000000 TH_SENS_TaskInit
     /tmp/ccjd67eq.s:783    .text.TH_SENS_TaskInit:0000000000000038 $d
     /tmp/ccjd67eq.s:826    .rodata.thSensorTaskDescription:0000000000000000 thSensorTaskDescription
     /tmp/ccjd67eq.s:804    .bss.thSensorTaskControlBlock:0000000000000000 thSensorTaskControlBlock
     /tmp/ccjd67eq.s:798    .bss.thSensorTaskBuffer:0000000000000000 thSensorTaskBuffer
     /tmp/ccjd67eq.s:811    .data.TH_SENS_Actor:0000000000000000 TH_SENS_Actor
     /tmp/ccjd67eq.s:795    .bss.thSensorTaskBuffer:0000000000000000 $d
     /tmp/ccjd67eq.s:801    .bss.thSensorTaskControlBlock:0000000000000000 $d
     /tmp/ccjd67eq.s:807    .data.TH_SENS_Actor:0000000000000000 $d
     /tmp/ccjd67eq.s:822    .rodata.thSensorTaskDescription:0000000000000000 $d
     /tmp/ccjd67eq.s:524    .text.handleTHSensorFSM:0000000000000011 $d
     /tmp/ccjd67eq.s:524    .text.handleTHSensorFSM:0000000000000012 $t

UNDEFINED SYMBOLS
osDelay
SHT3x_InitIO
HAL_GPIO_WritePin
SHT3x_ReadDeviceID
fprintf
osMessageQueuePut
I2C_Recv
I2C_Send
_impure_ptr
ACTORS_LIST_SystemRegistry
SHT3x_PeriodicAcquisitionMode
SHT3x_ReadMeasurements
osMessageQueueGet
osMessageQueueNew
osThreadNew
