ARM GAS  /tmp/ccQWnHcB.s 			page 1


   1              		.cpu cortex-m4
   2              		.eabi_attribute 27, 1
   3              		.eabi_attribute 28, 1
   4              		.eabi_attribute 20, 1
   5              		.eabi_attribute 21, 1
   6              		.eabi_attribute 23, 3
   7              		.eabi_attribute 24, 1
   8              		.eabi_attribute 25, 1
   9              		.eabi_attribute 26, 1
  10              		.eabi_attribute 30, 1
  11              		.eabi_attribute 34, 1
  12              		.eabi_attribute 18, 4
  13              		.file	"usbd_storage_if.c"
  14              		.text
  15              	.Ltext0:
  16              		.cfi_sections	.debug_frame
  17              		.section	.text.STORAGE_Init_FS,"ax",%progbits
  18              		.align	1
  19              		.arch armv7e-m
  20              		.syntax unified
  21              		.thumb
  22              		.thumb_func
  23              		.fpu fpv4-sp-d16
  25              	STORAGE_Init_FS:
  26              	.LVL0:
  27              	.LFB140:
  28              		.file 1 "USB_DEVICE/App/usbd_storage_if.c"
   1:USB_DEVICE/App/usbd_storage_if.c **** /* USER CODE BEGIN Header */
   2:USB_DEVICE/App/usbd_storage_if.c **** /**
   3:USB_DEVICE/App/usbd_storage_if.c ****   ******************************************************************************
   4:USB_DEVICE/App/usbd_storage_if.c ****   * @file           : usbd_storage_if.c
   5:USB_DEVICE/App/usbd_storage_if.c ****   * @version        : v2.0_Cube
   6:USB_DEVICE/App/usbd_storage_if.c ****   * @brief          : Memory management layer.
   7:USB_DEVICE/App/usbd_storage_if.c ****   ******************************************************************************
   8:USB_DEVICE/App/usbd_storage_if.c ****   * @attention
   9:USB_DEVICE/App/usbd_storage_if.c ****   *
  10:USB_DEVICE/App/usbd_storage_if.c ****   * Copyright (c) 2023 STMicroelectronics.
  11:USB_DEVICE/App/usbd_storage_if.c ****   * All rights reserved.
  12:USB_DEVICE/App/usbd_storage_if.c ****   *
  13:USB_DEVICE/App/usbd_storage_if.c ****   * This software is licensed under terms that can be found in the LICENSE file
  14:USB_DEVICE/App/usbd_storage_if.c ****   * in the root directory of this software component.
  15:USB_DEVICE/App/usbd_storage_if.c ****   * If no LICENSE file comes with this software, it is provided AS-IS.
  16:USB_DEVICE/App/usbd_storage_if.c ****   *
  17:USB_DEVICE/App/usbd_storage_if.c ****   ******************************************************************************
  18:USB_DEVICE/App/usbd_storage_if.c ****   */
  19:USB_DEVICE/App/usbd_storage_if.c **** /* USER CODE END Header */
  20:USB_DEVICE/App/usbd_storage_if.c **** 
  21:USB_DEVICE/App/usbd_storage_if.c **** /* Includes ------------------------------------------------------------------*/
  22:USB_DEVICE/App/usbd_storage_if.c **** #include "usbd_storage_if.h"
  23:USB_DEVICE/App/usbd_storage_if.c **** 
  24:USB_DEVICE/App/usbd_storage_if.c **** /* USER CODE BEGIN INCLUDE */
  25:USB_DEVICE/App/usbd_storage_if.c **** 
  26:USB_DEVICE/App/usbd_storage_if.c **** /* USER CODE END INCLUDE */
  27:USB_DEVICE/App/usbd_storage_if.c **** 
  28:USB_DEVICE/App/usbd_storage_if.c **** /* Private typedef -----------------------------------------------------------*/
  29:USB_DEVICE/App/usbd_storage_if.c **** /* Private define ------------------------------------------------------------*/
  30:USB_DEVICE/App/usbd_storage_if.c **** /* Private macro -------------------------------------------------------------*/
ARM GAS  /tmp/ccQWnHcB.s 			page 2


  31:USB_DEVICE/App/usbd_storage_if.c **** 
  32:USB_DEVICE/App/usbd_storage_if.c **** /* USER CODE BEGIN PV */
  33:USB_DEVICE/App/usbd_storage_if.c **** /* Private variables ---------------------------------------------------------*/
  34:USB_DEVICE/App/usbd_storage_if.c **** 
  35:USB_DEVICE/App/usbd_storage_if.c **** /* USER CODE END PV */
  36:USB_DEVICE/App/usbd_storage_if.c **** 
  37:USB_DEVICE/App/usbd_storage_if.c **** /** @addtogroup STM32_USB_OTG_DEVICE_LIBRARY
  38:USB_DEVICE/App/usbd_storage_if.c ****   * @brief Usb device.
  39:USB_DEVICE/App/usbd_storage_if.c ****   * @{
  40:USB_DEVICE/App/usbd_storage_if.c ****   */
  41:USB_DEVICE/App/usbd_storage_if.c **** 
  42:USB_DEVICE/App/usbd_storage_if.c **** /** @defgroup USBD_STORAGE
  43:USB_DEVICE/App/usbd_storage_if.c ****   * @brief Usb mass storage device module
  44:USB_DEVICE/App/usbd_storage_if.c ****   * @{
  45:USB_DEVICE/App/usbd_storage_if.c ****   */
  46:USB_DEVICE/App/usbd_storage_if.c **** 
  47:USB_DEVICE/App/usbd_storage_if.c **** /** @defgroup USBD_STORAGE_Private_TypesDefinitions
  48:USB_DEVICE/App/usbd_storage_if.c ****   * @brief Private types.
  49:USB_DEVICE/App/usbd_storage_if.c ****   * @{
  50:USB_DEVICE/App/usbd_storage_if.c ****   */
  51:USB_DEVICE/App/usbd_storage_if.c **** 
  52:USB_DEVICE/App/usbd_storage_if.c **** /* USER CODE BEGIN PRIVATE_TYPES */
  53:USB_DEVICE/App/usbd_storage_if.c **** 
  54:USB_DEVICE/App/usbd_storage_if.c **** /* USER CODE END PRIVATE_TYPES */
  55:USB_DEVICE/App/usbd_storage_if.c **** 
  56:USB_DEVICE/App/usbd_storage_if.c **** /**
  57:USB_DEVICE/App/usbd_storage_if.c ****   * @}
  58:USB_DEVICE/App/usbd_storage_if.c ****   */
  59:USB_DEVICE/App/usbd_storage_if.c **** 
  60:USB_DEVICE/App/usbd_storage_if.c **** /** @defgroup USBD_STORAGE_Private_Defines
  61:USB_DEVICE/App/usbd_storage_if.c ****   * @brief Private defines.
  62:USB_DEVICE/App/usbd_storage_if.c ****   * @{
  63:USB_DEVICE/App/usbd_storage_if.c ****   */
  64:USB_DEVICE/App/usbd_storage_if.c **** 
  65:USB_DEVICE/App/usbd_storage_if.c **** #define STORAGE_LUN_NBR                  1
  66:USB_DEVICE/App/usbd_storage_if.c **** #define STORAGE_BLK_NBR                  STORAGE_BLOCK_NUMBER
  67:USB_DEVICE/App/usbd_storage_if.c **** #define STORAGE_BLK_SIZ                  STORAGE_BLOCK_SIZE
  68:USB_DEVICE/App/usbd_storage_if.c **** 
  69:USB_DEVICE/App/usbd_storage_if.c **** /* USER CODE BEGIN PRIVATE_DEFINES */
  70:USB_DEVICE/App/usbd_storage_if.c **** 
  71:USB_DEVICE/App/usbd_storage_if.c **** /* USER CODE END PRIVATE_DEFINES */
  72:USB_DEVICE/App/usbd_storage_if.c **** 
  73:USB_DEVICE/App/usbd_storage_if.c **** /**
  74:USB_DEVICE/App/usbd_storage_if.c ****   * @}
  75:USB_DEVICE/App/usbd_storage_if.c ****   */
  76:USB_DEVICE/App/usbd_storage_if.c **** 
  77:USB_DEVICE/App/usbd_storage_if.c **** /** @defgroup USBD_STORAGE_Private_Macros
  78:USB_DEVICE/App/usbd_storage_if.c ****   * @brief Private macros.
  79:USB_DEVICE/App/usbd_storage_if.c ****   * @{
  80:USB_DEVICE/App/usbd_storage_if.c ****   */
  81:USB_DEVICE/App/usbd_storage_if.c **** 
  82:USB_DEVICE/App/usbd_storage_if.c **** /* USER CODE BEGIN PRIVATE_MACRO */
  83:USB_DEVICE/App/usbd_storage_if.c **** 
  84:USB_DEVICE/App/usbd_storage_if.c **** /* USER CODE END PRIVATE_MACRO */
  85:USB_DEVICE/App/usbd_storage_if.c **** 
  86:USB_DEVICE/App/usbd_storage_if.c **** /**
  87:USB_DEVICE/App/usbd_storage_if.c ****   * @}
ARM GAS  /tmp/ccQWnHcB.s 			page 3


  88:USB_DEVICE/App/usbd_storage_if.c ****   */
  89:USB_DEVICE/App/usbd_storage_if.c **** 
  90:USB_DEVICE/App/usbd_storage_if.c **** /** @defgroup USBD_STORAGE_Private_Variables
  91:USB_DEVICE/App/usbd_storage_if.c ****   * @brief Private variables.
  92:USB_DEVICE/App/usbd_storage_if.c ****   * @{
  93:USB_DEVICE/App/usbd_storage_if.c ****   */
  94:USB_DEVICE/App/usbd_storage_if.c **** 
  95:USB_DEVICE/App/usbd_storage_if.c **** /* USER CODE BEGIN INQUIRY_DATA_FS */
  96:USB_DEVICE/App/usbd_storage_if.c **** /** USB Mass storage Standard Inquiry Data. */
  97:USB_DEVICE/App/usbd_storage_if.c **** const int8_t STORAGE_Inquirydata_FS[] = {/* 36 */
  98:USB_DEVICE/App/usbd_storage_if.c **** 
  99:USB_DEVICE/App/usbd_storage_if.c ****   /* LUN 0 */
 100:USB_DEVICE/App/usbd_storage_if.c ****   0x00,
 101:USB_DEVICE/App/usbd_storage_if.c ****   0x80,
 102:USB_DEVICE/App/usbd_storage_if.c ****   0x02,
 103:USB_DEVICE/App/usbd_storage_if.c ****   0x02,
 104:USB_DEVICE/App/usbd_storage_if.c ****   (STANDARD_INQUIRY_DATA_LEN - 5),
 105:USB_DEVICE/App/usbd_storage_if.c ****   0x00,
 106:USB_DEVICE/App/usbd_storage_if.c ****   0x00,
 107:USB_DEVICE/App/usbd_storage_if.c ****   0x00,
 108:USB_DEVICE/App/usbd_storage_if.c ****   'S', 'T', 'M', ' ', ' ', ' ', ' ', ' ', /* Manufacturer : 8 bytes */
 109:USB_DEVICE/App/usbd_storage_if.c ****   'P', 'r', 'o', 'd', 'u', 'c', 't', ' ', /* Product      : 16 Bytes */
 110:USB_DEVICE/App/usbd_storage_if.c ****   ' ', ' ', ' ', ' ', ' ', ' ', ' ', ' ',
 111:USB_DEVICE/App/usbd_storage_if.c ****   '0', '.', '0' ,'1'                      /* Version      : 4 Bytes */
 112:USB_DEVICE/App/usbd_storage_if.c **** };
 113:USB_DEVICE/App/usbd_storage_if.c **** /* USER CODE END INQUIRY_DATA_FS */
 114:USB_DEVICE/App/usbd_storage_if.c **** 
 115:USB_DEVICE/App/usbd_storage_if.c **** /* USER CODE BEGIN PRIVATE_VARIABLES */
 116:USB_DEVICE/App/usbd_storage_if.c **** 
 117:USB_DEVICE/App/usbd_storage_if.c **** /* USER CODE END PRIVATE_VARIABLES */
 118:USB_DEVICE/App/usbd_storage_if.c **** 
 119:USB_DEVICE/App/usbd_storage_if.c **** /**
 120:USB_DEVICE/App/usbd_storage_if.c ****   * @}
 121:USB_DEVICE/App/usbd_storage_if.c ****   */
 122:USB_DEVICE/App/usbd_storage_if.c **** 
 123:USB_DEVICE/App/usbd_storage_if.c **** /** @defgroup USBD_STORAGE_Exported_Variables
 124:USB_DEVICE/App/usbd_storage_if.c ****   * @brief Public variables.
 125:USB_DEVICE/App/usbd_storage_if.c ****   * @{
 126:USB_DEVICE/App/usbd_storage_if.c ****   */
 127:USB_DEVICE/App/usbd_storage_if.c **** 
 128:USB_DEVICE/App/usbd_storage_if.c **** extern USBD_HandleTypeDef hUsbDeviceFS;
 129:USB_DEVICE/App/usbd_storage_if.c **** 
 130:USB_DEVICE/App/usbd_storage_if.c **** /* USER CODE BEGIN EXPORTED_VARIABLES */
 131:USB_DEVICE/App/usbd_storage_if.c **** extern W25Q_HandleTypeDef MEMORY_W25QHandle;
 132:USB_DEVICE/App/usbd_storage_if.c **** /* USER CODE END EXPORTED_VARIABLES */
 133:USB_DEVICE/App/usbd_storage_if.c **** 
 134:USB_DEVICE/App/usbd_storage_if.c **** /**
 135:USB_DEVICE/App/usbd_storage_if.c ****   * @}
 136:USB_DEVICE/App/usbd_storage_if.c ****   */
 137:USB_DEVICE/App/usbd_storage_if.c **** 
 138:USB_DEVICE/App/usbd_storage_if.c **** /** @defgroup USBD_STORAGE_Private_FunctionPrototypes
 139:USB_DEVICE/App/usbd_storage_if.c ****   * @brief Private functions declaration.
 140:USB_DEVICE/App/usbd_storage_if.c ****   * @{
 141:USB_DEVICE/App/usbd_storage_if.c ****   */
 142:USB_DEVICE/App/usbd_storage_if.c **** 
 143:USB_DEVICE/App/usbd_storage_if.c **** static int8_t STORAGE_Init_FS(uint8_t lun);
 144:USB_DEVICE/App/usbd_storage_if.c **** static int8_t STORAGE_GetCapacity_FS(uint8_t lun, uint32_t *block_num, uint16_t *block_size);
ARM GAS  /tmp/ccQWnHcB.s 			page 4


 145:USB_DEVICE/App/usbd_storage_if.c **** static int8_t STORAGE_IsReady_FS(uint8_t lun);
 146:USB_DEVICE/App/usbd_storage_if.c **** static int8_t STORAGE_IsWriteProtected_FS(uint8_t lun);
 147:USB_DEVICE/App/usbd_storage_if.c **** static int8_t STORAGE_Read_FS(uint8_t lun, uint8_t *buf, uint32_t blk_addr, uint16_t blk_len);
 148:USB_DEVICE/App/usbd_storage_if.c **** static int8_t STORAGE_Write_FS(uint8_t lun, uint8_t *buf, uint32_t blk_addr, uint16_t blk_len);
 149:USB_DEVICE/App/usbd_storage_if.c **** static int8_t STORAGE_GetMaxLun_FS(void);
 150:USB_DEVICE/App/usbd_storage_if.c **** 
 151:USB_DEVICE/App/usbd_storage_if.c **** /* USER CODE BEGIN PRIVATE_FUNCTIONS_DECLARATION */
 152:USB_DEVICE/App/usbd_storage_if.c **** 
 153:USB_DEVICE/App/usbd_storage_if.c **** /* USER CODE END PRIVATE_FUNCTIONS_DECLARATION */
 154:USB_DEVICE/App/usbd_storage_if.c **** 
 155:USB_DEVICE/App/usbd_storage_if.c **** /**
 156:USB_DEVICE/App/usbd_storage_if.c ****   * @}
 157:USB_DEVICE/App/usbd_storage_if.c ****   */
 158:USB_DEVICE/App/usbd_storage_if.c **** 
 159:USB_DEVICE/App/usbd_storage_if.c **** USBD_StorageTypeDef USBD_Storage_Interface_fops_FS =
 160:USB_DEVICE/App/usbd_storage_if.c **** {
 161:USB_DEVICE/App/usbd_storage_if.c ****   STORAGE_Init_FS,
 162:USB_DEVICE/App/usbd_storage_if.c ****   STORAGE_GetCapacity_FS,
 163:USB_DEVICE/App/usbd_storage_if.c ****   STORAGE_IsReady_FS,
 164:USB_DEVICE/App/usbd_storage_if.c ****   STORAGE_IsWriteProtected_FS,
 165:USB_DEVICE/App/usbd_storage_if.c ****   STORAGE_Read_FS,
 166:USB_DEVICE/App/usbd_storage_if.c ****   STORAGE_Write_FS,
 167:USB_DEVICE/App/usbd_storage_if.c ****   STORAGE_GetMaxLun_FS,
 168:USB_DEVICE/App/usbd_storage_if.c ****   (int8_t *)STORAGE_Inquirydata_FS
 169:USB_DEVICE/App/usbd_storage_if.c **** };
 170:USB_DEVICE/App/usbd_storage_if.c **** 
 171:USB_DEVICE/App/usbd_storage_if.c **** /* Private functions ---------------------------------------------------------*/
 172:USB_DEVICE/App/usbd_storage_if.c **** /**
 173:USB_DEVICE/App/usbd_storage_if.c ****   * @brief  Initializes over USB FS IP
 174:USB_DEVICE/App/usbd_storage_if.c ****   * @param  lun:
 175:USB_DEVICE/App/usbd_storage_if.c ****   * @retval USBD_OK if all operations are OK else USBD_FAIL
 176:USB_DEVICE/App/usbd_storage_if.c ****   */
 177:USB_DEVICE/App/usbd_storage_if.c **** int8_t STORAGE_Init_FS(uint8_t lun)
 178:USB_DEVICE/App/usbd_storage_if.c **** {
  29              		.loc 1 178 1 view -0
  30              		.cfi_startproc
  31              		@ args = 0, pretend = 0, frame = 0
  32              		@ frame_needed = 0, uses_anonymous_args = 0
  33              		@ link register save eliminated.
 179:USB_DEVICE/App/usbd_storage_if.c ****   /* USER CODE BEGIN 2 */
 180:USB_DEVICE/App/usbd_storage_if.c ****   return (USBD_OK);
  34              		.loc 1 180 3 view .LVU1
 181:USB_DEVICE/App/usbd_storage_if.c ****   /* USER CODE END 2 */
 182:USB_DEVICE/App/usbd_storage_if.c **** }
  35              		.loc 1 182 1 is_stmt 0 view .LVU2
  36 0000 0020     		movs	r0, #0
  37              	.LVL1:
  38              		.loc 1 182 1 view .LVU3
  39 0002 7047     		bx	lr
  40              		.cfi_endproc
  41              	.LFE140:
  43              		.section	.text.STORAGE_IsWriteProtected_FS,"ax",%progbits
  44              		.align	1
  45              		.syntax unified
  46              		.thumb
  47              		.thumb_func
  48              		.fpu fpv4-sp-d16
ARM GAS  /tmp/ccQWnHcB.s 			page 5


  50              	STORAGE_IsWriteProtected_FS:
  51              	.LVL2:
  52              	.LFB143:
 183:USB_DEVICE/App/usbd_storage_if.c **** 
 184:USB_DEVICE/App/usbd_storage_if.c **** /**
 185:USB_DEVICE/App/usbd_storage_if.c ****   * @brief  .
 186:USB_DEVICE/App/usbd_storage_if.c ****   * @param  lun: .
 187:USB_DEVICE/App/usbd_storage_if.c ****   * @param  block_num: .
 188:USB_DEVICE/App/usbd_storage_if.c ****   * @param  block_size: .
 189:USB_DEVICE/App/usbd_storage_if.c ****   * @retval USBD_OK if all operations are OK else USBD_FAIL
 190:USB_DEVICE/App/usbd_storage_if.c ****   */
 191:USB_DEVICE/App/usbd_storage_if.c **** int8_t STORAGE_GetCapacity_FS(uint8_t lun, uint32_t *block_num, uint16_t *block_size)
 192:USB_DEVICE/App/usbd_storage_if.c **** {
 193:USB_DEVICE/App/usbd_storage_if.c ****   /* USER CODE BEGIN 3 */
 194:USB_DEVICE/App/usbd_storage_if.c ****   return STORAGE_GetCapacity(lun, block_num, block_size);
 195:USB_DEVICE/App/usbd_storage_if.c ****   /* USER CODE END 3 */
 196:USB_DEVICE/App/usbd_storage_if.c **** }
 197:USB_DEVICE/App/usbd_storage_if.c **** 
 198:USB_DEVICE/App/usbd_storage_if.c **** /**
 199:USB_DEVICE/App/usbd_storage_if.c ****   * @brief  .
 200:USB_DEVICE/App/usbd_storage_if.c ****   * @param  lun: .
 201:USB_DEVICE/App/usbd_storage_if.c ****   * @retval USBD_OK if all operations are OK else USBD_FAIL
 202:USB_DEVICE/App/usbd_storage_if.c ****   */
 203:USB_DEVICE/App/usbd_storage_if.c **** int8_t STORAGE_IsReady_FS(uint8_t lun)
 204:USB_DEVICE/App/usbd_storage_if.c **** {
 205:USB_DEVICE/App/usbd_storage_if.c ****   /* USER CODE BEGIN 4 */
 206:USB_DEVICE/App/usbd_storage_if.c ****   return STORAGE_IsReady(lun);
 207:USB_DEVICE/App/usbd_storage_if.c ****   /* USER CODE END 4 */
 208:USB_DEVICE/App/usbd_storage_if.c **** }
 209:USB_DEVICE/App/usbd_storage_if.c **** 
 210:USB_DEVICE/App/usbd_storage_if.c **** /**
 211:USB_DEVICE/App/usbd_storage_if.c ****   * @brief  .
 212:USB_DEVICE/App/usbd_storage_if.c ****   * @param  lun: .
 213:USB_DEVICE/App/usbd_storage_if.c ****   * @retval USBD_OK if all operations are OK else USBD_FAIL
 214:USB_DEVICE/App/usbd_storage_if.c ****   */
 215:USB_DEVICE/App/usbd_storage_if.c **** int8_t STORAGE_IsWriteProtected_FS(uint8_t lun)
 216:USB_DEVICE/App/usbd_storage_if.c **** {
  53              		.loc 1 216 1 is_stmt 1 view -0
  54              		.cfi_startproc
  55              		@ args = 0, pretend = 0, frame = 0
  56              		@ frame_needed = 0, uses_anonymous_args = 0
  57              		@ link register save eliminated.
 217:USB_DEVICE/App/usbd_storage_if.c ****   /* USER CODE BEGIN 5 */
 218:USB_DEVICE/App/usbd_storage_if.c ****   return (USBD_OK);
  58              		.loc 1 218 3 view .LVU5
 219:USB_DEVICE/App/usbd_storage_if.c ****   /* USER CODE END 5 */
 220:USB_DEVICE/App/usbd_storage_if.c **** }
  59              		.loc 1 220 1 is_stmt 0 view .LVU6
  60 0000 0020     		movs	r0, #0
  61              	.LVL3:
  62              		.loc 1 220 1 view .LVU7
  63 0002 7047     		bx	lr
  64              		.cfi_endproc
  65              	.LFE143:
  67              		.section	.text.STORAGE_GetMaxLun_FS,"ax",%progbits
  68              		.align	1
  69              		.syntax unified
ARM GAS  /tmp/ccQWnHcB.s 			page 6


  70              		.thumb
  71              		.thumb_func
  72              		.fpu fpv4-sp-d16
  74              	STORAGE_GetMaxLun_FS:
  75              	.LFB146:
 221:USB_DEVICE/App/usbd_storage_if.c **** 
 222:USB_DEVICE/App/usbd_storage_if.c **** /**
 223:USB_DEVICE/App/usbd_storage_if.c ****   * @brief  .
 224:USB_DEVICE/App/usbd_storage_if.c ****   * @param  lun: .
 225:USB_DEVICE/App/usbd_storage_if.c ****   * @retval USBD_OK if all operations are OK else USBD_FAIL
 226:USB_DEVICE/App/usbd_storage_if.c ****   */
 227:USB_DEVICE/App/usbd_storage_if.c **** int8_t STORAGE_Read_FS(uint8_t lun, uint8_t *buf, uint32_t blk_addr, uint16_t blk_len)
 228:USB_DEVICE/App/usbd_storage_if.c **** {
 229:USB_DEVICE/App/usbd_storage_if.c ****   /* USER CODE BEGIN 6 */
 230:USB_DEVICE/App/usbd_storage_if.c ****   return STORAGE_Read(lun, buf, blk_addr, blk_len);
 231:USB_DEVICE/App/usbd_storage_if.c ****   /* USER CODE END 6 */
 232:USB_DEVICE/App/usbd_storage_if.c **** }
 233:USB_DEVICE/App/usbd_storage_if.c **** 
 234:USB_DEVICE/App/usbd_storage_if.c **** /**
 235:USB_DEVICE/App/usbd_storage_if.c ****   * @brief  .
 236:USB_DEVICE/App/usbd_storage_if.c ****   * @param  lun: .
 237:USB_DEVICE/App/usbd_storage_if.c ****   * @retval USBD_OK if all operations are OK else USBD_FAIL
 238:USB_DEVICE/App/usbd_storage_if.c ****   */
 239:USB_DEVICE/App/usbd_storage_if.c **** int8_t STORAGE_Write_FS(uint8_t lun, uint8_t *buf, uint32_t blk_addr, uint16_t blk_len)
 240:USB_DEVICE/App/usbd_storage_if.c **** {
 241:USB_DEVICE/App/usbd_storage_if.c ****   /* USER CODE BEGIN 7 */
 242:USB_DEVICE/App/usbd_storage_if.c ****   return STORAGE_Write(lun, buf, blk_addr, blk_len);
 243:USB_DEVICE/App/usbd_storage_if.c ****   /* USER CODE END 7 */
 244:USB_DEVICE/App/usbd_storage_if.c **** }
 245:USB_DEVICE/App/usbd_storage_if.c **** 
 246:USB_DEVICE/App/usbd_storage_if.c **** /**
 247:USB_DEVICE/App/usbd_storage_if.c ****   * @brief  .
 248:USB_DEVICE/App/usbd_storage_if.c ****   * @param  None
 249:USB_DEVICE/App/usbd_storage_if.c ****   * @retval .
 250:USB_DEVICE/App/usbd_storage_if.c ****   */
 251:USB_DEVICE/App/usbd_storage_if.c **** int8_t STORAGE_GetMaxLun_FS(void)
 252:USB_DEVICE/App/usbd_storage_if.c **** {
  76              		.loc 1 252 1 is_stmt 1 view -0
  77              		.cfi_startproc
  78              		@ args = 0, pretend = 0, frame = 0
  79              		@ frame_needed = 0, uses_anonymous_args = 0
  80              		@ link register save eliminated.
 253:USB_DEVICE/App/usbd_storage_if.c ****   /* USER CODE BEGIN 8 */
 254:USB_DEVICE/App/usbd_storage_if.c ****   return (STORAGE_LUN_NBR - 1);
  81              		.loc 1 254 3 view .LVU9
 255:USB_DEVICE/App/usbd_storage_if.c ****   /* USER CODE END 8 */
 256:USB_DEVICE/App/usbd_storage_if.c **** }
  82              		.loc 1 256 1 is_stmt 0 view .LVU10
  83 0000 0020     		movs	r0, #0
  84 0002 7047     		bx	lr
  85              		.cfi_endproc
  86              	.LFE146:
  88              		.section	.text.STORAGE_Write_FS,"ax",%progbits
  89              		.align	1
  90              		.syntax unified
  91              		.thumb
  92              		.thumb_func
ARM GAS  /tmp/ccQWnHcB.s 			page 7


  93              		.fpu fpv4-sp-d16
  95              	STORAGE_Write_FS:
  96              	.LVL4:
  97              	.LFB145:
 240:USB_DEVICE/App/usbd_storage_if.c ****   /* USER CODE BEGIN 7 */
  98              		.loc 1 240 1 is_stmt 1 view -0
  99              		.cfi_startproc
 100              		@ args = 0, pretend = 0, frame = 0
 101              		@ frame_needed = 0, uses_anonymous_args = 0
 240:USB_DEVICE/App/usbd_storage_if.c ****   /* USER CODE BEGIN 7 */
 102              		.loc 1 240 1 is_stmt 0 view .LVU12
 103 0000 08B5     		push	{r3, lr}
 104              	.LCFI0:
 105              		.cfi_def_cfa_offset 8
 106              		.cfi_offset 3, -8
 107              		.cfi_offset 14, -4
 242:USB_DEVICE/App/usbd_storage_if.c ****   /* USER CODE END 7 */
 108              		.loc 1 242 3 is_stmt 1 view .LVU13
 242:USB_DEVICE/App/usbd_storage_if.c ****   /* USER CODE END 7 */
 109              		.loc 1 242 10 is_stmt 0 view .LVU14
 110 0002 FFF7FEFF 		bl	STORAGE_Write
 111              	.LVL5:
 244:USB_DEVICE/App/usbd_storage_if.c **** 
 112              		.loc 1 244 1 view .LVU15
 113 0006 08BD     		pop	{r3, pc}
 114              		.cfi_endproc
 115              	.LFE145:
 117              		.section	.text.STORAGE_Read_FS,"ax",%progbits
 118              		.align	1
 119              		.syntax unified
 120              		.thumb
 121              		.thumb_func
 122              		.fpu fpv4-sp-d16
 124              	STORAGE_Read_FS:
 125              	.LVL6:
 126              	.LFB144:
 228:USB_DEVICE/App/usbd_storage_if.c ****   /* USER CODE BEGIN 6 */
 127              		.loc 1 228 1 is_stmt 1 view -0
 128              		.cfi_startproc
 129              		@ args = 0, pretend = 0, frame = 0
 130              		@ frame_needed = 0, uses_anonymous_args = 0
 228:USB_DEVICE/App/usbd_storage_if.c ****   /* USER CODE BEGIN 6 */
 131              		.loc 1 228 1 is_stmt 0 view .LVU17
 132 0000 08B5     		push	{r3, lr}
 133              	.LCFI1:
 134              		.cfi_def_cfa_offset 8
 135              		.cfi_offset 3, -8
 136              		.cfi_offset 14, -4
 230:USB_DEVICE/App/usbd_storage_if.c ****   /* USER CODE END 6 */
 137              		.loc 1 230 3 is_stmt 1 view .LVU18
 230:USB_DEVICE/App/usbd_storage_if.c ****   /* USER CODE END 6 */
 138              		.loc 1 230 10 is_stmt 0 view .LVU19
 139 0002 FFF7FEFF 		bl	STORAGE_Read
 140              	.LVL7:
 232:USB_DEVICE/App/usbd_storage_if.c **** 
 141              		.loc 1 232 1 view .LVU20
 142 0006 08BD     		pop	{r3, pc}
ARM GAS  /tmp/ccQWnHcB.s 			page 8


 143              		.cfi_endproc
 144              	.LFE144:
 146              		.section	.text.STORAGE_IsReady_FS,"ax",%progbits
 147              		.align	1
 148              		.syntax unified
 149              		.thumb
 150              		.thumb_func
 151              		.fpu fpv4-sp-d16
 153              	STORAGE_IsReady_FS:
 154              	.LVL8:
 155              	.LFB142:
 204:USB_DEVICE/App/usbd_storage_if.c ****   /* USER CODE BEGIN 4 */
 156              		.loc 1 204 1 is_stmt 1 view -0
 157              		.cfi_startproc
 158              		@ args = 0, pretend = 0, frame = 0
 159              		@ frame_needed = 0, uses_anonymous_args = 0
 204:USB_DEVICE/App/usbd_storage_if.c ****   /* USER CODE BEGIN 4 */
 160              		.loc 1 204 1 is_stmt 0 view .LVU22
 161 0000 08B5     		push	{r3, lr}
 162              	.LCFI2:
 163              		.cfi_def_cfa_offset 8
 164              		.cfi_offset 3, -8
 165              		.cfi_offset 14, -4
 206:USB_DEVICE/App/usbd_storage_if.c ****   /* USER CODE END 4 */
 166              		.loc 1 206 3 is_stmt 1 view .LVU23
 206:USB_DEVICE/App/usbd_storage_if.c ****   /* USER CODE END 4 */
 167              		.loc 1 206 10 is_stmt 0 view .LVU24
 168 0002 FFF7FEFF 		bl	STORAGE_IsReady
 169              	.LVL9:
 208:USB_DEVICE/App/usbd_storage_if.c **** 
 170              		.loc 1 208 1 view .LVU25
 171 0006 08BD     		pop	{r3, pc}
 172              		.cfi_endproc
 173              	.LFE142:
 175              		.section	.text.STORAGE_GetCapacity_FS,"ax",%progbits
 176              		.align	1
 177              		.syntax unified
 178              		.thumb
 179              		.thumb_func
 180              		.fpu fpv4-sp-d16
 182              	STORAGE_GetCapacity_FS:
 183              	.LVL10:
 184              	.LFB141:
 192:USB_DEVICE/App/usbd_storage_if.c ****   /* USER CODE BEGIN 3 */
 185              		.loc 1 192 1 is_stmt 1 view -0
 186              		.cfi_startproc
 187              		@ args = 0, pretend = 0, frame = 0
 188              		@ frame_needed = 0, uses_anonymous_args = 0
 192:USB_DEVICE/App/usbd_storage_if.c ****   /* USER CODE BEGIN 3 */
 189              		.loc 1 192 1 is_stmt 0 view .LVU27
 190 0000 08B5     		push	{r3, lr}
 191              	.LCFI3:
 192              		.cfi_def_cfa_offset 8
 193              		.cfi_offset 3, -8
 194              		.cfi_offset 14, -4
 194:USB_DEVICE/App/usbd_storage_if.c ****   /* USER CODE END 3 */
 195              		.loc 1 194 3 is_stmt 1 view .LVU28
ARM GAS  /tmp/ccQWnHcB.s 			page 9


 194:USB_DEVICE/App/usbd_storage_if.c ****   /* USER CODE END 3 */
 196              		.loc 1 194 10 is_stmt 0 view .LVU29
 197 0002 FFF7FEFF 		bl	STORAGE_GetCapacity
 198              	.LVL11:
 196:USB_DEVICE/App/usbd_storage_if.c **** 
 199              		.loc 1 196 1 view .LVU30
 200 0006 08BD     		pop	{r3, pc}
 201              		.cfi_endproc
 202              	.LFE141:
 204              		.global	USBD_Storage_Interface_fops_FS
 205              		.global	STORAGE_Inquirydata_FS
 206              		.section	.data.USBD_Storage_Interface_fops_FS,"aw"
 207              		.align	2
 210              	USBD_Storage_Interface_fops_FS:
 211 0000 00000000 		.word	STORAGE_Init_FS
 212 0004 00000000 		.word	STORAGE_GetCapacity_FS
 213 0008 00000000 		.word	STORAGE_IsReady_FS
 214 000c 00000000 		.word	STORAGE_IsWriteProtected_FS
 215 0010 00000000 		.word	STORAGE_Read_FS
 216 0014 00000000 		.word	STORAGE_Write_FS
 217 0018 00000000 		.word	STORAGE_GetMaxLun_FS
 218 001c 00000000 		.word	STORAGE_Inquirydata_FS
 219              		.section	.rodata.STORAGE_Inquirydata_FS,"a"
 220              		.align	2
 223              	STORAGE_Inquirydata_FS:
 224 0000 00800202 		.ascii	"\000\200\002\002\037\000\000\000STM     Product    "
 224      1F000000 
 224      53544D20 
 224      20202020 
 224      50726F64 
 225 001b 20202020 		.ascii	"     0.01"
 225      20302E30 
 225      31
 226              		.text
 227              	.Letext0:
 228              		.file 2 "/usr/include/newlib/machine/_default_types.h"
 229              		.file 3 "/usr/include/newlib/sys/_stdint.h"
 230              		.file 4 "Middlewares/ST/STM32_USB_Device_Library/Class/MSC/Inc/usbd_msc.h"
 231              		.file 5 "USB_DEVICE/App/usbd_storage_if.h"
 232              		.file 6 "app/middlewares/usb_msc_storage/usb_msc_storage.h"
 233              		.file 7 "Middlewares/ST/STM32_USB_Device_Library/Core/Inc/usbd_def.h"
ARM GAS  /tmp/ccQWnHcB.s 			page 10


DEFINED SYMBOLS
                            *ABS*:0000000000000000 usbd_storage_if.c
     /tmp/ccQWnHcB.s:18     .text.STORAGE_Init_FS:0000000000000000 $t
     /tmp/ccQWnHcB.s:25     .text.STORAGE_Init_FS:0000000000000000 STORAGE_Init_FS
     /tmp/ccQWnHcB.s:44     .text.STORAGE_IsWriteProtected_FS:0000000000000000 $t
     /tmp/ccQWnHcB.s:50     .text.STORAGE_IsWriteProtected_FS:0000000000000000 STORAGE_IsWriteProtected_FS
     /tmp/ccQWnHcB.s:68     .text.STORAGE_GetMaxLun_FS:0000000000000000 $t
     /tmp/ccQWnHcB.s:74     .text.STORAGE_GetMaxLun_FS:0000000000000000 STORAGE_GetMaxLun_FS
     /tmp/ccQWnHcB.s:89     .text.STORAGE_Write_FS:0000000000000000 $t
     /tmp/ccQWnHcB.s:95     .text.STORAGE_Write_FS:0000000000000000 STORAGE_Write_FS
     /tmp/ccQWnHcB.s:118    .text.STORAGE_Read_FS:0000000000000000 $t
     /tmp/ccQWnHcB.s:124    .text.STORAGE_Read_FS:0000000000000000 STORAGE_Read_FS
     /tmp/ccQWnHcB.s:147    .text.STORAGE_IsReady_FS:0000000000000000 $t
     /tmp/ccQWnHcB.s:153    .text.STORAGE_IsReady_FS:0000000000000000 STORAGE_IsReady_FS
     /tmp/ccQWnHcB.s:176    .text.STORAGE_GetCapacity_FS:0000000000000000 $t
     /tmp/ccQWnHcB.s:182    .text.STORAGE_GetCapacity_FS:0000000000000000 STORAGE_GetCapacity_FS
     /tmp/ccQWnHcB.s:210    .data.USBD_Storage_Interface_fops_FS:0000000000000000 USBD_Storage_Interface_fops_FS
     /tmp/ccQWnHcB.s:223    .rodata.STORAGE_Inquirydata_FS:0000000000000000 STORAGE_Inquirydata_FS
     /tmp/ccQWnHcB.s:207    .data.USBD_Storage_Interface_fops_FS:0000000000000000 $d
     /tmp/ccQWnHcB.s:220    .rodata.STORAGE_Inquirydata_FS:0000000000000000 $d

UNDEFINED SYMBOLS
STORAGE_Write
STORAGE_Read
STORAGE_IsReady
STORAGE_GetCapacity
