ARM GAS  /tmp/cc2SMzdz.s 			page 1


   1              		.cpu cortex-m4
   2              		.eabi_attribute 27, 1
   3              		.eabi_attribute 28, 1
   4              		.eabi_attribute 20, 1
   5              		.eabi_attribute 21, 1
   6              		.eabi_attribute 23, 3
   7              		.eabi_attribute 24, 1
   8              		.eabi_attribute 25, 1
   9              		.eabi_attribute 26, 1
  10              		.eabi_attribute 30, 1
  11              		.eabi_attribute 34, 1
  12              		.eabi_attribute 18, 4
  13              		.file	"usbd_msc_scsi.c"
  14              		.text
  15              	.Ltext0:
  16              		.cfi_sections	.debug_frame
  17              		.section	.text.SCSI_AllowPreventRemovable,"ax",%progbits
  18              		.align	1
  19              		.arch armv7e-m
  20              		.syntax unified
  21              		.thumb
  22              		.thumb_func
  23              		.fpu fpv4-sp-d16
  25              	SCSI_AllowPreventRemovable:
  26              	.LVL0:
  27              	.LFB151:
  28              		.file 1 "Middlewares/ST/STM32_USB_Device_Library/Class/MSC/Src/usbd_msc_scsi.c"
   1:Middlewares/ST/STM32_USB_Device_Library/Class/MSC/Src/usbd_msc_scsi.c **** /**
   2:Middlewares/ST/STM32_USB_Device_Library/Class/MSC/Src/usbd_msc_scsi.c ****   ******************************************************************************
   3:Middlewares/ST/STM32_USB_Device_Library/Class/MSC/Src/usbd_msc_scsi.c ****   * @file    usbd_msc_scsi.c
   4:Middlewares/ST/STM32_USB_Device_Library/Class/MSC/Src/usbd_msc_scsi.c ****   * @author  MCD Application Team
   5:Middlewares/ST/STM32_USB_Device_Library/Class/MSC/Src/usbd_msc_scsi.c ****   * @brief   This file provides all the USBD SCSI layer functions.
   6:Middlewares/ST/STM32_USB_Device_Library/Class/MSC/Src/usbd_msc_scsi.c ****   ******************************************************************************
   7:Middlewares/ST/STM32_USB_Device_Library/Class/MSC/Src/usbd_msc_scsi.c ****   * @attention
   8:Middlewares/ST/STM32_USB_Device_Library/Class/MSC/Src/usbd_msc_scsi.c ****   *
   9:Middlewares/ST/STM32_USB_Device_Library/Class/MSC/Src/usbd_msc_scsi.c ****   * Copyright (c) 2015 STMicroelectronics.
  10:Middlewares/ST/STM32_USB_Device_Library/Class/MSC/Src/usbd_msc_scsi.c ****   * All rights reserved.
  11:Middlewares/ST/STM32_USB_Device_Library/Class/MSC/Src/usbd_msc_scsi.c ****   *
  12:Middlewares/ST/STM32_USB_Device_Library/Class/MSC/Src/usbd_msc_scsi.c ****   * This software is licensed under terms that can be found in the LICENSE file
  13:Middlewares/ST/STM32_USB_Device_Library/Class/MSC/Src/usbd_msc_scsi.c ****   * in the root directory of this software component.
  14:Middlewares/ST/STM32_USB_Device_Library/Class/MSC/Src/usbd_msc_scsi.c ****   * If no LICENSE file comes with this software, it is provided AS-IS.
  15:Middlewares/ST/STM32_USB_Device_Library/Class/MSC/Src/usbd_msc_scsi.c ****   *
  16:Middlewares/ST/STM32_USB_Device_Library/Class/MSC/Src/usbd_msc_scsi.c ****   ******************************************************************************
  17:Middlewares/ST/STM32_USB_Device_Library/Class/MSC/Src/usbd_msc_scsi.c ****   */
  18:Middlewares/ST/STM32_USB_Device_Library/Class/MSC/Src/usbd_msc_scsi.c **** 
  19:Middlewares/ST/STM32_USB_Device_Library/Class/MSC/Src/usbd_msc_scsi.c **** /* BSPDependencies
  20:Middlewares/ST/STM32_USB_Device_Library/Class/MSC/Src/usbd_msc_scsi.c **** - "stm32xxxxx_{eval}{discovery}{nucleo_144}.c"
  21:Middlewares/ST/STM32_USB_Device_Library/Class/MSC/Src/usbd_msc_scsi.c **** - "stm32xxxxx_{eval}{discovery}_io.c"
  22:Middlewares/ST/STM32_USB_Device_Library/Class/MSC/Src/usbd_msc_scsi.c **** - "stm32xxxxx_{eval}{discovery}{adafruit}_sd.c"
  23:Middlewares/ST/STM32_USB_Device_Library/Class/MSC/Src/usbd_msc_scsi.c **** EndBSPDependencies */
  24:Middlewares/ST/STM32_USB_Device_Library/Class/MSC/Src/usbd_msc_scsi.c **** 
  25:Middlewares/ST/STM32_USB_Device_Library/Class/MSC/Src/usbd_msc_scsi.c **** /* Includes ------------------------------------------------------------------*/
  26:Middlewares/ST/STM32_USB_Device_Library/Class/MSC/Src/usbd_msc_scsi.c **** #include "usbd_msc_bot.h"
  27:Middlewares/ST/STM32_USB_Device_Library/Class/MSC/Src/usbd_msc_scsi.c **** #include "usbd_msc_scsi.h"
  28:Middlewares/ST/STM32_USB_Device_Library/Class/MSC/Src/usbd_msc_scsi.c **** #include "usbd_msc.h"
  29:Middlewares/ST/STM32_USB_Device_Library/Class/MSC/Src/usbd_msc_scsi.c **** #include "usbd_msc_data.h"
  30:Middlewares/ST/STM32_USB_Device_Library/Class/MSC/Src/usbd_msc_scsi.c **** 
ARM GAS  /tmp/cc2SMzdz.s 			page 2


  31:Middlewares/ST/STM32_USB_Device_Library/Class/MSC/Src/usbd_msc_scsi.c **** 
  32:Middlewares/ST/STM32_USB_Device_Library/Class/MSC/Src/usbd_msc_scsi.c **** /** @addtogroup STM32_USB_DEVICE_LIBRARY
  33:Middlewares/ST/STM32_USB_Device_Library/Class/MSC/Src/usbd_msc_scsi.c ****   * @{
  34:Middlewares/ST/STM32_USB_Device_Library/Class/MSC/Src/usbd_msc_scsi.c ****   */
  35:Middlewares/ST/STM32_USB_Device_Library/Class/MSC/Src/usbd_msc_scsi.c **** 
  36:Middlewares/ST/STM32_USB_Device_Library/Class/MSC/Src/usbd_msc_scsi.c **** 
  37:Middlewares/ST/STM32_USB_Device_Library/Class/MSC/Src/usbd_msc_scsi.c **** /** @defgroup MSC_SCSI
  38:Middlewares/ST/STM32_USB_Device_Library/Class/MSC/Src/usbd_msc_scsi.c ****   * @brief Mass storage SCSI layer module
  39:Middlewares/ST/STM32_USB_Device_Library/Class/MSC/Src/usbd_msc_scsi.c ****   * @{
  40:Middlewares/ST/STM32_USB_Device_Library/Class/MSC/Src/usbd_msc_scsi.c ****   */
  41:Middlewares/ST/STM32_USB_Device_Library/Class/MSC/Src/usbd_msc_scsi.c **** 
  42:Middlewares/ST/STM32_USB_Device_Library/Class/MSC/Src/usbd_msc_scsi.c **** /** @defgroup MSC_SCSI_Private_TypesDefinitions
  43:Middlewares/ST/STM32_USB_Device_Library/Class/MSC/Src/usbd_msc_scsi.c ****   * @{
  44:Middlewares/ST/STM32_USB_Device_Library/Class/MSC/Src/usbd_msc_scsi.c ****   */
  45:Middlewares/ST/STM32_USB_Device_Library/Class/MSC/Src/usbd_msc_scsi.c **** /**
  46:Middlewares/ST/STM32_USB_Device_Library/Class/MSC/Src/usbd_msc_scsi.c ****   * @}
  47:Middlewares/ST/STM32_USB_Device_Library/Class/MSC/Src/usbd_msc_scsi.c ****   */
  48:Middlewares/ST/STM32_USB_Device_Library/Class/MSC/Src/usbd_msc_scsi.c **** 
  49:Middlewares/ST/STM32_USB_Device_Library/Class/MSC/Src/usbd_msc_scsi.c **** 
  50:Middlewares/ST/STM32_USB_Device_Library/Class/MSC/Src/usbd_msc_scsi.c **** /** @defgroup MSC_SCSI_Private_Defines
  51:Middlewares/ST/STM32_USB_Device_Library/Class/MSC/Src/usbd_msc_scsi.c ****   * @{
  52:Middlewares/ST/STM32_USB_Device_Library/Class/MSC/Src/usbd_msc_scsi.c ****   */
  53:Middlewares/ST/STM32_USB_Device_Library/Class/MSC/Src/usbd_msc_scsi.c **** 
  54:Middlewares/ST/STM32_USB_Device_Library/Class/MSC/Src/usbd_msc_scsi.c **** /**
  55:Middlewares/ST/STM32_USB_Device_Library/Class/MSC/Src/usbd_msc_scsi.c ****   * @}
  56:Middlewares/ST/STM32_USB_Device_Library/Class/MSC/Src/usbd_msc_scsi.c ****   */
  57:Middlewares/ST/STM32_USB_Device_Library/Class/MSC/Src/usbd_msc_scsi.c **** 
  58:Middlewares/ST/STM32_USB_Device_Library/Class/MSC/Src/usbd_msc_scsi.c **** 
  59:Middlewares/ST/STM32_USB_Device_Library/Class/MSC/Src/usbd_msc_scsi.c **** /** @defgroup MSC_SCSI_Private_Macros
  60:Middlewares/ST/STM32_USB_Device_Library/Class/MSC/Src/usbd_msc_scsi.c ****   * @{
  61:Middlewares/ST/STM32_USB_Device_Library/Class/MSC/Src/usbd_msc_scsi.c ****   */
  62:Middlewares/ST/STM32_USB_Device_Library/Class/MSC/Src/usbd_msc_scsi.c **** /**
  63:Middlewares/ST/STM32_USB_Device_Library/Class/MSC/Src/usbd_msc_scsi.c ****   * @}
  64:Middlewares/ST/STM32_USB_Device_Library/Class/MSC/Src/usbd_msc_scsi.c ****   */
  65:Middlewares/ST/STM32_USB_Device_Library/Class/MSC/Src/usbd_msc_scsi.c **** 
  66:Middlewares/ST/STM32_USB_Device_Library/Class/MSC/Src/usbd_msc_scsi.c **** 
  67:Middlewares/ST/STM32_USB_Device_Library/Class/MSC/Src/usbd_msc_scsi.c **** /** @defgroup MSC_SCSI_Private_Variables
  68:Middlewares/ST/STM32_USB_Device_Library/Class/MSC/Src/usbd_msc_scsi.c ****   * @{
  69:Middlewares/ST/STM32_USB_Device_Library/Class/MSC/Src/usbd_msc_scsi.c ****   */
  70:Middlewares/ST/STM32_USB_Device_Library/Class/MSC/Src/usbd_msc_scsi.c **** extern uint8_t MSCInEpAdd;
  71:Middlewares/ST/STM32_USB_Device_Library/Class/MSC/Src/usbd_msc_scsi.c **** extern uint8_t MSCOutEpAdd;
  72:Middlewares/ST/STM32_USB_Device_Library/Class/MSC/Src/usbd_msc_scsi.c **** /**
  73:Middlewares/ST/STM32_USB_Device_Library/Class/MSC/Src/usbd_msc_scsi.c ****   * @}
  74:Middlewares/ST/STM32_USB_Device_Library/Class/MSC/Src/usbd_msc_scsi.c ****   */
  75:Middlewares/ST/STM32_USB_Device_Library/Class/MSC/Src/usbd_msc_scsi.c **** 
  76:Middlewares/ST/STM32_USB_Device_Library/Class/MSC/Src/usbd_msc_scsi.c **** 
  77:Middlewares/ST/STM32_USB_Device_Library/Class/MSC/Src/usbd_msc_scsi.c **** /** @defgroup MSC_SCSI_Private_FunctionPrototypes
  78:Middlewares/ST/STM32_USB_Device_Library/Class/MSC/Src/usbd_msc_scsi.c ****   * @{
  79:Middlewares/ST/STM32_USB_Device_Library/Class/MSC/Src/usbd_msc_scsi.c ****   */
  80:Middlewares/ST/STM32_USB_Device_Library/Class/MSC/Src/usbd_msc_scsi.c **** static int8_t SCSI_TestUnitReady(USBD_HandleTypeDef *pdev, uint8_t lun, uint8_t *params);
  81:Middlewares/ST/STM32_USB_Device_Library/Class/MSC/Src/usbd_msc_scsi.c **** static int8_t SCSI_Inquiry(USBD_HandleTypeDef *pdev, uint8_t lun, uint8_t *params);
  82:Middlewares/ST/STM32_USB_Device_Library/Class/MSC/Src/usbd_msc_scsi.c **** static int8_t SCSI_ReadFormatCapacity(USBD_HandleTypeDef *pdev, uint8_t lun, uint8_t *params);
  83:Middlewares/ST/STM32_USB_Device_Library/Class/MSC/Src/usbd_msc_scsi.c **** static int8_t SCSI_ReadCapacity10(USBD_HandleTypeDef *pdev, uint8_t lun, uint8_t *params);
  84:Middlewares/ST/STM32_USB_Device_Library/Class/MSC/Src/usbd_msc_scsi.c **** static int8_t SCSI_ReadCapacity16(USBD_HandleTypeDef *pdev, uint8_t lun, uint8_t *params);
  85:Middlewares/ST/STM32_USB_Device_Library/Class/MSC/Src/usbd_msc_scsi.c **** static int8_t SCSI_RequestSense(USBD_HandleTypeDef *pdev, uint8_t lun, uint8_t *params);
  86:Middlewares/ST/STM32_USB_Device_Library/Class/MSC/Src/usbd_msc_scsi.c **** static int8_t SCSI_StartStopUnit(USBD_HandleTypeDef *pdev, uint8_t lun, uint8_t *params);
  87:Middlewares/ST/STM32_USB_Device_Library/Class/MSC/Src/usbd_msc_scsi.c **** static int8_t SCSI_AllowPreventRemovable(USBD_HandleTypeDef *pdev, uint8_t lun, uint8_t *params);
ARM GAS  /tmp/cc2SMzdz.s 			page 3


  88:Middlewares/ST/STM32_USB_Device_Library/Class/MSC/Src/usbd_msc_scsi.c **** static int8_t SCSI_ModeSense6(USBD_HandleTypeDef *pdev, uint8_t lun, uint8_t *params);
  89:Middlewares/ST/STM32_USB_Device_Library/Class/MSC/Src/usbd_msc_scsi.c **** static int8_t SCSI_ModeSense10(USBD_HandleTypeDef *pdev, uint8_t lun, uint8_t *params);
  90:Middlewares/ST/STM32_USB_Device_Library/Class/MSC/Src/usbd_msc_scsi.c **** static int8_t SCSI_Write10(USBD_HandleTypeDef *pdev, uint8_t lun, uint8_t *params);
  91:Middlewares/ST/STM32_USB_Device_Library/Class/MSC/Src/usbd_msc_scsi.c **** static int8_t SCSI_Write12(USBD_HandleTypeDef *pdev, uint8_t lun, uint8_t *params);
  92:Middlewares/ST/STM32_USB_Device_Library/Class/MSC/Src/usbd_msc_scsi.c **** static int8_t SCSI_Read10(USBD_HandleTypeDef *pdev, uint8_t lun, uint8_t *params);
  93:Middlewares/ST/STM32_USB_Device_Library/Class/MSC/Src/usbd_msc_scsi.c **** static int8_t SCSI_Read12(USBD_HandleTypeDef *pdev, uint8_t lun, uint8_t *params);
  94:Middlewares/ST/STM32_USB_Device_Library/Class/MSC/Src/usbd_msc_scsi.c **** static int8_t SCSI_Verify10(USBD_HandleTypeDef *pdev, uint8_t lun, uint8_t *params);
  95:Middlewares/ST/STM32_USB_Device_Library/Class/MSC/Src/usbd_msc_scsi.c **** static int8_t SCSI_CheckAddressRange(USBD_HandleTypeDef *pdev, uint8_t lun,
  96:Middlewares/ST/STM32_USB_Device_Library/Class/MSC/Src/usbd_msc_scsi.c ****                                      uint32_t blk_offset, uint32_t blk_nbr);
  97:Middlewares/ST/STM32_USB_Device_Library/Class/MSC/Src/usbd_msc_scsi.c **** 
  98:Middlewares/ST/STM32_USB_Device_Library/Class/MSC/Src/usbd_msc_scsi.c **** static int8_t SCSI_ProcessRead(USBD_HandleTypeDef *pdev, uint8_t lun);
  99:Middlewares/ST/STM32_USB_Device_Library/Class/MSC/Src/usbd_msc_scsi.c **** static int8_t SCSI_ProcessWrite(USBD_HandleTypeDef *pdev, uint8_t lun);
 100:Middlewares/ST/STM32_USB_Device_Library/Class/MSC/Src/usbd_msc_scsi.c **** 
 101:Middlewares/ST/STM32_USB_Device_Library/Class/MSC/Src/usbd_msc_scsi.c **** static int8_t SCSI_UpdateBotData(USBD_MSC_BOT_HandleTypeDef *hmsc,
 102:Middlewares/ST/STM32_USB_Device_Library/Class/MSC/Src/usbd_msc_scsi.c ****                                  uint8_t *pBuff, uint16_t length);
 103:Middlewares/ST/STM32_USB_Device_Library/Class/MSC/Src/usbd_msc_scsi.c **** /**
 104:Middlewares/ST/STM32_USB_Device_Library/Class/MSC/Src/usbd_msc_scsi.c ****   * @}
 105:Middlewares/ST/STM32_USB_Device_Library/Class/MSC/Src/usbd_msc_scsi.c ****   */
 106:Middlewares/ST/STM32_USB_Device_Library/Class/MSC/Src/usbd_msc_scsi.c **** 
 107:Middlewares/ST/STM32_USB_Device_Library/Class/MSC/Src/usbd_msc_scsi.c **** 
 108:Middlewares/ST/STM32_USB_Device_Library/Class/MSC/Src/usbd_msc_scsi.c **** /** @defgroup MSC_SCSI_Private_Functions
 109:Middlewares/ST/STM32_USB_Device_Library/Class/MSC/Src/usbd_msc_scsi.c ****   * @{
 110:Middlewares/ST/STM32_USB_Device_Library/Class/MSC/Src/usbd_msc_scsi.c ****   */
 111:Middlewares/ST/STM32_USB_Device_Library/Class/MSC/Src/usbd_msc_scsi.c **** 
 112:Middlewares/ST/STM32_USB_Device_Library/Class/MSC/Src/usbd_msc_scsi.c **** 
 113:Middlewares/ST/STM32_USB_Device_Library/Class/MSC/Src/usbd_msc_scsi.c **** /**
 114:Middlewares/ST/STM32_USB_Device_Library/Class/MSC/Src/usbd_msc_scsi.c ****   * @brief  SCSI_ProcessCmd
 115:Middlewares/ST/STM32_USB_Device_Library/Class/MSC/Src/usbd_msc_scsi.c ****   *         Process SCSI commands
 116:Middlewares/ST/STM32_USB_Device_Library/Class/MSC/Src/usbd_msc_scsi.c ****   * @param  pdev: device instance
 117:Middlewares/ST/STM32_USB_Device_Library/Class/MSC/Src/usbd_msc_scsi.c ****   * @param  lun: Logical unit number
 118:Middlewares/ST/STM32_USB_Device_Library/Class/MSC/Src/usbd_msc_scsi.c ****   * @param  params: Command parameters
 119:Middlewares/ST/STM32_USB_Device_Library/Class/MSC/Src/usbd_msc_scsi.c ****   * @retval status
 120:Middlewares/ST/STM32_USB_Device_Library/Class/MSC/Src/usbd_msc_scsi.c ****   */
 121:Middlewares/ST/STM32_USB_Device_Library/Class/MSC/Src/usbd_msc_scsi.c **** int8_t SCSI_ProcessCmd(USBD_HandleTypeDef *pdev, uint8_t lun, uint8_t *cmd)
 122:Middlewares/ST/STM32_USB_Device_Library/Class/MSC/Src/usbd_msc_scsi.c **** {
 123:Middlewares/ST/STM32_USB_Device_Library/Class/MSC/Src/usbd_msc_scsi.c ****   int8_t ret;
 124:Middlewares/ST/STM32_USB_Device_Library/Class/MSC/Src/usbd_msc_scsi.c ****   USBD_MSC_BOT_HandleTypeDef *hmsc = (USBD_MSC_BOT_HandleTypeDef *)pdev->pClassDataCmsit[pdev->clas
 125:Middlewares/ST/STM32_USB_Device_Library/Class/MSC/Src/usbd_msc_scsi.c **** 
 126:Middlewares/ST/STM32_USB_Device_Library/Class/MSC/Src/usbd_msc_scsi.c ****   if (hmsc == NULL)
 127:Middlewares/ST/STM32_USB_Device_Library/Class/MSC/Src/usbd_msc_scsi.c ****   {
 128:Middlewares/ST/STM32_USB_Device_Library/Class/MSC/Src/usbd_msc_scsi.c ****     return -1;
 129:Middlewares/ST/STM32_USB_Device_Library/Class/MSC/Src/usbd_msc_scsi.c ****   }
 130:Middlewares/ST/STM32_USB_Device_Library/Class/MSC/Src/usbd_msc_scsi.c **** 
 131:Middlewares/ST/STM32_USB_Device_Library/Class/MSC/Src/usbd_msc_scsi.c ****   switch (cmd[0])
 132:Middlewares/ST/STM32_USB_Device_Library/Class/MSC/Src/usbd_msc_scsi.c ****   {
 133:Middlewares/ST/STM32_USB_Device_Library/Class/MSC/Src/usbd_msc_scsi.c ****     case SCSI_TEST_UNIT_READY:
 134:Middlewares/ST/STM32_USB_Device_Library/Class/MSC/Src/usbd_msc_scsi.c ****       ret = SCSI_TestUnitReady(pdev, lun, cmd);
 135:Middlewares/ST/STM32_USB_Device_Library/Class/MSC/Src/usbd_msc_scsi.c ****       break;
 136:Middlewares/ST/STM32_USB_Device_Library/Class/MSC/Src/usbd_msc_scsi.c **** 
 137:Middlewares/ST/STM32_USB_Device_Library/Class/MSC/Src/usbd_msc_scsi.c ****     case SCSI_REQUEST_SENSE:
 138:Middlewares/ST/STM32_USB_Device_Library/Class/MSC/Src/usbd_msc_scsi.c ****       ret = SCSI_RequestSense(pdev, lun, cmd);
 139:Middlewares/ST/STM32_USB_Device_Library/Class/MSC/Src/usbd_msc_scsi.c ****       break;
 140:Middlewares/ST/STM32_USB_Device_Library/Class/MSC/Src/usbd_msc_scsi.c **** 
 141:Middlewares/ST/STM32_USB_Device_Library/Class/MSC/Src/usbd_msc_scsi.c ****     case SCSI_INQUIRY:
 142:Middlewares/ST/STM32_USB_Device_Library/Class/MSC/Src/usbd_msc_scsi.c ****       ret = SCSI_Inquiry(pdev, lun, cmd);
 143:Middlewares/ST/STM32_USB_Device_Library/Class/MSC/Src/usbd_msc_scsi.c ****       break;
 144:Middlewares/ST/STM32_USB_Device_Library/Class/MSC/Src/usbd_msc_scsi.c **** 
ARM GAS  /tmp/cc2SMzdz.s 			page 4


 145:Middlewares/ST/STM32_USB_Device_Library/Class/MSC/Src/usbd_msc_scsi.c ****     case SCSI_START_STOP_UNIT:
 146:Middlewares/ST/STM32_USB_Device_Library/Class/MSC/Src/usbd_msc_scsi.c ****       ret = SCSI_StartStopUnit(pdev, lun, cmd);
 147:Middlewares/ST/STM32_USB_Device_Library/Class/MSC/Src/usbd_msc_scsi.c ****       break;
 148:Middlewares/ST/STM32_USB_Device_Library/Class/MSC/Src/usbd_msc_scsi.c **** 
 149:Middlewares/ST/STM32_USB_Device_Library/Class/MSC/Src/usbd_msc_scsi.c ****     case SCSI_ALLOW_MEDIUM_REMOVAL:
 150:Middlewares/ST/STM32_USB_Device_Library/Class/MSC/Src/usbd_msc_scsi.c ****       ret = SCSI_AllowPreventRemovable(pdev, lun, cmd);
 151:Middlewares/ST/STM32_USB_Device_Library/Class/MSC/Src/usbd_msc_scsi.c ****       break;
 152:Middlewares/ST/STM32_USB_Device_Library/Class/MSC/Src/usbd_msc_scsi.c **** 
 153:Middlewares/ST/STM32_USB_Device_Library/Class/MSC/Src/usbd_msc_scsi.c ****     case SCSI_MODE_SENSE6:
 154:Middlewares/ST/STM32_USB_Device_Library/Class/MSC/Src/usbd_msc_scsi.c ****       ret = SCSI_ModeSense6(pdev, lun, cmd);
 155:Middlewares/ST/STM32_USB_Device_Library/Class/MSC/Src/usbd_msc_scsi.c ****       break;
 156:Middlewares/ST/STM32_USB_Device_Library/Class/MSC/Src/usbd_msc_scsi.c **** 
 157:Middlewares/ST/STM32_USB_Device_Library/Class/MSC/Src/usbd_msc_scsi.c ****     case SCSI_MODE_SENSE10:
 158:Middlewares/ST/STM32_USB_Device_Library/Class/MSC/Src/usbd_msc_scsi.c ****       ret = SCSI_ModeSense10(pdev, lun, cmd);
 159:Middlewares/ST/STM32_USB_Device_Library/Class/MSC/Src/usbd_msc_scsi.c ****       break;
 160:Middlewares/ST/STM32_USB_Device_Library/Class/MSC/Src/usbd_msc_scsi.c **** 
 161:Middlewares/ST/STM32_USB_Device_Library/Class/MSC/Src/usbd_msc_scsi.c ****     case SCSI_READ_FORMAT_CAPACITIES:
 162:Middlewares/ST/STM32_USB_Device_Library/Class/MSC/Src/usbd_msc_scsi.c ****       ret = SCSI_ReadFormatCapacity(pdev, lun, cmd);
 163:Middlewares/ST/STM32_USB_Device_Library/Class/MSC/Src/usbd_msc_scsi.c ****       break;
 164:Middlewares/ST/STM32_USB_Device_Library/Class/MSC/Src/usbd_msc_scsi.c **** 
 165:Middlewares/ST/STM32_USB_Device_Library/Class/MSC/Src/usbd_msc_scsi.c ****     case SCSI_READ_CAPACITY10:
 166:Middlewares/ST/STM32_USB_Device_Library/Class/MSC/Src/usbd_msc_scsi.c ****       ret = SCSI_ReadCapacity10(pdev, lun, cmd);
 167:Middlewares/ST/STM32_USB_Device_Library/Class/MSC/Src/usbd_msc_scsi.c ****       break;
 168:Middlewares/ST/STM32_USB_Device_Library/Class/MSC/Src/usbd_msc_scsi.c **** 
 169:Middlewares/ST/STM32_USB_Device_Library/Class/MSC/Src/usbd_msc_scsi.c ****     case SCSI_READ_CAPACITY16:
 170:Middlewares/ST/STM32_USB_Device_Library/Class/MSC/Src/usbd_msc_scsi.c ****       ret = SCSI_ReadCapacity16(pdev, lun, cmd);
 171:Middlewares/ST/STM32_USB_Device_Library/Class/MSC/Src/usbd_msc_scsi.c ****       break;
 172:Middlewares/ST/STM32_USB_Device_Library/Class/MSC/Src/usbd_msc_scsi.c **** 
 173:Middlewares/ST/STM32_USB_Device_Library/Class/MSC/Src/usbd_msc_scsi.c ****     case SCSI_READ10:
 174:Middlewares/ST/STM32_USB_Device_Library/Class/MSC/Src/usbd_msc_scsi.c ****       ret = SCSI_Read10(pdev, lun, cmd);
 175:Middlewares/ST/STM32_USB_Device_Library/Class/MSC/Src/usbd_msc_scsi.c ****       break;
 176:Middlewares/ST/STM32_USB_Device_Library/Class/MSC/Src/usbd_msc_scsi.c **** 
 177:Middlewares/ST/STM32_USB_Device_Library/Class/MSC/Src/usbd_msc_scsi.c ****     case SCSI_READ12:
 178:Middlewares/ST/STM32_USB_Device_Library/Class/MSC/Src/usbd_msc_scsi.c ****       ret = SCSI_Read12(pdev, lun, cmd);
 179:Middlewares/ST/STM32_USB_Device_Library/Class/MSC/Src/usbd_msc_scsi.c ****       break;
 180:Middlewares/ST/STM32_USB_Device_Library/Class/MSC/Src/usbd_msc_scsi.c **** 
 181:Middlewares/ST/STM32_USB_Device_Library/Class/MSC/Src/usbd_msc_scsi.c ****     case SCSI_WRITE10:
 182:Middlewares/ST/STM32_USB_Device_Library/Class/MSC/Src/usbd_msc_scsi.c ****       ret = SCSI_Write10(pdev, lun, cmd);
 183:Middlewares/ST/STM32_USB_Device_Library/Class/MSC/Src/usbd_msc_scsi.c ****       break;
 184:Middlewares/ST/STM32_USB_Device_Library/Class/MSC/Src/usbd_msc_scsi.c **** 
 185:Middlewares/ST/STM32_USB_Device_Library/Class/MSC/Src/usbd_msc_scsi.c ****     case SCSI_WRITE12:
 186:Middlewares/ST/STM32_USB_Device_Library/Class/MSC/Src/usbd_msc_scsi.c ****       ret = SCSI_Write12(pdev, lun, cmd);
 187:Middlewares/ST/STM32_USB_Device_Library/Class/MSC/Src/usbd_msc_scsi.c ****       break;
 188:Middlewares/ST/STM32_USB_Device_Library/Class/MSC/Src/usbd_msc_scsi.c **** 
 189:Middlewares/ST/STM32_USB_Device_Library/Class/MSC/Src/usbd_msc_scsi.c ****     case SCSI_VERIFY10:
 190:Middlewares/ST/STM32_USB_Device_Library/Class/MSC/Src/usbd_msc_scsi.c ****       ret = SCSI_Verify10(pdev, lun, cmd);
 191:Middlewares/ST/STM32_USB_Device_Library/Class/MSC/Src/usbd_msc_scsi.c ****       break;
 192:Middlewares/ST/STM32_USB_Device_Library/Class/MSC/Src/usbd_msc_scsi.c **** 
 193:Middlewares/ST/STM32_USB_Device_Library/Class/MSC/Src/usbd_msc_scsi.c ****     default:
 194:Middlewares/ST/STM32_USB_Device_Library/Class/MSC/Src/usbd_msc_scsi.c ****       SCSI_SenseCode(pdev, lun, ILLEGAL_REQUEST, INVALID_CDB);
 195:Middlewares/ST/STM32_USB_Device_Library/Class/MSC/Src/usbd_msc_scsi.c ****       hmsc->bot_status = USBD_BOT_STATUS_ERROR;
 196:Middlewares/ST/STM32_USB_Device_Library/Class/MSC/Src/usbd_msc_scsi.c ****       ret = -1;
 197:Middlewares/ST/STM32_USB_Device_Library/Class/MSC/Src/usbd_msc_scsi.c ****       break;
 198:Middlewares/ST/STM32_USB_Device_Library/Class/MSC/Src/usbd_msc_scsi.c ****   }
 199:Middlewares/ST/STM32_USB_Device_Library/Class/MSC/Src/usbd_msc_scsi.c **** 
 200:Middlewares/ST/STM32_USB_Device_Library/Class/MSC/Src/usbd_msc_scsi.c ****   return ret;
 201:Middlewares/ST/STM32_USB_Device_Library/Class/MSC/Src/usbd_msc_scsi.c **** }
ARM GAS  /tmp/cc2SMzdz.s 			page 5


 202:Middlewares/ST/STM32_USB_Device_Library/Class/MSC/Src/usbd_msc_scsi.c **** 
 203:Middlewares/ST/STM32_USB_Device_Library/Class/MSC/Src/usbd_msc_scsi.c **** 
 204:Middlewares/ST/STM32_USB_Device_Library/Class/MSC/Src/usbd_msc_scsi.c **** /**
 205:Middlewares/ST/STM32_USB_Device_Library/Class/MSC/Src/usbd_msc_scsi.c ****   * @brief  SCSI_TestUnitReady
 206:Middlewares/ST/STM32_USB_Device_Library/Class/MSC/Src/usbd_msc_scsi.c ****   *         Process SCSI Test Unit Ready Command
 207:Middlewares/ST/STM32_USB_Device_Library/Class/MSC/Src/usbd_msc_scsi.c ****   * @param  lun: Logical unit number
 208:Middlewares/ST/STM32_USB_Device_Library/Class/MSC/Src/usbd_msc_scsi.c ****   * @param  params: Command parameters
 209:Middlewares/ST/STM32_USB_Device_Library/Class/MSC/Src/usbd_msc_scsi.c ****   * @retval status
 210:Middlewares/ST/STM32_USB_Device_Library/Class/MSC/Src/usbd_msc_scsi.c ****   */
 211:Middlewares/ST/STM32_USB_Device_Library/Class/MSC/Src/usbd_msc_scsi.c **** static int8_t SCSI_TestUnitReady(USBD_HandleTypeDef *pdev, uint8_t lun, uint8_t *params)
 212:Middlewares/ST/STM32_USB_Device_Library/Class/MSC/Src/usbd_msc_scsi.c **** {
 213:Middlewares/ST/STM32_USB_Device_Library/Class/MSC/Src/usbd_msc_scsi.c ****   UNUSED(params);
 214:Middlewares/ST/STM32_USB_Device_Library/Class/MSC/Src/usbd_msc_scsi.c ****   USBD_MSC_BOT_HandleTypeDef *hmsc = (USBD_MSC_BOT_HandleTypeDef *)pdev->pClassDataCmsit[pdev->clas
 215:Middlewares/ST/STM32_USB_Device_Library/Class/MSC/Src/usbd_msc_scsi.c **** 
 216:Middlewares/ST/STM32_USB_Device_Library/Class/MSC/Src/usbd_msc_scsi.c ****   if (hmsc == NULL)
 217:Middlewares/ST/STM32_USB_Device_Library/Class/MSC/Src/usbd_msc_scsi.c ****   {
 218:Middlewares/ST/STM32_USB_Device_Library/Class/MSC/Src/usbd_msc_scsi.c ****     return -1;
 219:Middlewares/ST/STM32_USB_Device_Library/Class/MSC/Src/usbd_msc_scsi.c ****   }
 220:Middlewares/ST/STM32_USB_Device_Library/Class/MSC/Src/usbd_msc_scsi.c **** 
 221:Middlewares/ST/STM32_USB_Device_Library/Class/MSC/Src/usbd_msc_scsi.c ****   /* case 9 : Hi > D0 */
 222:Middlewares/ST/STM32_USB_Device_Library/Class/MSC/Src/usbd_msc_scsi.c ****   if (hmsc->cbw.dDataLength != 0U)
 223:Middlewares/ST/STM32_USB_Device_Library/Class/MSC/Src/usbd_msc_scsi.c ****   {
 224:Middlewares/ST/STM32_USB_Device_Library/Class/MSC/Src/usbd_msc_scsi.c ****     SCSI_SenseCode(pdev, hmsc->cbw.bLUN, ILLEGAL_REQUEST, INVALID_CDB);
 225:Middlewares/ST/STM32_USB_Device_Library/Class/MSC/Src/usbd_msc_scsi.c **** 
 226:Middlewares/ST/STM32_USB_Device_Library/Class/MSC/Src/usbd_msc_scsi.c ****     return -1;
 227:Middlewares/ST/STM32_USB_Device_Library/Class/MSC/Src/usbd_msc_scsi.c ****   }
 228:Middlewares/ST/STM32_USB_Device_Library/Class/MSC/Src/usbd_msc_scsi.c **** 
 229:Middlewares/ST/STM32_USB_Device_Library/Class/MSC/Src/usbd_msc_scsi.c ****   if (hmsc->scsi_medium_state == SCSI_MEDIUM_EJECTED)
 230:Middlewares/ST/STM32_USB_Device_Library/Class/MSC/Src/usbd_msc_scsi.c ****   {
 231:Middlewares/ST/STM32_USB_Device_Library/Class/MSC/Src/usbd_msc_scsi.c ****     SCSI_SenseCode(pdev, lun, NOT_READY, MEDIUM_NOT_PRESENT);
 232:Middlewares/ST/STM32_USB_Device_Library/Class/MSC/Src/usbd_msc_scsi.c ****     hmsc->bot_state = USBD_BOT_NO_DATA;
 233:Middlewares/ST/STM32_USB_Device_Library/Class/MSC/Src/usbd_msc_scsi.c ****     return -1;
 234:Middlewares/ST/STM32_USB_Device_Library/Class/MSC/Src/usbd_msc_scsi.c ****   }
 235:Middlewares/ST/STM32_USB_Device_Library/Class/MSC/Src/usbd_msc_scsi.c **** 
 236:Middlewares/ST/STM32_USB_Device_Library/Class/MSC/Src/usbd_msc_scsi.c ****   if (((USBD_StorageTypeDef *)pdev->pUserData[pdev->classId])->IsReady(lun) != 0)
 237:Middlewares/ST/STM32_USB_Device_Library/Class/MSC/Src/usbd_msc_scsi.c ****   {
 238:Middlewares/ST/STM32_USB_Device_Library/Class/MSC/Src/usbd_msc_scsi.c ****     SCSI_SenseCode(pdev, lun, NOT_READY, MEDIUM_NOT_PRESENT);
 239:Middlewares/ST/STM32_USB_Device_Library/Class/MSC/Src/usbd_msc_scsi.c ****     hmsc->bot_state = USBD_BOT_NO_DATA;
 240:Middlewares/ST/STM32_USB_Device_Library/Class/MSC/Src/usbd_msc_scsi.c **** 
 241:Middlewares/ST/STM32_USB_Device_Library/Class/MSC/Src/usbd_msc_scsi.c ****     return -1;
 242:Middlewares/ST/STM32_USB_Device_Library/Class/MSC/Src/usbd_msc_scsi.c ****   }
 243:Middlewares/ST/STM32_USB_Device_Library/Class/MSC/Src/usbd_msc_scsi.c ****   hmsc->bot_data_length = 0U;
 244:Middlewares/ST/STM32_USB_Device_Library/Class/MSC/Src/usbd_msc_scsi.c **** 
 245:Middlewares/ST/STM32_USB_Device_Library/Class/MSC/Src/usbd_msc_scsi.c ****   return 0;
 246:Middlewares/ST/STM32_USB_Device_Library/Class/MSC/Src/usbd_msc_scsi.c **** }
 247:Middlewares/ST/STM32_USB_Device_Library/Class/MSC/Src/usbd_msc_scsi.c **** 
 248:Middlewares/ST/STM32_USB_Device_Library/Class/MSC/Src/usbd_msc_scsi.c **** 
 249:Middlewares/ST/STM32_USB_Device_Library/Class/MSC/Src/usbd_msc_scsi.c **** /**
 250:Middlewares/ST/STM32_USB_Device_Library/Class/MSC/Src/usbd_msc_scsi.c ****   * @brief  SCSI_Inquiry
 251:Middlewares/ST/STM32_USB_Device_Library/Class/MSC/Src/usbd_msc_scsi.c ****   *         Process Inquiry command
 252:Middlewares/ST/STM32_USB_Device_Library/Class/MSC/Src/usbd_msc_scsi.c ****   * @param  lun: Logical unit number
 253:Middlewares/ST/STM32_USB_Device_Library/Class/MSC/Src/usbd_msc_scsi.c ****   * @param  params: Command parameters
 254:Middlewares/ST/STM32_USB_Device_Library/Class/MSC/Src/usbd_msc_scsi.c ****   * @retval status
 255:Middlewares/ST/STM32_USB_Device_Library/Class/MSC/Src/usbd_msc_scsi.c ****   */
 256:Middlewares/ST/STM32_USB_Device_Library/Class/MSC/Src/usbd_msc_scsi.c **** static int8_t SCSI_Inquiry(USBD_HandleTypeDef *pdev, uint8_t lun, uint8_t *params)
 257:Middlewares/ST/STM32_USB_Device_Library/Class/MSC/Src/usbd_msc_scsi.c **** {
 258:Middlewares/ST/STM32_USB_Device_Library/Class/MSC/Src/usbd_msc_scsi.c ****   uint8_t *pPage;
ARM GAS  /tmp/cc2SMzdz.s 			page 6


 259:Middlewares/ST/STM32_USB_Device_Library/Class/MSC/Src/usbd_msc_scsi.c ****   uint16_t len;
 260:Middlewares/ST/STM32_USB_Device_Library/Class/MSC/Src/usbd_msc_scsi.c ****   USBD_MSC_BOT_HandleTypeDef *hmsc = (USBD_MSC_BOT_HandleTypeDef *)pdev->pClassDataCmsit[pdev->clas
 261:Middlewares/ST/STM32_USB_Device_Library/Class/MSC/Src/usbd_msc_scsi.c **** 
 262:Middlewares/ST/STM32_USB_Device_Library/Class/MSC/Src/usbd_msc_scsi.c ****   if (hmsc == NULL)
 263:Middlewares/ST/STM32_USB_Device_Library/Class/MSC/Src/usbd_msc_scsi.c ****   {
 264:Middlewares/ST/STM32_USB_Device_Library/Class/MSC/Src/usbd_msc_scsi.c ****     return -1;
 265:Middlewares/ST/STM32_USB_Device_Library/Class/MSC/Src/usbd_msc_scsi.c ****   }
 266:Middlewares/ST/STM32_USB_Device_Library/Class/MSC/Src/usbd_msc_scsi.c **** 
 267:Middlewares/ST/STM32_USB_Device_Library/Class/MSC/Src/usbd_msc_scsi.c ****   if (hmsc->cbw.dDataLength == 0U)
 268:Middlewares/ST/STM32_USB_Device_Library/Class/MSC/Src/usbd_msc_scsi.c ****   {
 269:Middlewares/ST/STM32_USB_Device_Library/Class/MSC/Src/usbd_msc_scsi.c ****     SCSI_SenseCode(pdev, hmsc->cbw.bLUN, ILLEGAL_REQUEST, INVALID_CDB);
 270:Middlewares/ST/STM32_USB_Device_Library/Class/MSC/Src/usbd_msc_scsi.c ****     return -1;
 271:Middlewares/ST/STM32_USB_Device_Library/Class/MSC/Src/usbd_msc_scsi.c ****   }
 272:Middlewares/ST/STM32_USB_Device_Library/Class/MSC/Src/usbd_msc_scsi.c **** 
 273:Middlewares/ST/STM32_USB_Device_Library/Class/MSC/Src/usbd_msc_scsi.c ****   if ((params[1] & 0x01U) != 0U) /* Evpd is set */
 274:Middlewares/ST/STM32_USB_Device_Library/Class/MSC/Src/usbd_msc_scsi.c ****   {
 275:Middlewares/ST/STM32_USB_Device_Library/Class/MSC/Src/usbd_msc_scsi.c ****     if (params[2] == 0U) /* Request for Supported Vital Product Data Pages*/
 276:Middlewares/ST/STM32_USB_Device_Library/Class/MSC/Src/usbd_msc_scsi.c ****     {
 277:Middlewares/ST/STM32_USB_Device_Library/Class/MSC/Src/usbd_msc_scsi.c ****       (void)SCSI_UpdateBotData(hmsc, MSC_Page00_Inquiry_Data, LENGTH_INQUIRY_PAGE00);
 278:Middlewares/ST/STM32_USB_Device_Library/Class/MSC/Src/usbd_msc_scsi.c ****     }
 279:Middlewares/ST/STM32_USB_Device_Library/Class/MSC/Src/usbd_msc_scsi.c ****     else if (params[2] == 0x80U) /* Request for VPD page 0x80 Unit Serial Number */
 280:Middlewares/ST/STM32_USB_Device_Library/Class/MSC/Src/usbd_msc_scsi.c ****     {
 281:Middlewares/ST/STM32_USB_Device_Library/Class/MSC/Src/usbd_msc_scsi.c ****       (void)SCSI_UpdateBotData(hmsc, MSC_Page80_Inquiry_Data, LENGTH_INQUIRY_PAGE80);
 282:Middlewares/ST/STM32_USB_Device_Library/Class/MSC/Src/usbd_msc_scsi.c ****     }
 283:Middlewares/ST/STM32_USB_Device_Library/Class/MSC/Src/usbd_msc_scsi.c ****     else /* Request Not supported */
 284:Middlewares/ST/STM32_USB_Device_Library/Class/MSC/Src/usbd_msc_scsi.c ****     {
 285:Middlewares/ST/STM32_USB_Device_Library/Class/MSC/Src/usbd_msc_scsi.c ****       SCSI_SenseCode(pdev, hmsc->cbw.bLUN, ILLEGAL_REQUEST,
 286:Middlewares/ST/STM32_USB_Device_Library/Class/MSC/Src/usbd_msc_scsi.c ****                      INVALID_FIELED_IN_COMMAND);
 287:Middlewares/ST/STM32_USB_Device_Library/Class/MSC/Src/usbd_msc_scsi.c **** 
 288:Middlewares/ST/STM32_USB_Device_Library/Class/MSC/Src/usbd_msc_scsi.c ****       return -1;
 289:Middlewares/ST/STM32_USB_Device_Library/Class/MSC/Src/usbd_msc_scsi.c ****     }
 290:Middlewares/ST/STM32_USB_Device_Library/Class/MSC/Src/usbd_msc_scsi.c ****   }
 291:Middlewares/ST/STM32_USB_Device_Library/Class/MSC/Src/usbd_msc_scsi.c ****   else
 292:Middlewares/ST/STM32_USB_Device_Library/Class/MSC/Src/usbd_msc_scsi.c ****   {
 293:Middlewares/ST/STM32_USB_Device_Library/Class/MSC/Src/usbd_msc_scsi.c **** 
 294:Middlewares/ST/STM32_USB_Device_Library/Class/MSC/Src/usbd_msc_scsi.c ****     pPage = (uint8_t *) & ((USBD_StorageTypeDef *)pdev->pUserData[pdev->classId]) \
 295:Middlewares/ST/STM32_USB_Device_Library/Class/MSC/Src/usbd_msc_scsi.c ****             ->pInquiry[lun * STANDARD_INQUIRY_DATA_LEN];
 296:Middlewares/ST/STM32_USB_Device_Library/Class/MSC/Src/usbd_msc_scsi.c ****     len = (uint16_t)pPage[4] + 5U;
 297:Middlewares/ST/STM32_USB_Device_Library/Class/MSC/Src/usbd_msc_scsi.c **** 
 298:Middlewares/ST/STM32_USB_Device_Library/Class/MSC/Src/usbd_msc_scsi.c ****     if (params[4] <= len)
 299:Middlewares/ST/STM32_USB_Device_Library/Class/MSC/Src/usbd_msc_scsi.c ****     {
 300:Middlewares/ST/STM32_USB_Device_Library/Class/MSC/Src/usbd_msc_scsi.c ****       len = params[4];
 301:Middlewares/ST/STM32_USB_Device_Library/Class/MSC/Src/usbd_msc_scsi.c ****     }
 302:Middlewares/ST/STM32_USB_Device_Library/Class/MSC/Src/usbd_msc_scsi.c **** 
 303:Middlewares/ST/STM32_USB_Device_Library/Class/MSC/Src/usbd_msc_scsi.c ****     (void)SCSI_UpdateBotData(hmsc, pPage, len);
 304:Middlewares/ST/STM32_USB_Device_Library/Class/MSC/Src/usbd_msc_scsi.c ****   }
 305:Middlewares/ST/STM32_USB_Device_Library/Class/MSC/Src/usbd_msc_scsi.c **** 
 306:Middlewares/ST/STM32_USB_Device_Library/Class/MSC/Src/usbd_msc_scsi.c ****   return 0;
 307:Middlewares/ST/STM32_USB_Device_Library/Class/MSC/Src/usbd_msc_scsi.c **** }
 308:Middlewares/ST/STM32_USB_Device_Library/Class/MSC/Src/usbd_msc_scsi.c **** 
 309:Middlewares/ST/STM32_USB_Device_Library/Class/MSC/Src/usbd_msc_scsi.c **** 
 310:Middlewares/ST/STM32_USB_Device_Library/Class/MSC/Src/usbd_msc_scsi.c **** /**
 311:Middlewares/ST/STM32_USB_Device_Library/Class/MSC/Src/usbd_msc_scsi.c ****   * @brief  SCSI_ReadCapacity10
 312:Middlewares/ST/STM32_USB_Device_Library/Class/MSC/Src/usbd_msc_scsi.c ****   *         Process Read Capacity 10 command
 313:Middlewares/ST/STM32_USB_Device_Library/Class/MSC/Src/usbd_msc_scsi.c ****   * @param  lun: Logical unit number
 314:Middlewares/ST/STM32_USB_Device_Library/Class/MSC/Src/usbd_msc_scsi.c ****   * @param  params: Command parameters
 315:Middlewares/ST/STM32_USB_Device_Library/Class/MSC/Src/usbd_msc_scsi.c ****   * @retval status
ARM GAS  /tmp/cc2SMzdz.s 			page 7


 316:Middlewares/ST/STM32_USB_Device_Library/Class/MSC/Src/usbd_msc_scsi.c ****   */
 317:Middlewares/ST/STM32_USB_Device_Library/Class/MSC/Src/usbd_msc_scsi.c **** static int8_t SCSI_ReadCapacity10(USBD_HandleTypeDef *pdev, uint8_t lun, uint8_t *params)
 318:Middlewares/ST/STM32_USB_Device_Library/Class/MSC/Src/usbd_msc_scsi.c **** {
 319:Middlewares/ST/STM32_USB_Device_Library/Class/MSC/Src/usbd_msc_scsi.c ****   UNUSED(params);
 320:Middlewares/ST/STM32_USB_Device_Library/Class/MSC/Src/usbd_msc_scsi.c ****   int8_t ret;
 321:Middlewares/ST/STM32_USB_Device_Library/Class/MSC/Src/usbd_msc_scsi.c ****   USBD_MSC_BOT_HandleTypeDef *hmsc = (USBD_MSC_BOT_HandleTypeDef *)pdev->pClassDataCmsit[pdev->clas
 322:Middlewares/ST/STM32_USB_Device_Library/Class/MSC/Src/usbd_msc_scsi.c **** 
 323:Middlewares/ST/STM32_USB_Device_Library/Class/MSC/Src/usbd_msc_scsi.c ****   if (hmsc == NULL)
 324:Middlewares/ST/STM32_USB_Device_Library/Class/MSC/Src/usbd_msc_scsi.c ****   {
 325:Middlewares/ST/STM32_USB_Device_Library/Class/MSC/Src/usbd_msc_scsi.c ****     return -1;
 326:Middlewares/ST/STM32_USB_Device_Library/Class/MSC/Src/usbd_msc_scsi.c ****   }
 327:Middlewares/ST/STM32_USB_Device_Library/Class/MSC/Src/usbd_msc_scsi.c **** 
 328:Middlewares/ST/STM32_USB_Device_Library/Class/MSC/Src/usbd_msc_scsi.c ****   ret = ((USBD_StorageTypeDef *)pdev->pUserData[pdev->classId])->GetCapacity(lun, &hmsc->scsi_blk_n
 329:Middlewares/ST/STM32_USB_Device_Library/Class/MSC/Src/usbd_msc_scsi.c ****                                                                              &hmsc->scsi_blk_size);
 330:Middlewares/ST/STM32_USB_Device_Library/Class/MSC/Src/usbd_msc_scsi.c **** 
 331:Middlewares/ST/STM32_USB_Device_Library/Class/MSC/Src/usbd_msc_scsi.c ****   if ((ret != 0) || (hmsc->scsi_medium_state == SCSI_MEDIUM_EJECTED))
 332:Middlewares/ST/STM32_USB_Device_Library/Class/MSC/Src/usbd_msc_scsi.c ****   {
 333:Middlewares/ST/STM32_USB_Device_Library/Class/MSC/Src/usbd_msc_scsi.c ****     SCSI_SenseCode(pdev, lun, NOT_READY, MEDIUM_NOT_PRESENT);
 334:Middlewares/ST/STM32_USB_Device_Library/Class/MSC/Src/usbd_msc_scsi.c ****     return -1;
 335:Middlewares/ST/STM32_USB_Device_Library/Class/MSC/Src/usbd_msc_scsi.c ****   }
 336:Middlewares/ST/STM32_USB_Device_Library/Class/MSC/Src/usbd_msc_scsi.c **** 
 337:Middlewares/ST/STM32_USB_Device_Library/Class/MSC/Src/usbd_msc_scsi.c ****   hmsc->bot_data[0] = (uint8_t)((hmsc->scsi_blk_nbr - 1U) >> 24);
 338:Middlewares/ST/STM32_USB_Device_Library/Class/MSC/Src/usbd_msc_scsi.c ****   hmsc->bot_data[1] = (uint8_t)((hmsc->scsi_blk_nbr - 1U) >> 16);
 339:Middlewares/ST/STM32_USB_Device_Library/Class/MSC/Src/usbd_msc_scsi.c ****   hmsc->bot_data[2] = (uint8_t)((hmsc->scsi_blk_nbr - 1U) >>  8);
 340:Middlewares/ST/STM32_USB_Device_Library/Class/MSC/Src/usbd_msc_scsi.c ****   hmsc->bot_data[3] = (uint8_t)(hmsc->scsi_blk_nbr - 1U);
 341:Middlewares/ST/STM32_USB_Device_Library/Class/MSC/Src/usbd_msc_scsi.c **** 
 342:Middlewares/ST/STM32_USB_Device_Library/Class/MSC/Src/usbd_msc_scsi.c ****   hmsc->bot_data[4] = (uint8_t)(hmsc->scsi_blk_size >>  24);
 343:Middlewares/ST/STM32_USB_Device_Library/Class/MSC/Src/usbd_msc_scsi.c ****   hmsc->bot_data[5] = (uint8_t)(hmsc->scsi_blk_size >>  16);
 344:Middlewares/ST/STM32_USB_Device_Library/Class/MSC/Src/usbd_msc_scsi.c ****   hmsc->bot_data[6] = (uint8_t)(hmsc->scsi_blk_size >>  8);
 345:Middlewares/ST/STM32_USB_Device_Library/Class/MSC/Src/usbd_msc_scsi.c ****   hmsc->bot_data[7] = (uint8_t)(hmsc->scsi_blk_size);
 346:Middlewares/ST/STM32_USB_Device_Library/Class/MSC/Src/usbd_msc_scsi.c **** 
 347:Middlewares/ST/STM32_USB_Device_Library/Class/MSC/Src/usbd_msc_scsi.c ****   hmsc->bot_data_length = 8U;
 348:Middlewares/ST/STM32_USB_Device_Library/Class/MSC/Src/usbd_msc_scsi.c **** 
 349:Middlewares/ST/STM32_USB_Device_Library/Class/MSC/Src/usbd_msc_scsi.c ****   return 0;
 350:Middlewares/ST/STM32_USB_Device_Library/Class/MSC/Src/usbd_msc_scsi.c **** 
 351:Middlewares/ST/STM32_USB_Device_Library/Class/MSC/Src/usbd_msc_scsi.c **** }
 352:Middlewares/ST/STM32_USB_Device_Library/Class/MSC/Src/usbd_msc_scsi.c **** 
 353:Middlewares/ST/STM32_USB_Device_Library/Class/MSC/Src/usbd_msc_scsi.c **** 
 354:Middlewares/ST/STM32_USB_Device_Library/Class/MSC/Src/usbd_msc_scsi.c **** /**
 355:Middlewares/ST/STM32_USB_Device_Library/Class/MSC/Src/usbd_msc_scsi.c ****   * @brief  SCSI_ReadCapacity16
 356:Middlewares/ST/STM32_USB_Device_Library/Class/MSC/Src/usbd_msc_scsi.c ****   *         Process Read Capacity 16 command
 357:Middlewares/ST/STM32_USB_Device_Library/Class/MSC/Src/usbd_msc_scsi.c ****   * @param  lun: Logical unit number
 358:Middlewares/ST/STM32_USB_Device_Library/Class/MSC/Src/usbd_msc_scsi.c ****   * @param  params: Command parameters
 359:Middlewares/ST/STM32_USB_Device_Library/Class/MSC/Src/usbd_msc_scsi.c ****   * @retval status
 360:Middlewares/ST/STM32_USB_Device_Library/Class/MSC/Src/usbd_msc_scsi.c ****   */
 361:Middlewares/ST/STM32_USB_Device_Library/Class/MSC/Src/usbd_msc_scsi.c **** static int8_t SCSI_ReadCapacity16(USBD_HandleTypeDef *pdev, uint8_t lun, uint8_t *params)
 362:Middlewares/ST/STM32_USB_Device_Library/Class/MSC/Src/usbd_msc_scsi.c **** {
 363:Middlewares/ST/STM32_USB_Device_Library/Class/MSC/Src/usbd_msc_scsi.c ****   UNUSED(params);
 364:Middlewares/ST/STM32_USB_Device_Library/Class/MSC/Src/usbd_msc_scsi.c ****   uint32_t idx;
 365:Middlewares/ST/STM32_USB_Device_Library/Class/MSC/Src/usbd_msc_scsi.c ****   int8_t ret;
 366:Middlewares/ST/STM32_USB_Device_Library/Class/MSC/Src/usbd_msc_scsi.c ****   USBD_MSC_BOT_HandleTypeDef *hmsc = (USBD_MSC_BOT_HandleTypeDef *)pdev->pClassDataCmsit[pdev->clas
 367:Middlewares/ST/STM32_USB_Device_Library/Class/MSC/Src/usbd_msc_scsi.c **** 
 368:Middlewares/ST/STM32_USB_Device_Library/Class/MSC/Src/usbd_msc_scsi.c ****   if (hmsc == NULL)
 369:Middlewares/ST/STM32_USB_Device_Library/Class/MSC/Src/usbd_msc_scsi.c ****   {
 370:Middlewares/ST/STM32_USB_Device_Library/Class/MSC/Src/usbd_msc_scsi.c ****     return -1;
 371:Middlewares/ST/STM32_USB_Device_Library/Class/MSC/Src/usbd_msc_scsi.c ****   }
 372:Middlewares/ST/STM32_USB_Device_Library/Class/MSC/Src/usbd_msc_scsi.c **** 
ARM GAS  /tmp/cc2SMzdz.s 			page 8


 373:Middlewares/ST/STM32_USB_Device_Library/Class/MSC/Src/usbd_msc_scsi.c ****   ret = ((USBD_StorageTypeDef *)pdev->pUserData[pdev->classId])->GetCapacity(lun, &hmsc->scsi_blk_n
 374:Middlewares/ST/STM32_USB_Device_Library/Class/MSC/Src/usbd_msc_scsi.c ****                                                                              &hmsc->scsi_blk_size);
 375:Middlewares/ST/STM32_USB_Device_Library/Class/MSC/Src/usbd_msc_scsi.c **** 
 376:Middlewares/ST/STM32_USB_Device_Library/Class/MSC/Src/usbd_msc_scsi.c ****   if ((ret != 0) || (hmsc->scsi_medium_state == SCSI_MEDIUM_EJECTED))
 377:Middlewares/ST/STM32_USB_Device_Library/Class/MSC/Src/usbd_msc_scsi.c ****   {
 378:Middlewares/ST/STM32_USB_Device_Library/Class/MSC/Src/usbd_msc_scsi.c ****     SCSI_SenseCode(pdev, lun, NOT_READY, MEDIUM_NOT_PRESENT);
 379:Middlewares/ST/STM32_USB_Device_Library/Class/MSC/Src/usbd_msc_scsi.c ****     return -1;
 380:Middlewares/ST/STM32_USB_Device_Library/Class/MSC/Src/usbd_msc_scsi.c ****   }
 381:Middlewares/ST/STM32_USB_Device_Library/Class/MSC/Src/usbd_msc_scsi.c **** 
 382:Middlewares/ST/STM32_USB_Device_Library/Class/MSC/Src/usbd_msc_scsi.c ****   hmsc->bot_data_length = ((uint32_t)params[10] << 24) |
 383:Middlewares/ST/STM32_USB_Device_Library/Class/MSC/Src/usbd_msc_scsi.c ****                           ((uint32_t)params[11] << 16) |
 384:Middlewares/ST/STM32_USB_Device_Library/Class/MSC/Src/usbd_msc_scsi.c ****                           ((uint32_t)params[12] <<  8) |
 385:Middlewares/ST/STM32_USB_Device_Library/Class/MSC/Src/usbd_msc_scsi.c ****                           (uint32_t)params[13];
 386:Middlewares/ST/STM32_USB_Device_Library/Class/MSC/Src/usbd_msc_scsi.c **** 
 387:Middlewares/ST/STM32_USB_Device_Library/Class/MSC/Src/usbd_msc_scsi.c ****   for (idx = 0U; idx < hmsc->bot_data_length; idx++)
 388:Middlewares/ST/STM32_USB_Device_Library/Class/MSC/Src/usbd_msc_scsi.c ****   {
 389:Middlewares/ST/STM32_USB_Device_Library/Class/MSC/Src/usbd_msc_scsi.c ****     hmsc->bot_data[idx] = 0U;
 390:Middlewares/ST/STM32_USB_Device_Library/Class/MSC/Src/usbd_msc_scsi.c ****   }
 391:Middlewares/ST/STM32_USB_Device_Library/Class/MSC/Src/usbd_msc_scsi.c **** 
 392:Middlewares/ST/STM32_USB_Device_Library/Class/MSC/Src/usbd_msc_scsi.c ****   hmsc->bot_data[4] = (uint8_t)((hmsc->scsi_blk_nbr - 1U) >> 24);
 393:Middlewares/ST/STM32_USB_Device_Library/Class/MSC/Src/usbd_msc_scsi.c ****   hmsc->bot_data[5] = (uint8_t)((hmsc->scsi_blk_nbr - 1U) >> 16);
 394:Middlewares/ST/STM32_USB_Device_Library/Class/MSC/Src/usbd_msc_scsi.c ****   hmsc->bot_data[6] = (uint8_t)((hmsc->scsi_blk_nbr - 1U) >>  8);
 395:Middlewares/ST/STM32_USB_Device_Library/Class/MSC/Src/usbd_msc_scsi.c ****   hmsc->bot_data[7] = (uint8_t)(hmsc->scsi_blk_nbr - 1U);
 396:Middlewares/ST/STM32_USB_Device_Library/Class/MSC/Src/usbd_msc_scsi.c **** 
 397:Middlewares/ST/STM32_USB_Device_Library/Class/MSC/Src/usbd_msc_scsi.c ****   hmsc->bot_data[8] = (uint8_t)(hmsc->scsi_blk_size >>  24);
 398:Middlewares/ST/STM32_USB_Device_Library/Class/MSC/Src/usbd_msc_scsi.c ****   hmsc->bot_data[9] = (uint8_t)(hmsc->scsi_blk_size >>  16);
 399:Middlewares/ST/STM32_USB_Device_Library/Class/MSC/Src/usbd_msc_scsi.c ****   hmsc->bot_data[10] = (uint8_t)(hmsc->scsi_blk_size >>  8);
 400:Middlewares/ST/STM32_USB_Device_Library/Class/MSC/Src/usbd_msc_scsi.c ****   hmsc->bot_data[11] = (uint8_t)(hmsc->scsi_blk_size);
 401:Middlewares/ST/STM32_USB_Device_Library/Class/MSC/Src/usbd_msc_scsi.c **** 
 402:Middlewares/ST/STM32_USB_Device_Library/Class/MSC/Src/usbd_msc_scsi.c ****   hmsc->bot_data_length = ((uint32_t)params[10] << 24) |
 403:Middlewares/ST/STM32_USB_Device_Library/Class/MSC/Src/usbd_msc_scsi.c ****                           ((uint32_t)params[11] << 16) |
 404:Middlewares/ST/STM32_USB_Device_Library/Class/MSC/Src/usbd_msc_scsi.c ****                           ((uint32_t)params[12] <<  8) |
 405:Middlewares/ST/STM32_USB_Device_Library/Class/MSC/Src/usbd_msc_scsi.c ****                           (uint32_t)params[13];
 406:Middlewares/ST/STM32_USB_Device_Library/Class/MSC/Src/usbd_msc_scsi.c **** 
 407:Middlewares/ST/STM32_USB_Device_Library/Class/MSC/Src/usbd_msc_scsi.c ****   return 0;
 408:Middlewares/ST/STM32_USB_Device_Library/Class/MSC/Src/usbd_msc_scsi.c **** }
 409:Middlewares/ST/STM32_USB_Device_Library/Class/MSC/Src/usbd_msc_scsi.c **** 
 410:Middlewares/ST/STM32_USB_Device_Library/Class/MSC/Src/usbd_msc_scsi.c **** 
 411:Middlewares/ST/STM32_USB_Device_Library/Class/MSC/Src/usbd_msc_scsi.c **** /**
 412:Middlewares/ST/STM32_USB_Device_Library/Class/MSC/Src/usbd_msc_scsi.c ****   * @brief  SCSI_ReadFormatCapacity
 413:Middlewares/ST/STM32_USB_Device_Library/Class/MSC/Src/usbd_msc_scsi.c ****   *         Process Read Format Capacity command
 414:Middlewares/ST/STM32_USB_Device_Library/Class/MSC/Src/usbd_msc_scsi.c ****   * @param  lun: Logical unit number
 415:Middlewares/ST/STM32_USB_Device_Library/Class/MSC/Src/usbd_msc_scsi.c ****   * @param  params: Command parameters
 416:Middlewares/ST/STM32_USB_Device_Library/Class/MSC/Src/usbd_msc_scsi.c ****   * @retval status
 417:Middlewares/ST/STM32_USB_Device_Library/Class/MSC/Src/usbd_msc_scsi.c ****   */
 418:Middlewares/ST/STM32_USB_Device_Library/Class/MSC/Src/usbd_msc_scsi.c **** static int8_t SCSI_ReadFormatCapacity(USBD_HandleTypeDef *pdev, uint8_t lun, uint8_t *params)
 419:Middlewares/ST/STM32_USB_Device_Library/Class/MSC/Src/usbd_msc_scsi.c **** {
 420:Middlewares/ST/STM32_USB_Device_Library/Class/MSC/Src/usbd_msc_scsi.c ****   UNUSED(params);
 421:Middlewares/ST/STM32_USB_Device_Library/Class/MSC/Src/usbd_msc_scsi.c ****   uint16_t blk_size;
 422:Middlewares/ST/STM32_USB_Device_Library/Class/MSC/Src/usbd_msc_scsi.c ****   uint32_t blk_nbr;
 423:Middlewares/ST/STM32_USB_Device_Library/Class/MSC/Src/usbd_msc_scsi.c ****   uint16_t i;
 424:Middlewares/ST/STM32_USB_Device_Library/Class/MSC/Src/usbd_msc_scsi.c ****   int8_t ret;
 425:Middlewares/ST/STM32_USB_Device_Library/Class/MSC/Src/usbd_msc_scsi.c ****   USBD_MSC_BOT_HandleTypeDef *hmsc = (USBD_MSC_BOT_HandleTypeDef *)pdev->pClassDataCmsit[pdev->clas
 426:Middlewares/ST/STM32_USB_Device_Library/Class/MSC/Src/usbd_msc_scsi.c **** 
 427:Middlewares/ST/STM32_USB_Device_Library/Class/MSC/Src/usbd_msc_scsi.c ****   if (hmsc == NULL)
 428:Middlewares/ST/STM32_USB_Device_Library/Class/MSC/Src/usbd_msc_scsi.c ****   {
 429:Middlewares/ST/STM32_USB_Device_Library/Class/MSC/Src/usbd_msc_scsi.c ****     return -1;
ARM GAS  /tmp/cc2SMzdz.s 			page 9


 430:Middlewares/ST/STM32_USB_Device_Library/Class/MSC/Src/usbd_msc_scsi.c ****   }
 431:Middlewares/ST/STM32_USB_Device_Library/Class/MSC/Src/usbd_msc_scsi.c **** 
 432:Middlewares/ST/STM32_USB_Device_Library/Class/MSC/Src/usbd_msc_scsi.c ****   ret = ((USBD_StorageTypeDef *)pdev->pUserData[pdev->classId])->GetCapacity(lun, &blk_nbr, &blk_si
 433:Middlewares/ST/STM32_USB_Device_Library/Class/MSC/Src/usbd_msc_scsi.c **** 
 434:Middlewares/ST/STM32_USB_Device_Library/Class/MSC/Src/usbd_msc_scsi.c ****   if ((ret != 0) || (hmsc->scsi_medium_state == SCSI_MEDIUM_EJECTED))
 435:Middlewares/ST/STM32_USB_Device_Library/Class/MSC/Src/usbd_msc_scsi.c ****   {
 436:Middlewares/ST/STM32_USB_Device_Library/Class/MSC/Src/usbd_msc_scsi.c ****     SCSI_SenseCode(pdev, lun, NOT_READY, MEDIUM_NOT_PRESENT);
 437:Middlewares/ST/STM32_USB_Device_Library/Class/MSC/Src/usbd_msc_scsi.c ****     return -1;
 438:Middlewares/ST/STM32_USB_Device_Library/Class/MSC/Src/usbd_msc_scsi.c ****   }
 439:Middlewares/ST/STM32_USB_Device_Library/Class/MSC/Src/usbd_msc_scsi.c **** 
 440:Middlewares/ST/STM32_USB_Device_Library/Class/MSC/Src/usbd_msc_scsi.c ****   for (i = 0U; i < 12U ; i++)
 441:Middlewares/ST/STM32_USB_Device_Library/Class/MSC/Src/usbd_msc_scsi.c ****   {
 442:Middlewares/ST/STM32_USB_Device_Library/Class/MSC/Src/usbd_msc_scsi.c ****     hmsc->bot_data[i] = 0U;
 443:Middlewares/ST/STM32_USB_Device_Library/Class/MSC/Src/usbd_msc_scsi.c ****   }
 444:Middlewares/ST/STM32_USB_Device_Library/Class/MSC/Src/usbd_msc_scsi.c **** 
 445:Middlewares/ST/STM32_USB_Device_Library/Class/MSC/Src/usbd_msc_scsi.c ****   hmsc->bot_data[3] = 0x08U;
 446:Middlewares/ST/STM32_USB_Device_Library/Class/MSC/Src/usbd_msc_scsi.c ****   hmsc->bot_data[4] = (uint8_t)((blk_nbr - 1U) >> 24);
 447:Middlewares/ST/STM32_USB_Device_Library/Class/MSC/Src/usbd_msc_scsi.c ****   hmsc->bot_data[5] = (uint8_t)((blk_nbr - 1U) >> 16);
 448:Middlewares/ST/STM32_USB_Device_Library/Class/MSC/Src/usbd_msc_scsi.c ****   hmsc->bot_data[6] = (uint8_t)((blk_nbr - 1U) >>  8);
 449:Middlewares/ST/STM32_USB_Device_Library/Class/MSC/Src/usbd_msc_scsi.c ****   hmsc->bot_data[7] = (uint8_t)(blk_nbr - 1U);
 450:Middlewares/ST/STM32_USB_Device_Library/Class/MSC/Src/usbd_msc_scsi.c **** 
 451:Middlewares/ST/STM32_USB_Device_Library/Class/MSC/Src/usbd_msc_scsi.c ****   hmsc->bot_data[8] = 0x02U;
 452:Middlewares/ST/STM32_USB_Device_Library/Class/MSC/Src/usbd_msc_scsi.c ****   hmsc->bot_data[9] = (uint8_t)(blk_size >>  16);
 453:Middlewares/ST/STM32_USB_Device_Library/Class/MSC/Src/usbd_msc_scsi.c ****   hmsc->bot_data[10] = (uint8_t)(blk_size >>  8);
 454:Middlewares/ST/STM32_USB_Device_Library/Class/MSC/Src/usbd_msc_scsi.c ****   hmsc->bot_data[11] = (uint8_t)(blk_size);
 455:Middlewares/ST/STM32_USB_Device_Library/Class/MSC/Src/usbd_msc_scsi.c **** 
 456:Middlewares/ST/STM32_USB_Device_Library/Class/MSC/Src/usbd_msc_scsi.c ****   hmsc->bot_data_length = 12U;
 457:Middlewares/ST/STM32_USB_Device_Library/Class/MSC/Src/usbd_msc_scsi.c **** 
 458:Middlewares/ST/STM32_USB_Device_Library/Class/MSC/Src/usbd_msc_scsi.c ****   return 0;
 459:Middlewares/ST/STM32_USB_Device_Library/Class/MSC/Src/usbd_msc_scsi.c **** }
 460:Middlewares/ST/STM32_USB_Device_Library/Class/MSC/Src/usbd_msc_scsi.c **** 
 461:Middlewares/ST/STM32_USB_Device_Library/Class/MSC/Src/usbd_msc_scsi.c **** 
 462:Middlewares/ST/STM32_USB_Device_Library/Class/MSC/Src/usbd_msc_scsi.c **** /**
 463:Middlewares/ST/STM32_USB_Device_Library/Class/MSC/Src/usbd_msc_scsi.c ****   * @brief  SCSI_ModeSense6
 464:Middlewares/ST/STM32_USB_Device_Library/Class/MSC/Src/usbd_msc_scsi.c ****   *         Process Mode Sense6 command
 465:Middlewares/ST/STM32_USB_Device_Library/Class/MSC/Src/usbd_msc_scsi.c ****   * @param  lun: Logical unit number
 466:Middlewares/ST/STM32_USB_Device_Library/Class/MSC/Src/usbd_msc_scsi.c ****   * @param  params: Command parameters
 467:Middlewares/ST/STM32_USB_Device_Library/Class/MSC/Src/usbd_msc_scsi.c ****   * @retval status
 468:Middlewares/ST/STM32_USB_Device_Library/Class/MSC/Src/usbd_msc_scsi.c ****   */
 469:Middlewares/ST/STM32_USB_Device_Library/Class/MSC/Src/usbd_msc_scsi.c **** static int8_t SCSI_ModeSense6(USBD_HandleTypeDef *pdev, uint8_t lun, uint8_t *params)
 470:Middlewares/ST/STM32_USB_Device_Library/Class/MSC/Src/usbd_msc_scsi.c **** {
 471:Middlewares/ST/STM32_USB_Device_Library/Class/MSC/Src/usbd_msc_scsi.c ****   UNUSED(lun);
 472:Middlewares/ST/STM32_USB_Device_Library/Class/MSC/Src/usbd_msc_scsi.c ****   USBD_MSC_BOT_HandleTypeDef *hmsc = (USBD_MSC_BOT_HandleTypeDef *)pdev->pClassDataCmsit[pdev->clas
 473:Middlewares/ST/STM32_USB_Device_Library/Class/MSC/Src/usbd_msc_scsi.c ****   uint16_t len = MODE_SENSE6_LEN;
 474:Middlewares/ST/STM32_USB_Device_Library/Class/MSC/Src/usbd_msc_scsi.c **** 
 475:Middlewares/ST/STM32_USB_Device_Library/Class/MSC/Src/usbd_msc_scsi.c ****   if (hmsc == NULL)
 476:Middlewares/ST/STM32_USB_Device_Library/Class/MSC/Src/usbd_msc_scsi.c ****   {
 477:Middlewares/ST/STM32_USB_Device_Library/Class/MSC/Src/usbd_msc_scsi.c ****     return -1;
 478:Middlewares/ST/STM32_USB_Device_Library/Class/MSC/Src/usbd_msc_scsi.c ****   }
 479:Middlewares/ST/STM32_USB_Device_Library/Class/MSC/Src/usbd_msc_scsi.c **** 
 480:Middlewares/ST/STM32_USB_Device_Library/Class/MSC/Src/usbd_msc_scsi.c ****   /* Check If media is write-protected */
 481:Middlewares/ST/STM32_USB_Device_Library/Class/MSC/Src/usbd_msc_scsi.c ****   if (((USBD_StorageTypeDef *)pdev->pUserData[pdev->classId])->IsWriteProtected(lun) != 0)
 482:Middlewares/ST/STM32_USB_Device_Library/Class/MSC/Src/usbd_msc_scsi.c ****   {
 483:Middlewares/ST/STM32_USB_Device_Library/Class/MSC/Src/usbd_msc_scsi.c ****     MSC_Mode_Sense6_data[2] |= 0x80U;
 484:Middlewares/ST/STM32_USB_Device_Library/Class/MSC/Src/usbd_msc_scsi.c ****   }
 485:Middlewares/ST/STM32_USB_Device_Library/Class/MSC/Src/usbd_msc_scsi.c **** 
 486:Middlewares/ST/STM32_USB_Device_Library/Class/MSC/Src/usbd_msc_scsi.c ****   if (params[4] <= len)
ARM GAS  /tmp/cc2SMzdz.s 			page 10


 487:Middlewares/ST/STM32_USB_Device_Library/Class/MSC/Src/usbd_msc_scsi.c ****   {
 488:Middlewares/ST/STM32_USB_Device_Library/Class/MSC/Src/usbd_msc_scsi.c ****     len = params[4];
 489:Middlewares/ST/STM32_USB_Device_Library/Class/MSC/Src/usbd_msc_scsi.c ****   }
 490:Middlewares/ST/STM32_USB_Device_Library/Class/MSC/Src/usbd_msc_scsi.c **** 
 491:Middlewares/ST/STM32_USB_Device_Library/Class/MSC/Src/usbd_msc_scsi.c ****   (void)SCSI_UpdateBotData(hmsc, MSC_Mode_Sense6_data, len);
 492:Middlewares/ST/STM32_USB_Device_Library/Class/MSC/Src/usbd_msc_scsi.c **** 
 493:Middlewares/ST/STM32_USB_Device_Library/Class/MSC/Src/usbd_msc_scsi.c ****   return 0;
 494:Middlewares/ST/STM32_USB_Device_Library/Class/MSC/Src/usbd_msc_scsi.c **** }
 495:Middlewares/ST/STM32_USB_Device_Library/Class/MSC/Src/usbd_msc_scsi.c **** 
 496:Middlewares/ST/STM32_USB_Device_Library/Class/MSC/Src/usbd_msc_scsi.c **** 
 497:Middlewares/ST/STM32_USB_Device_Library/Class/MSC/Src/usbd_msc_scsi.c **** /**
 498:Middlewares/ST/STM32_USB_Device_Library/Class/MSC/Src/usbd_msc_scsi.c ****   * @brief  SCSI_ModeSense10
 499:Middlewares/ST/STM32_USB_Device_Library/Class/MSC/Src/usbd_msc_scsi.c ****   *         Process Mode Sense10 command
 500:Middlewares/ST/STM32_USB_Device_Library/Class/MSC/Src/usbd_msc_scsi.c ****   * @param  lun: Logical unit number
 501:Middlewares/ST/STM32_USB_Device_Library/Class/MSC/Src/usbd_msc_scsi.c ****   * @param  params: Command parameters
 502:Middlewares/ST/STM32_USB_Device_Library/Class/MSC/Src/usbd_msc_scsi.c ****   * @retval status
 503:Middlewares/ST/STM32_USB_Device_Library/Class/MSC/Src/usbd_msc_scsi.c ****   */
 504:Middlewares/ST/STM32_USB_Device_Library/Class/MSC/Src/usbd_msc_scsi.c **** static int8_t SCSI_ModeSense10(USBD_HandleTypeDef *pdev, uint8_t lun, uint8_t *params)
 505:Middlewares/ST/STM32_USB_Device_Library/Class/MSC/Src/usbd_msc_scsi.c **** {
 506:Middlewares/ST/STM32_USB_Device_Library/Class/MSC/Src/usbd_msc_scsi.c ****   UNUSED(lun);
 507:Middlewares/ST/STM32_USB_Device_Library/Class/MSC/Src/usbd_msc_scsi.c ****   USBD_MSC_BOT_HandleTypeDef *hmsc = (USBD_MSC_BOT_HandleTypeDef *)pdev->pClassDataCmsit[pdev->clas
 508:Middlewares/ST/STM32_USB_Device_Library/Class/MSC/Src/usbd_msc_scsi.c ****   uint16_t len = MODE_SENSE10_LEN;
 509:Middlewares/ST/STM32_USB_Device_Library/Class/MSC/Src/usbd_msc_scsi.c **** 
 510:Middlewares/ST/STM32_USB_Device_Library/Class/MSC/Src/usbd_msc_scsi.c ****   if (hmsc == NULL)
 511:Middlewares/ST/STM32_USB_Device_Library/Class/MSC/Src/usbd_msc_scsi.c ****   {
 512:Middlewares/ST/STM32_USB_Device_Library/Class/MSC/Src/usbd_msc_scsi.c ****     return -1;
 513:Middlewares/ST/STM32_USB_Device_Library/Class/MSC/Src/usbd_msc_scsi.c ****   }
 514:Middlewares/ST/STM32_USB_Device_Library/Class/MSC/Src/usbd_msc_scsi.c **** 
 515:Middlewares/ST/STM32_USB_Device_Library/Class/MSC/Src/usbd_msc_scsi.c ****   /* Check If media is write-protected */
 516:Middlewares/ST/STM32_USB_Device_Library/Class/MSC/Src/usbd_msc_scsi.c ****   if (((USBD_StorageTypeDef *)pdev->pUserData[pdev->classId])->IsWriteProtected(lun) != 0)
 517:Middlewares/ST/STM32_USB_Device_Library/Class/MSC/Src/usbd_msc_scsi.c ****   {
 518:Middlewares/ST/STM32_USB_Device_Library/Class/MSC/Src/usbd_msc_scsi.c ****     MSC_Mode_Sense10_data[3] |= 0x80U;
 519:Middlewares/ST/STM32_USB_Device_Library/Class/MSC/Src/usbd_msc_scsi.c ****   }
 520:Middlewares/ST/STM32_USB_Device_Library/Class/MSC/Src/usbd_msc_scsi.c **** 
 521:Middlewares/ST/STM32_USB_Device_Library/Class/MSC/Src/usbd_msc_scsi.c ****   if (params[8] <= len)
 522:Middlewares/ST/STM32_USB_Device_Library/Class/MSC/Src/usbd_msc_scsi.c ****   {
 523:Middlewares/ST/STM32_USB_Device_Library/Class/MSC/Src/usbd_msc_scsi.c ****     len = params[8];
 524:Middlewares/ST/STM32_USB_Device_Library/Class/MSC/Src/usbd_msc_scsi.c ****   }
 525:Middlewares/ST/STM32_USB_Device_Library/Class/MSC/Src/usbd_msc_scsi.c **** 
 526:Middlewares/ST/STM32_USB_Device_Library/Class/MSC/Src/usbd_msc_scsi.c ****   (void)SCSI_UpdateBotData(hmsc, MSC_Mode_Sense10_data, len);
 527:Middlewares/ST/STM32_USB_Device_Library/Class/MSC/Src/usbd_msc_scsi.c **** 
 528:Middlewares/ST/STM32_USB_Device_Library/Class/MSC/Src/usbd_msc_scsi.c ****   return 0;
 529:Middlewares/ST/STM32_USB_Device_Library/Class/MSC/Src/usbd_msc_scsi.c **** }
 530:Middlewares/ST/STM32_USB_Device_Library/Class/MSC/Src/usbd_msc_scsi.c **** 
 531:Middlewares/ST/STM32_USB_Device_Library/Class/MSC/Src/usbd_msc_scsi.c **** 
 532:Middlewares/ST/STM32_USB_Device_Library/Class/MSC/Src/usbd_msc_scsi.c **** /**
 533:Middlewares/ST/STM32_USB_Device_Library/Class/MSC/Src/usbd_msc_scsi.c ****   * @brief  SCSI_RequestSense
 534:Middlewares/ST/STM32_USB_Device_Library/Class/MSC/Src/usbd_msc_scsi.c ****   *         Process Request Sense command
 535:Middlewares/ST/STM32_USB_Device_Library/Class/MSC/Src/usbd_msc_scsi.c ****   * @param  lun: Logical unit number
 536:Middlewares/ST/STM32_USB_Device_Library/Class/MSC/Src/usbd_msc_scsi.c ****   * @param  params: Command parameters
 537:Middlewares/ST/STM32_USB_Device_Library/Class/MSC/Src/usbd_msc_scsi.c ****   * @retval status
 538:Middlewares/ST/STM32_USB_Device_Library/Class/MSC/Src/usbd_msc_scsi.c ****   */
 539:Middlewares/ST/STM32_USB_Device_Library/Class/MSC/Src/usbd_msc_scsi.c **** static int8_t SCSI_RequestSense(USBD_HandleTypeDef *pdev, uint8_t lun, uint8_t *params)
 540:Middlewares/ST/STM32_USB_Device_Library/Class/MSC/Src/usbd_msc_scsi.c **** {
 541:Middlewares/ST/STM32_USB_Device_Library/Class/MSC/Src/usbd_msc_scsi.c ****   UNUSED(lun);
 542:Middlewares/ST/STM32_USB_Device_Library/Class/MSC/Src/usbd_msc_scsi.c ****   uint8_t i;
 543:Middlewares/ST/STM32_USB_Device_Library/Class/MSC/Src/usbd_msc_scsi.c ****   USBD_MSC_BOT_HandleTypeDef *hmsc = (USBD_MSC_BOT_HandleTypeDef *)pdev->pClassDataCmsit[pdev->clas
ARM GAS  /tmp/cc2SMzdz.s 			page 11


 544:Middlewares/ST/STM32_USB_Device_Library/Class/MSC/Src/usbd_msc_scsi.c **** 
 545:Middlewares/ST/STM32_USB_Device_Library/Class/MSC/Src/usbd_msc_scsi.c ****   if (hmsc == NULL)
 546:Middlewares/ST/STM32_USB_Device_Library/Class/MSC/Src/usbd_msc_scsi.c ****   {
 547:Middlewares/ST/STM32_USB_Device_Library/Class/MSC/Src/usbd_msc_scsi.c ****     return -1;
 548:Middlewares/ST/STM32_USB_Device_Library/Class/MSC/Src/usbd_msc_scsi.c ****   }
 549:Middlewares/ST/STM32_USB_Device_Library/Class/MSC/Src/usbd_msc_scsi.c **** 
 550:Middlewares/ST/STM32_USB_Device_Library/Class/MSC/Src/usbd_msc_scsi.c ****   if (hmsc->cbw.dDataLength == 0U)
 551:Middlewares/ST/STM32_USB_Device_Library/Class/MSC/Src/usbd_msc_scsi.c ****   {
 552:Middlewares/ST/STM32_USB_Device_Library/Class/MSC/Src/usbd_msc_scsi.c ****     SCSI_SenseCode(pdev, hmsc->cbw.bLUN, ILLEGAL_REQUEST, INVALID_CDB);
 553:Middlewares/ST/STM32_USB_Device_Library/Class/MSC/Src/usbd_msc_scsi.c ****     return -1;
 554:Middlewares/ST/STM32_USB_Device_Library/Class/MSC/Src/usbd_msc_scsi.c ****   }
 555:Middlewares/ST/STM32_USB_Device_Library/Class/MSC/Src/usbd_msc_scsi.c **** 
 556:Middlewares/ST/STM32_USB_Device_Library/Class/MSC/Src/usbd_msc_scsi.c ****   for (i = 0U; i < REQUEST_SENSE_DATA_LEN; i++)
 557:Middlewares/ST/STM32_USB_Device_Library/Class/MSC/Src/usbd_msc_scsi.c ****   {
 558:Middlewares/ST/STM32_USB_Device_Library/Class/MSC/Src/usbd_msc_scsi.c ****     hmsc->bot_data[i] = 0U;
 559:Middlewares/ST/STM32_USB_Device_Library/Class/MSC/Src/usbd_msc_scsi.c ****   }
 560:Middlewares/ST/STM32_USB_Device_Library/Class/MSC/Src/usbd_msc_scsi.c **** 
 561:Middlewares/ST/STM32_USB_Device_Library/Class/MSC/Src/usbd_msc_scsi.c ****   hmsc->bot_data[0] = 0x70U;
 562:Middlewares/ST/STM32_USB_Device_Library/Class/MSC/Src/usbd_msc_scsi.c ****   hmsc->bot_data[7] = REQUEST_SENSE_DATA_LEN - 6U;
 563:Middlewares/ST/STM32_USB_Device_Library/Class/MSC/Src/usbd_msc_scsi.c **** 
 564:Middlewares/ST/STM32_USB_Device_Library/Class/MSC/Src/usbd_msc_scsi.c ****   if ((hmsc->scsi_sense_head != hmsc->scsi_sense_tail))
 565:Middlewares/ST/STM32_USB_Device_Library/Class/MSC/Src/usbd_msc_scsi.c ****   {
 566:Middlewares/ST/STM32_USB_Device_Library/Class/MSC/Src/usbd_msc_scsi.c ****     hmsc->bot_data[2] = (uint8_t)hmsc->scsi_sense[hmsc->scsi_sense_head].Skey;
 567:Middlewares/ST/STM32_USB_Device_Library/Class/MSC/Src/usbd_msc_scsi.c ****     hmsc->bot_data[12] = (uint8_t)hmsc->scsi_sense[hmsc->scsi_sense_head].w.b.ASC;
 568:Middlewares/ST/STM32_USB_Device_Library/Class/MSC/Src/usbd_msc_scsi.c ****     hmsc->bot_data[13] = (uint8_t)hmsc->scsi_sense[hmsc->scsi_sense_head].w.b.ASCQ;
 569:Middlewares/ST/STM32_USB_Device_Library/Class/MSC/Src/usbd_msc_scsi.c ****     hmsc->scsi_sense_head++;
 570:Middlewares/ST/STM32_USB_Device_Library/Class/MSC/Src/usbd_msc_scsi.c **** 
 571:Middlewares/ST/STM32_USB_Device_Library/Class/MSC/Src/usbd_msc_scsi.c ****     if (hmsc->scsi_sense_head == SENSE_LIST_DEEPTH)
 572:Middlewares/ST/STM32_USB_Device_Library/Class/MSC/Src/usbd_msc_scsi.c ****     {
 573:Middlewares/ST/STM32_USB_Device_Library/Class/MSC/Src/usbd_msc_scsi.c ****       hmsc->scsi_sense_head = 0U;
 574:Middlewares/ST/STM32_USB_Device_Library/Class/MSC/Src/usbd_msc_scsi.c ****     }
 575:Middlewares/ST/STM32_USB_Device_Library/Class/MSC/Src/usbd_msc_scsi.c ****   }
 576:Middlewares/ST/STM32_USB_Device_Library/Class/MSC/Src/usbd_msc_scsi.c **** 
 577:Middlewares/ST/STM32_USB_Device_Library/Class/MSC/Src/usbd_msc_scsi.c ****   hmsc->bot_data_length = REQUEST_SENSE_DATA_LEN;
 578:Middlewares/ST/STM32_USB_Device_Library/Class/MSC/Src/usbd_msc_scsi.c **** 
 579:Middlewares/ST/STM32_USB_Device_Library/Class/MSC/Src/usbd_msc_scsi.c ****   if (params[4] <= REQUEST_SENSE_DATA_LEN)
 580:Middlewares/ST/STM32_USB_Device_Library/Class/MSC/Src/usbd_msc_scsi.c ****   {
 581:Middlewares/ST/STM32_USB_Device_Library/Class/MSC/Src/usbd_msc_scsi.c ****     hmsc->bot_data_length = params[4];
 582:Middlewares/ST/STM32_USB_Device_Library/Class/MSC/Src/usbd_msc_scsi.c ****   }
 583:Middlewares/ST/STM32_USB_Device_Library/Class/MSC/Src/usbd_msc_scsi.c **** 
 584:Middlewares/ST/STM32_USB_Device_Library/Class/MSC/Src/usbd_msc_scsi.c ****   return 0;
 585:Middlewares/ST/STM32_USB_Device_Library/Class/MSC/Src/usbd_msc_scsi.c **** }
 586:Middlewares/ST/STM32_USB_Device_Library/Class/MSC/Src/usbd_msc_scsi.c **** 
 587:Middlewares/ST/STM32_USB_Device_Library/Class/MSC/Src/usbd_msc_scsi.c **** 
 588:Middlewares/ST/STM32_USB_Device_Library/Class/MSC/Src/usbd_msc_scsi.c **** /**
 589:Middlewares/ST/STM32_USB_Device_Library/Class/MSC/Src/usbd_msc_scsi.c ****   * @brief  SCSI_SenseCode
 590:Middlewares/ST/STM32_USB_Device_Library/Class/MSC/Src/usbd_msc_scsi.c ****   *         Load the last error code in the error list
 591:Middlewares/ST/STM32_USB_Device_Library/Class/MSC/Src/usbd_msc_scsi.c ****   * @param  lun: Logical unit number
 592:Middlewares/ST/STM32_USB_Device_Library/Class/MSC/Src/usbd_msc_scsi.c ****   * @param  sKey: Sense Key
 593:Middlewares/ST/STM32_USB_Device_Library/Class/MSC/Src/usbd_msc_scsi.c ****   * @param  ASC: Additional Sense Code
 594:Middlewares/ST/STM32_USB_Device_Library/Class/MSC/Src/usbd_msc_scsi.c ****   * @retval none
 595:Middlewares/ST/STM32_USB_Device_Library/Class/MSC/Src/usbd_msc_scsi.c **** 
 596:Middlewares/ST/STM32_USB_Device_Library/Class/MSC/Src/usbd_msc_scsi.c ****   */
 597:Middlewares/ST/STM32_USB_Device_Library/Class/MSC/Src/usbd_msc_scsi.c **** void SCSI_SenseCode(USBD_HandleTypeDef *pdev, uint8_t lun, uint8_t sKey, uint8_t ASC)
 598:Middlewares/ST/STM32_USB_Device_Library/Class/MSC/Src/usbd_msc_scsi.c **** {
 599:Middlewares/ST/STM32_USB_Device_Library/Class/MSC/Src/usbd_msc_scsi.c ****   UNUSED(lun);
 600:Middlewares/ST/STM32_USB_Device_Library/Class/MSC/Src/usbd_msc_scsi.c ****   USBD_MSC_BOT_HandleTypeDef *hmsc = (USBD_MSC_BOT_HandleTypeDef *)pdev->pClassDataCmsit[pdev->clas
ARM GAS  /tmp/cc2SMzdz.s 			page 12


 601:Middlewares/ST/STM32_USB_Device_Library/Class/MSC/Src/usbd_msc_scsi.c **** 
 602:Middlewares/ST/STM32_USB_Device_Library/Class/MSC/Src/usbd_msc_scsi.c ****   if (hmsc == NULL)
 603:Middlewares/ST/STM32_USB_Device_Library/Class/MSC/Src/usbd_msc_scsi.c ****   {
 604:Middlewares/ST/STM32_USB_Device_Library/Class/MSC/Src/usbd_msc_scsi.c ****     return;
 605:Middlewares/ST/STM32_USB_Device_Library/Class/MSC/Src/usbd_msc_scsi.c ****   }
 606:Middlewares/ST/STM32_USB_Device_Library/Class/MSC/Src/usbd_msc_scsi.c **** 
 607:Middlewares/ST/STM32_USB_Device_Library/Class/MSC/Src/usbd_msc_scsi.c ****   hmsc->scsi_sense[hmsc->scsi_sense_tail].Skey = sKey;
 608:Middlewares/ST/STM32_USB_Device_Library/Class/MSC/Src/usbd_msc_scsi.c ****   hmsc->scsi_sense[hmsc->scsi_sense_tail].w.b.ASC = ASC;
 609:Middlewares/ST/STM32_USB_Device_Library/Class/MSC/Src/usbd_msc_scsi.c ****   hmsc->scsi_sense[hmsc->scsi_sense_tail].w.b.ASCQ = 0U;
 610:Middlewares/ST/STM32_USB_Device_Library/Class/MSC/Src/usbd_msc_scsi.c ****   hmsc->scsi_sense_tail++;
 611:Middlewares/ST/STM32_USB_Device_Library/Class/MSC/Src/usbd_msc_scsi.c **** 
 612:Middlewares/ST/STM32_USB_Device_Library/Class/MSC/Src/usbd_msc_scsi.c ****   if (hmsc->scsi_sense_tail == SENSE_LIST_DEEPTH)
 613:Middlewares/ST/STM32_USB_Device_Library/Class/MSC/Src/usbd_msc_scsi.c ****   {
 614:Middlewares/ST/STM32_USB_Device_Library/Class/MSC/Src/usbd_msc_scsi.c ****     hmsc->scsi_sense_tail = 0U;
 615:Middlewares/ST/STM32_USB_Device_Library/Class/MSC/Src/usbd_msc_scsi.c ****   }
 616:Middlewares/ST/STM32_USB_Device_Library/Class/MSC/Src/usbd_msc_scsi.c **** }
 617:Middlewares/ST/STM32_USB_Device_Library/Class/MSC/Src/usbd_msc_scsi.c **** 
 618:Middlewares/ST/STM32_USB_Device_Library/Class/MSC/Src/usbd_msc_scsi.c **** 
 619:Middlewares/ST/STM32_USB_Device_Library/Class/MSC/Src/usbd_msc_scsi.c **** /**
 620:Middlewares/ST/STM32_USB_Device_Library/Class/MSC/Src/usbd_msc_scsi.c ****   * @brief  SCSI_StartStopUnit
 621:Middlewares/ST/STM32_USB_Device_Library/Class/MSC/Src/usbd_msc_scsi.c ****   *         Process Start Stop Unit command
 622:Middlewares/ST/STM32_USB_Device_Library/Class/MSC/Src/usbd_msc_scsi.c ****   * @param  lun: Logical unit number
 623:Middlewares/ST/STM32_USB_Device_Library/Class/MSC/Src/usbd_msc_scsi.c ****   * @param  params: Command parameters
 624:Middlewares/ST/STM32_USB_Device_Library/Class/MSC/Src/usbd_msc_scsi.c ****   * @retval status
 625:Middlewares/ST/STM32_USB_Device_Library/Class/MSC/Src/usbd_msc_scsi.c ****   */
 626:Middlewares/ST/STM32_USB_Device_Library/Class/MSC/Src/usbd_msc_scsi.c **** static int8_t SCSI_StartStopUnit(USBD_HandleTypeDef *pdev, uint8_t lun, uint8_t *params)
 627:Middlewares/ST/STM32_USB_Device_Library/Class/MSC/Src/usbd_msc_scsi.c **** {
 628:Middlewares/ST/STM32_USB_Device_Library/Class/MSC/Src/usbd_msc_scsi.c ****   UNUSED(lun);
 629:Middlewares/ST/STM32_USB_Device_Library/Class/MSC/Src/usbd_msc_scsi.c ****   USBD_MSC_BOT_HandleTypeDef *hmsc = (USBD_MSC_BOT_HandleTypeDef *)pdev->pClassDataCmsit[pdev->clas
 630:Middlewares/ST/STM32_USB_Device_Library/Class/MSC/Src/usbd_msc_scsi.c **** 
 631:Middlewares/ST/STM32_USB_Device_Library/Class/MSC/Src/usbd_msc_scsi.c ****   if (hmsc == NULL)
 632:Middlewares/ST/STM32_USB_Device_Library/Class/MSC/Src/usbd_msc_scsi.c ****   {
 633:Middlewares/ST/STM32_USB_Device_Library/Class/MSC/Src/usbd_msc_scsi.c ****     return -1;
 634:Middlewares/ST/STM32_USB_Device_Library/Class/MSC/Src/usbd_msc_scsi.c ****   }
 635:Middlewares/ST/STM32_USB_Device_Library/Class/MSC/Src/usbd_msc_scsi.c **** 
 636:Middlewares/ST/STM32_USB_Device_Library/Class/MSC/Src/usbd_msc_scsi.c ****   if ((hmsc->scsi_medium_state == SCSI_MEDIUM_LOCKED) && ((params[4] & 0x3U) == 2U))
 637:Middlewares/ST/STM32_USB_Device_Library/Class/MSC/Src/usbd_msc_scsi.c ****   {
 638:Middlewares/ST/STM32_USB_Device_Library/Class/MSC/Src/usbd_msc_scsi.c ****     SCSI_SenseCode(pdev, lun, ILLEGAL_REQUEST, INVALID_FIELED_IN_COMMAND);
 639:Middlewares/ST/STM32_USB_Device_Library/Class/MSC/Src/usbd_msc_scsi.c **** 
 640:Middlewares/ST/STM32_USB_Device_Library/Class/MSC/Src/usbd_msc_scsi.c ****     return -1;
 641:Middlewares/ST/STM32_USB_Device_Library/Class/MSC/Src/usbd_msc_scsi.c ****   }
 642:Middlewares/ST/STM32_USB_Device_Library/Class/MSC/Src/usbd_msc_scsi.c **** 
 643:Middlewares/ST/STM32_USB_Device_Library/Class/MSC/Src/usbd_msc_scsi.c ****   if ((params[4] & 0x3U) == 0x1U) /* START=1 */
 644:Middlewares/ST/STM32_USB_Device_Library/Class/MSC/Src/usbd_msc_scsi.c ****   {
 645:Middlewares/ST/STM32_USB_Device_Library/Class/MSC/Src/usbd_msc_scsi.c ****     hmsc->scsi_medium_state = SCSI_MEDIUM_UNLOCKED;
 646:Middlewares/ST/STM32_USB_Device_Library/Class/MSC/Src/usbd_msc_scsi.c ****   }
 647:Middlewares/ST/STM32_USB_Device_Library/Class/MSC/Src/usbd_msc_scsi.c ****   else if ((params[4] & 0x3U) == 0x2U) /* START=0 and LOEJ Load Eject=1 */
 648:Middlewares/ST/STM32_USB_Device_Library/Class/MSC/Src/usbd_msc_scsi.c ****   {
 649:Middlewares/ST/STM32_USB_Device_Library/Class/MSC/Src/usbd_msc_scsi.c ****     hmsc->scsi_medium_state = SCSI_MEDIUM_EJECTED;
 650:Middlewares/ST/STM32_USB_Device_Library/Class/MSC/Src/usbd_msc_scsi.c ****   }
 651:Middlewares/ST/STM32_USB_Device_Library/Class/MSC/Src/usbd_msc_scsi.c ****   else if ((params[4] & 0x3U) == 0x3U) /* START=1 and LOEJ Load Eject=1 */
 652:Middlewares/ST/STM32_USB_Device_Library/Class/MSC/Src/usbd_msc_scsi.c ****   {
 653:Middlewares/ST/STM32_USB_Device_Library/Class/MSC/Src/usbd_msc_scsi.c ****     hmsc->scsi_medium_state = SCSI_MEDIUM_UNLOCKED;
 654:Middlewares/ST/STM32_USB_Device_Library/Class/MSC/Src/usbd_msc_scsi.c ****   }
 655:Middlewares/ST/STM32_USB_Device_Library/Class/MSC/Src/usbd_msc_scsi.c ****   else
 656:Middlewares/ST/STM32_USB_Device_Library/Class/MSC/Src/usbd_msc_scsi.c ****   {
 657:Middlewares/ST/STM32_USB_Device_Library/Class/MSC/Src/usbd_msc_scsi.c ****     /* .. */
ARM GAS  /tmp/cc2SMzdz.s 			page 13


 658:Middlewares/ST/STM32_USB_Device_Library/Class/MSC/Src/usbd_msc_scsi.c ****   }
 659:Middlewares/ST/STM32_USB_Device_Library/Class/MSC/Src/usbd_msc_scsi.c ****   hmsc->bot_data_length = 0U;
 660:Middlewares/ST/STM32_USB_Device_Library/Class/MSC/Src/usbd_msc_scsi.c **** 
 661:Middlewares/ST/STM32_USB_Device_Library/Class/MSC/Src/usbd_msc_scsi.c ****   return 0;
 662:Middlewares/ST/STM32_USB_Device_Library/Class/MSC/Src/usbd_msc_scsi.c **** }
 663:Middlewares/ST/STM32_USB_Device_Library/Class/MSC/Src/usbd_msc_scsi.c **** 
 664:Middlewares/ST/STM32_USB_Device_Library/Class/MSC/Src/usbd_msc_scsi.c **** 
 665:Middlewares/ST/STM32_USB_Device_Library/Class/MSC/Src/usbd_msc_scsi.c **** /**
 666:Middlewares/ST/STM32_USB_Device_Library/Class/MSC/Src/usbd_msc_scsi.c ****   * @brief  SCSI_AllowPreventRemovable
 667:Middlewares/ST/STM32_USB_Device_Library/Class/MSC/Src/usbd_msc_scsi.c ****   *         Process Allow Prevent Removable medium command
 668:Middlewares/ST/STM32_USB_Device_Library/Class/MSC/Src/usbd_msc_scsi.c ****   * @param  lun: Logical unit number
 669:Middlewares/ST/STM32_USB_Device_Library/Class/MSC/Src/usbd_msc_scsi.c ****   * @param  params: Command parameters
 670:Middlewares/ST/STM32_USB_Device_Library/Class/MSC/Src/usbd_msc_scsi.c ****   * @retval status
 671:Middlewares/ST/STM32_USB_Device_Library/Class/MSC/Src/usbd_msc_scsi.c ****   */
 672:Middlewares/ST/STM32_USB_Device_Library/Class/MSC/Src/usbd_msc_scsi.c **** static int8_t SCSI_AllowPreventRemovable(USBD_HandleTypeDef *pdev, uint8_t lun, uint8_t *params)
 673:Middlewares/ST/STM32_USB_Device_Library/Class/MSC/Src/usbd_msc_scsi.c **** {
  29              		.loc 1 673 1 view -0
  30              		.cfi_startproc
  31              		@ args = 0, pretend = 0, frame = 0
  32              		@ frame_needed = 0, uses_anonymous_args = 0
  33              		@ link register save eliminated.
 674:Middlewares/ST/STM32_USB_Device_Library/Class/MSC/Src/usbd_msc_scsi.c ****   UNUSED(lun);
  34              		.loc 1 674 3 view .LVU1
 675:Middlewares/ST/STM32_USB_Device_Library/Class/MSC/Src/usbd_msc_scsi.c ****   USBD_MSC_BOT_HandleTypeDef *hmsc = (USBD_MSC_BOT_HandleTypeDef *)pdev->pClassDataCmsit[pdev->clas
  35              		.loc 1 675 3 view .LVU2
  36              		.loc 1 675 94 is_stmt 0 view .LVU3
  37 0000 D0F8D432 		ldr	r3, [r0, #724]
  38              		.loc 1 675 31 view .LVU4
  39 0004 B033     		adds	r3, r3, #176
  40 0006 50F82330 		ldr	r3, [r0, r3, lsl #2]
  41              	.LVL1:
 676:Middlewares/ST/STM32_USB_Device_Library/Class/MSC/Src/usbd_msc_scsi.c **** 
 677:Middlewares/ST/STM32_USB_Device_Library/Class/MSC/Src/usbd_msc_scsi.c ****   if (hmsc == NULL)
  42              		.loc 1 677 3 is_stmt 1 view .LVU5
  43              		.loc 1 677 6 is_stmt 0 view .LVU6
  44 000a 53B1     		cbz	r3, .L5
 678:Middlewares/ST/STM32_USB_Device_Library/Class/MSC/Src/usbd_msc_scsi.c ****   {
 679:Middlewares/ST/STM32_USB_Device_Library/Class/MSC/Src/usbd_msc_scsi.c ****     return -1;
 680:Middlewares/ST/STM32_USB_Device_Library/Class/MSC/Src/usbd_msc_scsi.c ****   }
 681:Middlewares/ST/STM32_USB_Device_Library/Class/MSC/Src/usbd_msc_scsi.c **** 
 682:Middlewares/ST/STM32_USB_Device_Library/Class/MSC/Src/usbd_msc_scsi.c ****   if (params[4] == 0U)
  45              		.loc 1 682 3 is_stmt 1 view .LVU7
  46              		.loc 1 682 13 is_stmt 0 view .LVU8
  47 000c 1279     		ldrb	r2, [r2, #4]	@ zero_extendqisi2
  48              	.LVL2:
  49              		.loc 1 682 6 view .LVU9
  50 000e 22B9     		cbnz	r2, .L3
 683:Middlewares/ST/STM32_USB_Device_Library/Class/MSC/Src/usbd_msc_scsi.c ****   {
 684:Middlewares/ST/STM32_USB_Device_Library/Class/MSC/Src/usbd_msc_scsi.c ****     hmsc->scsi_medium_state = SCSI_MEDIUM_UNLOCKED;
  51              		.loc 1 684 5 is_stmt 1 view .LVU10
  52              		.loc 1 684 29 is_stmt 0 view .LVU11
  53 0010 83F86222 		strb	r2, [r3, #610]
  54              	.L4:
 685:Middlewares/ST/STM32_USB_Device_Library/Class/MSC/Src/usbd_msc_scsi.c ****   }
 686:Middlewares/ST/STM32_USB_Device_Library/Class/MSC/Src/usbd_msc_scsi.c ****   else
 687:Middlewares/ST/STM32_USB_Device_Library/Class/MSC/Src/usbd_msc_scsi.c ****   {
 688:Middlewares/ST/STM32_USB_Device_Library/Class/MSC/Src/usbd_msc_scsi.c ****     hmsc->scsi_medium_state = SCSI_MEDIUM_LOCKED;
ARM GAS  /tmp/cc2SMzdz.s 			page 14


 689:Middlewares/ST/STM32_USB_Device_Library/Class/MSC/Src/usbd_msc_scsi.c ****   }
 690:Middlewares/ST/STM32_USB_Device_Library/Class/MSC/Src/usbd_msc_scsi.c **** 
 691:Middlewares/ST/STM32_USB_Device_Library/Class/MSC/Src/usbd_msc_scsi.c ****   hmsc->bot_data_length = 0U;
  55              		.loc 1 691 3 is_stmt 1 view .LVU12
  56              		.loc 1 691 25 is_stmt 0 view .LVU13
  57 0014 0020     		movs	r0, #0
  58              	.LVL3:
  59              		.loc 1 691 25 view .LVU14
  60 0016 D860     		str	r0, [r3, #12]
 692:Middlewares/ST/STM32_USB_Device_Library/Class/MSC/Src/usbd_msc_scsi.c **** 
 693:Middlewares/ST/STM32_USB_Device_Library/Class/MSC/Src/usbd_msc_scsi.c ****   return 0;
  61              		.loc 1 693 3 is_stmt 1 view .LVU15
  62              		.loc 1 693 10 is_stmt 0 view .LVU16
  63 0018 7047     		bx	lr
  64              	.LVL4:
  65              	.L3:
 688:Middlewares/ST/STM32_USB_Device_Library/Class/MSC/Src/usbd_msc_scsi.c ****   }
  66              		.loc 1 688 5 is_stmt 1 view .LVU17
 688:Middlewares/ST/STM32_USB_Device_Library/Class/MSC/Src/usbd_msc_scsi.c ****   }
  67              		.loc 1 688 29 is_stmt 0 view .LVU18
  68 001a 0122     		movs	r2, #1
  69 001c 83F86222 		strb	r2, [r3, #610]
  70 0020 F8E7     		b	.L4
  71              	.LVL5:
  72              	.L5:
 679:Middlewares/ST/STM32_USB_Device_Library/Class/MSC/Src/usbd_msc_scsi.c ****   }
  73              		.loc 1 679 12 view .LVU19
  74 0022 4FF0FF30 		mov	r0, #-1
  75              	.LVL6:
 694:Middlewares/ST/STM32_USB_Device_Library/Class/MSC/Src/usbd_msc_scsi.c **** }
  76              		.loc 1 694 1 view .LVU20
  77 0026 7047     		bx	lr
  78              		.cfi_endproc
  79              	.LFE151:
  81              		.section	.text.SCSI_UpdateBotData,"ax",%progbits
  82              		.align	1
  83              		.syntax unified
  84              		.thumb
  85              		.thumb_func
  86              		.fpu fpv4-sp-d16
  88              	SCSI_UpdateBotData:
  89              	.LVL7:
  90              	.LFB160:
 695:Middlewares/ST/STM32_USB_Device_Library/Class/MSC/Src/usbd_msc_scsi.c **** 
 696:Middlewares/ST/STM32_USB_Device_Library/Class/MSC/Src/usbd_msc_scsi.c **** 
 697:Middlewares/ST/STM32_USB_Device_Library/Class/MSC/Src/usbd_msc_scsi.c **** /**
 698:Middlewares/ST/STM32_USB_Device_Library/Class/MSC/Src/usbd_msc_scsi.c ****   * @brief  SCSI_Read10
 699:Middlewares/ST/STM32_USB_Device_Library/Class/MSC/Src/usbd_msc_scsi.c ****   *         Process Read10 command
 700:Middlewares/ST/STM32_USB_Device_Library/Class/MSC/Src/usbd_msc_scsi.c ****   * @param  lun: Logical unit number
 701:Middlewares/ST/STM32_USB_Device_Library/Class/MSC/Src/usbd_msc_scsi.c ****   * @param  params: Command parameters
 702:Middlewares/ST/STM32_USB_Device_Library/Class/MSC/Src/usbd_msc_scsi.c ****   * @retval status
 703:Middlewares/ST/STM32_USB_Device_Library/Class/MSC/Src/usbd_msc_scsi.c ****   */
 704:Middlewares/ST/STM32_USB_Device_Library/Class/MSC/Src/usbd_msc_scsi.c **** static int8_t SCSI_Read10(USBD_HandleTypeDef *pdev, uint8_t lun, uint8_t *params)
 705:Middlewares/ST/STM32_USB_Device_Library/Class/MSC/Src/usbd_msc_scsi.c **** {
 706:Middlewares/ST/STM32_USB_Device_Library/Class/MSC/Src/usbd_msc_scsi.c ****   USBD_MSC_BOT_HandleTypeDef *hmsc = (USBD_MSC_BOT_HandleTypeDef *)pdev->pClassDataCmsit[pdev->clas
 707:Middlewares/ST/STM32_USB_Device_Library/Class/MSC/Src/usbd_msc_scsi.c **** 
 708:Middlewares/ST/STM32_USB_Device_Library/Class/MSC/Src/usbd_msc_scsi.c ****   if (hmsc == NULL)
ARM GAS  /tmp/cc2SMzdz.s 			page 15


 709:Middlewares/ST/STM32_USB_Device_Library/Class/MSC/Src/usbd_msc_scsi.c ****   {
 710:Middlewares/ST/STM32_USB_Device_Library/Class/MSC/Src/usbd_msc_scsi.c ****     return -1;
 711:Middlewares/ST/STM32_USB_Device_Library/Class/MSC/Src/usbd_msc_scsi.c ****   }
 712:Middlewares/ST/STM32_USB_Device_Library/Class/MSC/Src/usbd_msc_scsi.c **** 
 713:Middlewares/ST/STM32_USB_Device_Library/Class/MSC/Src/usbd_msc_scsi.c ****   if (hmsc->bot_state == USBD_BOT_IDLE) /* Idle */
 714:Middlewares/ST/STM32_USB_Device_Library/Class/MSC/Src/usbd_msc_scsi.c ****   {
 715:Middlewares/ST/STM32_USB_Device_Library/Class/MSC/Src/usbd_msc_scsi.c ****     /* case 10 : Ho <> Di */
 716:Middlewares/ST/STM32_USB_Device_Library/Class/MSC/Src/usbd_msc_scsi.c ****     if ((hmsc->cbw.bmFlags & 0x80U) != 0x80U)
 717:Middlewares/ST/STM32_USB_Device_Library/Class/MSC/Src/usbd_msc_scsi.c ****     {
 718:Middlewares/ST/STM32_USB_Device_Library/Class/MSC/Src/usbd_msc_scsi.c ****       SCSI_SenseCode(pdev, hmsc->cbw.bLUN, ILLEGAL_REQUEST, INVALID_CDB);
 719:Middlewares/ST/STM32_USB_Device_Library/Class/MSC/Src/usbd_msc_scsi.c ****       return -1;
 720:Middlewares/ST/STM32_USB_Device_Library/Class/MSC/Src/usbd_msc_scsi.c ****     }
 721:Middlewares/ST/STM32_USB_Device_Library/Class/MSC/Src/usbd_msc_scsi.c **** 
 722:Middlewares/ST/STM32_USB_Device_Library/Class/MSC/Src/usbd_msc_scsi.c ****     if (hmsc->scsi_medium_state == SCSI_MEDIUM_EJECTED)
 723:Middlewares/ST/STM32_USB_Device_Library/Class/MSC/Src/usbd_msc_scsi.c ****     {
 724:Middlewares/ST/STM32_USB_Device_Library/Class/MSC/Src/usbd_msc_scsi.c ****       SCSI_SenseCode(pdev, lun, NOT_READY, MEDIUM_NOT_PRESENT);
 725:Middlewares/ST/STM32_USB_Device_Library/Class/MSC/Src/usbd_msc_scsi.c **** 
 726:Middlewares/ST/STM32_USB_Device_Library/Class/MSC/Src/usbd_msc_scsi.c ****       return -1;
 727:Middlewares/ST/STM32_USB_Device_Library/Class/MSC/Src/usbd_msc_scsi.c ****     }
 728:Middlewares/ST/STM32_USB_Device_Library/Class/MSC/Src/usbd_msc_scsi.c **** 
 729:Middlewares/ST/STM32_USB_Device_Library/Class/MSC/Src/usbd_msc_scsi.c ****     if (((USBD_StorageTypeDef *)pdev->pUserData[pdev->classId])->IsReady(lun) != 0)
 730:Middlewares/ST/STM32_USB_Device_Library/Class/MSC/Src/usbd_msc_scsi.c ****     {
 731:Middlewares/ST/STM32_USB_Device_Library/Class/MSC/Src/usbd_msc_scsi.c ****       SCSI_SenseCode(pdev, lun, NOT_READY, MEDIUM_NOT_PRESENT);
 732:Middlewares/ST/STM32_USB_Device_Library/Class/MSC/Src/usbd_msc_scsi.c ****       return -1;
 733:Middlewares/ST/STM32_USB_Device_Library/Class/MSC/Src/usbd_msc_scsi.c ****     }
 734:Middlewares/ST/STM32_USB_Device_Library/Class/MSC/Src/usbd_msc_scsi.c **** 
 735:Middlewares/ST/STM32_USB_Device_Library/Class/MSC/Src/usbd_msc_scsi.c ****     hmsc->scsi_blk_addr = ((uint32_t)params[2] << 24) |
 736:Middlewares/ST/STM32_USB_Device_Library/Class/MSC/Src/usbd_msc_scsi.c ****                           ((uint32_t)params[3] << 16) |
 737:Middlewares/ST/STM32_USB_Device_Library/Class/MSC/Src/usbd_msc_scsi.c ****                           ((uint32_t)params[4] <<  8) |
 738:Middlewares/ST/STM32_USB_Device_Library/Class/MSC/Src/usbd_msc_scsi.c ****                           (uint32_t)params[5];
 739:Middlewares/ST/STM32_USB_Device_Library/Class/MSC/Src/usbd_msc_scsi.c **** 
 740:Middlewares/ST/STM32_USB_Device_Library/Class/MSC/Src/usbd_msc_scsi.c ****     hmsc->scsi_blk_len = ((uint32_t)params[7] <<  8) | (uint32_t)params[8];
 741:Middlewares/ST/STM32_USB_Device_Library/Class/MSC/Src/usbd_msc_scsi.c **** 
 742:Middlewares/ST/STM32_USB_Device_Library/Class/MSC/Src/usbd_msc_scsi.c ****     if (SCSI_CheckAddressRange(pdev, lun, hmsc->scsi_blk_addr,
 743:Middlewares/ST/STM32_USB_Device_Library/Class/MSC/Src/usbd_msc_scsi.c ****                                hmsc->scsi_blk_len) < 0)
 744:Middlewares/ST/STM32_USB_Device_Library/Class/MSC/Src/usbd_msc_scsi.c ****     {
 745:Middlewares/ST/STM32_USB_Device_Library/Class/MSC/Src/usbd_msc_scsi.c ****       return -1; /* error */
 746:Middlewares/ST/STM32_USB_Device_Library/Class/MSC/Src/usbd_msc_scsi.c ****     }
 747:Middlewares/ST/STM32_USB_Device_Library/Class/MSC/Src/usbd_msc_scsi.c **** 
 748:Middlewares/ST/STM32_USB_Device_Library/Class/MSC/Src/usbd_msc_scsi.c ****     /* cases 4,5 : Hi <> Dn */
 749:Middlewares/ST/STM32_USB_Device_Library/Class/MSC/Src/usbd_msc_scsi.c ****     if (hmsc->cbw.dDataLength != (hmsc->scsi_blk_len * hmsc->scsi_blk_size))
 750:Middlewares/ST/STM32_USB_Device_Library/Class/MSC/Src/usbd_msc_scsi.c ****     {
 751:Middlewares/ST/STM32_USB_Device_Library/Class/MSC/Src/usbd_msc_scsi.c ****       SCSI_SenseCode(pdev, hmsc->cbw.bLUN, ILLEGAL_REQUEST, INVALID_CDB);
 752:Middlewares/ST/STM32_USB_Device_Library/Class/MSC/Src/usbd_msc_scsi.c ****       return -1;
 753:Middlewares/ST/STM32_USB_Device_Library/Class/MSC/Src/usbd_msc_scsi.c ****     }
 754:Middlewares/ST/STM32_USB_Device_Library/Class/MSC/Src/usbd_msc_scsi.c **** 
 755:Middlewares/ST/STM32_USB_Device_Library/Class/MSC/Src/usbd_msc_scsi.c ****     hmsc->bot_state = USBD_BOT_DATA_IN;
 756:Middlewares/ST/STM32_USB_Device_Library/Class/MSC/Src/usbd_msc_scsi.c ****   }
 757:Middlewares/ST/STM32_USB_Device_Library/Class/MSC/Src/usbd_msc_scsi.c ****   hmsc->bot_data_length = MSC_MEDIA_PACKET;
 758:Middlewares/ST/STM32_USB_Device_Library/Class/MSC/Src/usbd_msc_scsi.c **** 
 759:Middlewares/ST/STM32_USB_Device_Library/Class/MSC/Src/usbd_msc_scsi.c ****   return SCSI_ProcessRead(pdev, lun);
 760:Middlewares/ST/STM32_USB_Device_Library/Class/MSC/Src/usbd_msc_scsi.c **** }
 761:Middlewares/ST/STM32_USB_Device_Library/Class/MSC/Src/usbd_msc_scsi.c **** 
 762:Middlewares/ST/STM32_USB_Device_Library/Class/MSC/Src/usbd_msc_scsi.c **** 
 763:Middlewares/ST/STM32_USB_Device_Library/Class/MSC/Src/usbd_msc_scsi.c **** /**
 764:Middlewares/ST/STM32_USB_Device_Library/Class/MSC/Src/usbd_msc_scsi.c ****   * @brief  SCSI_Read12
 765:Middlewares/ST/STM32_USB_Device_Library/Class/MSC/Src/usbd_msc_scsi.c ****   *         Process Read12 command
ARM GAS  /tmp/cc2SMzdz.s 			page 16


 766:Middlewares/ST/STM32_USB_Device_Library/Class/MSC/Src/usbd_msc_scsi.c ****   * @param  lun: Logical unit number
 767:Middlewares/ST/STM32_USB_Device_Library/Class/MSC/Src/usbd_msc_scsi.c ****   * @param  params: Command parameters
 768:Middlewares/ST/STM32_USB_Device_Library/Class/MSC/Src/usbd_msc_scsi.c ****   * @retval status
 769:Middlewares/ST/STM32_USB_Device_Library/Class/MSC/Src/usbd_msc_scsi.c ****   */
 770:Middlewares/ST/STM32_USB_Device_Library/Class/MSC/Src/usbd_msc_scsi.c **** static int8_t SCSI_Read12(USBD_HandleTypeDef *pdev, uint8_t lun, uint8_t *params)
 771:Middlewares/ST/STM32_USB_Device_Library/Class/MSC/Src/usbd_msc_scsi.c **** {
 772:Middlewares/ST/STM32_USB_Device_Library/Class/MSC/Src/usbd_msc_scsi.c ****   USBD_MSC_BOT_HandleTypeDef *hmsc = (USBD_MSC_BOT_HandleTypeDef *)pdev->pClassDataCmsit[pdev->clas
 773:Middlewares/ST/STM32_USB_Device_Library/Class/MSC/Src/usbd_msc_scsi.c **** 
 774:Middlewares/ST/STM32_USB_Device_Library/Class/MSC/Src/usbd_msc_scsi.c ****   if (hmsc == NULL)
 775:Middlewares/ST/STM32_USB_Device_Library/Class/MSC/Src/usbd_msc_scsi.c ****   {
 776:Middlewares/ST/STM32_USB_Device_Library/Class/MSC/Src/usbd_msc_scsi.c ****     return -1;
 777:Middlewares/ST/STM32_USB_Device_Library/Class/MSC/Src/usbd_msc_scsi.c ****   }
 778:Middlewares/ST/STM32_USB_Device_Library/Class/MSC/Src/usbd_msc_scsi.c **** 
 779:Middlewares/ST/STM32_USB_Device_Library/Class/MSC/Src/usbd_msc_scsi.c ****   if (hmsc->bot_state == USBD_BOT_IDLE) /* Idle */
 780:Middlewares/ST/STM32_USB_Device_Library/Class/MSC/Src/usbd_msc_scsi.c ****   {
 781:Middlewares/ST/STM32_USB_Device_Library/Class/MSC/Src/usbd_msc_scsi.c ****     /* case 10 : Ho <> Di */
 782:Middlewares/ST/STM32_USB_Device_Library/Class/MSC/Src/usbd_msc_scsi.c ****     if ((hmsc->cbw.bmFlags & 0x80U) != 0x80U)
 783:Middlewares/ST/STM32_USB_Device_Library/Class/MSC/Src/usbd_msc_scsi.c ****     {
 784:Middlewares/ST/STM32_USB_Device_Library/Class/MSC/Src/usbd_msc_scsi.c ****       SCSI_SenseCode(pdev, hmsc->cbw.bLUN, ILLEGAL_REQUEST, INVALID_CDB);
 785:Middlewares/ST/STM32_USB_Device_Library/Class/MSC/Src/usbd_msc_scsi.c ****       return -1;
 786:Middlewares/ST/STM32_USB_Device_Library/Class/MSC/Src/usbd_msc_scsi.c ****     }
 787:Middlewares/ST/STM32_USB_Device_Library/Class/MSC/Src/usbd_msc_scsi.c **** 
 788:Middlewares/ST/STM32_USB_Device_Library/Class/MSC/Src/usbd_msc_scsi.c ****     if (hmsc->scsi_medium_state == SCSI_MEDIUM_EJECTED)
 789:Middlewares/ST/STM32_USB_Device_Library/Class/MSC/Src/usbd_msc_scsi.c ****     {
 790:Middlewares/ST/STM32_USB_Device_Library/Class/MSC/Src/usbd_msc_scsi.c ****       SCSI_SenseCode(pdev, lun, NOT_READY, MEDIUM_NOT_PRESENT);
 791:Middlewares/ST/STM32_USB_Device_Library/Class/MSC/Src/usbd_msc_scsi.c ****       return -1;
 792:Middlewares/ST/STM32_USB_Device_Library/Class/MSC/Src/usbd_msc_scsi.c ****     }
 793:Middlewares/ST/STM32_USB_Device_Library/Class/MSC/Src/usbd_msc_scsi.c **** 
 794:Middlewares/ST/STM32_USB_Device_Library/Class/MSC/Src/usbd_msc_scsi.c ****     if (((USBD_StorageTypeDef *)pdev->pUserData[pdev->classId])->IsReady(lun) != 0)
 795:Middlewares/ST/STM32_USB_Device_Library/Class/MSC/Src/usbd_msc_scsi.c ****     {
 796:Middlewares/ST/STM32_USB_Device_Library/Class/MSC/Src/usbd_msc_scsi.c ****       SCSI_SenseCode(pdev, lun, NOT_READY, MEDIUM_NOT_PRESENT);
 797:Middlewares/ST/STM32_USB_Device_Library/Class/MSC/Src/usbd_msc_scsi.c ****       return -1;
 798:Middlewares/ST/STM32_USB_Device_Library/Class/MSC/Src/usbd_msc_scsi.c ****     }
 799:Middlewares/ST/STM32_USB_Device_Library/Class/MSC/Src/usbd_msc_scsi.c **** 
 800:Middlewares/ST/STM32_USB_Device_Library/Class/MSC/Src/usbd_msc_scsi.c ****     hmsc->scsi_blk_addr = ((uint32_t)params[2] << 24) |
 801:Middlewares/ST/STM32_USB_Device_Library/Class/MSC/Src/usbd_msc_scsi.c ****                           ((uint32_t)params[3] << 16) |
 802:Middlewares/ST/STM32_USB_Device_Library/Class/MSC/Src/usbd_msc_scsi.c ****                           ((uint32_t)params[4] <<  8) |
 803:Middlewares/ST/STM32_USB_Device_Library/Class/MSC/Src/usbd_msc_scsi.c ****                           (uint32_t)params[5];
 804:Middlewares/ST/STM32_USB_Device_Library/Class/MSC/Src/usbd_msc_scsi.c **** 
 805:Middlewares/ST/STM32_USB_Device_Library/Class/MSC/Src/usbd_msc_scsi.c ****     hmsc->scsi_blk_len = ((uint32_t)params[6] << 24) |
 806:Middlewares/ST/STM32_USB_Device_Library/Class/MSC/Src/usbd_msc_scsi.c ****                          ((uint32_t)params[7] << 16) |
 807:Middlewares/ST/STM32_USB_Device_Library/Class/MSC/Src/usbd_msc_scsi.c ****                          ((uint32_t)params[8] << 8) |
 808:Middlewares/ST/STM32_USB_Device_Library/Class/MSC/Src/usbd_msc_scsi.c ****                          (uint32_t)params[9];
 809:Middlewares/ST/STM32_USB_Device_Library/Class/MSC/Src/usbd_msc_scsi.c **** 
 810:Middlewares/ST/STM32_USB_Device_Library/Class/MSC/Src/usbd_msc_scsi.c ****     if (SCSI_CheckAddressRange(pdev, lun, hmsc->scsi_blk_addr,
 811:Middlewares/ST/STM32_USB_Device_Library/Class/MSC/Src/usbd_msc_scsi.c ****                                hmsc->scsi_blk_len) < 0)
 812:Middlewares/ST/STM32_USB_Device_Library/Class/MSC/Src/usbd_msc_scsi.c ****     {
 813:Middlewares/ST/STM32_USB_Device_Library/Class/MSC/Src/usbd_msc_scsi.c ****       return -1; /* error */
 814:Middlewares/ST/STM32_USB_Device_Library/Class/MSC/Src/usbd_msc_scsi.c ****     }
 815:Middlewares/ST/STM32_USB_Device_Library/Class/MSC/Src/usbd_msc_scsi.c **** 
 816:Middlewares/ST/STM32_USB_Device_Library/Class/MSC/Src/usbd_msc_scsi.c ****     /* cases 4,5 : Hi <> Dn */
 817:Middlewares/ST/STM32_USB_Device_Library/Class/MSC/Src/usbd_msc_scsi.c ****     if (hmsc->cbw.dDataLength != (hmsc->scsi_blk_len * hmsc->scsi_blk_size))
 818:Middlewares/ST/STM32_USB_Device_Library/Class/MSC/Src/usbd_msc_scsi.c ****     {
 819:Middlewares/ST/STM32_USB_Device_Library/Class/MSC/Src/usbd_msc_scsi.c ****       SCSI_SenseCode(pdev, hmsc->cbw.bLUN, ILLEGAL_REQUEST, INVALID_CDB);
 820:Middlewares/ST/STM32_USB_Device_Library/Class/MSC/Src/usbd_msc_scsi.c ****       return -1;
 821:Middlewares/ST/STM32_USB_Device_Library/Class/MSC/Src/usbd_msc_scsi.c ****     }
 822:Middlewares/ST/STM32_USB_Device_Library/Class/MSC/Src/usbd_msc_scsi.c **** 
ARM GAS  /tmp/cc2SMzdz.s 			page 17


 823:Middlewares/ST/STM32_USB_Device_Library/Class/MSC/Src/usbd_msc_scsi.c ****     hmsc->bot_state = USBD_BOT_DATA_IN;
 824:Middlewares/ST/STM32_USB_Device_Library/Class/MSC/Src/usbd_msc_scsi.c ****   }
 825:Middlewares/ST/STM32_USB_Device_Library/Class/MSC/Src/usbd_msc_scsi.c ****   hmsc->bot_data_length = MSC_MEDIA_PACKET;
 826:Middlewares/ST/STM32_USB_Device_Library/Class/MSC/Src/usbd_msc_scsi.c **** 
 827:Middlewares/ST/STM32_USB_Device_Library/Class/MSC/Src/usbd_msc_scsi.c ****   return SCSI_ProcessRead(pdev, lun);
 828:Middlewares/ST/STM32_USB_Device_Library/Class/MSC/Src/usbd_msc_scsi.c **** }
 829:Middlewares/ST/STM32_USB_Device_Library/Class/MSC/Src/usbd_msc_scsi.c **** 
 830:Middlewares/ST/STM32_USB_Device_Library/Class/MSC/Src/usbd_msc_scsi.c **** 
 831:Middlewares/ST/STM32_USB_Device_Library/Class/MSC/Src/usbd_msc_scsi.c **** /**
 832:Middlewares/ST/STM32_USB_Device_Library/Class/MSC/Src/usbd_msc_scsi.c ****   * @brief  SCSI_Write10
 833:Middlewares/ST/STM32_USB_Device_Library/Class/MSC/Src/usbd_msc_scsi.c ****   *         Process Write10 command
 834:Middlewares/ST/STM32_USB_Device_Library/Class/MSC/Src/usbd_msc_scsi.c ****   * @param  lun: Logical unit number
 835:Middlewares/ST/STM32_USB_Device_Library/Class/MSC/Src/usbd_msc_scsi.c ****   * @param  params: Command parameters
 836:Middlewares/ST/STM32_USB_Device_Library/Class/MSC/Src/usbd_msc_scsi.c ****   * @retval status
 837:Middlewares/ST/STM32_USB_Device_Library/Class/MSC/Src/usbd_msc_scsi.c ****   */
 838:Middlewares/ST/STM32_USB_Device_Library/Class/MSC/Src/usbd_msc_scsi.c **** static int8_t SCSI_Write10(USBD_HandleTypeDef *pdev, uint8_t lun, uint8_t *params)
 839:Middlewares/ST/STM32_USB_Device_Library/Class/MSC/Src/usbd_msc_scsi.c **** {
 840:Middlewares/ST/STM32_USB_Device_Library/Class/MSC/Src/usbd_msc_scsi.c ****   USBD_MSC_BOT_HandleTypeDef *hmsc = (USBD_MSC_BOT_HandleTypeDef *)pdev->pClassDataCmsit[pdev->clas
 841:Middlewares/ST/STM32_USB_Device_Library/Class/MSC/Src/usbd_msc_scsi.c ****   uint32_t len;
 842:Middlewares/ST/STM32_USB_Device_Library/Class/MSC/Src/usbd_msc_scsi.c **** 
 843:Middlewares/ST/STM32_USB_Device_Library/Class/MSC/Src/usbd_msc_scsi.c ****   if (hmsc == NULL)
 844:Middlewares/ST/STM32_USB_Device_Library/Class/MSC/Src/usbd_msc_scsi.c ****   {
 845:Middlewares/ST/STM32_USB_Device_Library/Class/MSC/Src/usbd_msc_scsi.c ****     return -1;
 846:Middlewares/ST/STM32_USB_Device_Library/Class/MSC/Src/usbd_msc_scsi.c ****   }
 847:Middlewares/ST/STM32_USB_Device_Library/Class/MSC/Src/usbd_msc_scsi.c **** 
 848:Middlewares/ST/STM32_USB_Device_Library/Class/MSC/Src/usbd_msc_scsi.c **** #ifdef USE_USBD_COMPOSITE
 849:Middlewares/ST/STM32_USB_Device_Library/Class/MSC/Src/usbd_msc_scsi.c ****   /* Get the Endpoints addresses allocated for this class instance */
 850:Middlewares/ST/STM32_USB_Device_Library/Class/MSC/Src/usbd_msc_scsi.c ****   MSCOutEpAdd = USBD_CoreGetEPAdd(pdev, USBD_EP_OUT, USBD_EP_TYPE_BULK, (uint8_t)pdev->classId);
 851:Middlewares/ST/STM32_USB_Device_Library/Class/MSC/Src/usbd_msc_scsi.c **** #endif /* USE_USBD_COMPOSITE */
 852:Middlewares/ST/STM32_USB_Device_Library/Class/MSC/Src/usbd_msc_scsi.c **** 
 853:Middlewares/ST/STM32_USB_Device_Library/Class/MSC/Src/usbd_msc_scsi.c ****   if (hmsc->bot_state == USBD_BOT_IDLE) /* Idle */
 854:Middlewares/ST/STM32_USB_Device_Library/Class/MSC/Src/usbd_msc_scsi.c ****   {
 855:Middlewares/ST/STM32_USB_Device_Library/Class/MSC/Src/usbd_msc_scsi.c ****     if (hmsc->cbw.dDataLength == 0U)
 856:Middlewares/ST/STM32_USB_Device_Library/Class/MSC/Src/usbd_msc_scsi.c ****     {
 857:Middlewares/ST/STM32_USB_Device_Library/Class/MSC/Src/usbd_msc_scsi.c ****       SCSI_SenseCode(pdev, hmsc->cbw.bLUN, ILLEGAL_REQUEST, INVALID_CDB);
 858:Middlewares/ST/STM32_USB_Device_Library/Class/MSC/Src/usbd_msc_scsi.c ****       return -1;
 859:Middlewares/ST/STM32_USB_Device_Library/Class/MSC/Src/usbd_msc_scsi.c ****     }
 860:Middlewares/ST/STM32_USB_Device_Library/Class/MSC/Src/usbd_msc_scsi.c **** 
 861:Middlewares/ST/STM32_USB_Device_Library/Class/MSC/Src/usbd_msc_scsi.c ****     /* case 8 : Hi <> Do */
 862:Middlewares/ST/STM32_USB_Device_Library/Class/MSC/Src/usbd_msc_scsi.c ****     if ((hmsc->cbw.bmFlags & 0x80U) == 0x80U)
 863:Middlewares/ST/STM32_USB_Device_Library/Class/MSC/Src/usbd_msc_scsi.c ****     {
 864:Middlewares/ST/STM32_USB_Device_Library/Class/MSC/Src/usbd_msc_scsi.c ****       SCSI_SenseCode(pdev, hmsc->cbw.bLUN, ILLEGAL_REQUEST, INVALID_CDB);
 865:Middlewares/ST/STM32_USB_Device_Library/Class/MSC/Src/usbd_msc_scsi.c ****       return -1;
 866:Middlewares/ST/STM32_USB_Device_Library/Class/MSC/Src/usbd_msc_scsi.c ****     }
 867:Middlewares/ST/STM32_USB_Device_Library/Class/MSC/Src/usbd_msc_scsi.c **** 
 868:Middlewares/ST/STM32_USB_Device_Library/Class/MSC/Src/usbd_msc_scsi.c ****     /* Check whether Media is ready */
 869:Middlewares/ST/STM32_USB_Device_Library/Class/MSC/Src/usbd_msc_scsi.c ****     if (((USBD_StorageTypeDef *)pdev->pUserData[pdev->classId])->IsReady(lun) != 0)
 870:Middlewares/ST/STM32_USB_Device_Library/Class/MSC/Src/usbd_msc_scsi.c ****     {
 871:Middlewares/ST/STM32_USB_Device_Library/Class/MSC/Src/usbd_msc_scsi.c ****       SCSI_SenseCode(pdev, lun, NOT_READY, MEDIUM_NOT_PRESENT);
 872:Middlewares/ST/STM32_USB_Device_Library/Class/MSC/Src/usbd_msc_scsi.c ****       return -1;
 873:Middlewares/ST/STM32_USB_Device_Library/Class/MSC/Src/usbd_msc_scsi.c ****     }
 874:Middlewares/ST/STM32_USB_Device_Library/Class/MSC/Src/usbd_msc_scsi.c **** 
 875:Middlewares/ST/STM32_USB_Device_Library/Class/MSC/Src/usbd_msc_scsi.c ****     /* Check If media is write-protected */
 876:Middlewares/ST/STM32_USB_Device_Library/Class/MSC/Src/usbd_msc_scsi.c ****     if (((USBD_StorageTypeDef *)pdev->pUserData[pdev->classId])->IsWriteProtected(lun) != 0)
 877:Middlewares/ST/STM32_USB_Device_Library/Class/MSC/Src/usbd_msc_scsi.c ****     {
 878:Middlewares/ST/STM32_USB_Device_Library/Class/MSC/Src/usbd_msc_scsi.c ****       SCSI_SenseCode(pdev, lun, NOT_READY, WRITE_PROTECTED);
 879:Middlewares/ST/STM32_USB_Device_Library/Class/MSC/Src/usbd_msc_scsi.c ****       return -1;
ARM GAS  /tmp/cc2SMzdz.s 			page 18


 880:Middlewares/ST/STM32_USB_Device_Library/Class/MSC/Src/usbd_msc_scsi.c ****     }
 881:Middlewares/ST/STM32_USB_Device_Library/Class/MSC/Src/usbd_msc_scsi.c **** 
 882:Middlewares/ST/STM32_USB_Device_Library/Class/MSC/Src/usbd_msc_scsi.c ****     hmsc->scsi_blk_addr = ((uint32_t)params[2] << 24) |
 883:Middlewares/ST/STM32_USB_Device_Library/Class/MSC/Src/usbd_msc_scsi.c ****                           ((uint32_t)params[3] << 16) |
 884:Middlewares/ST/STM32_USB_Device_Library/Class/MSC/Src/usbd_msc_scsi.c ****                           ((uint32_t)params[4] << 8) |
 885:Middlewares/ST/STM32_USB_Device_Library/Class/MSC/Src/usbd_msc_scsi.c ****                           (uint32_t)params[5];
 886:Middlewares/ST/STM32_USB_Device_Library/Class/MSC/Src/usbd_msc_scsi.c **** 
 887:Middlewares/ST/STM32_USB_Device_Library/Class/MSC/Src/usbd_msc_scsi.c ****     hmsc->scsi_blk_len = ((uint32_t)params[7] << 8) |
 888:Middlewares/ST/STM32_USB_Device_Library/Class/MSC/Src/usbd_msc_scsi.c ****                          (uint32_t)params[8];
 889:Middlewares/ST/STM32_USB_Device_Library/Class/MSC/Src/usbd_msc_scsi.c **** 
 890:Middlewares/ST/STM32_USB_Device_Library/Class/MSC/Src/usbd_msc_scsi.c ****     /* check if LBA address is in the right range */
 891:Middlewares/ST/STM32_USB_Device_Library/Class/MSC/Src/usbd_msc_scsi.c ****     if (SCSI_CheckAddressRange(pdev, lun, hmsc->scsi_blk_addr,
 892:Middlewares/ST/STM32_USB_Device_Library/Class/MSC/Src/usbd_msc_scsi.c ****                                hmsc->scsi_blk_len) < 0)
 893:Middlewares/ST/STM32_USB_Device_Library/Class/MSC/Src/usbd_msc_scsi.c ****     {
 894:Middlewares/ST/STM32_USB_Device_Library/Class/MSC/Src/usbd_msc_scsi.c ****       return -1; /* error */
 895:Middlewares/ST/STM32_USB_Device_Library/Class/MSC/Src/usbd_msc_scsi.c ****     }
 896:Middlewares/ST/STM32_USB_Device_Library/Class/MSC/Src/usbd_msc_scsi.c **** 
 897:Middlewares/ST/STM32_USB_Device_Library/Class/MSC/Src/usbd_msc_scsi.c ****     len = hmsc->scsi_blk_len * hmsc->scsi_blk_size;
 898:Middlewares/ST/STM32_USB_Device_Library/Class/MSC/Src/usbd_msc_scsi.c **** 
 899:Middlewares/ST/STM32_USB_Device_Library/Class/MSC/Src/usbd_msc_scsi.c ****     /* cases 3,11,13 : Hn,Ho <> D0 */
 900:Middlewares/ST/STM32_USB_Device_Library/Class/MSC/Src/usbd_msc_scsi.c ****     if (hmsc->cbw.dDataLength != len)
 901:Middlewares/ST/STM32_USB_Device_Library/Class/MSC/Src/usbd_msc_scsi.c ****     {
 902:Middlewares/ST/STM32_USB_Device_Library/Class/MSC/Src/usbd_msc_scsi.c ****       SCSI_SenseCode(pdev, hmsc->cbw.bLUN, ILLEGAL_REQUEST, INVALID_CDB);
 903:Middlewares/ST/STM32_USB_Device_Library/Class/MSC/Src/usbd_msc_scsi.c ****       return -1;
 904:Middlewares/ST/STM32_USB_Device_Library/Class/MSC/Src/usbd_msc_scsi.c ****     }
 905:Middlewares/ST/STM32_USB_Device_Library/Class/MSC/Src/usbd_msc_scsi.c **** 
 906:Middlewares/ST/STM32_USB_Device_Library/Class/MSC/Src/usbd_msc_scsi.c ****     len = MIN(len, MSC_MEDIA_PACKET);
 907:Middlewares/ST/STM32_USB_Device_Library/Class/MSC/Src/usbd_msc_scsi.c **** 
 908:Middlewares/ST/STM32_USB_Device_Library/Class/MSC/Src/usbd_msc_scsi.c ****     /* Prepare EP to receive first data packet */
 909:Middlewares/ST/STM32_USB_Device_Library/Class/MSC/Src/usbd_msc_scsi.c ****     hmsc->bot_state = USBD_BOT_DATA_OUT;
 910:Middlewares/ST/STM32_USB_Device_Library/Class/MSC/Src/usbd_msc_scsi.c ****     (void)USBD_LL_PrepareReceive(pdev, MSCOutEpAdd, hmsc->bot_data, len);
 911:Middlewares/ST/STM32_USB_Device_Library/Class/MSC/Src/usbd_msc_scsi.c ****   }
 912:Middlewares/ST/STM32_USB_Device_Library/Class/MSC/Src/usbd_msc_scsi.c ****   else /* Write Process ongoing */
 913:Middlewares/ST/STM32_USB_Device_Library/Class/MSC/Src/usbd_msc_scsi.c ****   {
 914:Middlewares/ST/STM32_USB_Device_Library/Class/MSC/Src/usbd_msc_scsi.c ****     return SCSI_ProcessWrite(pdev, lun);
 915:Middlewares/ST/STM32_USB_Device_Library/Class/MSC/Src/usbd_msc_scsi.c ****   }
 916:Middlewares/ST/STM32_USB_Device_Library/Class/MSC/Src/usbd_msc_scsi.c **** 
 917:Middlewares/ST/STM32_USB_Device_Library/Class/MSC/Src/usbd_msc_scsi.c ****   return 0;
 918:Middlewares/ST/STM32_USB_Device_Library/Class/MSC/Src/usbd_msc_scsi.c **** }
 919:Middlewares/ST/STM32_USB_Device_Library/Class/MSC/Src/usbd_msc_scsi.c **** 
 920:Middlewares/ST/STM32_USB_Device_Library/Class/MSC/Src/usbd_msc_scsi.c **** 
 921:Middlewares/ST/STM32_USB_Device_Library/Class/MSC/Src/usbd_msc_scsi.c **** /**
 922:Middlewares/ST/STM32_USB_Device_Library/Class/MSC/Src/usbd_msc_scsi.c ****   * @brief  SCSI_Write12
 923:Middlewares/ST/STM32_USB_Device_Library/Class/MSC/Src/usbd_msc_scsi.c ****   *         Process Write12 command
 924:Middlewares/ST/STM32_USB_Device_Library/Class/MSC/Src/usbd_msc_scsi.c ****   * @param  lun: Logical unit number
 925:Middlewares/ST/STM32_USB_Device_Library/Class/MSC/Src/usbd_msc_scsi.c ****   * @param  params: Command parameters
 926:Middlewares/ST/STM32_USB_Device_Library/Class/MSC/Src/usbd_msc_scsi.c ****   * @retval status
 927:Middlewares/ST/STM32_USB_Device_Library/Class/MSC/Src/usbd_msc_scsi.c ****   */
 928:Middlewares/ST/STM32_USB_Device_Library/Class/MSC/Src/usbd_msc_scsi.c **** static int8_t SCSI_Write12(USBD_HandleTypeDef *pdev, uint8_t lun, uint8_t *params)
 929:Middlewares/ST/STM32_USB_Device_Library/Class/MSC/Src/usbd_msc_scsi.c **** {
 930:Middlewares/ST/STM32_USB_Device_Library/Class/MSC/Src/usbd_msc_scsi.c ****   USBD_MSC_BOT_HandleTypeDef *hmsc = (USBD_MSC_BOT_HandleTypeDef *)pdev->pClassDataCmsit[pdev->clas
 931:Middlewares/ST/STM32_USB_Device_Library/Class/MSC/Src/usbd_msc_scsi.c ****   uint32_t len;
 932:Middlewares/ST/STM32_USB_Device_Library/Class/MSC/Src/usbd_msc_scsi.c **** 
 933:Middlewares/ST/STM32_USB_Device_Library/Class/MSC/Src/usbd_msc_scsi.c ****   if (hmsc == NULL)
 934:Middlewares/ST/STM32_USB_Device_Library/Class/MSC/Src/usbd_msc_scsi.c ****   {
 935:Middlewares/ST/STM32_USB_Device_Library/Class/MSC/Src/usbd_msc_scsi.c ****     return -1;
 936:Middlewares/ST/STM32_USB_Device_Library/Class/MSC/Src/usbd_msc_scsi.c ****   }
ARM GAS  /tmp/cc2SMzdz.s 			page 19


 937:Middlewares/ST/STM32_USB_Device_Library/Class/MSC/Src/usbd_msc_scsi.c **** #ifdef USE_USBD_COMPOSITE
 938:Middlewares/ST/STM32_USB_Device_Library/Class/MSC/Src/usbd_msc_scsi.c ****   /* Get the Endpoints addresses allocated for this class instance */
 939:Middlewares/ST/STM32_USB_Device_Library/Class/MSC/Src/usbd_msc_scsi.c ****   MSCOutEpAdd = USBD_CoreGetEPAdd(pdev, USBD_EP_OUT, USBD_EP_TYPE_BULK, (uint8_t)pdev->classId);
 940:Middlewares/ST/STM32_USB_Device_Library/Class/MSC/Src/usbd_msc_scsi.c **** #endif /* USE_USBD_COMPOSITE */
 941:Middlewares/ST/STM32_USB_Device_Library/Class/MSC/Src/usbd_msc_scsi.c **** 
 942:Middlewares/ST/STM32_USB_Device_Library/Class/MSC/Src/usbd_msc_scsi.c ****   if (hmsc->bot_state == USBD_BOT_IDLE) /* Idle */
 943:Middlewares/ST/STM32_USB_Device_Library/Class/MSC/Src/usbd_msc_scsi.c ****   {
 944:Middlewares/ST/STM32_USB_Device_Library/Class/MSC/Src/usbd_msc_scsi.c ****     if (hmsc->cbw.dDataLength == 0U)
 945:Middlewares/ST/STM32_USB_Device_Library/Class/MSC/Src/usbd_msc_scsi.c ****     {
 946:Middlewares/ST/STM32_USB_Device_Library/Class/MSC/Src/usbd_msc_scsi.c ****       SCSI_SenseCode(pdev, hmsc->cbw.bLUN, ILLEGAL_REQUEST, INVALID_CDB);
 947:Middlewares/ST/STM32_USB_Device_Library/Class/MSC/Src/usbd_msc_scsi.c ****       return -1;
 948:Middlewares/ST/STM32_USB_Device_Library/Class/MSC/Src/usbd_msc_scsi.c ****     }
 949:Middlewares/ST/STM32_USB_Device_Library/Class/MSC/Src/usbd_msc_scsi.c **** 
 950:Middlewares/ST/STM32_USB_Device_Library/Class/MSC/Src/usbd_msc_scsi.c ****     /* case 8 : Hi <> Do */
 951:Middlewares/ST/STM32_USB_Device_Library/Class/MSC/Src/usbd_msc_scsi.c ****     if ((hmsc->cbw.bmFlags & 0x80U) == 0x80U)
 952:Middlewares/ST/STM32_USB_Device_Library/Class/MSC/Src/usbd_msc_scsi.c ****     {
 953:Middlewares/ST/STM32_USB_Device_Library/Class/MSC/Src/usbd_msc_scsi.c ****       SCSI_SenseCode(pdev, hmsc->cbw.bLUN, ILLEGAL_REQUEST, INVALID_CDB);
 954:Middlewares/ST/STM32_USB_Device_Library/Class/MSC/Src/usbd_msc_scsi.c ****       return -1;
 955:Middlewares/ST/STM32_USB_Device_Library/Class/MSC/Src/usbd_msc_scsi.c ****     }
 956:Middlewares/ST/STM32_USB_Device_Library/Class/MSC/Src/usbd_msc_scsi.c **** 
 957:Middlewares/ST/STM32_USB_Device_Library/Class/MSC/Src/usbd_msc_scsi.c ****     /* Check whether Media is ready */
 958:Middlewares/ST/STM32_USB_Device_Library/Class/MSC/Src/usbd_msc_scsi.c ****     if (((USBD_StorageTypeDef *)pdev->pUserData[pdev->classId])->IsReady(lun) != 0)
 959:Middlewares/ST/STM32_USB_Device_Library/Class/MSC/Src/usbd_msc_scsi.c ****     {
 960:Middlewares/ST/STM32_USB_Device_Library/Class/MSC/Src/usbd_msc_scsi.c ****       SCSI_SenseCode(pdev, lun, NOT_READY, MEDIUM_NOT_PRESENT);
 961:Middlewares/ST/STM32_USB_Device_Library/Class/MSC/Src/usbd_msc_scsi.c ****       hmsc->bot_state = USBD_BOT_NO_DATA;
 962:Middlewares/ST/STM32_USB_Device_Library/Class/MSC/Src/usbd_msc_scsi.c ****       return -1;
 963:Middlewares/ST/STM32_USB_Device_Library/Class/MSC/Src/usbd_msc_scsi.c ****     }
 964:Middlewares/ST/STM32_USB_Device_Library/Class/MSC/Src/usbd_msc_scsi.c **** 
 965:Middlewares/ST/STM32_USB_Device_Library/Class/MSC/Src/usbd_msc_scsi.c ****     /* Check If media is write-protected */
 966:Middlewares/ST/STM32_USB_Device_Library/Class/MSC/Src/usbd_msc_scsi.c ****     if (((USBD_StorageTypeDef *)pdev->pUserData[pdev->classId])->IsWriteProtected(lun) != 0)
 967:Middlewares/ST/STM32_USB_Device_Library/Class/MSC/Src/usbd_msc_scsi.c ****     {
 968:Middlewares/ST/STM32_USB_Device_Library/Class/MSC/Src/usbd_msc_scsi.c ****       SCSI_SenseCode(pdev, lun, NOT_READY, WRITE_PROTECTED);
 969:Middlewares/ST/STM32_USB_Device_Library/Class/MSC/Src/usbd_msc_scsi.c ****       hmsc->bot_state = USBD_BOT_NO_DATA;
 970:Middlewares/ST/STM32_USB_Device_Library/Class/MSC/Src/usbd_msc_scsi.c ****       return -1;
 971:Middlewares/ST/STM32_USB_Device_Library/Class/MSC/Src/usbd_msc_scsi.c ****     }
 972:Middlewares/ST/STM32_USB_Device_Library/Class/MSC/Src/usbd_msc_scsi.c **** 
 973:Middlewares/ST/STM32_USB_Device_Library/Class/MSC/Src/usbd_msc_scsi.c ****     hmsc->scsi_blk_addr = ((uint32_t)params[2] << 24) |
 974:Middlewares/ST/STM32_USB_Device_Library/Class/MSC/Src/usbd_msc_scsi.c ****                           ((uint32_t)params[3] << 16) |
 975:Middlewares/ST/STM32_USB_Device_Library/Class/MSC/Src/usbd_msc_scsi.c ****                           ((uint32_t)params[4] << 8) |
 976:Middlewares/ST/STM32_USB_Device_Library/Class/MSC/Src/usbd_msc_scsi.c ****                           (uint32_t)params[5];
 977:Middlewares/ST/STM32_USB_Device_Library/Class/MSC/Src/usbd_msc_scsi.c **** 
 978:Middlewares/ST/STM32_USB_Device_Library/Class/MSC/Src/usbd_msc_scsi.c ****     hmsc->scsi_blk_len = ((uint32_t)params[6] << 24) |
 979:Middlewares/ST/STM32_USB_Device_Library/Class/MSC/Src/usbd_msc_scsi.c ****                          ((uint32_t)params[7] << 16) |
 980:Middlewares/ST/STM32_USB_Device_Library/Class/MSC/Src/usbd_msc_scsi.c ****                          ((uint32_t)params[8] << 8) |
 981:Middlewares/ST/STM32_USB_Device_Library/Class/MSC/Src/usbd_msc_scsi.c ****                          (uint32_t)params[9];
 982:Middlewares/ST/STM32_USB_Device_Library/Class/MSC/Src/usbd_msc_scsi.c **** 
 983:Middlewares/ST/STM32_USB_Device_Library/Class/MSC/Src/usbd_msc_scsi.c ****     /* check if LBA address is in the right range */
 984:Middlewares/ST/STM32_USB_Device_Library/Class/MSC/Src/usbd_msc_scsi.c ****     if (SCSI_CheckAddressRange(pdev, lun, hmsc->scsi_blk_addr,
 985:Middlewares/ST/STM32_USB_Device_Library/Class/MSC/Src/usbd_msc_scsi.c ****                                hmsc->scsi_blk_len) < 0)
 986:Middlewares/ST/STM32_USB_Device_Library/Class/MSC/Src/usbd_msc_scsi.c ****     {
 987:Middlewares/ST/STM32_USB_Device_Library/Class/MSC/Src/usbd_msc_scsi.c ****       return -1; /* error */
 988:Middlewares/ST/STM32_USB_Device_Library/Class/MSC/Src/usbd_msc_scsi.c ****     }
 989:Middlewares/ST/STM32_USB_Device_Library/Class/MSC/Src/usbd_msc_scsi.c **** 
 990:Middlewares/ST/STM32_USB_Device_Library/Class/MSC/Src/usbd_msc_scsi.c ****     len = hmsc->scsi_blk_len * hmsc->scsi_blk_size;
 991:Middlewares/ST/STM32_USB_Device_Library/Class/MSC/Src/usbd_msc_scsi.c **** 
 992:Middlewares/ST/STM32_USB_Device_Library/Class/MSC/Src/usbd_msc_scsi.c ****     /* cases 3,11,13 : Hn,Ho <> D0 */
 993:Middlewares/ST/STM32_USB_Device_Library/Class/MSC/Src/usbd_msc_scsi.c ****     if (hmsc->cbw.dDataLength != len)
ARM GAS  /tmp/cc2SMzdz.s 			page 20


 994:Middlewares/ST/STM32_USB_Device_Library/Class/MSC/Src/usbd_msc_scsi.c ****     {
 995:Middlewares/ST/STM32_USB_Device_Library/Class/MSC/Src/usbd_msc_scsi.c ****       SCSI_SenseCode(pdev, hmsc->cbw.bLUN, ILLEGAL_REQUEST, INVALID_CDB);
 996:Middlewares/ST/STM32_USB_Device_Library/Class/MSC/Src/usbd_msc_scsi.c ****       return -1;
 997:Middlewares/ST/STM32_USB_Device_Library/Class/MSC/Src/usbd_msc_scsi.c ****     }
 998:Middlewares/ST/STM32_USB_Device_Library/Class/MSC/Src/usbd_msc_scsi.c **** 
 999:Middlewares/ST/STM32_USB_Device_Library/Class/MSC/Src/usbd_msc_scsi.c ****     len = MIN(len, MSC_MEDIA_PACKET);
1000:Middlewares/ST/STM32_USB_Device_Library/Class/MSC/Src/usbd_msc_scsi.c **** 
1001:Middlewares/ST/STM32_USB_Device_Library/Class/MSC/Src/usbd_msc_scsi.c ****     /* Prepare EP to receive first data packet */
1002:Middlewares/ST/STM32_USB_Device_Library/Class/MSC/Src/usbd_msc_scsi.c ****     hmsc->bot_state = USBD_BOT_DATA_OUT;
1003:Middlewares/ST/STM32_USB_Device_Library/Class/MSC/Src/usbd_msc_scsi.c ****     (void)USBD_LL_PrepareReceive(pdev, MSCOutEpAdd, hmsc->bot_data, len);
1004:Middlewares/ST/STM32_USB_Device_Library/Class/MSC/Src/usbd_msc_scsi.c ****   }
1005:Middlewares/ST/STM32_USB_Device_Library/Class/MSC/Src/usbd_msc_scsi.c ****   else /* Write Process ongoing */
1006:Middlewares/ST/STM32_USB_Device_Library/Class/MSC/Src/usbd_msc_scsi.c ****   {
1007:Middlewares/ST/STM32_USB_Device_Library/Class/MSC/Src/usbd_msc_scsi.c ****     return SCSI_ProcessWrite(pdev, lun);
1008:Middlewares/ST/STM32_USB_Device_Library/Class/MSC/Src/usbd_msc_scsi.c ****   }
1009:Middlewares/ST/STM32_USB_Device_Library/Class/MSC/Src/usbd_msc_scsi.c **** 
1010:Middlewares/ST/STM32_USB_Device_Library/Class/MSC/Src/usbd_msc_scsi.c ****   return 0;
1011:Middlewares/ST/STM32_USB_Device_Library/Class/MSC/Src/usbd_msc_scsi.c **** }
1012:Middlewares/ST/STM32_USB_Device_Library/Class/MSC/Src/usbd_msc_scsi.c **** 
1013:Middlewares/ST/STM32_USB_Device_Library/Class/MSC/Src/usbd_msc_scsi.c **** 
1014:Middlewares/ST/STM32_USB_Device_Library/Class/MSC/Src/usbd_msc_scsi.c **** /**
1015:Middlewares/ST/STM32_USB_Device_Library/Class/MSC/Src/usbd_msc_scsi.c ****   * @brief  SCSI_Verify10
1016:Middlewares/ST/STM32_USB_Device_Library/Class/MSC/Src/usbd_msc_scsi.c ****   *         Process Verify10 command
1017:Middlewares/ST/STM32_USB_Device_Library/Class/MSC/Src/usbd_msc_scsi.c ****   * @param  lun: Logical unit number
1018:Middlewares/ST/STM32_USB_Device_Library/Class/MSC/Src/usbd_msc_scsi.c ****   * @param  params: Command parameters
1019:Middlewares/ST/STM32_USB_Device_Library/Class/MSC/Src/usbd_msc_scsi.c ****   * @retval status
1020:Middlewares/ST/STM32_USB_Device_Library/Class/MSC/Src/usbd_msc_scsi.c ****   */
1021:Middlewares/ST/STM32_USB_Device_Library/Class/MSC/Src/usbd_msc_scsi.c **** static int8_t SCSI_Verify10(USBD_HandleTypeDef *pdev, uint8_t lun, uint8_t *params)
1022:Middlewares/ST/STM32_USB_Device_Library/Class/MSC/Src/usbd_msc_scsi.c **** {
1023:Middlewares/ST/STM32_USB_Device_Library/Class/MSC/Src/usbd_msc_scsi.c ****   USBD_MSC_BOT_HandleTypeDef *hmsc = (USBD_MSC_BOT_HandleTypeDef *)pdev->pClassDataCmsit[pdev->clas
1024:Middlewares/ST/STM32_USB_Device_Library/Class/MSC/Src/usbd_msc_scsi.c **** 
1025:Middlewares/ST/STM32_USB_Device_Library/Class/MSC/Src/usbd_msc_scsi.c ****   if (hmsc == NULL)
1026:Middlewares/ST/STM32_USB_Device_Library/Class/MSC/Src/usbd_msc_scsi.c ****   {
1027:Middlewares/ST/STM32_USB_Device_Library/Class/MSC/Src/usbd_msc_scsi.c ****     return -1;
1028:Middlewares/ST/STM32_USB_Device_Library/Class/MSC/Src/usbd_msc_scsi.c ****   }
1029:Middlewares/ST/STM32_USB_Device_Library/Class/MSC/Src/usbd_msc_scsi.c **** 
1030:Middlewares/ST/STM32_USB_Device_Library/Class/MSC/Src/usbd_msc_scsi.c ****   if ((params[1] & 0x02U) == 0x02U)
1031:Middlewares/ST/STM32_USB_Device_Library/Class/MSC/Src/usbd_msc_scsi.c ****   {
1032:Middlewares/ST/STM32_USB_Device_Library/Class/MSC/Src/usbd_msc_scsi.c ****     SCSI_SenseCode(pdev, lun, ILLEGAL_REQUEST, INVALID_FIELED_IN_COMMAND);
1033:Middlewares/ST/STM32_USB_Device_Library/Class/MSC/Src/usbd_msc_scsi.c ****     return -1; /* Error, Verify Mode Not supported*/
1034:Middlewares/ST/STM32_USB_Device_Library/Class/MSC/Src/usbd_msc_scsi.c ****   }
1035:Middlewares/ST/STM32_USB_Device_Library/Class/MSC/Src/usbd_msc_scsi.c **** 
1036:Middlewares/ST/STM32_USB_Device_Library/Class/MSC/Src/usbd_msc_scsi.c ****   if (SCSI_CheckAddressRange(pdev, lun, hmsc->scsi_blk_addr, hmsc->scsi_blk_len) < 0)
1037:Middlewares/ST/STM32_USB_Device_Library/Class/MSC/Src/usbd_msc_scsi.c ****   {
1038:Middlewares/ST/STM32_USB_Device_Library/Class/MSC/Src/usbd_msc_scsi.c ****     return -1; /* error */
1039:Middlewares/ST/STM32_USB_Device_Library/Class/MSC/Src/usbd_msc_scsi.c ****   }
1040:Middlewares/ST/STM32_USB_Device_Library/Class/MSC/Src/usbd_msc_scsi.c **** 
1041:Middlewares/ST/STM32_USB_Device_Library/Class/MSC/Src/usbd_msc_scsi.c ****   hmsc->bot_data_length = 0U;
1042:Middlewares/ST/STM32_USB_Device_Library/Class/MSC/Src/usbd_msc_scsi.c **** 
1043:Middlewares/ST/STM32_USB_Device_Library/Class/MSC/Src/usbd_msc_scsi.c ****   return 0;
1044:Middlewares/ST/STM32_USB_Device_Library/Class/MSC/Src/usbd_msc_scsi.c **** }
1045:Middlewares/ST/STM32_USB_Device_Library/Class/MSC/Src/usbd_msc_scsi.c **** 
1046:Middlewares/ST/STM32_USB_Device_Library/Class/MSC/Src/usbd_msc_scsi.c **** /**
1047:Middlewares/ST/STM32_USB_Device_Library/Class/MSC/Src/usbd_msc_scsi.c ****   * @brief  SCSI_CheckAddressRange
1048:Middlewares/ST/STM32_USB_Device_Library/Class/MSC/Src/usbd_msc_scsi.c ****   *         Check address range
1049:Middlewares/ST/STM32_USB_Device_Library/Class/MSC/Src/usbd_msc_scsi.c ****   * @param  lun: Logical unit number
1050:Middlewares/ST/STM32_USB_Device_Library/Class/MSC/Src/usbd_msc_scsi.c ****   * @param  blk_offset: first block address
ARM GAS  /tmp/cc2SMzdz.s 			page 21


1051:Middlewares/ST/STM32_USB_Device_Library/Class/MSC/Src/usbd_msc_scsi.c ****   * @param  blk_nbr: number of block to be processed
1052:Middlewares/ST/STM32_USB_Device_Library/Class/MSC/Src/usbd_msc_scsi.c ****   * @retval status
1053:Middlewares/ST/STM32_USB_Device_Library/Class/MSC/Src/usbd_msc_scsi.c ****   */
1054:Middlewares/ST/STM32_USB_Device_Library/Class/MSC/Src/usbd_msc_scsi.c **** static int8_t SCSI_CheckAddressRange(USBD_HandleTypeDef *pdev, uint8_t lun,
1055:Middlewares/ST/STM32_USB_Device_Library/Class/MSC/Src/usbd_msc_scsi.c ****                                      uint32_t blk_offset, uint32_t blk_nbr)
1056:Middlewares/ST/STM32_USB_Device_Library/Class/MSC/Src/usbd_msc_scsi.c **** {
1057:Middlewares/ST/STM32_USB_Device_Library/Class/MSC/Src/usbd_msc_scsi.c ****   USBD_MSC_BOT_HandleTypeDef *hmsc = (USBD_MSC_BOT_HandleTypeDef *)pdev->pClassDataCmsit[pdev->clas
1058:Middlewares/ST/STM32_USB_Device_Library/Class/MSC/Src/usbd_msc_scsi.c **** 
1059:Middlewares/ST/STM32_USB_Device_Library/Class/MSC/Src/usbd_msc_scsi.c ****   if (hmsc == NULL)
1060:Middlewares/ST/STM32_USB_Device_Library/Class/MSC/Src/usbd_msc_scsi.c ****   {
1061:Middlewares/ST/STM32_USB_Device_Library/Class/MSC/Src/usbd_msc_scsi.c ****     return -1;
1062:Middlewares/ST/STM32_USB_Device_Library/Class/MSC/Src/usbd_msc_scsi.c ****   }
1063:Middlewares/ST/STM32_USB_Device_Library/Class/MSC/Src/usbd_msc_scsi.c **** 
1064:Middlewares/ST/STM32_USB_Device_Library/Class/MSC/Src/usbd_msc_scsi.c ****   if ((blk_offset + blk_nbr) > hmsc->scsi_blk_nbr)
1065:Middlewares/ST/STM32_USB_Device_Library/Class/MSC/Src/usbd_msc_scsi.c ****   {
1066:Middlewares/ST/STM32_USB_Device_Library/Class/MSC/Src/usbd_msc_scsi.c ****     SCSI_SenseCode(pdev, lun, ILLEGAL_REQUEST, ADDRESS_OUT_OF_RANGE);
1067:Middlewares/ST/STM32_USB_Device_Library/Class/MSC/Src/usbd_msc_scsi.c ****     return -1;
1068:Middlewares/ST/STM32_USB_Device_Library/Class/MSC/Src/usbd_msc_scsi.c ****   }
1069:Middlewares/ST/STM32_USB_Device_Library/Class/MSC/Src/usbd_msc_scsi.c **** 
1070:Middlewares/ST/STM32_USB_Device_Library/Class/MSC/Src/usbd_msc_scsi.c ****   return 0;
1071:Middlewares/ST/STM32_USB_Device_Library/Class/MSC/Src/usbd_msc_scsi.c **** }
1072:Middlewares/ST/STM32_USB_Device_Library/Class/MSC/Src/usbd_msc_scsi.c **** 
1073:Middlewares/ST/STM32_USB_Device_Library/Class/MSC/Src/usbd_msc_scsi.c **** /**
1074:Middlewares/ST/STM32_USB_Device_Library/Class/MSC/Src/usbd_msc_scsi.c ****   * @brief  SCSI_ProcessRead
1075:Middlewares/ST/STM32_USB_Device_Library/Class/MSC/Src/usbd_msc_scsi.c ****   *         Handle Read Process
1076:Middlewares/ST/STM32_USB_Device_Library/Class/MSC/Src/usbd_msc_scsi.c ****   * @param  lun: Logical unit number
1077:Middlewares/ST/STM32_USB_Device_Library/Class/MSC/Src/usbd_msc_scsi.c ****   * @retval status
1078:Middlewares/ST/STM32_USB_Device_Library/Class/MSC/Src/usbd_msc_scsi.c ****   */
1079:Middlewares/ST/STM32_USB_Device_Library/Class/MSC/Src/usbd_msc_scsi.c **** static int8_t SCSI_ProcessRead(USBD_HandleTypeDef *pdev, uint8_t lun)
1080:Middlewares/ST/STM32_USB_Device_Library/Class/MSC/Src/usbd_msc_scsi.c **** {
1081:Middlewares/ST/STM32_USB_Device_Library/Class/MSC/Src/usbd_msc_scsi.c ****   USBD_MSC_BOT_HandleTypeDef *hmsc = (USBD_MSC_BOT_HandleTypeDef *)pdev->pClassDataCmsit[pdev->clas
1082:Middlewares/ST/STM32_USB_Device_Library/Class/MSC/Src/usbd_msc_scsi.c ****   uint32_t len;
1083:Middlewares/ST/STM32_USB_Device_Library/Class/MSC/Src/usbd_msc_scsi.c **** 
1084:Middlewares/ST/STM32_USB_Device_Library/Class/MSC/Src/usbd_msc_scsi.c ****   if (hmsc == NULL)
1085:Middlewares/ST/STM32_USB_Device_Library/Class/MSC/Src/usbd_msc_scsi.c ****   {
1086:Middlewares/ST/STM32_USB_Device_Library/Class/MSC/Src/usbd_msc_scsi.c ****     return -1;
1087:Middlewares/ST/STM32_USB_Device_Library/Class/MSC/Src/usbd_msc_scsi.c ****   }
1088:Middlewares/ST/STM32_USB_Device_Library/Class/MSC/Src/usbd_msc_scsi.c **** 
1089:Middlewares/ST/STM32_USB_Device_Library/Class/MSC/Src/usbd_msc_scsi.c ****   len = hmsc->scsi_blk_len * hmsc->scsi_blk_size;
1090:Middlewares/ST/STM32_USB_Device_Library/Class/MSC/Src/usbd_msc_scsi.c **** 
1091:Middlewares/ST/STM32_USB_Device_Library/Class/MSC/Src/usbd_msc_scsi.c **** #ifdef USE_USBD_COMPOSITE
1092:Middlewares/ST/STM32_USB_Device_Library/Class/MSC/Src/usbd_msc_scsi.c ****   /* Get the Endpoints addresses allocated for this class instance */
1093:Middlewares/ST/STM32_USB_Device_Library/Class/MSC/Src/usbd_msc_scsi.c ****   MSCInEpAdd = USBD_CoreGetEPAdd(pdev, USBD_EP_IN, USBD_EP_TYPE_BULK, (uint8_t)pdev->classId);
1094:Middlewares/ST/STM32_USB_Device_Library/Class/MSC/Src/usbd_msc_scsi.c **** #endif /* USE_USBD_COMPOSITE */
1095:Middlewares/ST/STM32_USB_Device_Library/Class/MSC/Src/usbd_msc_scsi.c **** 
1096:Middlewares/ST/STM32_USB_Device_Library/Class/MSC/Src/usbd_msc_scsi.c ****   len = MIN(len, MSC_MEDIA_PACKET);
1097:Middlewares/ST/STM32_USB_Device_Library/Class/MSC/Src/usbd_msc_scsi.c **** 
1098:Middlewares/ST/STM32_USB_Device_Library/Class/MSC/Src/usbd_msc_scsi.c ****   if (((USBD_StorageTypeDef *)pdev->pUserData[pdev->classId])->Read(lun, hmsc->bot_data,
1099:Middlewares/ST/STM32_USB_Device_Library/Class/MSC/Src/usbd_msc_scsi.c ****                                                                     hmsc->scsi_blk_addr,
1100:Middlewares/ST/STM32_USB_Device_Library/Class/MSC/Src/usbd_msc_scsi.c ****                                                                     (len / hmsc->scsi_blk_size)) < 
1101:Middlewares/ST/STM32_USB_Device_Library/Class/MSC/Src/usbd_msc_scsi.c ****   {
1102:Middlewares/ST/STM32_USB_Device_Library/Class/MSC/Src/usbd_msc_scsi.c ****     SCSI_SenseCode(pdev, lun, HARDWARE_ERROR, UNRECOVERED_READ_ERROR);
1103:Middlewares/ST/STM32_USB_Device_Library/Class/MSC/Src/usbd_msc_scsi.c ****     return -1;
1104:Middlewares/ST/STM32_USB_Device_Library/Class/MSC/Src/usbd_msc_scsi.c ****   }
1105:Middlewares/ST/STM32_USB_Device_Library/Class/MSC/Src/usbd_msc_scsi.c **** 
1106:Middlewares/ST/STM32_USB_Device_Library/Class/MSC/Src/usbd_msc_scsi.c ****   (void)USBD_LL_Transmit(pdev, MSCInEpAdd, hmsc->bot_data, len);
1107:Middlewares/ST/STM32_USB_Device_Library/Class/MSC/Src/usbd_msc_scsi.c **** 
ARM GAS  /tmp/cc2SMzdz.s 			page 22


1108:Middlewares/ST/STM32_USB_Device_Library/Class/MSC/Src/usbd_msc_scsi.c ****   hmsc->scsi_blk_addr += (len / hmsc->scsi_blk_size);
1109:Middlewares/ST/STM32_USB_Device_Library/Class/MSC/Src/usbd_msc_scsi.c ****   hmsc->scsi_blk_len -= (len / hmsc->scsi_blk_size);
1110:Middlewares/ST/STM32_USB_Device_Library/Class/MSC/Src/usbd_msc_scsi.c **** 
1111:Middlewares/ST/STM32_USB_Device_Library/Class/MSC/Src/usbd_msc_scsi.c ****   /* case 6 : Hi = Di */
1112:Middlewares/ST/STM32_USB_Device_Library/Class/MSC/Src/usbd_msc_scsi.c ****   hmsc->csw.dDataResidue -= len;
1113:Middlewares/ST/STM32_USB_Device_Library/Class/MSC/Src/usbd_msc_scsi.c **** 
1114:Middlewares/ST/STM32_USB_Device_Library/Class/MSC/Src/usbd_msc_scsi.c ****   if (hmsc->scsi_blk_len == 0U)
1115:Middlewares/ST/STM32_USB_Device_Library/Class/MSC/Src/usbd_msc_scsi.c ****   {
1116:Middlewares/ST/STM32_USB_Device_Library/Class/MSC/Src/usbd_msc_scsi.c ****     hmsc->bot_state = USBD_BOT_LAST_DATA_IN;
1117:Middlewares/ST/STM32_USB_Device_Library/Class/MSC/Src/usbd_msc_scsi.c ****   }
1118:Middlewares/ST/STM32_USB_Device_Library/Class/MSC/Src/usbd_msc_scsi.c **** 
1119:Middlewares/ST/STM32_USB_Device_Library/Class/MSC/Src/usbd_msc_scsi.c ****   return 0;
1120:Middlewares/ST/STM32_USB_Device_Library/Class/MSC/Src/usbd_msc_scsi.c **** }
1121:Middlewares/ST/STM32_USB_Device_Library/Class/MSC/Src/usbd_msc_scsi.c **** 
1122:Middlewares/ST/STM32_USB_Device_Library/Class/MSC/Src/usbd_msc_scsi.c **** /**
1123:Middlewares/ST/STM32_USB_Device_Library/Class/MSC/Src/usbd_msc_scsi.c ****   * @brief  SCSI_ProcessWrite
1124:Middlewares/ST/STM32_USB_Device_Library/Class/MSC/Src/usbd_msc_scsi.c ****   *         Handle Write Process
1125:Middlewares/ST/STM32_USB_Device_Library/Class/MSC/Src/usbd_msc_scsi.c ****   * @param  lun: Logical unit number
1126:Middlewares/ST/STM32_USB_Device_Library/Class/MSC/Src/usbd_msc_scsi.c ****   * @retval status
1127:Middlewares/ST/STM32_USB_Device_Library/Class/MSC/Src/usbd_msc_scsi.c ****   */
1128:Middlewares/ST/STM32_USB_Device_Library/Class/MSC/Src/usbd_msc_scsi.c **** static int8_t SCSI_ProcessWrite(USBD_HandleTypeDef *pdev, uint8_t lun)
1129:Middlewares/ST/STM32_USB_Device_Library/Class/MSC/Src/usbd_msc_scsi.c **** {
1130:Middlewares/ST/STM32_USB_Device_Library/Class/MSC/Src/usbd_msc_scsi.c ****   USBD_MSC_BOT_HandleTypeDef *hmsc = (USBD_MSC_BOT_HandleTypeDef *)pdev->pClassDataCmsit[pdev->clas
1131:Middlewares/ST/STM32_USB_Device_Library/Class/MSC/Src/usbd_msc_scsi.c ****   uint32_t len;
1132:Middlewares/ST/STM32_USB_Device_Library/Class/MSC/Src/usbd_msc_scsi.c **** 
1133:Middlewares/ST/STM32_USB_Device_Library/Class/MSC/Src/usbd_msc_scsi.c ****   if (hmsc == NULL)
1134:Middlewares/ST/STM32_USB_Device_Library/Class/MSC/Src/usbd_msc_scsi.c ****   {
1135:Middlewares/ST/STM32_USB_Device_Library/Class/MSC/Src/usbd_msc_scsi.c ****     return -1;
1136:Middlewares/ST/STM32_USB_Device_Library/Class/MSC/Src/usbd_msc_scsi.c ****   }
1137:Middlewares/ST/STM32_USB_Device_Library/Class/MSC/Src/usbd_msc_scsi.c **** 
1138:Middlewares/ST/STM32_USB_Device_Library/Class/MSC/Src/usbd_msc_scsi.c ****   len = hmsc->scsi_blk_len * hmsc->scsi_blk_size;
1139:Middlewares/ST/STM32_USB_Device_Library/Class/MSC/Src/usbd_msc_scsi.c **** 
1140:Middlewares/ST/STM32_USB_Device_Library/Class/MSC/Src/usbd_msc_scsi.c **** #ifdef USE_USBD_COMPOSITE
1141:Middlewares/ST/STM32_USB_Device_Library/Class/MSC/Src/usbd_msc_scsi.c ****   /* Get the Endpoints addresses allocated for this class instance */
1142:Middlewares/ST/STM32_USB_Device_Library/Class/MSC/Src/usbd_msc_scsi.c ****   MSCOutEpAdd = USBD_CoreGetEPAdd(pdev, USBD_EP_OUT, USBD_EP_TYPE_BULK, (uint8_t)pdev->classId);
1143:Middlewares/ST/STM32_USB_Device_Library/Class/MSC/Src/usbd_msc_scsi.c **** #endif /* USE_USBD_COMPOSITE */
1144:Middlewares/ST/STM32_USB_Device_Library/Class/MSC/Src/usbd_msc_scsi.c **** 
1145:Middlewares/ST/STM32_USB_Device_Library/Class/MSC/Src/usbd_msc_scsi.c ****   len = MIN(len, MSC_MEDIA_PACKET);
1146:Middlewares/ST/STM32_USB_Device_Library/Class/MSC/Src/usbd_msc_scsi.c **** 
1147:Middlewares/ST/STM32_USB_Device_Library/Class/MSC/Src/usbd_msc_scsi.c ****   if (((USBD_StorageTypeDef *)pdev->pUserData[pdev->classId])->Write(lun, hmsc->bot_data,
1148:Middlewares/ST/STM32_USB_Device_Library/Class/MSC/Src/usbd_msc_scsi.c ****                                                                      hmsc->scsi_blk_addr,
1149:Middlewares/ST/STM32_USB_Device_Library/Class/MSC/Src/usbd_msc_scsi.c ****                                                                      (len / hmsc->scsi_blk_size)) <
1150:Middlewares/ST/STM32_USB_Device_Library/Class/MSC/Src/usbd_msc_scsi.c ****   {
1151:Middlewares/ST/STM32_USB_Device_Library/Class/MSC/Src/usbd_msc_scsi.c ****     SCSI_SenseCode(pdev, lun, HARDWARE_ERROR, WRITE_FAULT);
1152:Middlewares/ST/STM32_USB_Device_Library/Class/MSC/Src/usbd_msc_scsi.c ****     return -1;
1153:Middlewares/ST/STM32_USB_Device_Library/Class/MSC/Src/usbd_msc_scsi.c ****   }
1154:Middlewares/ST/STM32_USB_Device_Library/Class/MSC/Src/usbd_msc_scsi.c **** 
1155:Middlewares/ST/STM32_USB_Device_Library/Class/MSC/Src/usbd_msc_scsi.c ****   hmsc->scsi_blk_addr += (len / hmsc->scsi_blk_size);
1156:Middlewares/ST/STM32_USB_Device_Library/Class/MSC/Src/usbd_msc_scsi.c ****   hmsc->scsi_blk_len -= (len / hmsc->scsi_blk_size);
1157:Middlewares/ST/STM32_USB_Device_Library/Class/MSC/Src/usbd_msc_scsi.c **** 
1158:Middlewares/ST/STM32_USB_Device_Library/Class/MSC/Src/usbd_msc_scsi.c ****   /* case 12 : Ho = Do */
1159:Middlewares/ST/STM32_USB_Device_Library/Class/MSC/Src/usbd_msc_scsi.c ****   hmsc->csw.dDataResidue -= len;
1160:Middlewares/ST/STM32_USB_Device_Library/Class/MSC/Src/usbd_msc_scsi.c **** 
1161:Middlewares/ST/STM32_USB_Device_Library/Class/MSC/Src/usbd_msc_scsi.c ****   if (hmsc->scsi_blk_len == 0U)
1162:Middlewares/ST/STM32_USB_Device_Library/Class/MSC/Src/usbd_msc_scsi.c ****   {
1163:Middlewares/ST/STM32_USB_Device_Library/Class/MSC/Src/usbd_msc_scsi.c ****     MSC_BOT_SendCSW(pdev, USBD_CSW_CMD_PASSED);
1164:Middlewares/ST/STM32_USB_Device_Library/Class/MSC/Src/usbd_msc_scsi.c ****   }
ARM GAS  /tmp/cc2SMzdz.s 			page 23


1165:Middlewares/ST/STM32_USB_Device_Library/Class/MSC/Src/usbd_msc_scsi.c ****   else
1166:Middlewares/ST/STM32_USB_Device_Library/Class/MSC/Src/usbd_msc_scsi.c ****   {
1167:Middlewares/ST/STM32_USB_Device_Library/Class/MSC/Src/usbd_msc_scsi.c ****     len = MIN((hmsc->scsi_blk_len * hmsc->scsi_blk_size), MSC_MEDIA_PACKET);
1168:Middlewares/ST/STM32_USB_Device_Library/Class/MSC/Src/usbd_msc_scsi.c **** 
1169:Middlewares/ST/STM32_USB_Device_Library/Class/MSC/Src/usbd_msc_scsi.c ****     /* Prepare EP to Receive next packet */
1170:Middlewares/ST/STM32_USB_Device_Library/Class/MSC/Src/usbd_msc_scsi.c ****     (void)USBD_LL_PrepareReceive(pdev, MSCOutEpAdd, hmsc->bot_data, len);
1171:Middlewares/ST/STM32_USB_Device_Library/Class/MSC/Src/usbd_msc_scsi.c ****   }
1172:Middlewares/ST/STM32_USB_Device_Library/Class/MSC/Src/usbd_msc_scsi.c **** 
1173:Middlewares/ST/STM32_USB_Device_Library/Class/MSC/Src/usbd_msc_scsi.c ****   return 0;
1174:Middlewares/ST/STM32_USB_Device_Library/Class/MSC/Src/usbd_msc_scsi.c **** }
1175:Middlewares/ST/STM32_USB_Device_Library/Class/MSC/Src/usbd_msc_scsi.c **** 
1176:Middlewares/ST/STM32_USB_Device_Library/Class/MSC/Src/usbd_msc_scsi.c **** 
1177:Middlewares/ST/STM32_USB_Device_Library/Class/MSC/Src/usbd_msc_scsi.c **** /**
1178:Middlewares/ST/STM32_USB_Device_Library/Class/MSC/Src/usbd_msc_scsi.c ****   * @brief  SCSI_UpdateBotData
1179:Middlewares/ST/STM32_USB_Device_Library/Class/MSC/Src/usbd_msc_scsi.c ****   *         fill the requested Data to transmit buffer
1180:Middlewares/ST/STM32_USB_Device_Library/Class/MSC/Src/usbd_msc_scsi.c ****   * @param  hmsc handler
1181:Middlewares/ST/STM32_USB_Device_Library/Class/MSC/Src/usbd_msc_scsi.c ****   * @param  pBuff: Data buffer
1182:Middlewares/ST/STM32_USB_Device_Library/Class/MSC/Src/usbd_msc_scsi.c ****   * @param  length: Data length
1183:Middlewares/ST/STM32_USB_Device_Library/Class/MSC/Src/usbd_msc_scsi.c ****   * @retval status
1184:Middlewares/ST/STM32_USB_Device_Library/Class/MSC/Src/usbd_msc_scsi.c ****   */
1185:Middlewares/ST/STM32_USB_Device_Library/Class/MSC/Src/usbd_msc_scsi.c **** static int8_t SCSI_UpdateBotData(USBD_MSC_BOT_HandleTypeDef *hmsc,
1186:Middlewares/ST/STM32_USB_Device_Library/Class/MSC/Src/usbd_msc_scsi.c ****                                  uint8_t *pBuff, uint16_t length)
1187:Middlewares/ST/STM32_USB_Device_Library/Class/MSC/Src/usbd_msc_scsi.c **** {
  91              		.loc 1 1187 1 is_stmt 1 view -0
  92              		.cfi_startproc
  93              		@ args = 0, pretend = 0, frame = 0
  94              		@ frame_needed = 0, uses_anonymous_args = 0
  95              		@ link register save eliminated.
1188:Middlewares/ST/STM32_USB_Device_Library/Class/MSC/Src/usbd_msc_scsi.c ****   uint16_t len = length;
  96              		.loc 1 1188 3 view .LVU22
1189:Middlewares/ST/STM32_USB_Device_Library/Class/MSC/Src/usbd_msc_scsi.c **** 
1190:Middlewares/ST/STM32_USB_Device_Library/Class/MSC/Src/usbd_msc_scsi.c ****   if (hmsc == NULL)
  97              		.loc 1 1190 3 view .LVU23
  98              		.loc 1 1190 6 is_stmt 0 view .LVU24
  99 0000 8446     		mov	ip, r0
 100 0002 58B1     		cbz	r0, .L10
1191:Middlewares/ST/STM32_USB_Device_Library/Class/MSC/Src/usbd_msc_scsi.c ****   {
1192:Middlewares/ST/STM32_USB_Device_Library/Class/MSC/Src/usbd_msc_scsi.c ****     return -1;
1193:Middlewares/ST/STM32_USB_Device_Library/Class/MSC/Src/usbd_msc_scsi.c ****   }
1194:Middlewares/ST/STM32_USB_Device_Library/Class/MSC/Src/usbd_msc_scsi.c **** 
1195:Middlewares/ST/STM32_USB_Device_Library/Class/MSC/Src/usbd_msc_scsi.c ****   hmsc->bot_data_length = len;
 101              		.loc 1 1195 3 is_stmt 1 view .LVU25
 102              		.loc 1 1195 25 is_stmt 0 view .LVU26
 103 0004 C260     		str	r2, [r0, #12]
1196:Middlewares/ST/STM32_USB_Device_Library/Class/MSC/Src/usbd_msc_scsi.c **** 
1197:Middlewares/ST/STM32_USB_Device_Library/Class/MSC/Src/usbd_msc_scsi.c ****   while (len != 0U)
 104              		.loc 1 1197 3 is_stmt 1 view .LVU27
 105              		.loc 1 1197 9 is_stmt 0 view .LVU28
 106 0006 05E0     		b	.L8
 107              	.LVL8:
 108              	.L9:
1198:Middlewares/ST/STM32_USB_Device_Library/Class/MSC/Src/usbd_msc_scsi.c ****   {
1199:Middlewares/ST/STM32_USB_Device_Library/Class/MSC/Src/usbd_msc_scsi.c ****     len--;
 109              		.loc 1 1199 5 is_stmt 1 view .LVU29
 110              		.loc 1 1199 8 is_stmt 0 view .LVU30
 111 0008 013A     		subs	r2, r2, #1
 112              	.LVL9:
ARM GAS  /tmp/cc2SMzdz.s 			page 24


 113              		.loc 1 1199 8 view .LVU31
 114 000a 92B2     		uxth	r2, r2
 115              	.LVL10:
1200:Middlewares/ST/STM32_USB_Device_Library/Class/MSC/Src/usbd_msc_scsi.c ****     hmsc->bot_data[len] = pBuff[len];
 116              		.loc 1 1200 5 is_stmt 1 view .LVU32
 117              		.loc 1 1200 32 is_stmt 0 view .LVU33
 118 000c 885C     		ldrb	r0, [r1, r2]	@ zero_extendqisi2
 119              		.loc 1 1200 25 view .LVU34
 120 000e 0CEB0203 		add	r3, ip, r2
 121 0012 1874     		strb	r0, [r3, #16]
 122              	.L8:
1197:Middlewares/ST/STM32_USB_Device_Library/Class/MSC/Src/usbd_msc_scsi.c ****   {
 123              		.loc 1 1197 9 is_stmt 1 view .LVU35
 124 0014 002A     		cmp	r2, #0
 125 0016 F7D1     		bne	.L9
1201:Middlewares/ST/STM32_USB_Device_Library/Class/MSC/Src/usbd_msc_scsi.c ****   }
1202:Middlewares/ST/STM32_USB_Device_Library/Class/MSC/Src/usbd_msc_scsi.c **** 
1203:Middlewares/ST/STM32_USB_Device_Library/Class/MSC/Src/usbd_msc_scsi.c ****   return 0;
 126              		.loc 1 1203 10 is_stmt 0 view .LVU36
 127 0018 0020     		movs	r0, #0
 128 001a 7047     		bx	lr
 129              	.LVL11:
 130              	.L10:
1192:Middlewares/ST/STM32_USB_Device_Library/Class/MSC/Src/usbd_msc_scsi.c ****   }
 131              		.loc 1 1192 12 view .LVU37
 132 001c 4FF0FF30 		mov	r0, #-1
 133              	.LVL12:
1204:Middlewares/ST/STM32_USB_Device_Library/Class/MSC/Src/usbd_msc_scsi.c **** }
 134              		.loc 1 1204 1 view .LVU38
 135 0020 7047     		bx	lr
 136              		.cfi_endproc
 137              	.LFE160:
 139              		.section	.text.SCSI_ModeSense6,"ax",%progbits
 140              		.align	1
 141              		.syntax unified
 142              		.thumb
 143              		.thumb_func
 144              		.fpu fpv4-sp-d16
 146              	SCSI_ModeSense6:
 147              	.LVL13:
 148              	.LFB146:
 470:Middlewares/ST/STM32_USB_Device_Library/Class/MSC/Src/usbd_msc_scsi.c ****   UNUSED(lun);
 149              		.loc 1 470 1 is_stmt 1 view -0
 150              		.cfi_startproc
 151              		@ args = 0, pretend = 0, frame = 0
 152              		@ frame_needed = 0, uses_anonymous_args = 0
 470:Middlewares/ST/STM32_USB_Device_Library/Class/MSC/Src/usbd_msc_scsi.c ****   UNUSED(lun);
 153              		.loc 1 470 1 is_stmt 0 view .LVU40
 154 0000 70B5     		push	{r4, r5, r6, lr}
 155              	.LCFI0:
 156              		.cfi_def_cfa_offset 16
 157              		.cfi_offset 4, -16
 158              		.cfi_offset 5, -12
 159              		.cfi_offset 6, -8
 160              		.cfi_offset 14, -4
 161 0002 0346     		mov	r3, r0
 162 0004 0846     		mov	r0, r1
ARM GAS  /tmp/cc2SMzdz.s 			page 25


 163              	.LVL14:
 471:Middlewares/ST/STM32_USB_Device_Library/Class/MSC/Src/usbd_msc_scsi.c ****   USBD_MSC_BOT_HandleTypeDef *hmsc = (USBD_MSC_BOT_HandleTypeDef *)pdev->pClassDataCmsit[pdev->clas
 164              		.loc 1 471 3 is_stmt 1 view .LVU41
 472:Middlewares/ST/STM32_USB_Device_Library/Class/MSC/Src/usbd_msc_scsi.c ****   uint16_t len = MODE_SENSE6_LEN;
 165              		.loc 1 472 3 view .LVU42
 472:Middlewares/ST/STM32_USB_Device_Library/Class/MSC/Src/usbd_msc_scsi.c ****   uint16_t len = MODE_SENSE6_LEN;
 166              		.loc 1 472 94 is_stmt 0 view .LVU43
 167 0006 D3F8D442 		ldr	r4, [r3, #724]
 472:Middlewares/ST/STM32_USB_Device_Library/Class/MSC/Src/usbd_msc_scsi.c ****   uint16_t len = MODE_SENSE6_LEN;
 168              		.loc 1 472 31 view .LVU44
 169 000a 04F1B001 		add	r1, r4, #176
 170              	.LVL15:
 472:Middlewares/ST/STM32_USB_Device_Library/Class/MSC/Src/usbd_msc_scsi.c ****   uint16_t len = MODE_SENSE6_LEN;
 171              		.loc 1 472 31 view .LVU45
 172 000e 53F82150 		ldr	r5, [r3, r1, lsl #2]
 173              	.LVL16:
 473:Middlewares/ST/STM32_USB_Device_Library/Class/MSC/Src/usbd_msc_scsi.c **** 
 174              		.loc 1 473 3 is_stmt 1 view .LVU46
 475:Middlewares/ST/STM32_USB_Device_Library/Class/MSC/Src/usbd_msc_scsi.c ****   {
 175              		.loc 1 475 3 view .LVU47
 475:Middlewares/ST/STM32_USB_Device_Library/Class/MSC/Src/usbd_msc_scsi.c ****   {
 176              		.loc 1 475 6 is_stmt 0 view .LVU48
 177 0012 B5B1     		cbz	r5, .L15
 178 0014 1646     		mov	r6, r2
 481:Middlewares/ST/STM32_USB_Device_Library/Class/MSC/Src/usbd_msc_scsi.c ****   {
 179              		.loc 1 481 3 is_stmt 1 view .LVU49
 481:Middlewares/ST/STM32_USB_Device_Library/Class/MSC/Src/usbd_msc_scsi.c ****   {
 180              		.loc 1 481 46 is_stmt 0 view .LVU50
 181 0016 03EB8103 		add	r3, r3, r1, lsl #2
 182              	.LVL17:
 481:Middlewares/ST/STM32_USB_Device_Library/Class/MSC/Src/usbd_msc_scsi.c ****   {
 183              		.loc 1 481 46 view .LVU51
 184 001a 5B68     		ldr	r3, [r3, #4]
 481:Middlewares/ST/STM32_USB_Device_Library/Class/MSC/Src/usbd_msc_scsi.c ****   {
 185              		.loc 1 481 62 view .LVU52
 186 001c DB68     		ldr	r3, [r3, #12]
 481:Middlewares/ST/STM32_USB_Device_Library/Class/MSC/Src/usbd_msc_scsi.c ****   {
 187              		.loc 1 481 8 view .LVU53
 188 001e 9847     		blx	r3
 189              	.LVL18:
 481:Middlewares/ST/STM32_USB_Device_Library/Class/MSC/Src/usbd_msc_scsi.c ****   {
 190              		.loc 1 481 6 view .LVU54
 191 0020 20B1     		cbz	r0, .L13
 483:Middlewares/ST/STM32_USB_Device_Library/Class/MSC/Src/usbd_msc_scsi.c ****   }
 192              		.loc 1 483 5 is_stmt 1 view .LVU55
 483:Middlewares/ST/STM32_USB_Device_Library/Class/MSC/Src/usbd_msc_scsi.c ****   }
 193              		.loc 1 483 29 is_stmt 0 view .LVU56
 194 0022 094A     		ldr	r2, .L17
 195 0024 9378     		ldrb	r3, [r2, #2]	@ zero_extendqisi2
 196 0026 63F07F03 		orn	r3, r3, #127
 197 002a 9370     		strb	r3, [r2, #2]
 198              	.L13:
 486:Middlewares/ST/STM32_USB_Device_Library/Class/MSC/Src/usbd_msc_scsi.c ****   {
 199              		.loc 1 486 3 is_stmt 1 view .LVU57
 486:Middlewares/ST/STM32_USB_Device_Library/Class/MSC/Src/usbd_msc_scsi.c ****   {
 200              		.loc 1 486 13 is_stmt 0 view .LVU58
 201 002c 3379     		ldrb	r3, [r6, #4]	@ zero_extendqisi2
ARM GAS  /tmp/cc2SMzdz.s 			page 26


 202 002e 9AB2     		uxth	r2, r3
 486:Middlewares/ST/STM32_USB_Device_Library/Class/MSC/Src/usbd_msc_scsi.c ****   {
 203              		.loc 1 486 6 view .LVU59
 204 0030 042B     		cmp	r3, #4
 205 0032 00D9     		bls	.L14
 473:Middlewares/ST/STM32_USB_Device_Library/Class/MSC/Src/usbd_msc_scsi.c **** 
 206              		.loc 1 473 12 view .LVU60
 207 0034 0422     		movs	r2, #4
 208              	.L14:
 209              	.LVL19:
 491:Middlewares/ST/STM32_USB_Device_Library/Class/MSC/Src/usbd_msc_scsi.c **** 
 210              		.loc 1 491 3 is_stmt 1 view .LVU61
 491:Middlewares/ST/STM32_USB_Device_Library/Class/MSC/Src/usbd_msc_scsi.c **** 
 211              		.loc 1 491 9 is_stmt 0 view .LVU62
 212 0036 0449     		ldr	r1, .L17
 213 0038 2846     		mov	r0, r5
 214 003a FFF7FEFF 		bl	SCSI_UpdateBotData
 215              	.LVL20:
 493:Middlewares/ST/STM32_USB_Device_Library/Class/MSC/Src/usbd_msc_scsi.c **** }
 216              		.loc 1 493 3 is_stmt 1 view .LVU63
 493:Middlewares/ST/STM32_USB_Device_Library/Class/MSC/Src/usbd_msc_scsi.c **** }
 217              		.loc 1 493 10 is_stmt 0 view .LVU64
 218 003e 0020     		movs	r0, #0
 219              	.LVL21:
 220              	.L12:
 494:Middlewares/ST/STM32_USB_Device_Library/Class/MSC/Src/usbd_msc_scsi.c **** 
 221              		.loc 1 494 1 view .LVU65
 222 0040 70BD     		pop	{r4, r5, r6, pc}
 223              	.LVL22:
 224              	.L15:
 477:Middlewares/ST/STM32_USB_Device_Library/Class/MSC/Src/usbd_msc_scsi.c ****   }
 225              		.loc 1 477 12 view .LVU66
 226 0042 4FF0FF30 		mov	r0, #-1
 227 0046 FBE7     		b	.L12
 228              	.L18:
 229              		.align	2
 230              	.L17:
 231 0048 00000000 		.word	MSC_Mode_Sense6_data
 232              		.cfi_endproc
 233              	.LFE146:
 235              		.section	.text.SCSI_ModeSense10,"ax",%progbits
 236              		.align	1
 237              		.syntax unified
 238              		.thumb
 239              		.thumb_func
 240              		.fpu fpv4-sp-d16
 242              	SCSI_ModeSense10:
 243              	.LVL23:
 244              	.LFB147:
 505:Middlewares/ST/STM32_USB_Device_Library/Class/MSC/Src/usbd_msc_scsi.c ****   UNUSED(lun);
 245              		.loc 1 505 1 is_stmt 1 view -0
 246              		.cfi_startproc
 247              		@ args = 0, pretend = 0, frame = 0
 248              		@ frame_needed = 0, uses_anonymous_args = 0
 505:Middlewares/ST/STM32_USB_Device_Library/Class/MSC/Src/usbd_msc_scsi.c ****   UNUSED(lun);
 249              		.loc 1 505 1 is_stmt 0 view .LVU68
 250 0000 70B5     		push	{r4, r5, r6, lr}
ARM GAS  /tmp/cc2SMzdz.s 			page 27


 251              	.LCFI1:
 252              		.cfi_def_cfa_offset 16
 253              		.cfi_offset 4, -16
 254              		.cfi_offset 5, -12
 255              		.cfi_offset 6, -8
 256              		.cfi_offset 14, -4
 257 0002 0346     		mov	r3, r0
 258 0004 0846     		mov	r0, r1
 259              	.LVL24:
 506:Middlewares/ST/STM32_USB_Device_Library/Class/MSC/Src/usbd_msc_scsi.c ****   USBD_MSC_BOT_HandleTypeDef *hmsc = (USBD_MSC_BOT_HandleTypeDef *)pdev->pClassDataCmsit[pdev->clas
 260              		.loc 1 506 3 is_stmt 1 view .LVU69
 507:Middlewares/ST/STM32_USB_Device_Library/Class/MSC/Src/usbd_msc_scsi.c ****   uint16_t len = MODE_SENSE10_LEN;
 261              		.loc 1 507 3 view .LVU70
 507:Middlewares/ST/STM32_USB_Device_Library/Class/MSC/Src/usbd_msc_scsi.c ****   uint16_t len = MODE_SENSE10_LEN;
 262              		.loc 1 507 94 is_stmt 0 view .LVU71
 263 0006 D3F8D442 		ldr	r4, [r3, #724]
 507:Middlewares/ST/STM32_USB_Device_Library/Class/MSC/Src/usbd_msc_scsi.c ****   uint16_t len = MODE_SENSE10_LEN;
 264              		.loc 1 507 31 view .LVU72
 265 000a 04F1B001 		add	r1, r4, #176
 266              	.LVL25:
 507:Middlewares/ST/STM32_USB_Device_Library/Class/MSC/Src/usbd_msc_scsi.c ****   uint16_t len = MODE_SENSE10_LEN;
 267              		.loc 1 507 31 view .LVU73
 268 000e 53F82150 		ldr	r5, [r3, r1, lsl #2]
 269              	.LVL26:
 508:Middlewares/ST/STM32_USB_Device_Library/Class/MSC/Src/usbd_msc_scsi.c **** 
 270              		.loc 1 508 3 is_stmt 1 view .LVU74
 510:Middlewares/ST/STM32_USB_Device_Library/Class/MSC/Src/usbd_msc_scsi.c ****   {
 271              		.loc 1 510 3 view .LVU75
 510:Middlewares/ST/STM32_USB_Device_Library/Class/MSC/Src/usbd_msc_scsi.c ****   {
 272              		.loc 1 510 6 is_stmt 0 view .LVU76
 273 0012 B5B1     		cbz	r5, .L23
 274 0014 1646     		mov	r6, r2
 516:Middlewares/ST/STM32_USB_Device_Library/Class/MSC/Src/usbd_msc_scsi.c ****   {
 275              		.loc 1 516 3 is_stmt 1 view .LVU77
 516:Middlewares/ST/STM32_USB_Device_Library/Class/MSC/Src/usbd_msc_scsi.c ****   {
 276              		.loc 1 516 46 is_stmt 0 view .LVU78
 277 0016 03EB8103 		add	r3, r3, r1, lsl #2
 278              	.LVL27:
 516:Middlewares/ST/STM32_USB_Device_Library/Class/MSC/Src/usbd_msc_scsi.c ****   {
 279              		.loc 1 516 46 view .LVU79
 280 001a 5B68     		ldr	r3, [r3, #4]
 516:Middlewares/ST/STM32_USB_Device_Library/Class/MSC/Src/usbd_msc_scsi.c ****   {
 281              		.loc 1 516 62 view .LVU80
 282 001c DB68     		ldr	r3, [r3, #12]
 516:Middlewares/ST/STM32_USB_Device_Library/Class/MSC/Src/usbd_msc_scsi.c ****   {
 283              		.loc 1 516 8 view .LVU81
 284 001e 9847     		blx	r3
 285              	.LVL28:
 516:Middlewares/ST/STM32_USB_Device_Library/Class/MSC/Src/usbd_msc_scsi.c ****   {
 286              		.loc 1 516 6 view .LVU82
 287 0020 20B1     		cbz	r0, .L21
 518:Middlewares/ST/STM32_USB_Device_Library/Class/MSC/Src/usbd_msc_scsi.c ****   }
 288              		.loc 1 518 5 is_stmt 1 view .LVU83
 518:Middlewares/ST/STM32_USB_Device_Library/Class/MSC/Src/usbd_msc_scsi.c ****   }
 289              		.loc 1 518 30 is_stmt 0 view .LVU84
 290 0022 094A     		ldr	r2, .L25
 291 0024 D378     		ldrb	r3, [r2, #3]	@ zero_extendqisi2
ARM GAS  /tmp/cc2SMzdz.s 			page 28


 292 0026 63F07F03 		orn	r3, r3, #127
 293 002a D370     		strb	r3, [r2, #3]
 294              	.L21:
 521:Middlewares/ST/STM32_USB_Device_Library/Class/MSC/Src/usbd_msc_scsi.c ****   {
 295              		.loc 1 521 3 is_stmt 1 view .LVU85
 521:Middlewares/ST/STM32_USB_Device_Library/Class/MSC/Src/usbd_msc_scsi.c ****   {
 296              		.loc 1 521 13 is_stmt 0 view .LVU86
 297 002c 337A     		ldrb	r3, [r6, #8]	@ zero_extendqisi2
 298 002e 9AB2     		uxth	r2, r3
 521:Middlewares/ST/STM32_USB_Device_Library/Class/MSC/Src/usbd_msc_scsi.c ****   {
 299              		.loc 1 521 6 view .LVU87
 300 0030 082B     		cmp	r3, #8
 301 0032 00D9     		bls	.L22
 508:Middlewares/ST/STM32_USB_Device_Library/Class/MSC/Src/usbd_msc_scsi.c **** 
 302              		.loc 1 508 12 view .LVU88
 303 0034 0822     		movs	r2, #8
 304              	.L22:
 305              	.LVL29:
 526:Middlewares/ST/STM32_USB_Device_Library/Class/MSC/Src/usbd_msc_scsi.c **** 
 306              		.loc 1 526 3 is_stmt 1 view .LVU89
 526:Middlewares/ST/STM32_USB_Device_Library/Class/MSC/Src/usbd_msc_scsi.c **** 
 307              		.loc 1 526 9 is_stmt 0 view .LVU90
 308 0036 0449     		ldr	r1, .L25
 309 0038 2846     		mov	r0, r5
 310 003a FFF7FEFF 		bl	SCSI_UpdateBotData
 311              	.LVL30:
 528:Middlewares/ST/STM32_USB_Device_Library/Class/MSC/Src/usbd_msc_scsi.c **** }
 312              		.loc 1 528 3 is_stmt 1 view .LVU91
 528:Middlewares/ST/STM32_USB_Device_Library/Class/MSC/Src/usbd_msc_scsi.c **** }
 313              		.loc 1 528 10 is_stmt 0 view .LVU92
 314 003e 0020     		movs	r0, #0
 315              	.LVL31:
 316              	.L20:
 529:Middlewares/ST/STM32_USB_Device_Library/Class/MSC/Src/usbd_msc_scsi.c **** 
 317              		.loc 1 529 1 view .LVU93
 318 0040 70BD     		pop	{r4, r5, r6, pc}
 319              	.LVL32:
 320              	.L23:
 512:Middlewares/ST/STM32_USB_Device_Library/Class/MSC/Src/usbd_msc_scsi.c ****   }
 321              		.loc 1 512 12 view .LVU94
 322 0042 4FF0FF30 		mov	r0, #-1
 323 0046 FBE7     		b	.L20
 324              	.L26:
 325              		.align	2
 326              	.L25:
 327 0048 00000000 		.word	MSC_Mode_Sense10_data
 328              		.cfi_endproc
 329              	.LFE147:
 331              		.section	.text.SCSI_SenseCode,"ax",%progbits
 332              		.align	1
 333              		.global	SCSI_SenseCode
 334              		.syntax unified
 335              		.thumb
 336              		.thumb_func
 337              		.fpu fpv4-sp-d16
 339              	SCSI_SenseCode:
 340              	.LVL33:
ARM GAS  /tmp/cc2SMzdz.s 			page 29


 341              	.LFB149:
 598:Middlewares/ST/STM32_USB_Device_Library/Class/MSC/Src/usbd_msc_scsi.c ****   UNUSED(lun);
 342              		.loc 1 598 1 is_stmt 1 view -0
 343              		.cfi_startproc
 344              		@ args = 0, pretend = 0, frame = 0
 345              		@ frame_needed = 0, uses_anonymous_args = 0
 346              		@ link register save eliminated.
 599:Middlewares/ST/STM32_USB_Device_Library/Class/MSC/Src/usbd_msc_scsi.c ****   USBD_MSC_BOT_HandleTypeDef *hmsc = (USBD_MSC_BOT_HandleTypeDef *)pdev->pClassDataCmsit[pdev->clas
 347              		.loc 1 599 3 view .LVU96
 600:Middlewares/ST/STM32_USB_Device_Library/Class/MSC/Src/usbd_msc_scsi.c **** 
 348              		.loc 1 600 3 view .LVU97
 600:Middlewares/ST/STM32_USB_Device_Library/Class/MSC/Src/usbd_msc_scsi.c **** 
 349              		.loc 1 600 94 is_stmt 0 view .LVU98
 350 0000 D0F8D412 		ldr	r1, [r0, #724]
 351              	.LVL34:
 600:Middlewares/ST/STM32_USB_Device_Library/Class/MSC/Src/usbd_msc_scsi.c **** 
 352              		.loc 1 600 31 view .LVU99
 353 0004 B031     		adds	r1, r1, #176
 354 0006 50F82100 		ldr	r0, [r0, r1, lsl #2]
 355              	.LVL35:
 602:Middlewares/ST/STM32_USB_Device_Library/Class/MSC/Src/usbd_msc_scsi.c ****   {
 356              		.loc 1 602 3 is_stmt 1 view .LVU100
 602:Middlewares/ST/STM32_USB_Device_Library/Class/MSC/Src/usbd_msc_scsi.c ****   {
 357              		.loc 1 602 6 is_stmt 0 view .LVU101
 358 000a 80B1     		cbz	r0, .L27
 607:Middlewares/ST/STM32_USB_Device_Library/Class/MSC/Src/usbd_msc_scsi.c ****   hmsc->scsi_sense[hmsc->scsi_sense_tail].w.b.ASC = ASC;
 359              		.loc 1 607 3 is_stmt 1 view .LVU102
 607:Middlewares/ST/STM32_USB_Device_Library/Class/MSC/Src/usbd_msc_scsi.c ****   hmsc->scsi_sense[hmsc->scsi_sense_tail].w.b.ASC = ASC;
 360              		.loc 1 607 24 is_stmt 0 view .LVU103
 361 000c 90F86112 		ldrb	r1, [r0, #609]	@ zero_extendqisi2
 607:Middlewares/ST/STM32_USB_Device_Library/Class/MSC/Src/usbd_msc_scsi.c ****   hmsc->scsi_sense[hmsc->scsi_sense_tail].w.b.ASC = ASC;
 362              		.loc 1 607 48 view .LVU104
 363 0010 01F1480C 		add	ip, r1, #72
 364 0014 00F83C20 		strb	r2, [r0, ip, lsl #3]
 608:Middlewares/ST/STM32_USB_Device_Library/Class/MSC/Src/usbd_msc_scsi.c ****   hmsc->scsi_sense[hmsc->scsi_sense_tail].w.b.ASCQ = 0U;
 365              		.loc 1 608 3 is_stmt 1 view .LVU105
 608:Middlewares/ST/STM32_USB_Device_Library/Class/MSC/Src/usbd_msc_scsi.c ****   hmsc->scsi_sense[hmsc->scsi_sense_tail].w.b.ASCQ = 0U;
 366              		.loc 1 608 51 is_stmt 0 view .LVU106
 367 0018 00EBCC02 		add	r2, r0, ip, lsl #3
 368              	.LVL36:
 608:Middlewares/ST/STM32_USB_Device_Library/Class/MSC/Src/usbd_msc_scsi.c ****   hmsc->scsi_sense[hmsc->scsi_sense_tail].w.b.ASCQ = 0U;
 369              		.loc 1 608 51 view .LVU107
 370 001c 1371     		strb	r3, [r2, #4]
 371              	.LVL37:
 609:Middlewares/ST/STM32_USB_Device_Library/Class/MSC/Src/usbd_msc_scsi.c ****   hmsc->scsi_sense_tail++;
 372              		.loc 1 609 3 is_stmt 1 view .LVU108
 609:Middlewares/ST/STM32_USB_Device_Library/Class/MSC/Src/usbd_msc_scsi.c ****   hmsc->scsi_sense_tail++;
 373              		.loc 1 609 52 is_stmt 0 view .LVU109
 374 001e 0023     		movs	r3, #0
 375              	.LVL38:
 609:Middlewares/ST/STM32_USB_Device_Library/Class/MSC/Src/usbd_msc_scsi.c ****   hmsc->scsi_sense_tail++;
 376              		.loc 1 609 52 view .LVU110
 377 0020 5371     		strb	r3, [r2, #5]
 610:Middlewares/ST/STM32_USB_Device_Library/Class/MSC/Src/usbd_msc_scsi.c **** 
 378              		.loc 1 610 3 is_stmt 1 view .LVU111
 610:Middlewares/ST/STM32_USB_Device_Library/Class/MSC/Src/usbd_msc_scsi.c **** 
 379              		.loc 1 610 24 is_stmt 0 view .LVU112
ARM GAS  /tmp/cc2SMzdz.s 			page 30


 380 0022 4B1C     		adds	r3, r1, #1
 381 0024 DBB2     		uxtb	r3, r3
 382 0026 80F86132 		strb	r3, [r0, #609]
 383              	.LVL39:
 612:Middlewares/ST/STM32_USB_Device_Library/Class/MSC/Src/usbd_msc_scsi.c ****   {
 384              		.loc 1 612 3 is_stmt 1 view .LVU113
 612:Middlewares/ST/STM32_USB_Device_Library/Class/MSC/Src/usbd_msc_scsi.c ****   {
 385              		.loc 1 612 6 is_stmt 0 view .LVU114
 386 002a 042B     		cmp	r3, #4
 387 002c 00D0     		beq	.L29
 388              	.L27:
 616:Middlewares/ST/STM32_USB_Device_Library/Class/MSC/Src/usbd_msc_scsi.c **** 
 389              		.loc 1 616 1 view .LVU115
 390 002e 7047     		bx	lr
 391              	.L29:
 614:Middlewares/ST/STM32_USB_Device_Library/Class/MSC/Src/usbd_msc_scsi.c ****   }
 392              		.loc 1 614 5 is_stmt 1 view .LVU116
 614:Middlewares/ST/STM32_USB_Device_Library/Class/MSC/Src/usbd_msc_scsi.c ****   }
 393              		.loc 1 614 27 is_stmt 0 view .LVU117
 394 0030 0023     		movs	r3, #0
 395 0032 80F86132 		strb	r3, [r0, #609]
 396 0036 FAE7     		b	.L27
 397              		.cfi_endproc
 398              	.LFE149:
 400              		.section	.text.SCSI_TestUnitReady,"ax",%progbits
 401              		.align	1
 402              		.syntax unified
 403              		.thumb
 404              		.thumb_func
 405              		.fpu fpv4-sp-d16
 407              	SCSI_TestUnitReady:
 408              	.LVL40:
 409              	.LFB141:
 212:Middlewares/ST/STM32_USB_Device_Library/Class/MSC/Src/usbd_msc_scsi.c ****   UNUSED(params);
 410              		.loc 1 212 1 is_stmt 1 view -0
 411              		.cfi_startproc
 412              		@ args = 0, pretend = 0, frame = 0
 413              		@ frame_needed = 0, uses_anonymous_args = 0
 212:Middlewares/ST/STM32_USB_Device_Library/Class/MSC/Src/usbd_msc_scsi.c ****   UNUSED(params);
 414              		.loc 1 212 1 is_stmt 0 view .LVU119
 415 0000 70B5     		push	{r4, r5, r6, lr}
 416              	.LCFI2:
 417              		.cfi_def_cfa_offset 16
 418              		.cfi_offset 4, -16
 419              		.cfi_offset 5, -12
 420              		.cfi_offset 6, -8
 421              		.cfi_offset 14, -4
 213:Middlewares/ST/STM32_USB_Device_Library/Class/MSC/Src/usbd_msc_scsi.c ****   USBD_MSC_BOT_HandleTypeDef *hmsc = (USBD_MSC_BOT_HandleTypeDef *)pdev->pClassDataCmsit[pdev->clas
 422              		.loc 1 213 3 is_stmt 1 view .LVU120
 214:Middlewares/ST/STM32_USB_Device_Library/Class/MSC/Src/usbd_msc_scsi.c **** 
 423              		.loc 1 214 3 view .LVU121
 214:Middlewares/ST/STM32_USB_Device_Library/Class/MSC/Src/usbd_msc_scsi.c **** 
 424              		.loc 1 214 94 is_stmt 0 view .LVU122
 425 0002 D0F8D432 		ldr	r3, [r0, #724]
 214:Middlewares/ST/STM32_USB_Device_Library/Class/MSC/Src/usbd_msc_scsi.c **** 
 426              		.loc 1 214 31 view .LVU123
 427 0006 03F1B002 		add	r2, r3, #176
ARM GAS  /tmp/cc2SMzdz.s 			page 31


 428              	.LVL41:
 214:Middlewares/ST/STM32_USB_Device_Library/Class/MSC/Src/usbd_msc_scsi.c **** 
 429              		.loc 1 214 31 view .LVU124
 430 000a 50F82250 		ldr	r5, [r0, r2, lsl #2]
 431              	.LVL42:
 216:Middlewares/ST/STM32_USB_Device_Library/Class/MSC/Src/usbd_msc_scsi.c ****   {
 432              		.loc 1 216 3 is_stmt 1 view .LVU125
 216:Middlewares/ST/STM32_USB_Device_Library/Class/MSC/Src/usbd_msc_scsi.c ****   {
 433              		.loc 1 216 6 is_stmt 0 view .LVU126
 434 000e 7DB3     		cbz	r5, .L35
 435 0010 0446     		mov	r4, r0
 436 0012 0E46     		mov	r6, r1
 222:Middlewares/ST/STM32_USB_Device_Library/Class/MSC/Src/usbd_msc_scsi.c ****   {
 437              		.loc 1 222 3 is_stmt 1 view .LVU127
 222:Middlewares/ST/STM32_USB_Device_Library/Class/MSC/Src/usbd_msc_scsi.c ****   {
 438              		.loc 1 222 16 is_stmt 0 view .LVU128
 439 0014 D5F81822 		ldr	r2, [r5, #536]
 222:Middlewares/ST/STM32_USB_Device_Library/Class/MSC/Src/usbd_msc_scsi.c ****   {
 440              		.loc 1 222 6 view .LVU129
 441 0018 72B9     		cbnz	r2, .L37
 229:Middlewares/ST/STM32_USB_Device_Library/Class/MSC/Src/usbd_msc_scsi.c ****   {
 442              		.loc 1 229 3 is_stmt 1 view .LVU130
 229:Middlewares/ST/STM32_USB_Device_Library/Class/MSC/Src/usbd_msc_scsi.c ****   {
 443              		.loc 1 229 11 is_stmt 0 view .LVU131
 444 001a 95F86222 		ldrb	r2, [r5, #610]	@ zero_extendqisi2
 229:Middlewares/ST/STM32_USB_Device_Library/Class/MSC/Src/usbd_msc_scsi.c ****   {
 445              		.loc 1 229 6 view .LVU132
 446 001e 022A     		cmp	r2, #2
 447 0020 13D0     		beq	.L38
 236:Middlewares/ST/STM32_USB_Device_Library/Class/MSC/Src/usbd_msc_scsi.c ****   {
 448              		.loc 1 236 3 is_stmt 1 view .LVU133
 236:Middlewares/ST/STM32_USB_Device_Library/Class/MSC/Src/usbd_msc_scsi.c ****   {
 449              		.loc 1 236 46 is_stmt 0 view .LVU134
 450 0022 B033     		adds	r3, r3, #176
 451 0024 00EB8303 		add	r3, r0, r3, lsl #2
 452 0028 5B68     		ldr	r3, [r3, #4]
 236:Middlewares/ST/STM32_USB_Device_Library/Class/MSC/Src/usbd_msc_scsi.c ****   {
 453              		.loc 1 236 62 view .LVU135
 454 002a 9B68     		ldr	r3, [r3, #8]
 236:Middlewares/ST/STM32_USB_Device_Library/Class/MSC/Src/usbd_msc_scsi.c ****   {
 455              		.loc 1 236 8 view .LVU136
 456 002c 0846     		mov	r0, r1
 457              	.LVL43:
 236:Middlewares/ST/STM32_USB_Device_Library/Class/MSC/Src/usbd_msc_scsi.c ****   {
 458              		.loc 1 236 8 view .LVU137
 459 002e 9847     		blx	r3
 460              	.LVL44:
 236:Middlewares/ST/STM32_USB_Device_Library/Class/MSC/Src/usbd_msc_scsi.c ****   {
 461              		.loc 1 236 6 view .LVU138
 462 0030 98B9     		cbnz	r0, .L39
 243:Middlewares/ST/STM32_USB_Device_Library/Class/MSC/Src/usbd_msc_scsi.c **** 
 463              		.loc 1 243 3 is_stmt 1 view .LVU139
 243:Middlewares/ST/STM32_USB_Device_Library/Class/MSC/Src/usbd_msc_scsi.c **** 
 464              		.loc 1 243 25 is_stmt 0 view .LVU140
 465 0032 0023     		movs	r3, #0
 466 0034 EB60     		str	r3, [r5, #12]
 245:Middlewares/ST/STM32_USB_Device_Library/Class/MSC/Src/usbd_msc_scsi.c **** }
ARM GAS  /tmp/cc2SMzdz.s 			page 32


 467              		.loc 1 245 3 is_stmt 1 view .LVU141
 468              	.LVL45:
 469              	.L31:
 246:Middlewares/ST/STM32_USB_Device_Library/Class/MSC/Src/usbd_msc_scsi.c **** 
 470              		.loc 1 246 1 is_stmt 0 view .LVU142
 471 0036 70BD     		pop	{r4, r5, r6, pc}
 472              	.LVL46:
 473              	.L37:
 224:Middlewares/ST/STM32_USB_Device_Library/Class/MSC/Src/usbd_msc_scsi.c **** 
 474              		.loc 1 224 5 is_stmt 1 view .LVU143
 475 0038 2023     		movs	r3, #32
 476 003a 0522     		movs	r2, #5
 477 003c 95F81D12 		ldrb	r1, [r5, #541]	@ zero_extendqisi2
 478              	.LVL47:
 224:Middlewares/ST/STM32_USB_Device_Library/Class/MSC/Src/usbd_msc_scsi.c **** 
 479              		.loc 1 224 5 is_stmt 0 view .LVU144
 480 0040 FFF7FEFF 		bl	SCSI_SenseCode
 481              	.LVL48:
 226:Middlewares/ST/STM32_USB_Device_Library/Class/MSC/Src/usbd_msc_scsi.c ****   }
 482              		.loc 1 226 5 is_stmt 1 view .LVU145
 226:Middlewares/ST/STM32_USB_Device_Library/Class/MSC/Src/usbd_msc_scsi.c ****   }
 483              		.loc 1 226 12 is_stmt 0 view .LVU146
 484 0044 4FF0FF30 		mov	r0, #-1
 485 0048 F5E7     		b	.L31
 486              	.LVL49:
 487              	.L38:
 231:Middlewares/ST/STM32_USB_Device_Library/Class/MSC/Src/usbd_msc_scsi.c ****     hmsc->bot_state = USBD_BOT_NO_DATA;
 488              		.loc 1 231 5 is_stmt 1 view .LVU147
 489 004a 3A23     		movs	r3, #58
 490 004c FFF7FEFF 		bl	SCSI_SenseCode
 491              	.LVL50:
 232:Middlewares/ST/STM32_USB_Device_Library/Class/MSC/Src/usbd_msc_scsi.c ****     return -1;
 492              		.loc 1 232 5 view .LVU148
 232:Middlewares/ST/STM32_USB_Device_Library/Class/MSC/Src/usbd_msc_scsi.c ****     return -1;
 493              		.loc 1 232 21 is_stmt 0 view .LVU149
 494 0050 0523     		movs	r3, #5
 495 0052 2B72     		strb	r3, [r5, #8]
 233:Middlewares/ST/STM32_USB_Device_Library/Class/MSC/Src/usbd_msc_scsi.c ****   }
 496              		.loc 1 233 5 is_stmt 1 view .LVU150
 233:Middlewares/ST/STM32_USB_Device_Library/Class/MSC/Src/usbd_msc_scsi.c ****   }
 497              		.loc 1 233 12 is_stmt 0 view .LVU151
 498 0054 4FF0FF30 		mov	r0, #-1
 499 0058 EDE7     		b	.L31
 500              	.L39:
 238:Middlewares/ST/STM32_USB_Device_Library/Class/MSC/Src/usbd_msc_scsi.c ****     hmsc->bot_state = USBD_BOT_NO_DATA;
 501              		.loc 1 238 5 is_stmt 1 view .LVU152
 502 005a 3A23     		movs	r3, #58
 503 005c 0222     		movs	r2, #2
 504 005e 3146     		mov	r1, r6
 505 0060 2046     		mov	r0, r4
 506 0062 FFF7FEFF 		bl	SCSI_SenseCode
 507              	.LVL51:
 239:Middlewares/ST/STM32_USB_Device_Library/Class/MSC/Src/usbd_msc_scsi.c **** 
 508              		.loc 1 239 5 view .LVU153
 239:Middlewares/ST/STM32_USB_Device_Library/Class/MSC/Src/usbd_msc_scsi.c **** 
 509              		.loc 1 239 21 is_stmt 0 view .LVU154
 510 0066 0523     		movs	r3, #5
ARM GAS  /tmp/cc2SMzdz.s 			page 33


 511 0068 2B72     		strb	r3, [r5, #8]
 241:Middlewares/ST/STM32_USB_Device_Library/Class/MSC/Src/usbd_msc_scsi.c ****   }
 512              		.loc 1 241 5 is_stmt 1 view .LVU155
 241:Middlewares/ST/STM32_USB_Device_Library/Class/MSC/Src/usbd_msc_scsi.c ****   }
 513              		.loc 1 241 12 is_stmt 0 view .LVU156
 514 006a 4FF0FF30 		mov	r0, #-1
 515 006e E2E7     		b	.L31
 516              	.LVL52:
 517              	.L35:
 218:Middlewares/ST/STM32_USB_Device_Library/Class/MSC/Src/usbd_msc_scsi.c ****   }
 518              		.loc 1 218 12 view .LVU157
 519 0070 4FF0FF30 		mov	r0, #-1
 520              	.LVL53:
 218:Middlewares/ST/STM32_USB_Device_Library/Class/MSC/Src/usbd_msc_scsi.c ****   }
 521              		.loc 1 218 12 view .LVU158
 522 0074 DFE7     		b	.L31
 523              		.cfi_endproc
 524              	.LFE141:
 526              		.section	.text.SCSI_RequestSense,"ax",%progbits
 527              		.align	1
 528              		.syntax unified
 529              		.thumb
 530              		.thumb_func
 531              		.fpu fpv4-sp-d16
 533              	SCSI_RequestSense:
 534              	.LVL54:
 535              	.LFB148:
 540:Middlewares/ST/STM32_USB_Device_Library/Class/MSC/Src/usbd_msc_scsi.c ****   UNUSED(lun);
 536              		.loc 1 540 1 is_stmt 1 view -0
 537              		.cfi_startproc
 538              		@ args = 0, pretend = 0, frame = 0
 539              		@ frame_needed = 0, uses_anonymous_args = 0
 540:Middlewares/ST/STM32_USB_Device_Library/Class/MSC/Src/usbd_msc_scsi.c ****   UNUSED(lun);
 540              		.loc 1 540 1 is_stmt 0 view .LVU160
 541 0000 10B5     		push	{r4, lr}
 542              	.LCFI3:
 543              		.cfi_def_cfa_offset 8
 544              		.cfi_offset 4, -8
 545              		.cfi_offset 14, -4
 541:Middlewares/ST/STM32_USB_Device_Library/Class/MSC/Src/usbd_msc_scsi.c ****   uint8_t i;
 546              		.loc 1 541 3 is_stmt 1 view .LVU161
 542:Middlewares/ST/STM32_USB_Device_Library/Class/MSC/Src/usbd_msc_scsi.c ****   USBD_MSC_BOT_HandleTypeDef *hmsc = (USBD_MSC_BOT_HandleTypeDef *)pdev->pClassDataCmsit[pdev->clas
 547              		.loc 1 542 3 view .LVU162
 543:Middlewares/ST/STM32_USB_Device_Library/Class/MSC/Src/usbd_msc_scsi.c **** 
 548              		.loc 1 543 3 view .LVU163
 543:Middlewares/ST/STM32_USB_Device_Library/Class/MSC/Src/usbd_msc_scsi.c **** 
 549              		.loc 1 543 94 is_stmt 0 view .LVU164
 550 0002 D0F8D432 		ldr	r3, [r0, #724]
 543:Middlewares/ST/STM32_USB_Device_Library/Class/MSC/Src/usbd_msc_scsi.c **** 
 551              		.loc 1 543 31 view .LVU165
 552 0006 B033     		adds	r3, r3, #176
 553 0008 50F82340 		ldr	r4, [r0, r3, lsl #2]
 554              	.LVL55:
 545:Middlewares/ST/STM32_USB_Device_Library/Class/MSC/Src/usbd_msc_scsi.c ****   {
 555              		.loc 1 545 3 is_stmt 1 view .LVU166
 545:Middlewares/ST/STM32_USB_Device_Library/Class/MSC/Src/usbd_msc_scsi.c ****   {
 556              		.loc 1 545 6 is_stmt 0 view .LVU167
ARM GAS  /tmp/cc2SMzdz.s 			page 34


 557 000c 002C     		cmp	r4, #0
 558 000e 3BD0     		beq	.L45
 550:Middlewares/ST/STM32_USB_Device_Library/Class/MSC/Src/usbd_msc_scsi.c ****   {
 559              		.loc 1 550 3 is_stmt 1 view .LVU168
 550:Middlewares/ST/STM32_USB_Device_Library/Class/MSC/Src/usbd_msc_scsi.c ****   {
 560              		.loc 1 550 16 is_stmt 0 view .LVU169
 561 0010 D4F81832 		ldr	r3, [r4, #536]
 550:Middlewares/ST/STM32_USB_Device_Library/Class/MSC/Src/usbd_msc_scsi.c ****   {
 562              		.loc 1 550 6 view .LVU170
 563 0014 0BB1     		cbz	r3, .L49
 556:Middlewares/ST/STM32_USB_Device_Library/Class/MSC/Src/usbd_msc_scsi.c ****   {
 564              		.loc 1 556 10 view .LVU171
 565 0016 0023     		movs	r3, #0
 566 0018 0DE0     		b	.L42
 567              	.L49:
 552:Middlewares/ST/STM32_USB_Device_Library/Class/MSC/Src/usbd_msc_scsi.c ****     return -1;
 568              		.loc 1 552 5 is_stmt 1 view .LVU172
 569 001a 2023     		movs	r3, #32
 570 001c 0522     		movs	r2, #5
 571              	.LVL56:
 552:Middlewares/ST/STM32_USB_Device_Library/Class/MSC/Src/usbd_msc_scsi.c ****     return -1;
 572              		.loc 1 552 5 is_stmt 0 view .LVU173
 573 001e 94F81D12 		ldrb	r1, [r4, #541]	@ zero_extendqisi2
 574              	.LVL57:
 552:Middlewares/ST/STM32_USB_Device_Library/Class/MSC/Src/usbd_msc_scsi.c ****     return -1;
 575              		.loc 1 552 5 view .LVU174
 576 0022 FFF7FEFF 		bl	SCSI_SenseCode
 577              	.LVL58:
 553:Middlewares/ST/STM32_USB_Device_Library/Class/MSC/Src/usbd_msc_scsi.c ****   }
 578              		.loc 1 553 5 is_stmt 1 view .LVU175
 553:Middlewares/ST/STM32_USB_Device_Library/Class/MSC/Src/usbd_msc_scsi.c ****   }
 579              		.loc 1 553 12 is_stmt 0 view .LVU176
 580 0026 4FF0FF30 		mov	r0, #-1
 581 002a 28E0     		b	.L41
 582              	.LVL59:
 583              	.L43:
 558:Middlewares/ST/STM32_USB_Device_Library/Class/MSC/Src/usbd_msc_scsi.c ****   }
 584              		.loc 1 558 5 is_stmt 1 discriminator 3 view .LVU177
 558:Middlewares/ST/STM32_USB_Device_Library/Class/MSC/Src/usbd_msc_scsi.c ****   }
 585              		.loc 1 558 23 is_stmt 0 discriminator 3 view .LVU178
 586 002c E118     		adds	r1, r4, r3
 587 002e 0020     		movs	r0, #0
 588 0030 0874     		strb	r0, [r1, #16]
 556:Middlewares/ST/STM32_USB_Device_Library/Class/MSC/Src/usbd_msc_scsi.c ****   {
 589              		.loc 1 556 44 is_stmt 1 discriminator 3 view .LVU179
 556:Middlewares/ST/STM32_USB_Device_Library/Class/MSC/Src/usbd_msc_scsi.c ****   {
 590              		.loc 1 556 45 is_stmt 0 discriminator 3 view .LVU180
 591 0032 0133     		adds	r3, r3, #1
 592              	.LVL60:
 556:Middlewares/ST/STM32_USB_Device_Library/Class/MSC/Src/usbd_msc_scsi.c ****   {
 593              		.loc 1 556 45 discriminator 3 view .LVU181
 594 0034 DBB2     		uxtb	r3, r3
 595              	.LVL61:
 596              	.L42:
 556:Middlewares/ST/STM32_USB_Device_Library/Class/MSC/Src/usbd_msc_scsi.c ****   {
 597              		.loc 1 556 16 is_stmt 1 discriminator 1 view .LVU182
 556:Middlewares/ST/STM32_USB_Device_Library/Class/MSC/Src/usbd_msc_scsi.c ****   {
ARM GAS  /tmp/cc2SMzdz.s 			page 35


 598              		.loc 1 556 3 is_stmt 0 discriminator 1 view .LVU183
 599 0036 112B     		cmp	r3, #17
 600 0038 F8D9     		bls	.L43
 561:Middlewares/ST/STM32_USB_Device_Library/Class/MSC/Src/usbd_msc_scsi.c ****   hmsc->bot_data[7] = REQUEST_SENSE_DATA_LEN - 6U;
 601              		.loc 1 561 3 is_stmt 1 view .LVU184
 561:Middlewares/ST/STM32_USB_Device_Library/Class/MSC/Src/usbd_msc_scsi.c ****   hmsc->bot_data[7] = REQUEST_SENSE_DATA_LEN - 6U;
 602              		.loc 1 561 21 is_stmt 0 view .LVU185
 603 003a 7023     		movs	r3, #112
 604              	.LVL62:
 561:Middlewares/ST/STM32_USB_Device_Library/Class/MSC/Src/usbd_msc_scsi.c ****   hmsc->bot_data[7] = REQUEST_SENSE_DATA_LEN - 6U;
 605              		.loc 1 561 21 view .LVU186
 606 003c 2374     		strb	r3, [r4, #16]
 562:Middlewares/ST/STM32_USB_Device_Library/Class/MSC/Src/usbd_msc_scsi.c **** 
 607              		.loc 1 562 3 is_stmt 1 view .LVU187
 562:Middlewares/ST/STM32_USB_Device_Library/Class/MSC/Src/usbd_msc_scsi.c **** 
 608              		.loc 1 562 21 is_stmt 0 view .LVU188
 609 003e 0C23     		movs	r3, #12
 610 0040 E375     		strb	r3, [r4, #23]
 564:Middlewares/ST/STM32_USB_Device_Library/Class/MSC/Src/usbd_msc_scsi.c ****   {
 611              		.loc 1 564 3 is_stmt 1 view .LVU189
 564:Middlewares/ST/STM32_USB_Device_Library/Class/MSC/Src/usbd_msc_scsi.c ****   {
 612              		.loc 1 564 12 is_stmt 0 view .LVU190
 613 0042 94F86032 		ldrb	r3, [r4, #608]	@ zero_extendqisi2
 564:Middlewares/ST/STM32_USB_Device_Library/Class/MSC/Src/usbd_msc_scsi.c ****   {
 614              		.loc 1 564 37 view .LVU191
 615 0046 94F86112 		ldrb	r1, [r4, #609]	@ zero_extendqisi2
 564:Middlewares/ST/STM32_USB_Device_Library/Class/MSC/Src/usbd_msc_scsi.c ****   {
 616              		.loc 1 564 6 view .LVU192
 617 004a 8B42     		cmp	r3, r1
 618 004c 10D0     		beq	.L44
 566:Middlewares/ST/STM32_USB_Device_Library/Class/MSC/Src/usbd_msc_scsi.c ****     hmsc->bot_data[12] = (uint8_t)hmsc->scsi_sense[hmsc->scsi_sense_head].w.b.ASC;
 619              		.loc 1 566 5 is_stmt 1 view .LVU193
 566:Middlewares/ST/STM32_USB_Device_Library/Class/MSC/Src/usbd_msc_scsi.c ****     hmsc->bot_data[12] = (uint8_t)hmsc->scsi_sense[hmsc->scsi_sense_head].w.b.ASC;
 620              		.loc 1 566 73 is_stmt 0 view .LVU194
 621 004e 03F14801 		add	r1, r3, #72
 622 0052 14F83100 		ldrb	r0, [r4, r1, lsl #3]	@ zero_extendqisi2
 566:Middlewares/ST/STM32_USB_Device_Library/Class/MSC/Src/usbd_msc_scsi.c ****     hmsc->bot_data[12] = (uint8_t)hmsc->scsi_sense[hmsc->scsi_sense_head].w.b.ASC;
 623              		.loc 1 566 23 view .LVU195
 624 0056 A074     		strb	r0, [r4, #18]
 567:Middlewares/ST/STM32_USB_Device_Library/Class/MSC/Src/usbd_msc_scsi.c ****     hmsc->bot_data[13] = (uint8_t)hmsc->scsi_sense[hmsc->scsi_sense_head].w.b.ASCQ;
 625              		.loc 1 567 5 is_stmt 1 view .LVU196
 567:Middlewares/ST/STM32_USB_Device_Library/Class/MSC/Src/usbd_msc_scsi.c ****     hmsc->bot_data[13] = (uint8_t)hmsc->scsi_sense[hmsc->scsi_sense_head].w.b.ASCQ;
 626              		.loc 1 567 78 is_stmt 0 view .LVU197
 627 0058 04EBC101 		add	r1, r4, r1, lsl #3
 628 005c 0879     		ldrb	r0, [r1, #4]	@ zero_extendqisi2
 567:Middlewares/ST/STM32_USB_Device_Library/Class/MSC/Src/usbd_msc_scsi.c ****     hmsc->bot_data[13] = (uint8_t)hmsc->scsi_sense[hmsc->scsi_sense_head].w.b.ASCQ;
 629              		.loc 1 567 24 view .LVU198
 630 005e 2077     		strb	r0, [r4, #28]
 568:Middlewares/ST/STM32_USB_Device_Library/Class/MSC/Src/usbd_msc_scsi.c ****     hmsc->scsi_sense_head++;
 631              		.loc 1 568 5 is_stmt 1 view .LVU199
 568:Middlewares/ST/STM32_USB_Device_Library/Class/MSC/Src/usbd_msc_scsi.c ****     hmsc->scsi_sense_head++;
 632              		.loc 1 568 78 is_stmt 0 view .LVU200
 633 0060 4979     		ldrb	r1, [r1, #5]	@ zero_extendqisi2
 568:Middlewares/ST/STM32_USB_Device_Library/Class/MSC/Src/usbd_msc_scsi.c ****     hmsc->scsi_sense_head++;
 634              		.loc 1 568 24 view .LVU201
 635 0062 6177     		strb	r1, [r4, #29]
 569:Middlewares/ST/STM32_USB_Device_Library/Class/MSC/Src/usbd_msc_scsi.c **** 
ARM GAS  /tmp/cc2SMzdz.s 			page 36


 636              		.loc 1 569 5 is_stmt 1 view .LVU202
 569:Middlewares/ST/STM32_USB_Device_Library/Class/MSC/Src/usbd_msc_scsi.c **** 
 637              		.loc 1 569 26 is_stmt 0 view .LVU203
 638 0064 0133     		adds	r3, r3, #1
 639 0066 DBB2     		uxtb	r3, r3
 640 0068 84F86032 		strb	r3, [r4, #608]
 571:Middlewares/ST/STM32_USB_Device_Library/Class/MSC/Src/usbd_msc_scsi.c ****     {
 641              		.loc 1 571 5 is_stmt 1 view .LVU204
 571:Middlewares/ST/STM32_USB_Device_Library/Class/MSC/Src/usbd_msc_scsi.c ****     {
 642              		.loc 1 571 8 is_stmt 0 view .LVU205
 643 006c 042B     		cmp	r3, #4
 644 006e 07D0     		beq	.L50
 645              	.L44:
 577:Middlewares/ST/STM32_USB_Device_Library/Class/MSC/Src/usbd_msc_scsi.c **** 
 646              		.loc 1 577 3 is_stmt 1 view .LVU206
 577:Middlewares/ST/STM32_USB_Device_Library/Class/MSC/Src/usbd_msc_scsi.c **** 
 647              		.loc 1 577 25 is_stmt 0 view .LVU207
 648 0070 1223     		movs	r3, #18
 649 0072 E360     		str	r3, [r4, #12]
 579:Middlewares/ST/STM32_USB_Device_Library/Class/MSC/Src/usbd_msc_scsi.c ****   {
 650              		.loc 1 579 3 is_stmt 1 view .LVU208
 579:Middlewares/ST/STM32_USB_Device_Library/Class/MSC/Src/usbd_msc_scsi.c ****   {
 651              		.loc 1 579 13 is_stmt 0 view .LVU209
 652 0074 1379     		ldrb	r3, [r2, #4]	@ zero_extendqisi2
 579:Middlewares/ST/STM32_USB_Device_Library/Class/MSC/Src/usbd_msc_scsi.c ****   {
 653              		.loc 1 579 6 view .LVU210
 654 0076 122B     		cmp	r3, #18
 655 0078 09D8     		bhi	.L47
 581:Middlewares/ST/STM32_USB_Device_Library/Class/MSC/Src/usbd_msc_scsi.c ****   }
 656              		.loc 1 581 5 is_stmt 1 view .LVU211
 581:Middlewares/ST/STM32_USB_Device_Library/Class/MSC/Src/usbd_msc_scsi.c ****   }
 657              		.loc 1 581 27 is_stmt 0 view .LVU212
 658 007a E360     		str	r3, [r4, #12]
 584:Middlewares/ST/STM32_USB_Device_Library/Class/MSC/Src/usbd_msc_scsi.c **** }
 659              		.loc 1 584 10 view .LVU213
 660 007c 0020     		movs	r0, #0
 661              	.LVL63:
 662              	.L41:
 585:Middlewares/ST/STM32_USB_Device_Library/Class/MSC/Src/usbd_msc_scsi.c **** 
 663              		.loc 1 585 1 view .LVU214
 664 007e 10BD     		pop	{r4, pc}
 665              	.LVL64:
 666              	.L50:
 573:Middlewares/ST/STM32_USB_Device_Library/Class/MSC/Src/usbd_msc_scsi.c ****     }
 667              		.loc 1 573 7 is_stmt 1 view .LVU215
 573:Middlewares/ST/STM32_USB_Device_Library/Class/MSC/Src/usbd_msc_scsi.c ****     }
 668              		.loc 1 573 29 is_stmt 0 view .LVU216
 669 0080 0023     		movs	r3, #0
 670 0082 84F86032 		strb	r3, [r4, #608]
 671 0086 F3E7     		b	.L44
 672              	.LVL65:
 673              	.L45:
 547:Middlewares/ST/STM32_USB_Device_Library/Class/MSC/Src/usbd_msc_scsi.c ****   }
 674              		.loc 1 547 12 view .LVU217
 675 0088 4FF0FF30 		mov	r0, #-1
 676              	.LVL66:
 547:Middlewares/ST/STM32_USB_Device_Library/Class/MSC/Src/usbd_msc_scsi.c ****   }
ARM GAS  /tmp/cc2SMzdz.s 			page 37


 677              		.loc 1 547 12 view .LVU218
 678 008c F7E7     		b	.L41
 679              	.LVL67:
 680              	.L47:
 584:Middlewares/ST/STM32_USB_Device_Library/Class/MSC/Src/usbd_msc_scsi.c **** }
 681              		.loc 1 584 10 view .LVU219
 682 008e 0020     		movs	r0, #0
 683 0090 F5E7     		b	.L41
 684              		.cfi_endproc
 685              	.LFE148:
 687              		.section	.text.SCSI_Inquiry,"ax",%progbits
 688              		.align	1
 689              		.syntax unified
 690              		.thumb
 691              		.thumb_func
 692              		.fpu fpv4-sp-d16
 694              	SCSI_Inquiry:
 695              	.LVL68:
 696              	.LFB142:
 257:Middlewares/ST/STM32_USB_Device_Library/Class/MSC/Src/usbd_msc_scsi.c ****   uint8_t *pPage;
 697              		.loc 1 257 1 is_stmt 1 view -0
 698              		.cfi_startproc
 699              		@ args = 0, pretend = 0, frame = 0
 700              		@ frame_needed = 0, uses_anonymous_args = 0
 257:Middlewares/ST/STM32_USB_Device_Library/Class/MSC/Src/usbd_msc_scsi.c ****   uint8_t *pPage;
 701              		.loc 1 257 1 is_stmt 0 view .LVU221
 702 0000 8446     		mov	ip, r0
 258:Middlewares/ST/STM32_USB_Device_Library/Class/MSC/Src/usbd_msc_scsi.c ****   uint16_t len;
 703              		.loc 1 258 3 is_stmt 1 view .LVU222
 259:Middlewares/ST/STM32_USB_Device_Library/Class/MSC/Src/usbd_msc_scsi.c ****   USBD_MSC_BOT_HandleTypeDef *hmsc = (USBD_MSC_BOT_HandleTypeDef *)pdev->pClassDataCmsit[pdev->clas
 704              		.loc 1 259 3 view .LVU223
 260:Middlewares/ST/STM32_USB_Device_Library/Class/MSC/Src/usbd_msc_scsi.c **** 
 705              		.loc 1 260 3 view .LVU224
 260:Middlewares/ST/STM32_USB_Device_Library/Class/MSC/Src/usbd_msc_scsi.c **** 
 706              		.loc 1 260 94 is_stmt 0 view .LVU225
 707 0002 D0F8D432 		ldr	r3, [r0, #724]
 260:Middlewares/ST/STM32_USB_Device_Library/Class/MSC/Src/usbd_msc_scsi.c **** 
 708              		.loc 1 260 31 view .LVU226
 709 0006 03F1B000 		add	r0, r3, #176
 710              	.LVL69:
 260:Middlewares/ST/STM32_USB_Device_Library/Class/MSC/Src/usbd_msc_scsi.c **** 
 711              		.loc 1 260 31 view .LVU227
 712 000a 5CF82000 		ldr	r0, [ip, r0, lsl #2]
 713              	.LVL70:
 262:Middlewares/ST/STM32_USB_Device_Library/Class/MSC/Src/usbd_msc_scsi.c ****   {
 714              		.loc 1 262 3 is_stmt 1 view .LVU228
 262:Middlewares/ST/STM32_USB_Device_Library/Class/MSC/Src/usbd_msc_scsi.c ****   {
 715              		.loc 1 262 6 is_stmt 0 view .LVU229
 716 000e 0028     		cmp	r0, #0
 717 0010 40D0     		beq	.L58
 257:Middlewares/ST/STM32_USB_Device_Library/Class/MSC/Src/usbd_msc_scsi.c ****   uint8_t *pPage;
 718              		.loc 1 257 1 view .LVU230
 719 0012 10B5     		push	{r4, lr}
 720              	.LCFI4:
 721              		.cfi_def_cfa_offset 8
 722              		.cfi_offset 4, -8
 723              		.cfi_offset 14, -4
ARM GAS  /tmp/cc2SMzdz.s 			page 38


 267:Middlewares/ST/STM32_USB_Device_Library/Class/MSC/Src/usbd_msc_scsi.c ****   {
 724              		.loc 1 267 3 is_stmt 1 view .LVU231
 267:Middlewares/ST/STM32_USB_Device_Library/Class/MSC/Src/usbd_msc_scsi.c ****   {
 725              		.loc 1 267 6 is_stmt 0 view .LVU232
 726 0014 D0F81842 		ldr	r4, [r0, #536]
 727 0018 74B1     		cbz	r4, .L63
 273:Middlewares/ST/STM32_USB_Device_Library/Class/MSC/Src/usbd_msc_scsi.c ****   {
 728              		.loc 1 273 3 is_stmt 1 view .LVU233
 273:Middlewares/ST/STM32_USB_Device_Library/Class/MSC/Src/usbd_msc_scsi.c ****   {
 729              		.loc 1 273 14 is_stmt 0 view .LVU234
 730 001a 92F801E0 		ldrb	lr, [r2, #1]	@ zero_extendqisi2
 273:Middlewares/ST/STM32_USB_Device_Library/Class/MSC/Src/usbd_msc_scsi.c ****   {
 731              		.loc 1 273 6 view .LVU235
 732 001e 1EF0010F 		tst	lr, #1
 733 0022 23D0     		beq	.L54
 275:Middlewares/ST/STM32_USB_Device_Library/Class/MSC/Src/usbd_msc_scsi.c ****     {
 734              		.loc 1 275 5 is_stmt 1 view .LVU236
 275:Middlewares/ST/STM32_USB_Device_Library/Class/MSC/Src/usbd_msc_scsi.c ****     {
 735              		.loc 1 275 15 is_stmt 0 view .LVU237
 736 0024 9378     		ldrb	r3, [r2, #2]	@ zero_extendqisi2
 275:Middlewares/ST/STM32_USB_Device_Library/Class/MSC/Src/usbd_msc_scsi.c ****     {
 737              		.loc 1 275 8 view .LVU238
 738 0026 8BB1     		cbz	r3, .L64
 279:Middlewares/ST/STM32_USB_Device_Library/Class/MSC/Src/usbd_msc_scsi.c ****     {
 739              		.loc 1 279 10 is_stmt 1 view .LVU239
 279:Middlewares/ST/STM32_USB_Device_Library/Class/MSC/Src/usbd_msc_scsi.c ****     {
 740              		.loc 1 279 13 is_stmt 0 view .LVU240
 741 0028 802B     		cmp	r3, #128
 742 002a 15D1     		bne	.L56
 281:Middlewares/ST/STM32_USB_Device_Library/Class/MSC/Src/usbd_msc_scsi.c ****     }
 743              		.loc 1 281 7 is_stmt 1 view .LVU241
 281:Middlewares/ST/STM32_USB_Device_Library/Class/MSC/Src/usbd_msc_scsi.c ****     }
 744              		.loc 1 281 13 is_stmt 0 view .LVU242
 745 002c 0822     		movs	r2, #8
 746              	.LVL71:
 281:Middlewares/ST/STM32_USB_Device_Library/Class/MSC/Src/usbd_msc_scsi.c ****     }
 747              		.loc 1 281 13 view .LVU243
 748 002e 1B49     		ldr	r1, .L65
 749              	.LVL72:
 281:Middlewares/ST/STM32_USB_Device_Library/Class/MSC/Src/usbd_msc_scsi.c ****     }
 750              		.loc 1 281 13 view .LVU244
 751 0030 FFF7FEFF 		bl	SCSI_UpdateBotData
 752              	.LVL73:
 306:Middlewares/ST/STM32_USB_Device_Library/Class/MSC/Src/usbd_msc_scsi.c **** }
 753              		.loc 1 306 10 view .LVU245
 754 0034 0020     		movs	r0, #0
 755 0036 2CE0     		b	.L52
 756              	.LVL74:
 757              	.L63:
 269:Middlewares/ST/STM32_USB_Device_Library/Class/MSC/Src/usbd_msc_scsi.c ****     return -1;
 758              		.loc 1 269 5 is_stmt 1 view .LVU246
 759 0038 2023     		movs	r3, #32
 760 003a 0522     		movs	r2, #5
 761              	.LVL75:
 269:Middlewares/ST/STM32_USB_Device_Library/Class/MSC/Src/usbd_msc_scsi.c ****     return -1;
 762              		.loc 1 269 5 is_stmt 0 view .LVU247
 763 003c 90F81D12 		ldrb	r1, [r0, #541]	@ zero_extendqisi2
ARM GAS  /tmp/cc2SMzdz.s 			page 39


 764              	.LVL76:
 269:Middlewares/ST/STM32_USB_Device_Library/Class/MSC/Src/usbd_msc_scsi.c ****     return -1;
 765              		.loc 1 269 5 view .LVU248
 766 0040 6046     		mov	r0, ip
 767              	.LVL77:
 269:Middlewares/ST/STM32_USB_Device_Library/Class/MSC/Src/usbd_msc_scsi.c ****     return -1;
 768              		.loc 1 269 5 view .LVU249
 769 0042 FFF7FEFF 		bl	SCSI_SenseCode
 770              	.LVL78:
 270:Middlewares/ST/STM32_USB_Device_Library/Class/MSC/Src/usbd_msc_scsi.c ****   }
 771              		.loc 1 270 5 is_stmt 1 view .LVU250
 270:Middlewares/ST/STM32_USB_Device_Library/Class/MSC/Src/usbd_msc_scsi.c ****   }
 772              		.loc 1 270 12 is_stmt 0 view .LVU251
 773 0046 4FF0FF30 		mov	r0, #-1
 774 004a 22E0     		b	.L52
 775              	.LVL79:
 776              	.L64:
 277:Middlewares/ST/STM32_USB_Device_Library/Class/MSC/Src/usbd_msc_scsi.c ****     }
 777              		.loc 1 277 7 is_stmt 1 view .LVU252
 277:Middlewares/ST/STM32_USB_Device_Library/Class/MSC/Src/usbd_msc_scsi.c ****     }
 778              		.loc 1 277 13 is_stmt 0 view .LVU253
 779 004c 0622     		movs	r2, #6
 780              	.LVL80:
 277:Middlewares/ST/STM32_USB_Device_Library/Class/MSC/Src/usbd_msc_scsi.c ****     }
 781              		.loc 1 277 13 view .LVU254
 782 004e 1449     		ldr	r1, .L65+4
 783              	.LVL81:
 277:Middlewares/ST/STM32_USB_Device_Library/Class/MSC/Src/usbd_msc_scsi.c ****     }
 784              		.loc 1 277 13 view .LVU255
 785 0050 FFF7FEFF 		bl	SCSI_UpdateBotData
 786              	.LVL82:
 306:Middlewares/ST/STM32_USB_Device_Library/Class/MSC/Src/usbd_msc_scsi.c **** }
 787              		.loc 1 306 10 view .LVU256
 788 0054 0020     		movs	r0, #0
 789 0056 1CE0     		b	.L52
 790              	.LVL83:
 791              	.L56:
 285:Middlewares/ST/STM32_USB_Device_Library/Class/MSC/Src/usbd_msc_scsi.c ****                      INVALID_FIELED_IN_COMMAND);
 792              		.loc 1 285 7 is_stmt 1 view .LVU257
 793 0058 2423     		movs	r3, #36
 794 005a 0522     		movs	r2, #5
 795              	.LVL84:
 285:Middlewares/ST/STM32_USB_Device_Library/Class/MSC/Src/usbd_msc_scsi.c ****                      INVALID_FIELED_IN_COMMAND);
 796              		.loc 1 285 7 is_stmt 0 view .LVU258
 797 005c 90F81D12 		ldrb	r1, [r0, #541]	@ zero_extendqisi2
 798              	.LVL85:
 285:Middlewares/ST/STM32_USB_Device_Library/Class/MSC/Src/usbd_msc_scsi.c ****                      INVALID_FIELED_IN_COMMAND);
 799              		.loc 1 285 7 view .LVU259
 800 0060 6046     		mov	r0, ip
 801              	.LVL86:
 285:Middlewares/ST/STM32_USB_Device_Library/Class/MSC/Src/usbd_msc_scsi.c ****                      INVALID_FIELED_IN_COMMAND);
 802              		.loc 1 285 7 view .LVU260
 803 0062 FFF7FEFF 		bl	SCSI_SenseCode
 804              	.LVL87:
 288:Middlewares/ST/STM32_USB_Device_Library/Class/MSC/Src/usbd_msc_scsi.c ****     }
 805              		.loc 1 288 7 is_stmt 1 view .LVU261
 288:Middlewares/ST/STM32_USB_Device_Library/Class/MSC/Src/usbd_msc_scsi.c ****     }
ARM GAS  /tmp/cc2SMzdz.s 			page 40


 806              		.loc 1 288 14 is_stmt 0 view .LVU262
 807 0066 4FF0FF30 		mov	r0, #-1
 808 006a 12E0     		b	.L52
 809              	.LVL88:
 810              	.L54:
 294:Middlewares/ST/STM32_USB_Device_Library/Class/MSC/Src/usbd_msc_scsi.c ****             ->pInquiry[lun * STANDARD_INQUIRY_DATA_LEN];
 811              		.loc 1 294 5 is_stmt 1 view .LVU263
 294:Middlewares/ST/STM32_USB_Device_Library/Class/MSC/Src/usbd_msc_scsi.c ****             ->pInquiry[lun * STANDARD_INQUIRY_DATA_LEN];
 812              		.loc 1 294 66 is_stmt 0 view .LVU264
 813 006c B033     		adds	r3, r3, #176
 814 006e 0CEB830C 		add	ip, ip, r3, lsl #2
 815              	.LVL89:
 294:Middlewares/ST/STM32_USB_Device_Library/Class/MSC/Src/usbd_msc_scsi.c ****             ->pInquiry[lun * STANDARD_INQUIRY_DATA_LEN];
 816              		.loc 1 294 66 view .LVU265
 817 0072 DCF80430 		ldr	r3, [ip, #4]
 295:Middlewares/ST/STM32_USB_Device_Library/Class/MSC/Src/usbd_msc_scsi.c ****     len = (uint16_t)pPage[4] + 5U;
 818              		.loc 1 295 13 view .LVU266
 819 0076 DB69     		ldr	r3, [r3, #28]
 295:Middlewares/ST/STM32_USB_Device_Library/Class/MSC/Src/usbd_msc_scsi.c ****     len = (uint16_t)pPage[4] + 5U;
 820              		.loc 1 295 28 view .LVU267
 821 0078 01EBC101 		add	r1, r1, r1, lsl #3
 822              	.LVL90:
 294:Middlewares/ST/STM32_USB_Device_Library/Class/MSC/Src/usbd_msc_scsi.c ****             ->pInquiry[lun * STANDARD_INQUIRY_DATA_LEN];
 823              		.loc 1 294 11 view .LVU268
 824 007c 03EB8101 		add	r1, r3, r1, lsl #2
 825              	.LVL91:
 296:Middlewares/ST/STM32_USB_Device_Library/Class/MSC/Src/usbd_msc_scsi.c **** 
 826              		.loc 1 296 5 is_stmt 1 view .LVU269
 296:Middlewares/ST/STM32_USB_Device_Library/Class/MSC/Src/usbd_msc_scsi.c **** 
 827              		.loc 1 296 26 is_stmt 0 view .LVU270
 828 0080 0B79     		ldrb	r3, [r1, #4]	@ zero_extendqisi2
 296:Middlewares/ST/STM32_USB_Device_Library/Class/MSC/Src/usbd_msc_scsi.c **** 
 829              		.loc 1 296 9 view .LVU271
 830 0082 0533     		adds	r3, r3, #5
 831              	.LVL92:
 298:Middlewares/ST/STM32_USB_Device_Library/Class/MSC/Src/usbd_msc_scsi.c ****     {
 832              		.loc 1 298 5 is_stmt 1 view .LVU272
 298:Middlewares/ST/STM32_USB_Device_Library/Class/MSC/Src/usbd_msc_scsi.c ****     {
 833              		.loc 1 298 15 is_stmt 0 view .LVU273
 834 0084 1279     		ldrb	r2, [r2, #4]	@ zero_extendqisi2
 835              	.LVL93:
 298:Middlewares/ST/STM32_USB_Device_Library/Class/MSC/Src/usbd_msc_scsi.c ****     {
 836              		.loc 1 298 8 view .LVU274
 837 0086 9A42     		cmp	r2, r3
 838 0088 00D9     		bls	.L57
 296:Middlewares/ST/STM32_USB_Device_Library/Class/MSC/Src/usbd_msc_scsi.c **** 
 839              		.loc 1 296 9 view .LVU275
 840 008a 1A46     		mov	r2, r3
 841              	.L57:
 842              	.LVL94:
 303:Middlewares/ST/STM32_USB_Device_Library/Class/MSC/Src/usbd_msc_scsi.c ****   }
 843              		.loc 1 303 5 is_stmt 1 view .LVU276
 303:Middlewares/ST/STM32_USB_Device_Library/Class/MSC/Src/usbd_msc_scsi.c ****   }
 844              		.loc 1 303 11 is_stmt 0 view .LVU277
 845 008c FFF7FEFF 		bl	SCSI_UpdateBotData
 846              	.LVL95:
 306:Middlewares/ST/STM32_USB_Device_Library/Class/MSC/Src/usbd_msc_scsi.c **** }
ARM GAS  /tmp/cc2SMzdz.s 			page 41


 847              		.loc 1 306 10 view .LVU278
 848 0090 0020     		movs	r0, #0
 849              	.L52:
 307:Middlewares/ST/STM32_USB_Device_Library/Class/MSC/Src/usbd_msc_scsi.c **** 
 850              		.loc 1 307 1 view .LVU279
 851 0092 10BD     		pop	{r4, pc}
 852              	.LVL96:
 853              	.L58:
 854              	.LCFI5:
 855              		.cfi_def_cfa_offset 0
 856              		.cfi_restore 4
 857              		.cfi_restore 14
 264:Middlewares/ST/STM32_USB_Device_Library/Class/MSC/Src/usbd_msc_scsi.c ****   }
 858              		.loc 1 264 12 view .LVU280
 859 0094 4FF0FF30 		mov	r0, #-1
 860              	.LVL97:
 307:Middlewares/ST/STM32_USB_Device_Library/Class/MSC/Src/usbd_msc_scsi.c **** 
 861              		.loc 1 307 1 view .LVU281
 862 0098 7047     		bx	lr
 863              	.L66:
 864 009a 00BF     		.align	2
 865              	.L65:
 866 009c 00000000 		.word	MSC_Page80_Inquiry_Data
 867 00a0 00000000 		.word	MSC_Page00_Inquiry_Data
 868              		.cfi_endproc
 869              	.LFE142:
 871              		.section	.text.SCSI_StartStopUnit,"ax",%progbits
 872              		.align	1
 873              		.syntax unified
 874              		.thumb
 875              		.thumb_func
 876              		.fpu fpv4-sp-d16
 878              	SCSI_StartStopUnit:
 879              	.LVL98:
 880              	.LFB150:
 627:Middlewares/ST/STM32_USB_Device_Library/Class/MSC/Src/usbd_msc_scsi.c ****   UNUSED(lun);
 881              		.loc 1 627 1 is_stmt 1 view -0
 882              		.cfi_startproc
 883              		@ args = 0, pretend = 0, frame = 0
 884              		@ frame_needed = 0, uses_anonymous_args = 0
 627:Middlewares/ST/STM32_USB_Device_Library/Class/MSC/Src/usbd_msc_scsi.c ****   UNUSED(lun);
 885              		.loc 1 627 1 is_stmt 0 view .LVU283
 886 0000 10B5     		push	{r4, lr}
 887              	.LCFI6:
 888              		.cfi_def_cfa_offset 8
 889              		.cfi_offset 4, -8
 890              		.cfi_offset 14, -4
 628:Middlewares/ST/STM32_USB_Device_Library/Class/MSC/Src/usbd_msc_scsi.c ****   USBD_MSC_BOT_HandleTypeDef *hmsc = (USBD_MSC_BOT_HandleTypeDef *)pdev->pClassDataCmsit[pdev->clas
 891              		.loc 1 628 3 is_stmt 1 view .LVU284
 629:Middlewares/ST/STM32_USB_Device_Library/Class/MSC/Src/usbd_msc_scsi.c **** 
 892              		.loc 1 629 3 view .LVU285
 629:Middlewares/ST/STM32_USB_Device_Library/Class/MSC/Src/usbd_msc_scsi.c **** 
 893              		.loc 1 629 94 is_stmt 0 view .LVU286
 894 0002 D0F8D432 		ldr	r3, [r0, #724]
 629:Middlewares/ST/STM32_USB_Device_Library/Class/MSC/Src/usbd_msc_scsi.c **** 
 895              		.loc 1 629 31 view .LVU287
 896 0006 B033     		adds	r3, r3, #176
ARM GAS  /tmp/cc2SMzdz.s 			page 42


 897 0008 50F82340 		ldr	r4, [r0, r3, lsl #2]
 898              	.LVL99:
 631:Middlewares/ST/STM32_USB_Device_Library/Class/MSC/Src/usbd_msc_scsi.c ****   {
 899              		.loc 1 631 3 is_stmt 1 view .LVU288
 631:Middlewares/ST/STM32_USB_Device_Library/Class/MSC/Src/usbd_msc_scsi.c ****   {
 900              		.loc 1 631 6 is_stmt 0 view .LVU289
 901 000c 2CB3     		cbz	r4, .L73
 636:Middlewares/ST/STM32_USB_Device_Library/Class/MSC/Src/usbd_msc_scsi.c ****   {
 902              		.loc 1 636 3 is_stmt 1 view .LVU290
 636:Middlewares/ST/STM32_USB_Device_Library/Class/MSC/Src/usbd_msc_scsi.c ****   {
 903              		.loc 1 636 12 is_stmt 0 view .LVU291
 904 000e 94F86232 		ldrb	r3, [r4, #610]	@ zero_extendqisi2
 636:Middlewares/ST/STM32_USB_Device_Library/Class/MSC/Src/usbd_msc_scsi.c ****   {
 905              		.loc 1 636 6 view .LVU292
 906 0012 012B     		cmp	r3, #1
 907 0014 0CD0     		beq	.L75
 908              	.L69:
 643:Middlewares/ST/STM32_USB_Device_Library/Class/MSC/Src/usbd_msc_scsi.c ****   {
 909              		.loc 1 643 3 is_stmt 1 view .LVU293
 643:Middlewares/ST/STM32_USB_Device_Library/Class/MSC/Src/usbd_msc_scsi.c ****   {
 910              		.loc 1 643 14 is_stmt 0 view .LVU294
 911 0016 1379     		ldrb	r3, [r2, #4]	@ zero_extendqisi2
 912 0018 03F00303 		and	r3, r3, #3
 643:Middlewares/ST/STM32_USB_Device_Library/Class/MSC/Src/usbd_msc_scsi.c ****   {
 913              		.loc 1 643 6 view .LVU295
 914 001c 012B     		cmp	r3, #1
 915 001e 13D0     		beq	.L76
 647:Middlewares/ST/STM32_USB_Device_Library/Class/MSC/Src/usbd_msc_scsi.c ****   {
 916              		.loc 1 647 8 is_stmt 1 view .LVU296
 647:Middlewares/ST/STM32_USB_Device_Library/Class/MSC/Src/usbd_msc_scsi.c ****   {
 917              		.loc 1 647 11 is_stmt 0 view .LVU297
 918 0020 022B     		cmp	r3, #2
 919 0022 17D0     		beq	.L77
 651:Middlewares/ST/STM32_USB_Device_Library/Class/MSC/Src/usbd_msc_scsi.c ****   {
 920              		.loc 1 651 8 is_stmt 1 view .LVU298
 651:Middlewares/ST/STM32_USB_Device_Library/Class/MSC/Src/usbd_msc_scsi.c ****   {
 921              		.loc 1 651 11 is_stmt 0 view .LVU299
 922 0024 032B     		cmp	r3, #3
 923 0026 12D1     		bne	.L71
 653:Middlewares/ST/STM32_USB_Device_Library/Class/MSC/Src/usbd_msc_scsi.c ****   }
 924              		.loc 1 653 5 is_stmt 1 view .LVU300
 653:Middlewares/ST/STM32_USB_Device_Library/Class/MSC/Src/usbd_msc_scsi.c ****   }
 925              		.loc 1 653 29 is_stmt 0 view .LVU301
 926 0028 0023     		movs	r3, #0
 927 002a 84F86232 		strb	r3, [r4, #610]
 928 002e 0EE0     		b	.L71
 929              	.L75:
 636:Middlewares/ST/STM32_USB_Device_Library/Class/MSC/Src/usbd_msc_scsi.c ****   {
 930              		.loc 1 636 66 discriminator 1 view .LVU302
 931 0030 1379     		ldrb	r3, [r2, #4]	@ zero_extendqisi2
 636:Middlewares/ST/STM32_USB_Device_Library/Class/MSC/Src/usbd_msc_scsi.c ****   {
 932              		.loc 1 636 55 discriminator 1 view .LVU303
 933 0032 03F00303 		and	r3, r3, #3
 934 0036 022B     		cmp	r3, #2
 935 0038 EDD1     		bne	.L69
 638:Middlewares/ST/STM32_USB_Device_Library/Class/MSC/Src/usbd_msc_scsi.c **** 
 936              		.loc 1 638 5 is_stmt 1 view .LVU304
ARM GAS  /tmp/cc2SMzdz.s 			page 43


 937 003a 2423     		movs	r3, #36
 938 003c 0522     		movs	r2, #5
 939              	.LVL100:
 638:Middlewares/ST/STM32_USB_Device_Library/Class/MSC/Src/usbd_msc_scsi.c **** 
 940              		.loc 1 638 5 is_stmt 0 view .LVU305
 941 003e FFF7FEFF 		bl	SCSI_SenseCode
 942              	.LVL101:
 640:Middlewares/ST/STM32_USB_Device_Library/Class/MSC/Src/usbd_msc_scsi.c ****   }
 943              		.loc 1 640 5 is_stmt 1 view .LVU306
 640:Middlewares/ST/STM32_USB_Device_Library/Class/MSC/Src/usbd_msc_scsi.c ****   }
 944              		.loc 1 640 12 is_stmt 0 view .LVU307
 945 0042 4FF0FF30 		mov	r0, #-1
 946 0046 04E0     		b	.L68
 947              	.LVL102:
 948              	.L76:
 645:Middlewares/ST/STM32_USB_Device_Library/Class/MSC/Src/usbd_msc_scsi.c ****   }
 949              		.loc 1 645 5 is_stmt 1 view .LVU308
 645:Middlewares/ST/STM32_USB_Device_Library/Class/MSC/Src/usbd_msc_scsi.c ****   }
 950              		.loc 1 645 29 is_stmt 0 view .LVU309
 951 0048 0023     		movs	r3, #0
 952 004a 84F86232 		strb	r3, [r4, #610]
 953              	.L71:
 658:Middlewares/ST/STM32_USB_Device_Library/Class/MSC/Src/usbd_msc_scsi.c ****   hmsc->bot_data_length = 0U;
 954              		.loc 1 658 3 is_stmt 1 view .LVU310
 659:Middlewares/ST/STM32_USB_Device_Library/Class/MSC/Src/usbd_msc_scsi.c **** 
 955              		.loc 1 659 3 view .LVU311
 659:Middlewares/ST/STM32_USB_Device_Library/Class/MSC/Src/usbd_msc_scsi.c **** 
 956              		.loc 1 659 25 is_stmt 0 view .LVU312
 957 004e 0020     		movs	r0, #0
 958              	.LVL103:
 659:Middlewares/ST/STM32_USB_Device_Library/Class/MSC/Src/usbd_msc_scsi.c **** 
 959              		.loc 1 659 25 view .LVU313
 960 0050 E060     		str	r0, [r4, #12]
 661:Middlewares/ST/STM32_USB_Device_Library/Class/MSC/Src/usbd_msc_scsi.c **** }
 961              		.loc 1 661 3 is_stmt 1 view .LVU314
 962              	.LVL104:
 963              	.L68:
 662:Middlewares/ST/STM32_USB_Device_Library/Class/MSC/Src/usbd_msc_scsi.c **** 
 964              		.loc 1 662 1 is_stmt 0 view .LVU315
 965 0052 10BD     		pop	{r4, pc}
 966              	.LVL105:
 967              	.L77:
 649:Middlewares/ST/STM32_USB_Device_Library/Class/MSC/Src/usbd_msc_scsi.c ****   }
 968              		.loc 1 649 5 is_stmt 1 view .LVU316
 649:Middlewares/ST/STM32_USB_Device_Library/Class/MSC/Src/usbd_msc_scsi.c ****   }
 969              		.loc 1 649 29 is_stmt 0 view .LVU317
 970 0054 84F86232 		strb	r3, [r4, #610]
 971 0058 F9E7     		b	.L71
 972              	.L73:
 633:Middlewares/ST/STM32_USB_Device_Library/Class/MSC/Src/usbd_msc_scsi.c ****   }
 973              		.loc 1 633 12 view .LVU318
 974 005a 4FF0FF30 		mov	r0, #-1
 975              	.LVL106:
 633:Middlewares/ST/STM32_USB_Device_Library/Class/MSC/Src/usbd_msc_scsi.c ****   }
 976              		.loc 1 633 12 view .LVU319
 977 005e F8E7     		b	.L68
 978              		.cfi_endproc
ARM GAS  /tmp/cc2SMzdz.s 			page 44


 979              	.LFE150:
 981              		.section	.text.SCSI_ReadFormatCapacity,"ax",%progbits
 982              		.align	1
 983              		.syntax unified
 984              		.thumb
 985              		.thumb_func
 986              		.fpu fpv4-sp-d16
 988              	SCSI_ReadFormatCapacity:
 989              	.LVL107:
 990              	.LFB145:
 419:Middlewares/ST/STM32_USB_Device_Library/Class/MSC/Src/usbd_msc_scsi.c ****   UNUSED(params);
 991              		.loc 1 419 1 is_stmt 1 view -0
 992              		.cfi_startproc
 993              		@ args = 0, pretend = 0, frame = 8
 994              		@ frame_needed = 0, uses_anonymous_args = 0
 419:Middlewares/ST/STM32_USB_Device_Library/Class/MSC/Src/usbd_msc_scsi.c ****   UNUSED(params);
 995              		.loc 1 419 1 is_stmt 0 view .LVU321
 996 0000 70B5     		push	{r4, r5, r6, lr}
 997              	.LCFI7:
 998              		.cfi_def_cfa_offset 16
 999              		.cfi_offset 4, -16
 1000              		.cfi_offset 5, -12
 1001              		.cfi_offset 6, -8
 1002              		.cfi_offset 14, -4
 1003 0002 82B0     		sub	sp, sp, #8
 1004              	.LCFI8:
 1005              		.cfi_def_cfa_offset 24
 420:Middlewares/ST/STM32_USB_Device_Library/Class/MSC/Src/usbd_msc_scsi.c ****   uint16_t blk_size;
 1006              		.loc 1 420 3 is_stmt 1 view .LVU322
 421:Middlewares/ST/STM32_USB_Device_Library/Class/MSC/Src/usbd_msc_scsi.c ****   uint32_t blk_nbr;
 1007              		.loc 1 421 3 view .LVU323
 422:Middlewares/ST/STM32_USB_Device_Library/Class/MSC/Src/usbd_msc_scsi.c ****   uint16_t i;
 1008              		.loc 1 422 3 view .LVU324
 423:Middlewares/ST/STM32_USB_Device_Library/Class/MSC/Src/usbd_msc_scsi.c ****   int8_t ret;
 1009              		.loc 1 423 3 view .LVU325
 424:Middlewares/ST/STM32_USB_Device_Library/Class/MSC/Src/usbd_msc_scsi.c ****   USBD_MSC_BOT_HandleTypeDef *hmsc = (USBD_MSC_BOT_HandleTypeDef *)pdev->pClassDataCmsit[pdev->clas
 1010              		.loc 1 424 3 view .LVU326
 425:Middlewares/ST/STM32_USB_Device_Library/Class/MSC/Src/usbd_msc_scsi.c **** 
 1011              		.loc 1 425 3 view .LVU327
 425:Middlewares/ST/STM32_USB_Device_Library/Class/MSC/Src/usbd_msc_scsi.c **** 
 1012              		.loc 1 425 94 is_stmt 0 view .LVU328
 1013 0004 D0F8D432 		ldr	r3, [r0, #724]
 425:Middlewares/ST/STM32_USB_Device_Library/Class/MSC/Src/usbd_msc_scsi.c **** 
 1014              		.loc 1 425 31 view .LVU329
 1015 0008 03F1B002 		add	r2, r3, #176
 1016              	.LVL108:
 425:Middlewares/ST/STM32_USB_Device_Library/Class/MSC/Src/usbd_msc_scsi.c **** 
 1017              		.loc 1 425 31 view .LVU330
 1018 000c 50F82240 		ldr	r4, [r0, r2, lsl #2]
 1019              	.LVL109:
 427:Middlewares/ST/STM32_USB_Device_Library/Class/MSC/Src/usbd_msc_scsi.c ****   {
 1020              		.loc 1 427 3 is_stmt 1 view .LVU331
 427:Middlewares/ST/STM32_USB_Device_Library/Class/MSC/Src/usbd_msc_scsi.c ****   {
 1021              		.loc 1 427 6 is_stmt 0 view .LVU332
 1022 0010 002C     		cmp	r4, #0
 1023 0012 3CD0     		beq	.L83
 1024 0014 0546     		mov	r5, r0
ARM GAS  /tmp/cc2SMzdz.s 			page 45


 1025 0016 0E46     		mov	r6, r1
 432:Middlewares/ST/STM32_USB_Device_Library/Class/MSC/Src/usbd_msc_scsi.c **** 
 1026              		.loc 1 432 3 is_stmt 1 view .LVU333
 432:Middlewares/ST/STM32_USB_Device_Library/Class/MSC/Src/usbd_msc_scsi.c **** 
 1027              		.loc 1 432 48 is_stmt 0 view .LVU334
 1028 0018 00EB8203 		add	r3, r0, r2, lsl #2
 1029 001c 5B68     		ldr	r3, [r3, #4]
 432:Middlewares/ST/STM32_USB_Device_Library/Class/MSC/Src/usbd_msc_scsi.c **** 
 1030              		.loc 1 432 64 view .LVU335
 1031 001e 5B68     		ldr	r3, [r3, #4]
 432:Middlewares/ST/STM32_USB_Device_Library/Class/MSC/Src/usbd_msc_scsi.c **** 
 1032              		.loc 1 432 10 view .LVU336
 1033 0020 0DF10602 		add	r2, sp, #6
 1034 0024 6946     		mov	r1, sp
 1035              	.LVL110:
 432:Middlewares/ST/STM32_USB_Device_Library/Class/MSC/Src/usbd_msc_scsi.c **** 
 1036              		.loc 1 432 10 view .LVU337
 1037 0026 3046     		mov	r0, r6
 1038              	.LVL111:
 432:Middlewares/ST/STM32_USB_Device_Library/Class/MSC/Src/usbd_msc_scsi.c **** 
 1039              		.loc 1 432 10 view .LVU338
 1040 0028 9847     		blx	r3
 1041              	.LVL112:
 434:Middlewares/ST/STM32_USB_Device_Library/Class/MSC/Src/usbd_msc_scsi.c ****   {
 1042              		.loc 1 434 3 is_stmt 1 view .LVU339
 434:Middlewares/ST/STM32_USB_Device_Library/Class/MSC/Src/usbd_msc_scsi.c ****   {
 1043              		.loc 1 434 6 is_stmt 0 view .LVU340
 1044 002a 28B9     		cbnz	r0, .L80
 434:Middlewares/ST/STM32_USB_Device_Library/Class/MSC/Src/usbd_msc_scsi.c ****   {
 1045              		.loc 1 434 26 discriminator 1 view .LVU341
 1046 002c 94F86232 		ldrb	r3, [r4, #610]	@ zero_extendqisi2
 434:Middlewares/ST/STM32_USB_Device_Library/Class/MSC/Src/usbd_msc_scsi.c ****   {
 1047              		.loc 1 434 18 discriminator 1 view .LVU342
 1048 0030 022B     		cmp	r3, #2
 1049 0032 01D0     		beq	.L80
 440:Middlewares/ST/STM32_USB_Device_Library/Class/MSC/Src/usbd_msc_scsi.c ****   {
 1050              		.loc 1 440 10 view .LVU343
 1051 0034 0023     		movs	r3, #0
 1052 0036 0DE0     		b	.L81
 1053              	.L80:
 436:Middlewares/ST/STM32_USB_Device_Library/Class/MSC/Src/usbd_msc_scsi.c ****     return -1;
 1054              		.loc 1 436 5 is_stmt 1 view .LVU344
 1055 0038 3A23     		movs	r3, #58
 1056 003a 0222     		movs	r2, #2
 1057 003c 3146     		mov	r1, r6
 1058 003e 2846     		mov	r0, r5
 1059              	.LVL113:
 436:Middlewares/ST/STM32_USB_Device_Library/Class/MSC/Src/usbd_msc_scsi.c ****     return -1;
 1060              		.loc 1 436 5 is_stmt 0 view .LVU345
 1061 0040 FFF7FEFF 		bl	SCSI_SenseCode
 1062              	.LVL114:
 437:Middlewares/ST/STM32_USB_Device_Library/Class/MSC/Src/usbd_msc_scsi.c ****   }
 1063              		.loc 1 437 5 is_stmt 1 view .LVU346
 437:Middlewares/ST/STM32_USB_Device_Library/Class/MSC/Src/usbd_msc_scsi.c ****   }
 1064              		.loc 1 437 12 is_stmt 0 view .LVU347
 1065 0044 4FF0FF30 		mov	r0, #-1
 1066 0048 1FE0     		b	.L79
ARM GAS  /tmp/cc2SMzdz.s 			page 46


 1067              	.LVL115:
 1068              	.L82:
 442:Middlewares/ST/STM32_USB_Device_Library/Class/MSC/Src/usbd_msc_scsi.c ****   }
 1069              		.loc 1 442 5 is_stmt 1 discriminator 3 view .LVU348
 442:Middlewares/ST/STM32_USB_Device_Library/Class/MSC/Src/usbd_msc_scsi.c ****   }
 1070              		.loc 1 442 23 is_stmt 0 discriminator 3 view .LVU349
 1071 004a E218     		adds	r2, r4, r3
 1072 004c 0021     		movs	r1, #0
 1073 004e 1174     		strb	r1, [r2, #16]
 440:Middlewares/ST/STM32_USB_Device_Library/Class/MSC/Src/usbd_msc_scsi.c ****   {
 1074              		.loc 1 440 26 is_stmt 1 discriminator 3 view .LVU350
 440:Middlewares/ST/STM32_USB_Device_Library/Class/MSC/Src/usbd_msc_scsi.c ****   {
 1075              		.loc 1 440 27 is_stmt 0 discriminator 3 view .LVU351
 1076 0050 0133     		adds	r3, r3, #1
 1077              	.LVL116:
 440:Middlewares/ST/STM32_USB_Device_Library/Class/MSC/Src/usbd_msc_scsi.c ****   {
 1078              		.loc 1 440 27 discriminator 3 view .LVU352
 1079 0052 9BB2     		uxth	r3, r3
 1080              	.LVL117:
 1081              	.L81:
 440:Middlewares/ST/STM32_USB_Device_Library/Class/MSC/Src/usbd_msc_scsi.c ****   {
 1082              		.loc 1 440 16 is_stmt 1 discriminator 1 view .LVU353
 440:Middlewares/ST/STM32_USB_Device_Library/Class/MSC/Src/usbd_msc_scsi.c ****   {
 1083              		.loc 1 440 3 is_stmt 0 discriminator 1 view .LVU354
 1084 0054 0B2B     		cmp	r3, #11
 1085 0056 F8D9     		bls	.L82
 445:Middlewares/ST/STM32_USB_Device_Library/Class/MSC/Src/usbd_msc_scsi.c ****   hmsc->bot_data[4] = (uint8_t)((blk_nbr - 1U) >> 24);
 1086              		.loc 1 445 3 is_stmt 1 view .LVU355
 445:Middlewares/ST/STM32_USB_Device_Library/Class/MSC/Src/usbd_msc_scsi.c ****   hmsc->bot_data[4] = (uint8_t)((blk_nbr - 1U) >> 24);
 1087              		.loc 1 445 21 is_stmt 0 view .LVU356
 1088 0058 0823     		movs	r3, #8
 1089              	.LVL118:
 445:Middlewares/ST/STM32_USB_Device_Library/Class/MSC/Src/usbd_msc_scsi.c ****   hmsc->bot_data[4] = (uint8_t)((blk_nbr - 1U) >> 24);
 1090              		.loc 1 445 21 view .LVU357
 1091 005a E374     		strb	r3, [r4, #19]
 446:Middlewares/ST/STM32_USB_Device_Library/Class/MSC/Src/usbd_msc_scsi.c ****   hmsc->bot_data[5] = (uint8_t)((blk_nbr - 1U) >> 16);
 1092              		.loc 1 446 3 is_stmt 1 view .LVU358
 446:Middlewares/ST/STM32_USB_Device_Library/Class/MSC/Src/usbd_msc_scsi.c ****   hmsc->bot_data[5] = (uint8_t)((blk_nbr - 1U) >> 16);
 1093              		.loc 1 446 42 is_stmt 0 view .LVU359
 1094 005c 009A     		ldr	r2, [sp]
 1095 005e 531E     		subs	r3, r2, #1
 446:Middlewares/ST/STM32_USB_Device_Library/Class/MSC/Src/usbd_msc_scsi.c ****   hmsc->bot_data[5] = (uint8_t)((blk_nbr - 1U) >> 16);
 1096              		.loc 1 446 23 view .LVU360
 1097 0060 190E     		lsrs	r1, r3, #24
 446:Middlewares/ST/STM32_USB_Device_Library/Class/MSC/Src/usbd_msc_scsi.c ****   hmsc->bot_data[5] = (uint8_t)((blk_nbr - 1U) >> 16);
 1098              		.loc 1 446 21 view .LVU361
 1099 0062 2175     		strb	r1, [r4, #20]
 447:Middlewares/ST/STM32_USB_Device_Library/Class/MSC/Src/usbd_msc_scsi.c ****   hmsc->bot_data[6] = (uint8_t)((blk_nbr - 1U) >>  8);
 1100              		.loc 1 447 3 is_stmt 1 view .LVU362
 447:Middlewares/ST/STM32_USB_Device_Library/Class/MSC/Src/usbd_msc_scsi.c ****   hmsc->bot_data[6] = (uint8_t)((blk_nbr - 1U) >>  8);
 1101              		.loc 1 447 23 is_stmt 0 view .LVU363
 1102 0064 C3F30741 		ubfx	r1, r3, #16, #8
 447:Middlewares/ST/STM32_USB_Device_Library/Class/MSC/Src/usbd_msc_scsi.c ****   hmsc->bot_data[6] = (uint8_t)((blk_nbr - 1U) >>  8);
 1103              		.loc 1 447 21 view .LVU364
 1104 0068 6175     		strb	r1, [r4, #21]
 448:Middlewares/ST/STM32_USB_Device_Library/Class/MSC/Src/usbd_msc_scsi.c ****   hmsc->bot_data[7] = (uint8_t)(blk_nbr - 1U);
 1105              		.loc 1 448 3 is_stmt 1 view .LVU365
ARM GAS  /tmp/cc2SMzdz.s 			page 47


 448:Middlewares/ST/STM32_USB_Device_Library/Class/MSC/Src/usbd_msc_scsi.c ****   hmsc->bot_data[7] = (uint8_t)(blk_nbr - 1U);
 1106              		.loc 1 448 23 is_stmt 0 view .LVU366
 1107 006a C3F30723 		ubfx	r3, r3, #8, #8
 448:Middlewares/ST/STM32_USB_Device_Library/Class/MSC/Src/usbd_msc_scsi.c ****   hmsc->bot_data[7] = (uint8_t)(blk_nbr - 1U);
 1108              		.loc 1 448 21 view .LVU367
 1109 006e A375     		strb	r3, [r4, #22]
 449:Middlewares/ST/STM32_USB_Device_Library/Class/MSC/Src/usbd_msc_scsi.c **** 
 1110              		.loc 1 449 3 is_stmt 1 view .LVU368
 449:Middlewares/ST/STM32_USB_Device_Library/Class/MSC/Src/usbd_msc_scsi.c **** 
 1111              		.loc 1 449 23 is_stmt 0 view .LVU369
 1112 0070 013A     		subs	r2, r2, #1
 449:Middlewares/ST/STM32_USB_Device_Library/Class/MSC/Src/usbd_msc_scsi.c **** 
 1113              		.loc 1 449 21 view .LVU370
 1114 0072 E275     		strb	r2, [r4, #23]
 451:Middlewares/ST/STM32_USB_Device_Library/Class/MSC/Src/usbd_msc_scsi.c ****   hmsc->bot_data[9] = (uint8_t)(blk_size >>  16);
 1115              		.loc 1 451 3 is_stmt 1 view .LVU371
 451:Middlewares/ST/STM32_USB_Device_Library/Class/MSC/Src/usbd_msc_scsi.c ****   hmsc->bot_data[9] = (uint8_t)(blk_size >>  16);
 1116              		.loc 1 451 21 is_stmt 0 view .LVU372
 1117 0074 0223     		movs	r3, #2
 1118 0076 2376     		strb	r3, [r4, #24]
 452:Middlewares/ST/STM32_USB_Device_Library/Class/MSC/Src/usbd_msc_scsi.c ****   hmsc->bot_data[10] = (uint8_t)(blk_size >>  8);
 1119              		.loc 1 452 3 is_stmt 1 view .LVU373
 452:Middlewares/ST/STM32_USB_Device_Library/Class/MSC/Src/usbd_msc_scsi.c ****   hmsc->bot_data[10] = (uint8_t)(blk_size >>  8);
 1120              		.loc 1 452 42 is_stmt 0 view .LVU374
 1121 0078 BDF80630 		ldrh	r3, [sp, #6]
 452:Middlewares/ST/STM32_USB_Device_Library/Class/MSC/Src/usbd_msc_scsi.c ****   hmsc->bot_data[10] = (uint8_t)(blk_size >>  8);
 1122              		.loc 1 452 23 view .LVU375
 1123 007c 0022     		movs	r2, #0
 452:Middlewares/ST/STM32_USB_Device_Library/Class/MSC/Src/usbd_msc_scsi.c ****   hmsc->bot_data[10] = (uint8_t)(blk_size >>  8);
 1124              		.loc 1 452 21 view .LVU376
 1125 007e 6276     		strb	r2, [r4, #25]
 453:Middlewares/ST/STM32_USB_Device_Library/Class/MSC/Src/usbd_msc_scsi.c ****   hmsc->bot_data[11] = (uint8_t)(blk_size);
 1126              		.loc 1 453 3 is_stmt 1 view .LVU377
 453:Middlewares/ST/STM32_USB_Device_Library/Class/MSC/Src/usbd_msc_scsi.c ****   hmsc->bot_data[11] = (uint8_t)(blk_size);
 1127              		.loc 1 453 24 is_stmt 0 view .LVU378
 1128 0080 1A0A     		lsrs	r2, r3, #8
 453:Middlewares/ST/STM32_USB_Device_Library/Class/MSC/Src/usbd_msc_scsi.c ****   hmsc->bot_data[11] = (uint8_t)(blk_size);
 1129              		.loc 1 453 22 view .LVU379
 1130 0082 A276     		strb	r2, [r4, #26]
 454:Middlewares/ST/STM32_USB_Device_Library/Class/MSC/Src/usbd_msc_scsi.c **** 
 1131              		.loc 1 454 3 is_stmt 1 view .LVU380
 454:Middlewares/ST/STM32_USB_Device_Library/Class/MSC/Src/usbd_msc_scsi.c **** 
 1132              		.loc 1 454 22 is_stmt 0 view .LVU381
 1133 0084 E376     		strb	r3, [r4, #27]
 456:Middlewares/ST/STM32_USB_Device_Library/Class/MSC/Src/usbd_msc_scsi.c **** 
 1134              		.loc 1 456 3 is_stmt 1 view .LVU382
 456:Middlewares/ST/STM32_USB_Device_Library/Class/MSC/Src/usbd_msc_scsi.c **** 
 1135              		.loc 1 456 25 is_stmt 0 view .LVU383
 1136 0086 0C23     		movs	r3, #12
 1137 0088 E360     		str	r3, [r4, #12]
 458:Middlewares/ST/STM32_USB_Device_Library/Class/MSC/Src/usbd_msc_scsi.c **** }
 1138              		.loc 1 458 3 is_stmt 1 view .LVU384
 1139              	.LVL119:
 1140              	.L79:
 459:Middlewares/ST/STM32_USB_Device_Library/Class/MSC/Src/usbd_msc_scsi.c **** 
 1141              		.loc 1 459 1 is_stmt 0 view .LVU385
 1142 008a 02B0     		add	sp, sp, #8
ARM GAS  /tmp/cc2SMzdz.s 			page 48


 1143              	.LCFI9:
 1144              		.cfi_remember_state
 1145              		.cfi_def_cfa_offset 16
 1146              		@ sp needed
 1147 008c 70BD     		pop	{r4, r5, r6, pc}
 1148              	.LVL120:
 1149              	.L83:
 1150              	.LCFI10:
 1151              		.cfi_restore_state
 429:Middlewares/ST/STM32_USB_Device_Library/Class/MSC/Src/usbd_msc_scsi.c ****   }
 1152              		.loc 1 429 12 view .LVU386
 1153 008e 4FF0FF30 		mov	r0, #-1
 1154              	.LVL121:
 429:Middlewares/ST/STM32_USB_Device_Library/Class/MSC/Src/usbd_msc_scsi.c ****   }
 1155              		.loc 1 429 12 view .LVU387
 1156 0092 FAE7     		b	.L79
 1157              		.cfi_endproc
 1158              	.LFE145:
 1160              		.section	.text.SCSI_ReadCapacity10,"ax",%progbits
 1161              		.align	1
 1162              		.syntax unified
 1163              		.thumb
 1164              		.thumb_func
 1165              		.fpu fpv4-sp-d16
 1167              	SCSI_ReadCapacity10:
 1168              	.LVL122:
 1169              	.LFB143:
 318:Middlewares/ST/STM32_USB_Device_Library/Class/MSC/Src/usbd_msc_scsi.c ****   UNUSED(params);
 1170              		.loc 1 318 1 is_stmt 1 view -0
 1171              		.cfi_startproc
 1172              		@ args = 0, pretend = 0, frame = 0
 1173              		@ frame_needed = 0, uses_anonymous_args = 0
 318:Middlewares/ST/STM32_USB_Device_Library/Class/MSC/Src/usbd_msc_scsi.c ****   UNUSED(params);
 1174              		.loc 1 318 1 is_stmt 0 view .LVU389
 1175 0000 70B5     		push	{r4, r5, r6, lr}
 1176              	.LCFI11:
 1177              		.cfi_def_cfa_offset 16
 1178              		.cfi_offset 4, -16
 1179              		.cfi_offset 5, -12
 1180              		.cfi_offset 6, -8
 1181              		.cfi_offset 14, -4
 319:Middlewares/ST/STM32_USB_Device_Library/Class/MSC/Src/usbd_msc_scsi.c ****   int8_t ret;
 1182              		.loc 1 319 3 is_stmt 1 view .LVU390
 320:Middlewares/ST/STM32_USB_Device_Library/Class/MSC/Src/usbd_msc_scsi.c ****   USBD_MSC_BOT_HandleTypeDef *hmsc = (USBD_MSC_BOT_HandleTypeDef *)pdev->pClassDataCmsit[pdev->clas
 1183              		.loc 1 320 3 view .LVU391
 321:Middlewares/ST/STM32_USB_Device_Library/Class/MSC/Src/usbd_msc_scsi.c **** 
 1184              		.loc 1 321 3 view .LVU392
 321:Middlewares/ST/STM32_USB_Device_Library/Class/MSC/Src/usbd_msc_scsi.c **** 
 1185              		.loc 1 321 94 is_stmt 0 view .LVU393
 1186 0002 D0F8D432 		ldr	r3, [r0, #724]
 321:Middlewares/ST/STM32_USB_Device_Library/Class/MSC/Src/usbd_msc_scsi.c **** 
 1187              		.loc 1 321 31 view .LVU394
 1188 0006 03F1B002 		add	r2, r3, #176
 1189              	.LVL123:
 321:Middlewares/ST/STM32_USB_Device_Library/Class/MSC/Src/usbd_msc_scsi.c **** 
 1190              		.loc 1 321 31 view .LVU395
 1191 000a 50F82240 		ldr	r4, [r0, r2, lsl #2]
ARM GAS  /tmp/cc2SMzdz.s 			page 49


 1192              	.LVL124:
 323:Middlewares/ST/STM32_USB_Device_Library/Class/MSC/Src/usbd_msc_scsi.c ****   {
 1193              		.loc 1 323 3 is_stmt 1 view .LVU396
 323:Middlewares/ST/STM32_USB_Device_Library/Class/MSC/Src/usbd_msc_scsi.c ****   {
 1194              		.loc 1 323 6 is_stmt 0 view .LVU397
 1195 000e 8CB3     		cbz	r4, .L90
 1196 0010 0546     		mov	r5, r0
 1197 0012 0E46     		mov	r6, r1
 328:Middlewares/ST/STM32_USB_Device_Library/Class/MSC/Src/usbd_msc_scsi.c ****                                                                              &hmsc->scsi_blk_size);
 1198              		.loc 1 328 3 is_stmt 1 view .LVU398
 328:Middlewares/ST/STM32_USB_Device_Library/Class/MSC/Src/usbd_msc_scsi.c ****                                                                              &hmsc->scsi_blk_size);
 1199              		.loc 1 328 48 is_stmt 0 view .LVU399
 1200 0014 00EB8203 		add	r3, r0, r2, lsl #2
 1201 0018 5B68     		ldr	r3, [r3, #4]
 328:Middlewares/ST/STM32_USB_Device_Library/Class/MSC/Src/usbd_msc_scsi.c ****                                                                              &hmsc->scsi_blk_size);
 1202              		.loc 1 328 64 view .LVU400
 1203 001a 5B68     		ldr	r3, [r3, #4]
 328:Middlewares/ST/STM32_USB_Device_Library/Class/MSC/Src/usbd_msc_scsi.c ****                                                                              &hmsc->scsi_blk_size);
 1204              		.loc 1 328 10 view .LVU401
 1205 001c 04F51972 		add	r2, r4, #612
 1206 0020 04F51A71 		add	r1, r4, #616
 1207              	.LVL125:
 328:Middlewares/ST/STM32_USB_Device_Library/Class/MSC/Src/usbd_msc_scsi.c ****                                                                              &hmsc->scsi_blk_size);
 1208              		.loc 1 328 10 view .LVU402
 1209 0024 3046     		mov	r0, r6
 1210              	.LVL126:
 328:Middlewares/ST/STM32_USB_Device_Library/Class/MSC/Src/usbd_msc_scsi.c ****                                                                              &hmsc->scsi_blk_size);
 1211              		.loc 1 328 10 view .LVU403
 1212 0026 9847     		blx	r3
 1213              	.LVL127:
 331:Middlewares/ST/STM32_USB_Device_Library/Class/MSC/Src/usbd_msc_scsi.c ****   {
 1214              		.loc 1 331 3 is_stmt 1 view .LVU404
 331:Middlewares/ST/STM32_USB_Device_Library/Class/MSC/Src/usbd_msc_scsi.c ****   {
 1215              		.loc 1 331 6 is_stmt 0 view .LVU405
 1216 0028 D8B9     		cbnz	r0, .L88
 331:Middlewares/ST/STM32_USB_Device_Library/Class/MSC/Src/usbd_msc_scsi.c ****   {
 1217              		.loc 1 331 26 discriminator 1 view .LVU406
 1218 002a 94F86232 		ldrb	r3, [r4, #610]	@ zero_extendqisi2
 331:Middlewares/ST/STM32_USB_Device_Library/Class/MSC/Src/usbd_msc_scsi.c ****   {
 1219              		.loc 1 331 18 discriminator 1 view .LVU407
 1220 002e 022B     		cmp	r3, #2
 1221 0030 17D0     		beq	.L88
 337:Middlewares/ST/STM32_USB_Device_Library/Class/MSC/Src/usbd_msc_scsi.c ****   hmsc->bot_data[1] = (uint8_t)((hmsc->scsi_blk_nbr - 1U) >> 16);
 1222              		.loc 1 337 3 is_stmt 1 view .LVU408
 337:Middlewares/ST/STM32_USB_Device_Library/Class/MSC/Src/usbd_msc_scsi.c ****   hmsc->bot_data[1] = (uint8_t)((hmsc->scsi_blk_nbr - 1U) >> 16);
 1223              		.loc 1 337 38 is_stmt 0 view .LVU409
 1224 0032 D4F86822 		ldr	r2, [r4, #616]
 337:Middlewares/ST/STM32_USB_Device_Library/Class/MSC/Src/usbd_msc_scsi.c ****   hmsc->bot_data[1] = (uint8_t)((hmsc->scsi_blk_nbr - 1U) >> 16);
 1225              		.loc 1 337 53 view .LVU410
 1226 0036 531E     		subs	r3, r2, #1
 337:Middlewares/ST/STM32_USB_Device_Library/Class/MSC/Src/usbd_msc_scsi.c ****   hmsc->bot_data[1] = (uint8_t)((hmsc->scsi_blk_nbr - 1U) >> 16);
 1227              		.loc 1 337 23 view .LVU411
 1228 0038 190E     		lsrs	r1, r3, #24
 337:Middlewares/ST/STM32_USB_Device_Library/Class/MSC/Src/usbd_msc_scsi.c ****   hmsc->bot_data[1] = (uint8_t)((hmsc->scsi_blk_nbr - 1U) >> 16);
 1229              		.loc 1 337 21 view .LVU412
 1230 003a 2174     		strb	r1, [r4, #16]
 338:Middlewares/ST/STM32_USB_Device_Library/Class/MSC/Src/usbd_msc_scsi.c ****   hmsc->bot_data[2] = (uint8_t)((hmsc->scsi_blk_nbr - 1U) >>  8);
ARM GAS  /tmp/cc2SMzdz.s 			page 50


 1231              		.loc 1 338 3 is_stmt 1 view .LVU413
 338:Middlewares/ST/STM32_USB_Device_Library/Class/MSC/Src/usbd_msc_scsi.c ****   hmsc->bot_data[2] = (uint8_t)((hmsc->scsi_blk_nbr - 1U) >>  8);
 1232              		.loc 1 338 23 is_stmt 0 view .LVU414
 1233 003c C3F30741 		ubfx	r1, r3, #16, #8
 338:Middlewares/ST/STM32_USB_Device_Library/Class/MSC/Src/usbd_msc_scsi.c ****   hmsc->bot_data[2] = (uint8_t)((hmsc->scsi_blk_nbr - 1U) >>  8);
 1234              		.loc 1 338 21 view .LVU415
 1235 0040 6174     		strb	r1, [r4, #17]
 339:Middlewares/ST/STM32_USB_Device_Library/Class/MSC/Src/usbd_msc_scsi.c ****   hmsc->bot_data[3] = (uint8_t)(hmsc->scsi_blk_nbr - 1U);
 1236              		.loc 1 339 3 is_stmt 1 view .LVU416
 339:Middlewares/ST/STM32_USB_Device_Library/Class/MSC/Src/usbd_msc_scsi.c ****   hmsc->bot_data[3] = (uint8_t)(hmsc->scsi_blk_nbr - 1U);
 1237              		.loc 1 339 23 is_stmt 0 view .LVU417
 1238 0042 C3F30723 		ubfx	r3, r3, #8, #8
 339:Middlewares/ST/STM32_USB_Device_Library/Class/MSC/Src/usbd_msc_scsi.c ****   hmsc->bot_data[3] = (uint8_t)(hmsc->scsi_blk_nbr - 1U);
 1239              		.loc 1 339 21 view .LVU418
 1240 0046 A374     		strb	r3, [r4, #18]
 340:Middlewares/ST/STM32_USB_Device_Library/Class/MSC/Src/usbd_msc_scsi.c **** 
 1241              		.loc 1 340 3 is_stmt 1 view .LVU419
 340:Middlewares/ST/STM32_USB_Device_Library/Class/MSC/Src/usbd_msc_scsi.c **** 
 1242              		.loc 1 340 23 is_stmt 0 view .LVU420
 1243 0048 013A     		subs	r2, r2, #1
 340:Middlewares/ST/STM32_USB_Device_Library/Class/MSC/Src/usbd_msc_scsi.c **** 
 1244              		.loc 1 340 21 view .LVU421
 1245 004a E274     		strb	r2, [r4, #19]
 342:Middlewares/ST/STM32_USB_Device_Library/Class/MSC/Src/usbd_msc_scsi.c ****   hmsc->bot_data[5] = (uint8_t)(hmsc->scsi_blk_size >>  16);
 1246              		.loc 1 342 3 is_stmt 1 view .LVU422
 342:Middlewares/ST/STM32_USB_Device_Library/Class/MSC/Src/usbd_msc_scsi.c ****   hmsc->bot_data[5] = (uint8_t)(hmsc->scsi_blk_size >>  16);
 1247              		.loc 1 342 37 is_stmt 0 view .LVU423
 1248 004c B4F86432 		ldrh	r3, [r4, #612]
 342:Middlewares/ST/STM32_USB_Device_Library/Class/MSC/Src/usbd_msc_scsi.c ****   hmsc->bot_data[5] = (uint8_t)(hmsc->scsi_blk_size >>  16);
 1249              		.loc 1 342 23 view .LVU424
 1250 0050 0022     		movs	r2, #0
 342:Middlewares/ST/STM32_USB_Device_Library/Class/MSC/Src/usbd_msc_scsi.c ****   hmsc->bot_data[5] = (uint8_t)(hmsc->scsi_blk_size >>  16);
 1251              		.loc 1 342 21 view .LVU425
 1252 0052 2275     		strb	r2, [r4, #20]
 343:Middlewares/ST/STM32_USB_Device_Library/Class/MSC/Src/usbd_msc_scsi.c ****   hmsc->bot_data[6] = (uint8_t)(hmsc->scsi_blk_size >>  8);
 1253              		.loc 1 343 3 is_stmt 1 view .LVU426
 343:Middlewares/ST/STM32_USB_Device_Library/Class/MSC/Src/usbd_msc_scsi.c ****   hmsc->bot_data[6] = (uint8_t)(hmsc->scsi_blk_size >>  8);
 1254              		.loc 1 343 21 is_stmt 0 view .LVU427
 1255 0054 6275     		strb	r2, [r4, #21]
 344:Middlewares/ST/STM32_USB_Device_Library/Class/MSC/Src/usbd_msc_scsi.c ****   hmsc->bot_data[7] = (uint8_t)(hmsc->scsi_blk_size);
 1256              		.loc 1 344 3 is_stmt 1 view .LVU428
 344:Middlewares/ST/STM32_USB_Device_Library/Class/MSC/Src/usbd_msc_scsi.c ****   hmsc->bot_data[7] = (uint8_t)(hmsc->scsi_blk_size);
 1257              		.loc 1 344 23 is_stmt 0 view .LVU429
 1258 0056 1A0A     		lsrs	r2, r3, #8
 344:Middlewares/ST/STM32_USB_Device_Library/Class/MSC/Src/usbd_msc_scsi.c ****   hmsc->bot_data[7] = (uint8_t)(hmsc->scsi_blk_size);
 1259              		.loc 1 344 21 view .LVU430
 1260 0058 A275     		strb	r2, [r4, #22]
 345:Middlewares/ST/STM32_USB_Device_Library/Class/MSC/Src/usbd_msc_scsi.c **** 
 1261              		.loc 1 345 3 is_stmt 1 view .LVU431
 345:Middlewares/ST/STM32_USB_Device_Library/Class/MSC/Src/usbd_msc_scsi.c **** 
 1262              		.loc 1 345 21 is_stmt 0 view .LVU432
 1263 005a E375     		strb	r3, [r4, #23]
 347:Middlewares/ST/STM32_USB_Device_Library/Class/MSC/Src/usbd_msc_scsi.c **** 
 1264              		.loc 1 347 3 is_stmt 1 view .LVU433
 347:Middlewares/ST/STM32_USB_Device_Library/Class/MSC/Src/usbd_msc_scsi.c **** 
 1265              		.loc 1 347 25 is_stmt 0 view .LVU434
 1266 005c 0823     		movs	r3, #8
ARM GAS  /tmp/cc2SMzdz.s 			page 51


 1267 005e E360     		str	r3, [r4, #12]
 349:Middlewares/ST/STM32_USB_Device_Library/Class/MSC/Src/usbd_msc_scsi.c **** 
 1268              		.loc 1 349 3 is_stmt 1 view .LVU435
 1269              	.LVL128:
 1270              	.L87:
 351:Middlewares/ST/STM32_USB_Device_Library/Class/MSC/Src/usbd_msc_scsi.c **** 
 1271              		.loc 1 351 1 is_stmt 0 view .LVU436
 1272 0060 70BD     		pop	{r4, r5, r6, pc}
 1273              	.LVL129:
 1274              	.L88:
 333:Middlewares/ST/STM32_USB_Device_Library/Class/MSC/Src/usbd_msc_scsi.c ****     return -1;
 1275              		.loc 1 333 5 is_stmt 1 view .LVU437
 1276 0062 3A23     		movs	r3, #58
 1277 0064 0222     		movs	r2, #2
 1278 0066 3146     		mov	r1, r6
 1279 0068 2846     		mov	r0, r5
 1280              	.LVL130:
 333:Middlewares/ST/STM32_USB_Device_Library/Class/MSC/Src/usbd_msc_scsi.c ****     return -1;
 1281              		.loc 1 333 5 is_stmt 0 view .LVU438
 1282 006a FFF7FEFF 		bl	SCSI_SenseCode
 1283              	.LVL131:
 334:Middlewares/ST/STM32_USB_Device_Library/Class/MSC/Src/usbd_msc_scsi.c ****   }
 1284              		.loc 1 334 5 is_stmt 1 view .LVU439
 334:Middlewares/ST/STM32_USB_Device_Library/Class/MSC/Src/usbd_msc_scsi.c ****   }
 1285              		.loc 1 334 12 is_stmt 0 view .LVU440
 1286 006e 4FF0FF30 		mov	r0, #-1
 1287 0072 F5E7     		b	.L87
 1288              	.LVL132:
 1289              	.L90:
 325:Middlewares/ST/STM32_USB_Device_Library/Class/MSC/Src/usbd_msc_scsi.c ****   }
 1290              		.loc 1 325 12 view .LVU441
 1291 0074 4FF0FF30 		mov	r0, #-1
 1292              	.LVL133:
 325:Middlewares/ST/STM32_USB_Device_Library/Class/MSC/Src/usbd_msc_scsi.c ****   }
 1293              		.loc 1 325 12 view .LVU442
 1294 0078 F2E7     		b	.L87
 1295              		.cfi_endproc
 1296              	.LFE143:
 1298              		.section	.text.SCSI_ReadCapacity16,"ax",%progbits
 1299              		.align	1
 1300              		.syntax unified
 1301              		.thumb
 1302              		.thumb_func
 1303              		.fpu fpv4-sp-d16
 1305              	SCSI_ReadCapacity16:
 1306              	.LVL134:
 1307              	.LFB144:
 362:Middlewares/ST/STM32_USB_Device_Library/Class/MSC/Src/usbd_msc_scsi.c ****   UNUSED(params);
 1308              		.loc 1 362 1 is_stmt 1 view -0
 1309              		.cfi_startproc
 1310              		@ args = 0, pretend = 0, frame = 0
 1311              		@ frame_needed = 0, uses_anonymous_args = 0
 362:Middlewares/ST/STM32_USB_Device_Library/Class/MSC/Src/usbd_msc_scsi.c ****   UNUSED(params);
 1312              		.loc 1 362 1 is_stmt 0 view .LVU444
 1313 0000 F8B5     		push	{r3, r4, r5, r6, r7, lr}
 1314              	.LCFI12:
 1315              		.cfi_def_cfa_offset 24
ARM GAS  /tmp/cc2SMzdz.s 			page 52


 1316              		.cfi_offset 3, -24
 1317              		.cfi_offset 4, -20
 1318              		.cfi_offset 5, -16
 1319              		.cfi_offset 6, -12
 1320              		.cfi_offset 7, -8
 1321              		.cfi_offset 14, -4
 1322 0002 1546     		mov	r5, r2
 363:Middlewares/ST/STM32_USB_Device_Library/Class/MSC/Src/usbd_msc_scsi.c ****   uint32_t idx;
 1323              		.loc 1 363 3 is_stmt 1 view .LVU445
 364:Middlewares/ST/STM32_USB_Device_Library/Class/MSC/Src/usbd_msc_scsi.c ****   int8_t ret;
 1324              		.loc 1 364 3 view .LVU446
 365:Middlewares/ST/STM32_USB_Device_Library/Class/MSC/Src/usbd_msc_scsi.c ****   USBD_MSC_BOT_HandleTypeDef *hmsc = (USBD_MSC_BOT_HandleTypeDef *)pdev->pClassDataCmsit[pdev->clas
 1325              		.loc 1 365 3 view .LVU447
 366:Middlewares/ST/STM32_USB_Device_Library/Class/MSC/Src/usbd_msc_scsi.c **** 
 1326              		.loc 1 366 3 view .LVU448
 366:Middlewares/ST/STM32_USB_Device_Library/Class/MSC/Src/usbd_msc_scsi.c **** 
 1327              		.loc 1 366 94 is_stmt 0 view .LVU449
 1328 0004 D0F8D432 		ldr	r3, [r0, #724]
 366:Middlewares/ST/STM32_USB_Device_Library/Class/MSC/Src/usbd_msc_scsi.c **** 
 1329              		.loc 1 366 31 view .LVU450
 1330 0008 03F1B002 		add	r2, r3, #176
 1331              	.LVL135:
 366:Middlewares/ST/STM32_USB_Device_Library/Class/MSC/Src/usbd_msc_scsi.c **** 
 1332              		.loc 1 366 31 view .LVU451
 1333 000c 50F82240 		ldr	r4, [r0, r2, lsl #2]
 1334              	.LVL136:
 368:Middlewares/ST/STM32_USB_Device_Library/Class/MSC/Src/usbd_msc_scsi.c ****   {
 1335              		.loc 1 368 3 is_stmt 1 view .LVU452
 368:Middlewares/ST/STM32_USB_Device_Library/Class/MSC/Src/usbd_msc_scsi.c ****   {
 1336              		.loc 1 368 6 is_stmt 0 view .LVU453
 1337 0010 002C     		cmp	r4, #0
 1338 0012 51D0     		beq	.L98
 1339 0014 0646     		mov	r6, r0
 1340 0016 0F46     		mov	r7, r1
 373:Middlewares/ST/STM32_USB_Device_Library/Class/MSC/Src/usbd_msc_scsi.c ****                                                                              &hmsc->scsi_blk_size);
 1341              		.loc 1 373 3 is_stmt 1 view .LVU454
 373:Middlewares/ST/STM32_USB_Device_Library/Class/MSC/Src/usbd_msc_scsi.c ****                                                                              &hmsc->scsi_blk_size);
 1342              		.loc 1 373 48 is_stmt 0 view .LVU455
 1343 0018 00EB8203 		add	r3, r0, r2, lsl #2
 1344 001c 5B68     		ldr	r3, [r3, #4]
 373:Middlewares/ST/STM32_USB_Device_Library/Class/MSC/Src/usbd_msc_scsi.c ****                                                                              &hmsc->scsi_blk_size);
 1345              		.loc 1 373 64 view .LVU456
 1346 001e 5B68     		ldr	r3, [r3, #4]
 373:Middlewares/ST/STM32_USB_Device_Library/Class/MSC/Src/usbd_msc_scsi.c ****                                                                              &hmsc->scsi_blk_size);
 1347              		.loc 1 373 10 view .LVU457
 1348 0020 04F51972 		add	r2, r4, #612
 1349 0024 04F51A71 		add	r1, r4, #616
 1350              	.LVL137:
 373:Middlewares/ST/STM32_USB_Device_Library/Class/MSC/Src/usbd_msc_scsi.c ****                                                                              &hmsc->scsi_blk_size);
 1351              		.loc 1 373 10 view .LVU458
 1352 0028 3846     		mov	r0, r7
 1353              	.LVL138:
 373:Middlewares/ST/STM32_USB_Device_Library/Class/MSC/Src/usbd_msc_scsi.c ****                                                                              &hmsc->scsi_blk_size);
 1354              		.loc 1 373 10 view .LVU459
 1355 002a 9847     		blx	r3
 1356              	.LVL139:
 376:Middlewares/ST/STM32_USB_Device_Library/Class/MSC/Src/usbd_msc_scsi.c ****   {
ARM GAS  /tmp/cc2SMzdz.s 			page 53


 1357              		.loc 1 376 3 is_stmt 1 view .LVU460
 376:Middlewares/ST/STM32_USB_Device_Library/Class/MSC/Src/usbd_msc_scsi.c ****   {
 1358              		.loc 1 376 6 is_stmt 0 view .LVU461
 1359 002c 8646     		mov	lr, r0
 1360 002e 80B9     		cbnz	r0, .L94
 376:Middlewares/ST/STM32_USB_Device_Library/Class/MSC/Src/usbd_msc_scsi.c ****   {
 1361              		.loc 1 376 26 discriminator 1 view .LVU462
 1362 0030 94F86232 		ldrb	r3, [r4, #610]	@ zero_extendqisi2
 376:Middlewares/ST/STM32_USB_Device_Library/Class/MSC/Src/usbd_msc_scsi.c ****   {
 1363              		.loc 1 376 18 discriminator 1 view .LVU463
 1364 0034 022B     		cmp	r3, #2
 1365 0036 0CD0     		beq	.L94
 382:Middlewares/ST/STM32_USB_Device_Library/Class/MSC/Src/usbd_msc_scsi.c ****                           ((uint32_t)params[11] << 16) |
 1366              		.loc 1 382 3 is_stmt 1 view .LVU464
 382:Middlewares/ST/STM32_USB_Device_Library/Class/MSC/Src/usbd_msc_scsi.c ****                           ((uint32_t)params[11] << 16) |
 1367              		.loc 1 382 44 is_stmt 0 view .LVU465
 1368 0038 AB7A     		ldrb	r3, [r5, #10]	@ zero_extendqisi2
 383:Middlewares/ST/STM32_USB_Device_Library/Class/MSC/Src/usbd_msc_scsi.c ****                           ((uint32_t)params[12] <<  8) |
 1369              		.loc 1 383 44 view .LVU466
 1370 003a E97A     		ldrb	r1, [r5, #11]	@ zero_extendqisi2
 383:Middlewares/ST/STM32_USB_Device_Library/Class/MSC/Src/usbd_msc_scsi.c ****                           ((uint32_t)params[12] <<  8) |
 1371              		.loc 1 383 49 view .LVU467
 1372 003c 0904     		lsls	r1, r1, #16
 382:Middlewares/ST/STM32_USB_Device_Library/Class/MSC/Src/usbd_msc_scsi.c ****                           ((uint32_t)params[11] << 16) |
 1373              		.loc 1 382 56 view .LVU468
 1374 003e 41EA0361 		orr	r1, r1, r3, lsl #24
 384:Middlewares/ST/STM32_USB_Device_Library/Class/MSC/Src/usbd_msc_scsi.c ****                           (uint32_t)params[13];
 1375              		.loc 1 384 44 view .LVU469
 1376 0042 2B7B     		ldrb	r3, [r5, #12]	@ zero_extendqisi2
 383:Middlewares/ST/STM32_USB_Device_Library/Class/MSC/Src/usbd_msc_scsi.c ****                           ((uint32_t)params[12] <<  8) |
 1377              		.loc 1 383 56 view .LVU470
 1378 0044 41EA0321 		orr	r1, r1, r3, lsl #8
 385:Middlewares/ST/STM32_USB_Device_Library/Class/MSC/Src/usbd_msc_scsi.c **** 
 1379              		.loc 1 385 43 view .LVU471
 1380 0048 6B7B     		ldrb	r3, [r5, #13]	@ zero_extendqisi2
 384:Middlewares/ST/STM32_USB_Device_Library/Class/MSC/Src/usbd_msc_scsi.c ****                           (uint32_t)params[13];
 1381              		.loc 1 384 56 view .LVU472
 1382 004a 1943     		orrs	r1, r1, r3
 382:Middlewares/ST/STM32_USB_Device_Library/Class/MSC/Src/usbd_msc_scsi.c ****                           ((uint32_t)params[11] << 16) |
 1383              		.loc 1 382 25 view .LVU473
 1384 004c E160     		str	r1, [r4, #12]
 387:Middlewares/ST/STM32_USB_Device_Library/Class/MSC/Src/usbd_msc_scsi.c ****   {
 1385              		.loc 1 387 3 is_stmt 1 view .LVU474
 1386              	.LVL140:
 387:Middlewares/ST/STM32_USB_Device_Library/Class/MSC/Src/usbd_msc_scsi.c ****   {
 1387              		.loc 1 387 12 is_stmt 0 view .LVU475
 1388 004e 0023     		movs	r3, #0
 387:Middlewares/ST/STM32_USB_Device_Library/Class/MSC/Src/usbd_msc_scsi.c ****   {
 1389              		.loc 1 387 3 view .LVU476
 1390 0050 0EE0     		b	.L96
 1391              	.LVL141:
 1392              	.L94:
 378:Middlewares/ST/STM32_USB_Device_Library/Class/MSC/Src/usbd_msc_scsi.c ****     return -1;
 1393              		.loc 1 378 5 is_stmt 1 view .LVU477
 1394 0052 3A23     		movs	r3, #58
 1395 0054 0222     		movs	r2, #2
 1396 0056 3946     		mov	r1, r7
ARM GAS  /tmp/cc2SMzdz.s 			page 54


 1397 0058 3046     		mov	r0, r6
 1398              	.LVL142:
 378:Middlewares/ST/STM32_USB_Device_Library/Class/MSC/Src/usbd_msc_scsi.c ****     return -1;
 1399              		.loc 1 378 5 is_stmt 0 view .LVU478
 1400 005a FFF7FEFF 		bl	SCSI_SenseCode
 1401              	.LVL143:
 379:Middlewares/ST/STM32_USB_Device_Library/Class/MSC/Src/usbd_msc_scsi.c ****   }
 1402              		.loc 1 379 5 is_stmt 1 view .LVU479
 379:Middlewares/ST/STM32_USB_Device_Library/Class/MSC/Src/usbd_msc_scsi.c ****   }
 1403              		.loc 1 379 12 is_stmt 0 view .LVU480
 1404 005e 4FF0FF3E 		mov	lr, #-1
 1405 0062 27E0     		b	.L93
 1406              	.LVL144:
 1407              	.L97:
 389:Middlewares/ST/STM32_USB_Device_Library/Class/MSC/Src/usbd_msc_scsi.c ****   }
 1408              		.loc 1 389 5 is_stmt 1 discriminator 3 view .LVU481
 389:Middlewares/ST/STM32_USB_Device_Library/Class/MSC/Src/usbd_msc_scsi.c ****   }
 1409              		.loc 1 389 25 is_stmt 0 discriminator 3 view .LVU482
 1410 0064 E218     		adds	r2, r4, r3
 1411 0066 4FF0000C 		mov	ip, #0
 1412 006a 82F810C0 		strb	ip, [r2, #16]
 387:Middlewares/ST/STM32_USB_Device_Library/Class/MSC/Src/usbd_msc_scsi.c ****   {
 1413              		.loc 1 387 47 is_stmt 1 discriminator 3 view .LVU483
 387:Middlewares/ST/STM32_USB_Device_Library/Class/MSC/Src/usbd_msc_scsi.c ****   {
 1414              		.loc 1 387 50 is_stmt 0 discriminator 3 view .LVU484
 1415 006e 0133     		adds	r3, r3, #1
 1416              	.LVL145:
 1417              	.L96:
 387:Middlewares/ST/STM32_USB_Device_Library/Class/MSC/Src/usbd_msc_scsi.c ****   {
 1418              		.loc 1 387 18 is_stmt 1 discriminator 1 view .LVU485
 387:Middlewares/ST/STM32_USB_Device_Library/Class/MSC/Src/usbd_msc_scsi.c ****   {
 1419              		.loc 1 387 3 is_stmt 0 discriminator 1 view .LVU486
 1420 0070 9942     		cmp	r1, r3
 1421 0072 F7D8     		bhi	.L97
 392:Middlewares/ST/STM32_USB_Device_Library/Class/MSC/Src/usbd_msc_scsi.c ****   hmsc->bot_data[5] = (uint8_t)((hmsc->scsi_blk_nbr - 1U) >> 16);
 1422              		.loc 1 392 3 is_stmt 1 view .LVU487
 392:Middlewares/ST/STM32_USB_Device_Library/Class/MSC/Src/usbd_msc_scsi.c ****   hmsc->bot_data[5] = (uint8_t)((hmsc->scsi_blk_nbr - 1U) >> 16);
 1423              		.loc 1 392 38 is_stmt 0 view .LVU488
 1424 0074 D4F86822 		ldr	r2, [r4, #616]
 392:Middlewares/ST/STM32_USB_Device_Library/Class/MSC/Src/usbd_msc_scsi.c ****   hmsc->bot_data[5] = (uint8_t)((hmsc->scsi_blk_nbr - 1U) >> 16);
 1425              		.loc 1 392 53 view .LVU489
 1426 0078 531E     		subs	r3, r2, #1
 1427              	.LVL146:
 392:Middlewares/ST/STM32_USB_Device_Library/Class/MSC/Src/usbd_msc_scsi.c ****   hmsc->bot_data[5] = (uint8_t)((hmsc->scsi_blk_nbr - 1U) >> 16);
 1428              		.loc 1 392 23 view .LVU490
 1429 007a 190E     		lsrs	r1, r3, #24
 392:Middlewares/ST/STM32_USB_Device_Library/Class/MSC/Src/usbd_msc_scsi.c ****   hmsc->bot_data[5] = (uint8_t)((hmsc->scsi_blk_nbr - 1U) >> 16);
 1430              		.loc 1 392 21 view .LVU491
 1431 007c 2175     		strb	r1, [r4, #20]
 393:Middlewares/ST/STM32_USB_Device_Library/Class/MSC/Src/usbd_msc_scsi.c ****   hmsc->bot_data[6] = (uint8_t)((hmsc->scsi_blk_nbr - 1U) >>  8);
 1432              		.loc 1 393 3 is_stmt 1 view .LVU492
 393:Middlewares/ST/STM32_USB_Device_Library/Class/MSC/Src/usbd_msc_scsi.c ****   hmsc->bot_data[6] = (uint8_t)((hmsc->scsi_blk_nbr - 1U) >>  8);
 1433              		.loc 1 393 23 is_stmt 0 view .LVU493
 1434 007e C3F30741 		ubfx	r1, r3, #16, #8
 393:Middlewares/ST/STM32_USB_Device_Library/Class/MSC/Src/usbd_msc_scsi.c ****   hmsc->bot_data[6] = (uint8_t)((hmsc->scsi_blk_nbr - 1U) >>  8);
 1435              		.loc 1 393 21 view .LVU494
 1436 0082 6175     		strb	r1, [r4, #21]
ARM GAS  /tmp/cc2SMzdz.s 			page 55


 394:Middlewares/ST/STM32_USB_Device_Library/Class/MSC/Src/usbd_msc_scsi.c ****   hmsc->bot_data[7] = (uint8_t)(hmsc->scsi_blk_nbr - 1U);
 1437              		.loc 1 394 3 is_stmt 1 view .LVU495
 394:Middlewares/ST/STM32_USB_Device_Library/Class/MSC/Src/usbd_msc_scsi.c ****   hmsc->bot_data[7] = (uint8_t)(hmsc->scsi_blk_nbr - 1U);
 1438              		.loc 1 394 23 is_stmt 0 view .LVU496
 1439 0084 C3F30723 		ubfx	r3, r3, #8, #8
 394:Middlewares/ST/STM32_USB_Device_Library/Class/MSC/Src/usbd_msc_scsi.c ****   hmsc->bot_data[7] = (uint8_t)(hmsc->scsi_blk_nbr - 1U);
 1440              		.loc 1 394 21 view .LVU497
 1441 0088 A375     		strb	r3, [r4, #22]
 395:Middlewares/ST/STM32_USB_Device_Library/Class/MSC/Src/usbd_msc_scsi.c **** 
 1442              		.loc 1 395 3 is_stmt 1 view .LVU498
 395:Middlewares/ST/STM32_USB_Device_Library/Class/MSC/Src/usbd_msc_scsi.c **** 
 1443              		.loc 1 395 23 is_stmt 0 view .LVU499
 1444 008a 013A     		subs	r2, r2, #1
 395:Middlewares/ST/STM32_USB_Device_Library/Class/MSC/Src/usbd_msc_scsi.c **** 
 1445              		.loc 1 395 21 view .LVU500
 1446 008c E275     		strb	r2, [r4, #23]
 397:Middlewares/ST/STM32_USB_Device_Library/Class/MSC/Src/usbd_msc_scsi.c ****   hmsc->bot_data[9] = (uint8_t)(hmsc->scsi_blk_size >>  16);
 1447              		.loc 1 397 3 is_stmt 1 view .LVU501
 397:Middlewares/ST/STM32_USB_Device_Library/Class/MSC/Src/usbd_msc_scsi.c ****   hmsc->bot_data[9] = (uint8_t)(hmsc->scsi_blk_size >>  16);
 1448              		.loc 1 397 37 is_stmt 0 view .LVU502
 1449 008e B4F86432 		ldrh	r3, [r4, #612]
 397:Middlewares/ST/STM32_USB_Device_Library/Class/MSC/Src/usbd_msc_scsi.c ****   hmsc->bot_data[9] = (uint8_t)(hmsc->scsi_blk_size >>  16);
 1450              		.loc 1 397 23 view .LVU503
 1451 0092 0022     		movs	r2, #0
 397:Middlewares/ST/STM32_USB_Device_Library/Class/MSC/Src/usbd_msc_scsi.c ****   hmsc->bot_data[9] = (uint8_t)(hmsc->scsi_blk_size >>  16);
 1452              		.loc 1 397 21 view .LVU504
 1453 0094 2276     		strb	r2, [r4, #24]
 398:Middlewares/ST/STM32_USB_Device_Library/Class/MSC/Src/usbd_msc_scsi.c ****   hmsc->bot_data[10] = (uint8_t)(hmsc->scsi_blk_size >>  8);
 1454              		.loc 1 398 3 is_stmt 1 view .LVU505
 398:Middlewares/ST/STM32_USB_Device_Library/Class/MSC/Src/usbd_msc_scsi.c ****   hmsc->bot_data[10] = (uint8_t)(hmsc->scsi_blk_size >>  8);
 1455              		.loc 1 398 21 is_stmt 0 view .LVU506
 1456 0096 6276     		strb	r2, [r4, #25]
 399:Middlewares/ST/STM32_USB_Device_Library/Class/MSC/Src/usbd_msc_scsi.c ****   hmsc->bot_data[11] = (uint8_t)(hmsc->scsi_blk_size);
 1457              		.loc 1 399 3 is_stmt 1 view .LVU507
 399:Middlewares/ST/STM32_USB_Device_Library/Class/MSC/Src/usbd_msc_scsi.c ****   hmsc->bot_data[11] = (uint8_t)(hmsc->scsi_blk_size);
 1458              		.loc 1 399 24 is_stmt 0 view .LVU508
 1459 0098 1A0A     		lsrs	r2, r3, #8
 399:Middlewares/ST/STM32_USB_Device_Library/Class/MSC/Src/usbd_msc_scsi.c ****   hmsc->bot_data[11] = (uint8_t)(hmsc->scsi_blk_size);
 1460              		.loc 1 399 22 view .LVU509
 1461 009a A276     		strb	r2, [r4, #26]
 400:Middlewares/ST/STM32_USB_Device_Library/Class/MSC/Src/usbd_msc_scsi.c **** 
 1462              		.loc 1 400 3 is_stmt 1 view .LVU510
 400:Middlewares/ST/STM32_USB_Device_Library/Class/MSC/Src/usbd_msc_scsi.c **** 
 1463              		.loc 1 400 22 is_stmt 0 view .LVU511
 1464 009c E376     		strb	r3, [r4, #27]
 402:Middlewares/ST/STM32_USB_Device_Library/Class/MSC/Src/usbd_msc_scsi.c ****                           ((uint32_t)params[11] << 16) |
 1465              		.loc 1 402 3 is_stmt 1 view .LVU512
 402:Middlewares/ST/STM32_USB_Device_Library/Class/MSC/Src/usbd_msc_scsi.c ****                           ((uint32_t)params[11] << 16) |
 1466              		.loc 1 402 44 is_stmt 0 view .LVU513
 1467 009e AA7A     		ldrb	r2, [r5, #10]	@ zero_extendqisi2
 403:Middlewares/ST/STM32_USB_Device_Library/Class/MSC/Src/usbd_msc_scsi.c ****                           ((uint32_t)params[12] <<  8) |
 1468              		.loc 1 403 44 view .LVU514
 1469 00a0 EB7A     		ldrb	r3, [r5, #11]	@ zero_extendqisi2
 403:Middlewares/ST/STM32_USB_Device_Library/Class/MSC/Src/usbd_msc_scsi.c ****                           ((uint32_t)params[12] <<  8) |
 1470              		.loc 1 403 49 view .LVU515
 1471 00a2 1B04     		lsls	r3, r3, #16
 402:Middlewares/ST/STM32_USB_Device_Library/Class/MSC/Src/usbd_msc_scsi.c ****                           ((uint32_t)params[11] << 16) |
ARM GAS  /tmp/cc2SMzdz.s 			page 56


 1472              		.loc 1 402 56 view .LVU516
 1473 00a4 43EA0263 		orr	r3, r3, r2, lsl #24
 404:Middlewares/ST/STM32_USB_Device_Library/Class/MSC/Src/usbd_msc_scsi.c ****                           (uint32_t)params[13];
 1474              		.loc 1 404 44 view .LVU517
 1475 00a8 2A7B     		ldrb	r2, [r5, #12]	@ zero_extendqisi2
 403:Middlewares/ST/STM32_USB_Device_Library/Class/MSC/Src/usbd_msc_scsi.c ****                           ((uint32_t)params[12] <<  8) |
 1476              		.loc 1 403 56 view .LVU518
 1477 00aa 43EA0223 		orr	r3, r3, r2, lsl #8
 405:Middlewares/ST/STM32_USB_Device_Library/Class/MSC/Src/usbd_msc_scsi.c **** 
 1478              		.loc 1 405 43 view .LVU519
 1479 00ae 6A7B     		ldrb	r2, [r5, #13]	@ zero_extendqisi2
 404:Middlewares/ST/STM32_USB_Device_Library/Class/MSC/Src/usbd_msc_scsi.c ****                           (uint32_t)params[13];
 1480              		.loc 1 404 56 view .LVU520
 1481 00b0 1343     		orrs	r3, r3, r2
 402:Middlewares/ST/STM32_USB_Device_Library/Class/MSC/Src/usbd_msc_scsi.c ****                           ((uint32_t)params[11] << 16) |
 1482              		.loc 1 402 25 view .LVU521
 1483 00b2 E360     		str	r3, [r4, #12]
 407:Middlewares/ST/STM32_USB_Device_Library/Class/MSC/Src/usbd_msc_scsi.c **** }
 1484              		.loc 1 407 3 is_stmt 1 view .LVU522
 1485              	.LVL147:
 1486              	.L93:
 408:Middlewares/ST/STM32_USB_Device_Library/Class/MSC/Src/usbd_msc_scsi.c **** 
 1487              		.loc 1 408 1 is_stmt 0 view .LVU523
 1488 00b4 7046     		mov	r0, lr
 1489 00b6 F8BD     		pop	{r3, r4, r5, r6, r7, pc}
 1490              	.LVL148:
 1491              	.L98:
 370:Middlewares/ST/STM32_USB_Device_Library/Class/MSC/Src/usbd_msc_scsi.c ****   }
 1492              		.loc 1 370 12 view .LVU524
 1493 00b8 4FF0FF3E 		mov	lr, #-1
 1494 00bc FAE7     		b	.L93
 1495              		.cfi_endproc
 1496              	.LFE144:
 1498              		.section	.text.SCSI_CheckAddressRange,"ax",%progbits
 1499              		.align	1
 1500              		.syntax unified
 1501              		.thumb
 1502              		.thumb_func
 1503              		.fpu fpv4-sp-d16
 1505              	SCSI_CheckAddressRange:
 1506              	.LVL149:
 1507              	.LFB157:
1056:Middlewares/ST/STM32_USB_Device_Library/Class/MSC/Src/usbd_msc_scsi.c ****   USBD_MSC_BOT_HandleTypeDef *hmsc = (USBD_MSC_BOT_HandleTypeDef *)pdev->pClassDataCmsit[pdev->clas
 1508              		.loc 1 1056 1 is_stmt 1 view -0
 1509              		.cfi_startproc
 1510              		@ args = 0, pretend = 0, frame = 0
 1511              		@ frame_needed = 0, uses_anonymous_args = 0
1056:Middlewares/ST/STM32_USB_Device_Library/Class/MSC/Src/usbd_msc_scsi.c ****   USBD_MSC_BOT_HandleTypeDef *hmsc = (USBD_MSC_BOT_HandleTypeDef *)pdev->pClassDataCmsit[pdev->clas
 1512              		.loc 1 1056 1 is_stmt 0 view .LVU526
 1513 0000 10B5     		push	{r4, lr}
 1514              	.LCFI13:
 1515              		.cfi_def_cfa_offset 8
 1516              		.cfi_offset 4, -8
 1517              		.cfi_offset 14, -4
1057:Middlewares/ST/STM32_USB_Device_Library/Class/MSC/Src/usbd_msc_scsi.c **** 
 1518              		.loc 1 1057 3 is_stmt 1 view .LVU527
1057:Middlewares/ST/STM32_USB_Device_Library/Class/MSC/Src/usbd_msc_scsi.c **** 
ARM GAS  /tmp/cc2SMzdz.s 			page 57


 1519              		.loc 1 1057 31 is_stmt 0 view .LVU528
 1520 0002 D0F8D442 		ldr	r4, [r0, #724]
 1521 0006 04F1B00C 		add	ip, r4, #176
 1522 000a 50F82C40 		ldr	r4, [r0, ip, lsl #2]
 1523              	.LVL150:
1059:Middlewares/ST/STM32_USB_Device_Library/Class/MSC/Src/usbd_msc_scsi.c ****   {
 1524              		.loc 1 1059 3 is_stmt 1 view .LVU529
1059:Middlewares/ST/STM32_USB_Device_Library/Class/MSC/Src/usbd_msc_scsi.c ****   {
 1525              		.loc 1 1059 6 is_stmt 0 view .LVU530
 1526 000e 6CB1     		cbz	r4, .L102
1064:Middlewares/ST/STM32_USB_Device_Library/Class/MSC/Src/usbd_msc_scsi.c ****   {
 1527              		.loc 1 1064 3 is_stmt 1 view .LVU531
1064:Middlewares/ST/STM32_USB_Device_Library/Class/MSC/Src/usbd_msc_scsi.c ****   {
 1528              		.loc 1 1064 19 is_stmt 0 view .LVU532
 1529 0010 1A44     		add	r2, r2, r3
 1530              	.LVL151:
1064:Middlewares/ST/STM32_USB_Device_Library/Class/MSC/Src/usbd_msc_scsi.c ****   {
 1531              		.loc 1 1064 36 view .LVU533
 1532 0012 D4F86832 		ldr	r3, [r4, #616]
 1533              	.LVL152:
1064:Middlewares/ST/STM32_USB_Device_Library/Class/MSC/Src/usbd_msc_scsi.c ****   {
 1534              		.loc 1 1064 6 view .LVU534
 1535 0016 9A42     		cmp	r2, r3
 1536 0018 01D8     		bhi	.L105
1070:Middlewares/ST/STM32_USB_Device_Library/Class/MSC/Src/usbd_msc_scsi.c **** }
 1537              		.loc 1 1070 10 view .LVU535
 1538 001a 0020     		movs	r0, #0
 1539              	.LVL153:
 1540              	.L101:
1071:Middlewares/ST/STM32_USB_Device_Library/Class/MSC/Src/usbd_msc_scsi.c **** 
 1541              		.loc 1 1071 1 view .LVU536
 1542 001c 10BD     		pop	{r4, pc}
 1543              	.LVL154:
 1544              	.L105:
1066:Middlewares/ST/STM32_USB_Device_Library/Class/MSC/Src/usbd_msc_scsi.c ****     return -1;
 1545              		.loc 1 1066 5 is_stmt 1 view .LVU537
 1546 001e 2123     		movs	r3, #33
 1547 0020 0522     		movs	r2, #5
 1548 0022 FFF7FEFF 		bl	SCSI_SenseCode
 1549              	.LVL155:
1067:Middlewares/ST/STM32_USB_Device_Library/Class/MSC/Src/usbd_msc_scsi.c ****   }
 1550              		.loc 1 1067 5 view .LVU538
1067:Middlewares/ST/STM32_USB_Device_Library/Class/MSC/Src/usbd_msc_scsi.c ****   }
 1551              		.loc 1 1067 12 is_stmt 0 view .LVU539
 1552 0026 4FF0FF30 		mov	r0, #-1
 1553 002a F7E7     		b	.L101
 1554              	.LVL156:
 1555              	.L102:
1061:Middlewares/ST/STM32_USB_Device_Library/Class/MSC/Src/usbd_msc_scsi.c ****   }
 1556              		.loc 1 1061 12 view .LVU540
 1557 002c 4FF0FF30 		mov	r0, #-1
 1558              	.LVL157:
1061:Middlewares/ST/STM32_USB_Device_Library/Class/MSC/Src/usbd_msc_scsi.c ****   }
 1559              		.loc 1 1061 12 view .LVU541
 1560 0030 F4E7     		b	.L101
 1561              		.cfi_endproc
 1562              	.LFE157:
ARM GAS  /tmp/cc2SMzdz.s 			page 58


 1564              		.section	.text.SCSI_ProcessRead,"ax",%progbits
 1565              		.align	1
 1566              		.syntax unified
 1567              		.thumb
 1568              		.thumb_func
 1569              		.fpu fpv4-sp-d16
 1571              	SCSI_ProcessRead:
 1572              	.LVL158:
 1573              	.LFB158:
1080:Middlewares/ST/STM32_USB_Device_Library/Class/MSC/Src/usbd_msc_scsi.c ****   USBD_MSC_BOT_HandleTypeDef *hmsc = (USBD_MSC_BOT_HandleTypeDef *)pdev->pClassDataCmsit[pdev->clas
 1574              		.loc 1 1080 1 is_stmt 1 view -0
 1575              		.cfi_startproc
 1576              		@ args = 0, pretend = 0, frame = 0
 1577              		@ frame_needed = 0, uses_anonymous_args = 0
1080:Middlewares/ST/STM32_USB_Device_Library/Class/MSC/Src/usbd_msc_scsi.c ****   USBD_MSC_BOT_HandleTypeDef *hmsc = (USBD_MSC_BOT_HandleTypeDef *)pdev->pClassDataCmsit[pdev->clas
 1578              		.loc 1 1080 1 is_stmt 0 view .LVU543
 1579 0000 2DE9F843 		push	{r3, r4, r5, r6, r7, r8, r9, lr}
 1580              	.LCFI14:
 1581              		.cfi_def_cfa_offset 32
 1582              		.cfi_offset 3, -32
 1583              		.cfi_offset 4, -28
 1584              		.cfi_offset 5, -24
 1585              		.cfi_offset 6, -20
 1586              		.cfi_offset 7, -16
 1587              		.cfi_offset 8, -12
 1588              		.cfi_offset 9, -8
 1589              		.cfi_offset 14, -4
1081:Middlewares/ST/STM32_USB_Device_Library/Class/MSC/Src/usbd_msc_scsi.c ****   uint32_t len;
 1590              		.loc 1 1081 3 is_stmt 1 view .LVU544
1081:Middlewares/ST/STM32_USB_Device_Library/Class/MSC/Src/usbd_msc_scsi.c ****   uint32_t len;
 1591              		.loc 1 1081 94 is_stmt 0 view .LVU545
 1592 0004 D0F8D422 		ldr	r2, [r0, #724]
1081:Middlewares/ST/STM32_USB_Device_Library/Class/MSC/Src/usbd_msc_scsi.c ****   uint32_t len;
 1593              		.loc 1 1081 31 view .LVU546
 1594 0008 02F1B003 		add	r3, r2, #176
 1595 000c 50F82340 		ldr	r4, [r0, r3, lsl #2]
 1596              	.LVL159:
1082:Middlewares/ST/STM32_USB_Device_Library/Class/MSC/Src/usbd_msc_scsi.c **** 
 1597              		.loc 1 1082 3 is_stmt 1 view .LVU547
1084:Middlewares/ST/STM32_USB_Device_Library/Class/MSC/Src/usbd_msc_scsi.c ****   {
 1598              		.loc 1 1084 3 view .LVU548
1084:Middlewares/ST/STM32_USB_Device_Library/Class/MSC/Src/usbd_msc_scsi.c ****   {
 1599              		.loc 1 1084 6 is_stmt 0 view .LVU549
 1600 0010 002C     		cmp	r4, #0
 1601 0012 46D0     		beq	.L109
 1602 0014 0646     		mov	r6, r0
 1603 0016 0F46     		mov	r7, r1
1089:Middlewares/ST/STM32_USB_Device_Library/Class/MSC/Src/usbd_msc_scsi.c **** 
 1604              		.loc 1 1089 3 is_stmt 1 view .LVU550
1089:Middlewares/ST/STM32_USB_Device_Library/Class/MSC/Src/usbd_msc_scsi.c **** 
 1605              		.loc 1 1089 13 is_stmt 0 view .LVU551
 1606 0018 D4F87052 		ldr	r5, [r4, #624]
1089:Middlewares/ST/STM32_USB_Device_Library/Class/MSC/Src/usbd_msc_scsi.c **** 
 1607              		.loc 1 1089 34 view .LVU552
 1608 001c B4F86432 		ldrh	r3, [r4, #612]
1089:Middlewares/ST/STM32_USB_Device_Library/Class/MSC/Src/usbd_msc_scsi.c **** 
 1609              		.loc 1 1089 7 view .LVU553
ARM GAS  /tmp/cc2SMzdz.s 			page 59


 1610 0020 03FB05F5 		mul	r5, r3, r5
 1611              	.LVL160:
1096:Middlewares/ST/STM32_USB_Device_Library/Class/MSC/Src/usbd_msc_scsi.c **** 
 1612              		.loc 1 1096 3 is_stmt 1 view .LVU554
1096:Middlewares/ST/STM32_USB_Device_Library/Class/MSC/Src/usbd_msc_scsi.c **** 
 1613              		.loc 1 1096 7 is_stmt 0 view .LVU555
 1614 0024 B5F5007F 		cmp	r5, #512
 1615 0028 28BF     		it	cs
 1616 002a 4FF40075 		movcs	r5, #512
 1617              	.LVL161:
1098:Middlewares/ST/STM32_USB_Device_Library/Class/MSC/Src/usbd_msc_scsi.c ****                                                                     hmsc->scsi_blk_addr,
 1618              		.loc 1 1098 3 is_stmt 1 view .LVU556
1098:Middlewares/ST/STM32_USB_Device_Library/Class/MSC/Src/usbd_msc_scsi.c ****                                                                     hmsc->scsi_blk_addr,
 1619              		.loc 1 1098 46 is_stmt 0 view .LVU557
 1620 002e B032     		adds	r2, r2, #176
 1621 0030 00EB8202 		add	r2, r0, r2, lsl #2
 1622 0034 5268     		ldr	r2, [r2, #4]
1098:Middlewares/ST/STM32_USB_Device_Library/Class/MSC/Src/usbd_msc_scsi.c ****                                                                     hmsc->scsi_blk_addr,
 1623              		.loc 1 1098 62 view .LVU558
 1624 0036 D2F81090 		ldr	r9, [r2, #16]
1098:Middlewares/ST/STM32_USB_Device_Library/Class/MSC/Src/usbd_msc_scsi.c ****                                                                     hmsc->scsi_blk_addr,
 1625              		.loc 1 1098 78 view .LVU559
 1626 003a 04F11008 		add	r8, r4, #16
1100:Middlewares/ST/STM32_USB_Device_Library/Class/MSC/Src/usbd_msc_scsi.c ****   {
 1627              		.loc 1 1100 74 view .LVU560
 1628 003e B5FBF3F3 		udiv	r3, r5, r3
1098:Middlewares/ST/STM32_USB_Device_Library/Class/MSC/Src/usbd_msc_scsi.c ****                                                                     hmsc->scsi_blk_addr,
 1629              		.loc 1 1098 8 view .LVU561
 1630 0042 9BB2     		uxth	r3, r3
 1631 0044 D4F86C22 		ldr	r2, [r4, #620]
 1632 0048 4146     		mov	r1, r8
 1633              	.LVL162:
1098:Middlewares/ST/STM32_USB_Device_Library/Class/MSC/Src/usbd_msc_scsi.c ****                                                                     hmsc->scsi_blk_addr,
 1634              		.loc 1 1098 8 view .LVU562
 1635 004a 3846     		mov	r0, r7
 1636              	.LVL163:
1098:Middlewares/ST/STM32_USB_Device_Library/Class/MSC/Src/usbd_msc_scsi.c ****                                                                     hmsc->scsi_blk_addr,
 1637              		.loc 1 1098 8 view .LVU563
 1638 004c C847     		blx	r9
 1639              	.LVL164:
1098:Middlewares/ST/STM32_USB_Device_Library/Class/MSC/Src/usbd_msc_scsi.c ****                                                                     hmsc->scsi_blk_addr,
 1640              		.loc 1 1098 6 view .LVU564
 1641 004e 0028     		cmp	r0, #0
 1642 0050 1EDB     		blt	.L112
1106:Middlewares/ST/STM32_USB_Device_Library/Class/MSC/Src/usbd_msc_scsi.c **** 
 1643              		.loc 1 1106 3 is_stmt 1 view .LVU565
1106:Middlewares/ST/STM32_USB_Device_Library/Class/MSC/Src/usbd_msc_scsi.c **** 
 1644              		.loc 1 1106 9 is_stmt 0 view .LVU566
 1645 0052 2B46     		mov	r3, r5
 1646 0054 4246     		mov	r2, r8
 1647 0056 1649     		ldr	r1, .L113
 1648 0058 0978     		ldrb	r1, [r1]	@ zero_extendqisi2
 1649 005a 3046     		mov	r0, r6
 1650 005c FFF7FEFF 		bl	USBD_LL_Transmit
 1651              	.LVL165:
1108:Middlewares/ST/STM32_USB_Device_Library/Class/MSC/Src/usbd_msc_scsi.c ****   hmsc->scsi_blk_len -= (len / hmsc->scsi_blk_size);
 1652              		.loc 1 1108 3 is_stmt 1 view .LVU567
ARM GAS  /tmp/cc2SMzdz.s 			page 60


1108:Middlewares/ST/STM32_USB_Device_Library/Class/MSC/Src/usbd_msc_scsi.c ****   hmsc->scsi_blk_len -= (len / hmsc->scsi_blk_size);
 1653              		.loc 1 1108 37 is_stmt 0 view .LVU568
 1654 0060 B4F86432 		ldrh	r3, [r4, #612]
1108:Middlewares/ST/STM32_USB_Device_Library/Class/MSC/Src/usbd_msc_scsi.c ****   hmsc->scsi_blk_len -= (len / hmsc->scsi_blk_size);
 1655              		.loc 1 1108 31 view .LVU569
 1656 0064 B5FBF3F2 		udiv	r2, r5, r3
1108:Middlewares/ST/STM32_USB_Device_Library/Class/MSC/Src/usbd_msc_scsi.c ****   hmsc->scsi_blk_len -= (len / hmsc->scsi_blk_size);
 1657              		.loc 1 1108 23 view .LVU570
 1658 0068 D4F86C32 		ldr	r3, [r4, #620]
 1659 006c 1344     		add	r3, r3, r2
 1660 006e C4F86C32 		str	r3, [r4, #620]
1109:Middlewares/ST/STM32_USB_Device_Library/Class/MSC/Src/usbd_msc_scsi.c **** 
 1661              		.loc 1 1109 3 is_stmt 1 view .LVU571
1109:Middlewares/ST/STM32_USB_Device_Library/Class/MSC/Src/usbd_msc_scsi.c **** 
 1662              		.loc 1 1109 22 is_stmt 0 view .LVU572
 1663 0072 D4F87032 		ldr	r3, [r4, #624]
 1664 0076 9B1A     		subs	r3, r3, r2
 1665 0078 C4F87032 		str	r3, [r4, #624]
1112:Middlewares/ST/STM32_USB_Device_Library/Class/MSC/Src/usbd_msc_scsi.c **** 
 1666              		.loc 1 1112 3 is_stmt 1 view .LVU573
1112:Middlewares/ST/STM32_USB_Device_Library/Class/MSC/Src/usbd_msc_scsi.c **** 
 1667              		.loc 1 1112 26 is_stmt 0 view .LVU574
 1668 007c D4F83822 		ldr	r2, [r4, #568]
 1669 0080 521B     		subs	r2, r2, r5
 1670 0082 C4F83822 		str	r2, [r4, #568]
1114:Middlewares/ST/STM32_USB_Device_Library/Class/MSC/Src/usbd_msc_scsi.c ****   {
 1671              		.loc 1 1114 3 is_stmt 1 view .LVU575
1114:Middlewares/ST/STM32_USB_Device_Library/Class/MSC/Src/usbd_msc_scsi.c ****   {
 1672              		.loc 1 1114 6 is_stmt 0 view .LVU576
 1673 0086 7BB9     		cbnz	r3, .L110
1116:Middlewares/ST/STM32_USB_Device_Library/Class/MSC/Src/usbd_msc_scsi.c ****   }
 1674              		.loc 1 1116 5 is_stmt 1 view .LVU577
1116:Middlewares/ST/STM32_USB_Device_Library/Class/MSC/Src/usbd_msc_scsi.c ****   }
 1675              		.loc 1 1116 21 is_stmt 0 view .LVU578
 1676 0088 0323     		movs	r3, #3
 1677 008a 2372     		strb	r3, [r4, #8]
1119:Middlewares/ST/STM32_USB_Device_Library/Class/MSC/Src/usbd_msc_scsi.c **** }
 1678              		.loc 1 1119 10 view .LVU579
 1679 008c 0020     		movs	r0, #0
 1680 008e 0CE0     		b	.L107
 1681              	.L112:
1102:Middlewares/ST/STM32_USB_Device_Library/Class/MSC/Src/usbd_msc_scsi.c ****     return -1;
 1682              		.loc 1 1102 5 is_stmt 1 view .LVU580
 1683 0090 1123     		movs	r3, #17
 1684 0092 0422     		movs	r2, #4
 1685 0094 3946     		mov	r1, r7
 1686 0096 3046     		mov	r0, r6
 1687 0098 FFF7FEFF 		bl	SCSI_SenseCode
 1688              	.LVL166:
1103:Middlewares/ST/STM32_USB_Device_Library/Class/MSC/Src/usbd_msc_scsi.c ****   }
 1689              		.loc 1 1103 5 view .LVU581
1103:Middlewares/ST/STM32_USB_Device_Library/Class/MSC/Src/usbd_msc_scsi.c ****   }
 1690              		.loc 1 1103 12 is_stmt 0 view .LVU582
 1691 009c 4FF0FF30 		mov	r0, #-1
 1692 00a0 03E0     		b	.L107
 1693              	.LVL167:
 1694              	.L109:
ARM GAS  /tmp/cc2SMzdz.s 			page 61


1086:Middlewares/ST/STM32_USB_Device_Library/Class/MSC/Src/usbd_msc_scsi.c ****   }
 1695              		.loc 1 1086 12 view .LVU583
 1696 00a2 4FF0FF30 		mov	r0, #-1
 1697              	.LVL168:
1086:Middlewares/ST/STM32_USB_Device_Library/Class/MSC/Src/usbd_msc_scsi.c ****   }
 1698              		.loc 1 1086 12 view .LVU584
 1699 00a6 00E0     		b	.L107
 1700              	.LVL169:
 1701              	.L110:
1119:Middlewares/ST/STM32_USB_Device_Library/Class/MSC/Src/usbd_msc_scsi.c **** }
 1702              		.loc 1 1119 10 view .LVU585
 1703 00a8 0020     		movs	r0, #0
 1704              	.LVL170:
 1705              	.L107:
1120:Middlewares/ST/STM32_USB_Device_Library/Class/MSC/Src/usbd_msc_scsi.c **** 
 1706              		.loc 1 1120 1 view .LVU586
 1707 00aa BDE8F883 		pop	{r3, r4, r5, r6, r7, r8, r9, pc}
 1708              	.LVL171:
 1709              	.L114:
1120:Middlewares/ST/STM32_USB_Device_Library/Class/MSC/Src/usbd_msc_scsi.c **** 
 1710              		.loc 1 1120 1 view .LVU587
 1711 00ae 00BF     		.align	2
 1712              	.L113:
 1713 00b0 00000000 		.word	MSCInEpAdd
 1714              		.cfi_endproc
 1715              	.LFE158:
 1717              		.section	.text.SCSI_Read10,"ax",%progbits
 1718              		.align	1
 1719              		.syntax unified
 1720              		.thumb
 1721              		.thumb_func
 1722              		.fpu fpv4-sp-d16
 1724              	SCSI_Read10:
 1725              	.LVL172:
 1726              	.LFB152:
 705:Middlewares/ST/STM32_USB_Device_Library/Class/MSC/Src/usbd_msc_scsi.c ****   USBD_MSC_BOT_HandleTypeDef *hmsc = (USBD_MSC_BOT_HandleTypeDef *)pdev->pClassDataCmsit[pdev->clas
 1727              		.loc 1 705 1 is_stmt 1 view -0
 1728              		.cfi_startproc
 1729              		@ args = 0, pretend = 0, frame = 0
 1730              		@ frame_needed = 0, uses_anonymous_args = 0
 705:Middlewares/ST/STM32_USB_Device_Library/Class/MSC/Src/usbd_msc_scsi.c ****   USBD_MSC_BOT_HandleTypeDef *hmsc = (USBD_MSC_BOT_HandleTypeDef *)pdev->pClassDataCmsit[pdev->clas
 1731              		.loc 1 705 1 is_stmt 0 view .LVU589
 1732 0000 F8B5     		push	{r3, r4, r5, r6, r7, lr}
 1733              	.LCFI15:
 1734              		.cfi_def_cfa_offset 24
 1735              		.cfi_offset 3, -24
 1736              		.cfi_offset 4, -20
 1737              		.cfi_offset 5, -16
 1738              		.cfi_offset 6, -12
 1739              		.cfi_offset 7, -8
 1740              		.cfi_offset 14, -4
 1741 0002 1646     		mov	r6, r2
 706:Middlewares/ST/STM32_USB_Device_Library/Class/MSC/Src/usbd_msc_scsi.c **** 
 1742              		.loc 1 706 3 is_stmt 1 view .LVU590
 706:Middlewares/ST/STM32_USB_Device_Library/Class/MSC/Src/usbd_msc_scsi.c **** 
 1743              		.loc 1 706 94 is_stmt 0 view .LVU591
 1744 0004 D0F8D432 		ldr	r3, [r0, #724]
ARM GAS  /tmp/cc2SMzdz.s 			page 62


 706:Middlewares/ST/STM32_USB_Device_Library/Class/MSC/Src/usbd_msc_scsi.c **** 
 1745              		.loc 1 706 31 view .LVU592
 1746 0008 03F1B002 		add	r2, r3, #176
 1747              	.LVL173:
 706:Middlewares/ST/STM32_USB_Device_Library/Class/MSC/Src/usbd_msc_scsi.c **** 
 1748              		.loc 1 706 31 view .LVU593
 1749 000c 50F82240 		ldr	r4, [r0, r2, lsl #2]
 1750              	.LVL174:
 708:Middlewares/ST/STM32_USB_Device_Library/Class/MSC/Src/usbd_msc_scsi.c ****   {
 1751              		.loc 1 708 3 is_stmt 1 view .LVU594
 708:Middlewares/ST/STM32_USB_Device_Library/Class/MSC/Src/usbd_msc_scsi.c ****   {
 1752              		.loc 1 708 6 is_stmt 0 view .LVU595
 1753 0010 002C     		cmp	r4, #0
 1754 0012 62D0     		beq	.L122
 1755 0014 0546     		mov	r5, r0
 1756 0016 0F46     		mov	r7, r1
 713:Middlewares/ST/STM32_USB_Device_Library/Class/MSC/Src/usbd_msc_scsi.c ****   {
 1757              		.loc 1 713 3 is_stmt 1 view .LVU596
 713:Middlewares/ST/STM32_USB_Device_Library/Class/MSC/Src/usbd_msc_scsi.c ****   {
 1758              		.loc 1 713 11 is_stmt 0 view .LVU597
 1759 0018 227A     		ldrb	r2, [r4, #8]	@ zero_extendqisi2
 713:Middlewares/ST/STM32_USB_Device_Library/Class/MSC/Src/usbd_msc_scsi.c ****   {
 1760              		.loc 1 713 6 view .LVU598
 1761 001a A2BB     		cbnz	r2, .L117
 716:Middlewares/ST/STM32_USB_Device_Library/Class/MSC/Src/usbd_msc_scsi.c ****     {
 1762              		.loc 1 716 5 is_stmt 1 view .LVU599
 716:Middlewares/ST/STM32_USB_Device_Library/Class/MSC/Src/usbd_msc_scsi.c ****     {
 1763              		.loc 1 716 37 is_stmt 0 view .LVU600
 1764 001c 94F91C22 		ldrsb	r2, [r4, #540]
 716:Middlewares/ST/STM32_USB_Device_Library/Class/MSC/Src/usbd_msc_scsi.c ****     {
 1765              		.loc 1 716 8 view .LVU601
 1766 0020 002A     		cmp	r2, #0
 1767 0022 38DA     		bge	.L125
 722:Middlewares/ST/STM32_USB_Device_Library/Class/MSC/Src/usbd_msc_scsi.c ****     {
 1768              		.loc 1 722 5 is_stmt 1 view .LVU602
 722:Middlewares/ST/STM32_USB_Device_Library/Class/MSC/Src/usbd_msc_scsi.c ****     {
 1769              		.loc 1 722 13 is_stmt 0 view .LVU603
 1770 0024 94F86222 		ldrb	r2, [r4, #610]	@ zero_extendqisi2
 722:Middlewares/ST/STM32_USB_Device_Library/Class/MSC/Src/usbd_msc_scsi.c ****     {
 1771              		.loc 1 722 8 view .LVU604
 1772 0028 022A     		cmp	r2, #2
 1773 002a 3DD0     		beq	.L126
 729:Middlewares/ST/STM32_USB_Device_Library/Class/MSC/Src/usbd_msc_scsi.c ****     {
 1774              		.loc 1 729 5 is_stmt 1 view .LVU605
 729:Middlewares/ST/STM32_USB_Device_Library/Class/MSC/Src/usbd_msc_scsi.c ****     {
 1775              		.loc 1 729 48 is_stmt 0 view .LVU606
 1776 002c B033     		adds	r3, r3, #176
 1777 002e 00EB8303 		add	r3, r0, r3, lsl #2
 1778 0032 5B68     		ldr	r3, [r3, #4]
 729:Middlewares/ST/STM32_USB_Device_Library/Class/MSC/Src/usbd_msc_scsi.c ****     {
 1779              		.loc 1 729 64 view .LVU607
 1780 0034 9B68     		ldr	r3, [r3, #8]
 729:Middlewares/ST/STM32_USB_Device_Library/Class/MSC/Src/usbd_msc_scsi.c ****     {
 1781              		.loc 1 729 10 view .LVU608
 1782 0036 0846     		mov	r0, r1
 1783              	.LVL175:
 729:Middlewares/ST/STM32_USB_Device_Library/Class/MSC/Src/usbd_msc_scsi.c ****     {
ARM GAS  /tmp/cc2SMzdz.s 			page 63


 1784              		.loc 1 729 10 view .LVU609
 1785 0038 9847     		blx	r3
 1786              	.LVL176:
 729:Middlewares/ST/STM32_USB_Device_Library/Class/MSC/Src/usbd_msc_scsi.c ****     {
 1787              		.loc 1 729 8 view .LVU610
 1788 003a 0028     		cmp	r0, #0
 1789 003c 3AD1     		bne	.L127
 735:Middlewares/ST/STM32_USB_Device_Library/Class/MSC/Src/usbd_msc_scsi.c ****                           ((uint32_t)params[3] << 16) |
 1790              		.loc 1 735 5 is_stmt 1 view .LVU611
 735:Middlewares/ST/STM32_USB_Device_Library/Class/MSC/Src/usbd_msc_scsi.c ****                           ((uint32_t)params[3] << 16) |
 1791              		.loc 1 735 44 is_stmt 0 view .LVU612
 1792 003e B278     		ldrb	r2, [r6, #2]	@ zero_extendqisi2
 736:Middlewares/ST/STM32_USB_Device_Library/Class/MSC/Src/usbd_msc_scsi.c ****                           ((uint32_t)params[4] <<  8) |
 1793              		.loc 1 736 44 view .LVU613
 1794 0040 F378     		ldrb	r3, [r6, #3]	@ zero_extendqisi2
 736:Middlewares/ST/STM32_USB_Device_Library/Class/MSC/Src/usbd_msc_scsi.c ****                           ((uint32_t)params[4] <<  8) |
 1795              		.loc 1 736 48 view .LVU614
 1796 0042 1B04     		lsls	r3, r3, #16
 735:Middlewares/ST/STM32_USB_Device_Library/Class/MSC/Src/usbd_msc_scsi.c ****                           ((uint32_t)params[3] << 16) |
 1797              		.loc 1 735 55 view .LVU615
 1798 0044 43EA0263 		orr	r3, r3, r2, lsl #24
 737:Middlewares/ST/STM32_USB_Device_Library/Class/MSC/Src/usbd_msc_scsi.c ****                           (uint32_t)params[5];
 1799              		.loc 1 737 44 view .LVU616
 1800 0048 3279     		ldrb	r2, [r6, #4]	@ zero_extendqisi2
 736:Middlewares/ST/STM32_USB_Device_Library/Class/MSC/Src/usbd_msc_scsi.c ****                           ((uint32_t)params[4] <<  8) |
 1801              		.loc 1 736 55 view .LVU617
 1802 004a 43EA0223 		orr	r3, r3, r2, lsl #8
 738:Middlewares/ST/STM32_USB_Device_Library/Class/MSC/Src/usbd_msc_scsi.c **** 
 1803              		.loc 1 738 43 view .LVU618
 1804 004e 7279     		ldrb	r2, [r6, #5]	@ zero_extendqisi2
 737:Middlewares/ST/STM32_USB_Device_Library/Class/MSC/Src/usbd_msc_scsi.c ****                           (uint32_t)params[5];
 1805              		.loc 1 737 55 view .LVU619
 1806 0050 1A43     		orrs	r2, r2, r3
 735:Middlewares/ST/STM32_USB_Device_Library/Class/MSC/Src/usbd_msc_scsi.c ****                           ((uint32_t)params[3] << 16) |
 1807              		.loc 1 735 25 view .LVU620
 1808 0052 C4F86C22 		str	r2, [r4, #620]
 740:Middlewares/ST/STM32_USB_Device_Library/Class/MSC/Src/usbd_msc_scsi.c **** 
 1809              		.loc 1 740 5 is_stmt 1 view .LVU621
 740:Middlewares/ST/STM32_USB_Device_Library/Class/MSC/Src/usbd_msc_scsi.c **** 
 1810              		.loc 1 740 43 is_stmt 0 view .LVU622
 1811 0056 F179     		ldrb	r1, [r6, #7]	@ zero_extendqisi2
 740:Middlewares/ST/STM32_USB_Device_Library/Class/MSC/Src/usbd_msc_scsi.c **** 
 1812              		.loc 1 740 72 view .LVU623
 1813 0058 337A     		ldrb	r3, [r6, #8]	@ zero_extendqisi2
 740:Middlewares/ST/STM32_USB_Device_Library/Class/MSC/Src/usbd_msc_scsi.c **** 
 1814              		.loc 1 740 54 view .LVU624
 1815 005a 43EA0123 		orr	r3, r3, r1, lsl #8
 740:Middlewares/ST/STM32_USB_Device_Library/Class/MSC/Src/usbd_msc_scsi.c **** 
 1816              		.loc 1 740 24 view .LVU625
 1817 005e C4F87032 		str	r3, [r4, #624]
 742:Middlewares/ST/STM32_USB_Device_Library/Class/MSC/Src/usbd_msc_scsi.c ****                                hmsc->scsi_blk_len) < 0)
 1818              		.loc 1 742 5 is_stmt 1 view .LVU626
 742:Middlewares/ST/STM32_USB_Device_Library/Class/MSC/Src/usbd_msc_scsi.c ****                                hmsc->scsi_blk_len) < 0)
 1819              		.loc 1 742 9 is_stmt 0 view .LVU627
 1820 0062 3946     		mov	r1, r7
 1821 0064 2846     		mov	r0, r5
 1822 0066 FFF7FEFF 		bl	SCSI_CheckAddressRange
ARM GAS  /tmp/cc2SMzdz.s 			page 64


 1823              	.LVL177:
 742:Middlewares/ST/STM32_USB_Device_Library/Class/MSC/Src/usbd_msc_scsi.c ****                                hmsc->scsi_blk_len) < 0)
 1824              		.loc 1 742 8 view .LVU628
 1825 006a 0028     		cmp	r0, #0
 1826 006c 38DB     		blt	.L123
 749:Middlewares/ST/STM32_USB_Device_Library/Class/MSC/Src/usbd_msc_scsi.c ****     {
 1827              		.loc 1 749 5 is_stmt 1 view .LVU629
 749:Middlewares/ST/STM32_USB_Device_Library/Class/MSC/Src/usbd_msc_scsi.c ****     {
 1828              		.loc 1 749 18 is_stmt 0 view .LVU630
 1829 006e D4F81822 		ldr	r2, [r4, #536]
 749:Middlewares/ST/STM32_USB_Device_Library/Class/MSC/Src/usbd_msc_scsi.c ****     {
 1830              		.loc 1 749 39 view .LVU631
 1831 0072 D4F87032 		ldr	r3, [r4, #624]
 749:Middlewares/ST/STM32_USB_Device_Library/Class/MSC/Src/usbd_msc_scsi.c ****     {
 1832              		.loc 1 749 60 view .LVU632
 1833 0076 B4F86412 		ldrh	r1, [r4, #612]
 749:Middlewares/ST/STM32_USB_Device_Library/Class/MSC/Src/usbd_msc_scsi.c ****     {
 1834              		.loc 1 749 54 view .LVU633
 1835 007a 01FB03F3 		mul	r3, r1, r3
 749:Middlewares/ST/STM32_USB_Device_Library/Class/MSC/Src/usbd_msc_scsi.c ****     {
 1836              		.loc 1 749 8 view .LVU634
 1837 007e 9A42     		cmp	r2, r3
 1838 0080 21D1     		bne	.L128
 755:Middlewares/ST/STM32_USB_Device_Library/Class/MSC/Src/usbd_msc_scsi.c ****   }
 1839              		.loc 1 755 5 is_stmt 1 view .LVU635
 755:Middlewares/ST/STM32_USB_Device_Library/Class/MSC/Src/usbd_msc_scsi.c ****   }
 1840              		.loc 1 755 21 is_stmt 0 view .LVU636
 1841 0082 0223     		movs	r3, #2
 1842 0084 2372     		strb	r3, [r4, #8]
 1843              	.L117:
 757:Middlewares/ST/STM32_USB_Device_Library/Class/MSC/Src/usbd_msc_scsi.c **** 
 1844              		.loc 1 757 3 is_stmt 1 view .LVU637
 757:Middlewares/ST/STM32_USB_Device_Library/Class/MSC/Src/usbd_msc_scsi.c **** 
 1845              		.loc 1 757 25 is_stmt 0 view .LVU638
 1846 0086 4FF40073 		mov	r3, #512
 1847 008a E360     		str	r3, [r4, #12]
 759:Middlewares/ST/STM32_USB_Device_Library/Class/MSC/Src/usbd_msc_scsi.c **** }
 1848              		.loc 1 759 3 is_stmt 1 view .LVU639
 759:Middlewares/ST/STM32_USB_Device_Library/Class/MSC/Src/usbd_msc_scsi.c **** }
 1849              		.loc 1 759 10 is_stmt 0 view .LVU640
 1850 008c 3946     		mov	r1, r7
 1851 008e 2846     		mov	r0, r5
 1852 0090 FFF7FEFF 		bl	SCSI_ProcessRead
 1853              	.LVL178:
 1854              	.L116:
 760:Middlewares/ST/STM32_USB_Device_Library/Class/MSC/Src/usbd_msc_scsi.c **** 
 1855              		.loc 1 760 1 view .LVU641
 1856 0094 F8BD     		pop	{r3, r4, r5, r6, r7, pc}
 1857              	.LVL179:
 1858              	.L125:
 718:Middlewares/ST/STM32_USB_Device_Library/Class/MSC/Src/usbd_msc_scsi.c ****       return -1;
 1859              		.loc 1 718 7 is_stmt 1 view .LVU642
 1860 0096 2023     		movs	r3, #32
 1861 0098 0522     		movs	r2, #5
 1862 009a 94F81D12 		ldrb	r1, [r4, #541]	@ zero_extendqisi2
 1863              	.LVL180:
 718:Middlewares/ST/STM32_USB_Device_Library/Class/MSC/Src/usbd_msc_scsi.c ****       return -1;
ARM GAS  /tmp/cc2SMzdz.s 			page 65


 1864              		.loc 1 718 7 is_stmt 0 view .LVU643
 1865 009e FFF7FEFF 		bl	SCSI_SenseCode
 1866              	.LVL181:
 719:Middlewares/ST/STM32_USB_Device_Library/Class/MSC/Src/usbd_msc_scsi.c ****     }
 1867              		.loc 1 719 7 is_stmt 1 view .LVU644
 719:Middlewares/ST/STM32_USB_Device_Library/Class/MSC/Src/usbd_msc_scsi.c ****     }
 1868              		.loc 1 719 14 is_stmt 0 view .LVU645
 1869 00a2 4FF0FF30 		mov	r0, #-1
 1870 00a6 F5E7     		b	.L116
 1871              	.LVL182:
 1872              	.L126:
 724:Middlewares/ST/STM32_USB_Device_Library/Class/MSC/Src/usbd_msc_scsi.c **** 
 1873              		.loc 1 724 7 is_stmt 1 view .LVU646
 1874 00a8 3A23     		movs	r3, #58
 1875 00aa FFF7FEFF 		bl	SCSI_SenseCode
 1876              	.LVL183:
 726:Middlewares/ST/STM32_USB_Device_Library/Class/MSC/Src/usbd_msc_scsi.c ****     }
 1877              		.loc 1 726 7 view .LVU647
 726:Middlewares/ST/STM32_USB_Device_Library/Class/MSC/Src/usbd_msc_scsi.c ****     }
 1878              		.loc 1 726 14 is_stmt 0 view .LVU648
 1879 00ae 4FF0FF30 		mov	r0, #-1
 1880 00b2 EFE7     		b	.L116
 1881              	.L127:
 731:Middlewares/ST/STM32_USB_Device_Library/Class/MSC/Src/usbd_msc_scsi.c ****       return -1;
 1882              		.loc 1 731 7 is_stmt 1 view .LVU649
 1883 00b4 3A23     		movs	r3, #58
 1884 00b6 0222     		movs	r2, #2
 1885 00b8 3946     		mov	r1, r7
 1886 00ba 2846     		mov	r0, r5
 1887 00bc FFF7FEFF 		bl	SCSI_SenseCode
 1888              	.LVL184:
 732:Middlewares/ST/STM32_USB_Device_Library/Class/MSC/Src/usbd_msc_scsi.c ****     }
 1889              		.loc 1 732 7 view .LVU650
 732:Middlewares/ST/STM32_USB_Device_Library/Class/MSC/Src/usbd_msc_scsi.c ****     }
 1890              		.loc 1 732 14 is_stmt 0 view .LVU651
 1891 00c0 4FF0FF30 		mov	r0, #-1
 1892 00c4 E6E7     		b	.L116
 1893              	.L128:
 751:Middlewares/ST/STM32_USB_Device_Library/Class/MSC/Src/usbd_msc_scsi.c ****       return -1;
 1894              		.loc 1 751 7 is_stmt 1 view .LVU652
 1895 00c6 2023     		movs	r3, #32
 1896 00c8 0522     		movs	r2, #5
 1897 00ca 94F81D12 		ldrb	r1, [r4, #541]	@ zero_extendqisi2
 1898 00ce 2846     		mov	r0, r5
 1899 00d0 FFF7FEFF 		bl	SCSI_SenseCode
 1900              	.LVL185:
 752:Middlewares/ST/STM32_USB_Device_Library/Class/MSC/Src/usbd_msc_scsi.c ****     }
 1901              		.loc 1 752 7 view .LVU653
 752:Middlewares/ST/STM32_USB_Device_Library/Class/MSC/Src/usbd_msc_scsi.c ****     }
 1902              		.loc 1 752 14 is_stmt 0 view .LVU654
 1903 00d4 4FF0FF30 		mov	r0, #-1
 1904 00d8 DCE7     		b	.L116
 1905              	.LVL186:
 1906              	.L122:
 710:Middlewares/ST/STM32_USB_Device_Library/Class/MSC/Src/usbd_msc_scsi.c ****   }
 1907              		.loc 1 710 12 view .LVU655
 1908 00da 4FF0FF30 		mov	r0, #-1
ARM GAS  /tmp/cc2SMzdz.s 			page 66


 1909              	.LVL187:
 710:Middlewares/ST/STM32_USB_Device_Library/Class/MSC/Src/usbd_msc_scsi.c ****   }
 1910              		.loc 1 710 12 view .LVU656
 1911 00de D9E7     		b	.L116
 1912              	.LVL188:
 1913              	.L123:
 745:Middlewares/ST/STM32_USB_Device_Library/Class/MSC/Src/usbd_msc_scsi.c ****     }
 1914              		.loc 1 745 14 view .LVU657
 1915 00e0 4FF0FF30 		mov	r0, #-1
 1916 00e4 D6E7     		b	.L116
 1917              		.cfi_endproc
 1918              	.LFE152:
 1920              		.section	.text.SCSI_Read12,"ax",%progbits
 1921              		.align	1
 1922              		.syntax unified
 1923              		.thumb
 1924              		.thumb_func
 1925              		.fpu fpv4-sp-d16
 1927              	SCSI_Read12:
 1928              	.LVL189:
 1929              	.LFB153:
 771:Middlewares/ST/STM32_USB_Device_Library/Class/MSC/Src/usbd_msc_scsi.c ****   USBD_MSC_BOT_HandleTypeDef *hmsc = (USBD_MSC_BOT_HandleTypeDef *)pdev->pClassDataCmsit[pdev->clas
 1930              		.loc 1 771 1 is_stmt 1 view -0
 1931              		.cfi_startproc
 1932              		@ args = 0, pretend = 0, frame = 0
 1933              		@ frame_needed = 0, uses_anonymous_args = 0
 771:Middlewares/ST/STM32_USB_Device_Library/Class/MSC/Src/usbd_msc_scsi.c ****   USBD_MSC_BOT_HandleTypeDef *hmsc = (USBD_MSC_BOT_HandleTypeDef *)pdev->pClassDataCmsit[pdev->clas
 1934              		.loc 1 771 1 is_stmt 0 view .LVU659
 1935 0000 F8B5     		push	{r3, r4, r5, r6, r7, lr}
 1936              	.LCFI16:
 1937              		.cfi_def_cfa_offset 24
 1938              		.cfi_offset 3, -24
 1939              		.cfi_offset 4, -20
 1940              		.cfi_offset 5, -16
 1941              		.cfi_offset 6, -12
 1942              		.cfi_offset 7, -8
 1943              		.cfi_offset 14, -4
 1944 0002 1546     		mov	r5, r2
 772:Middlewares/ST/STM32_USB_Device_Library/Class/MSC/Src/usbd_msc_scsi.c **** 
 1945              		.loc 1 772 3 is_stmt 1 view .LVU660
 772:Middlewares/ST/STM32_USB_Device_Library/Class/MSC/Src/usbd_msc_scsi.c **** 
 1946              		.loc 1 772 94 is_stmt 0 view .LVU661
 1947 0004 D0F8D432 		ldr	r3, [r0, #724]
 772:Middlewares/ST/STM32_USB_Device_Library/Class/MSC/Src/usbd_msc_scsi.c **** 
 1948              		.loc 1 772 31 view .LVU662
 1949 0008 03F1B002 		add	r2, r3, #176
 1950              	.LVL190:
 772:Middlewares/ST/STM32_USB_Device_Library/Class/MSC/Src/usbd_msc_scsi.c **** 
 1951              		.loc 1 772 31 view .LVU663
 1952 000c 50F82240 		ldr	r4, [r0, r2, lsl #2]
 1953              	.LVL191:
 774:Middlewares/ST/STM32_USB_Device_Library/Class/MSC/Src/usbd_msc_scsi.c ****   {
 1954              		.loc 1 774 3 is_stmt 1 view .LVU664
 774:Middlewares/ST/STM32_USB_Device_Library/Class/MSC/Src/usbd_msc_scsi.c ****   {
 1955              		.loc 1 774 6 is_stmt 0 view .LVU665
 1956 0010 002C     		cmp	r4, #0
 1957 0012 69D0     		beq	.L136
ARM GAS  /tmp/cc2SMzdz.s 			page 67


 1958 0014 0646     		mov	r6, r0
 1959 0016 0F46     		mov	r7, r1
 779:Middlewares/ST/STM32_USB_Device_Library/Class/MSC/Src/usbd_msc_scsi.c ****   {
 1960              		.loc 1 779 3 is_stmt 1 view .LVU666
 779:Middlewares/ST/STM32_USB_Device_Library/Class/MSC/Src/usbd_msc_scsi.c ****   {
 1961              		.loc 1 779 11 is_stmt 0 view .LVU667
 1962 0018 227A     		ldrb	r2, [r4, #8]	@ zero_extendqisi2
 779:Middlewares/ST/STM32_USB_Device_Library/Class/MSC/Src/usbd_msc_scsi.c ****   {
 1963              		.loc 1 779 6 view .LVU668
 1964 001a 002A     		cmp	r2, #0
 1965 001c 3AD1     		bne	.L131
 782:Middlewares/ST/STM32_USB_Device_Library/Class/MSC/Src/usbd_msc_scsi.c ****     {
 1966              		.loc 1 782 5 is_stmt 1 view .LVU669
 782:Middlewares/ST/STM32_USB_Device_Library/Class/MSC/Src/usbd_msc_scsi.c ****     {
 1967              		.loc 1 782 37 is_stmt 0 view .LVU670
 1968 001e 94F91C22 		ldrsb	r2, [r4, #540]
 782:Middlewares/ST/STM32_USB_Device_Library/Class/MSC/Src/usbd_msc_scsi.c ****     {
 1969              		.loc 1 782 8 view .LVU671
 1970 0022 002A     		cmp	r2, #0
 1971 0024 3EDA     		bge	.L139
 788:Middlewares/ST/STM32_USB_Device_Library/Class/MSC/Src/usbd_msc_scsi.c ****     {
 1972              		.loc 1 788 5 is_stmt 1 view .LVU672
 788:Middlewares/ST/STM32_USB_Device_Library/Class/MSC/Src/usbd_msc_scsi.c ****     {
 1973              		.loc 1 788 13 is_stmt 0 view .LVU673
 1974 0026 94F86222 		ldrb	r2, [r4, #610]	@ zero_extendqisi2
 788:Middlewares/ST/STM32_USB_Device_Library/Class/MSC/Src/usbd_msc_scsi.c ****     {
 1975              		.loc 1 788 8 view .LVU674
 1976 002a 022A     		cmp	r2, #2
 1977 002c 43D0     		beq	.L140
 794:Middlewares/ST/STM32_USB_Device_Library/Class/MSC/Src/usbd_msc_scsi.c ****     {
 1978              		.loc 1 794 5 is_stmt 1 view .LVU675
 794:Middlewares/ST/STM32_USB_Device_Library/Class/MSC/Src/usbd_msc_scsi.c ****     {
 1979              		.loc 1 794 48 is_stmt 0 view .LVU676
 1980 002e B033     		adds	r3, r3, #176
 1981 0030 00EB8303 		add	r3, r0, r3, lsl #2
 1982 0034 5B68     		ldr	r3, [r3, #4]
 794:Middlewares/ST/STM32_USB_Device_Library/Class/MSC/Src/usbd_msc_scsi.c ****     {
 1983              		.loc 1 794 64 view .LVU677
 1984 0036 9B68     		ldr	r3, [r3, #8]
 794:Middlewares/ST/STM32_USB_Device_Library/Class/MSC/Src/usbd_msc_scsi.c ****     {
 1985              		.loc 1 794 10 view .LVU678
 1986 0038 0846     		mov	r0, r1
 1987              	.LVL192:
 794:Middlewares/ST/STM32_USB_Device_Library/Class/MSC/Src/usbd_msc_scsi.c ****     {
 1988              		.loc 1 794 10 view .LVU679
 1989 003a 9847     		blx	r3
 1990              	.LVL193:
 794:Middlewares/ST/STM32_USB_Device_Library/Class/MSC/Src/usbd_msc_scsi.c ****     {
 1991              		.loc 1 794 8 view .LVU680
 1992 003c 0028     		cmp	r0, #0
 1993 003e 40D1     		bne	.L141
 800:Middlewares/ST/STM32_USB_Device_Library/Class/MSC/Src/usbd_msc_scsi.c ****                           ((uint32_t)params[3] << 16) |
 1994              		.loc 1 800 5 is_stmt 1 view .LVU681
 800:Middlewares/ST/STM32_USB_Device_Library/Class/MSC/Src/usbd_msc_scsi.c ****                           ((uint32_t)params[3] << 16) |
 1995              		.loc 1 800 44 is_stmt 0 view .LVU682
 1996 0040 AB78     		ldrb	r3, [r5, #2]	@ zero_extendqisi2
 801:Middlewares/ST/STM32_USB_Device_Library/Class/MSC/Src/usbd_msc_scsi.c ****                           ((uint32_t)params[4] <<  8) |
ARM GAS  /tmp/cc2SMzdz.s 			page 68


 1997              		.loc 1 801 44 view .LVU683
 1998 0042 EA78     		ldrb	r2, [r5, #3]	@ zero_extendqisi2
 801:Middlewares/ST/STM32_USB_Device_Library/Class/MSC/Src/usbd_msc_scsi.c ****                           ((uint32_t)params[4] <<  8) |
 1999              		.loc 1 801 48 view .LVU684
 2000 0044 1204     		lsls	r2, r2, #16
 800:Middlewares/ST/STM32_USB_Device_Library/Class/MSC/Src/usbd_msc_scsi.c ****                           ((uint32_t)params[3] << 16) |
 2001              		.loc 1 800 55 view .LVU685
 2002 0046 42EA0362 		orr	r2, r2, r3, lsl #24
 802:Middlewares/ST/STM32_USB_Device_Library/Class/MSC/Src/usbd_msc_scsi.c ****                           (uint32_t)params[5];
 2003              		.loc 1 802 44 view .LVU686
 2004 004a 2B79     		ldrb	r3, [r5, #4]	@ zero_extendqisi2
 801:Middlewares/ST/STM32_USB_Device_Library/Class/MSC/Src/usbd_msc_scsi.c ****                           ((uint32_t)params[4] <<  8) |
 2005              		.loc 1 801 55 view .LVU687
 2006 004c 42EA0322 		orr	r2, r2, r3, lsl #8
 803:Middlewares/ST/STM32_USB_Device_Library/Class/MSC/Src/usbd_msc_scsi.c **** 
 2007              		.loc 1 803 43 view .LVU688
 2008 0050 6B79     		ldrb	r3, [r5, #5]	@ zero_extendqisi2
 802:Middlewares/ST/STM32_USB_Device_Library/Class/MSC/Src/usbd_msc_scsi.c ****                           (uint32_t)params[5];
 2009              		.loc 1 802 55 view .LVU689
 2010 0052 1A43     		orrs	r2, r2, r3
 800:Middlewares/ST/STM32_USB_Device_Library/Class/MSC/Src/usbd_msc_scsi.c ****                           ((uint32_t)params[3] << 16) |
 2011              		.loc 1 800 25 view .LVU690
 2012 0054 C4F86C22 		str	r2, [r4, #620]
 805:Middlewares/ST/STM32_USB_Device_Library/Class/MSC/Src/usbd_msc_scsi.c ****                          ((uint32_t)params[7] << 16) |
 2013              		.loc 1 805 5 is_stmt 1 view .LVU691
 805:Middlewares/ST/STM32_USB_Device_Library/Class/MSC/Src/usbd_msc_scsi.c ****                          ((uint32_t)params[7] << 16) |
 2014              		.loc 1 805 43 is_stmt 0 view .LVU692
 2015 0058 A979     		ldrb	r1, [r5, #6]	@ zero_extendqisi2
 806:Middlewares/ST/STM32_USB_Device_Library/Class/MSC/Src/usbd_msc_scsi.c ****                          ((uint32_t)params[8] << 8) |
 2016              		.loc 1 806 43 view .LVU693
 2017 005a EB79     		ldrb	r3, [r5, #7]	@ zero_extendqisi2
 806:Middlewares/ST/STM32_USB_Device_Library/Class/MSC/Src/usbd_msc_scsi.c ****                          ((uint32_t)params[8] << 8) |
 2018              		.loc 1 806 47 view .LVU694
 2019 005c 1B04     		lsls	r3, r3, #16
 805:Middlewares/ST/STM32_USB_Device_Library/Class/MSC/Src/usbd_msc_scsi.c ****                          ((uint32_t)params[7] << 16) |
 2020              		.loc 1 805 54 view .LVU695
 2021 005e 43EA0163 		orr	r3, r3, r1, lsl #24
 807:Middlewares/ST/STM32_USB_Device_Library/Class/MSC/Src/usbd_msc_scsi.c ****                          (uint32_t)params[9];
 2022              		.loc 1 807 43 view .LVU696
 2023 0062 297A     		ldrb	r1, [r5, #8]	@ zero_extendqisi2
 806:Middlewares/ST/STM32_USB_Device_Library/Class/MSC/Src/usbd_msc_scsi.c ****                          ((uint32_t)params[8] << 8) |
 2024              		.loc 1 806 54 view .LVU697
 2025 0064 43EA0123 		orr	r3, r3, r1, lsl #8
 808:Middlewares/ST/STM32_USB_Device_Library/Class/MSC/Src/usbd_msc_scsi.c **** 
 2026              		.loc 1 808 42 view .LVU698
 2027 0068 697A     		ldrb	r1, [r5, #9]	@ zero_extendqisi2
 807:Middlewares/ST/STM32_USB_Device_Library/Class/MSC/Src/usbd_msc_scsi.c ****                          (uint32_t)params[9];
 2028              		.loc 1 807 53 view .LVU699
 2029 006a 0B43     		orrs	r3, r3, r1
 805:Middlewares/ST/STM32_USB_Device_Library/Class/MSC/Src/usbd_msc_scsi.c ****                          ((uint32_t)params[7] << 16) |
 2030              		.loc 1 805 24 view .LVU700
 2031 006c C4F87032 		str	r3, [r4, #624]
 810:Middlewares/ST/STM32_USB_Device_Library/Class/MSC/Src/usbd_msc_scsi.c ****                                hmsc->scsi_blk_len) < 0)
 2032              		.loc 1 810 5 is_stmt 1 view .LVU701
 810:Middlewares/ST/STM32_USB_Device_Library/Class/MSC/Src/usbd_msc_scsi.c ****                                hmsc->scsi_blk_len) < 0)
 2033              		.loc 1 810 9 is_stmt 0 view .LVU702
 2034 0070 3946     		mov	r1, r7
ARM GAS  /tmp/cc2SMzdz.s 			page 69


 2035 0072 3046     		mov	r0, r6
 2036 0074 FFF7FEFF 		bl	SCSI_CheckAddressRange
 2037              	.LVL194:
 810:Middlewares/ST/STM32_USB_Device_Library/Class/MSC/Src/usbd_msc_scsi.c ****                                hmsc->scsi_blk_len) < 0)
 2038              		.loc 1 810 8 view .LVU703
 2039 0078 0028     		cmp	r0, #0
 2040 007a 38DB     		blt	.L137
 817:Middlewares/ST/STM32_USB_Device_Library/Class/MSC/Src/usbd_msc_scsi.c ****     {
 2041              		.loc 1 817 5 is_stmt 1 view .LVU704
 817:Middlewares/ST/STM32_USB_Device_Library/Class/MSC/Src/usbd_msc_scsi.c ****     {
 2042              		.loc 1 817 18 is_stmt 0 view .LVU705
 2043 007c D4F81822 		ldr	r2, [r4, #536]
 817:Middlewares/ST/STM32_USB_Device_Library/Class/MSC/Src/usbd_msc_scsi.c ****     {
 2044              		.loc 1 817 39 view .LVU706
 2045 0080 D4F87032 		ldr	r3, [r4, #624]
 817:Middlewares/ST/STM32_USB_Device_Library/Class/MSC/Src/usbd_msc_scsi.c ****     {
 2046              		.loc 1 817 60 view .LVU707
 2047 0084 B4F86412 		ldrh	r1, [r4, #612]
 817:Middlewares/ST/STM32_USB_Device_Library/Class/MSC/Src/usbd_msc_scsi.c ****     {
 2048              		.loc 1 817 54 view .LVU708
 2049 0088 01FB03F3 		mul	r3, r1, r3
 817:Middlewares/ST/STM32_USB_Device_Library/Class/MSC/Src/usbd_msc_scsi.c ****     {
 2050              		.loc 1 817 8 view .LVU709
 2051 008c 9A42     		cmp	r2, r3
 2052 008e 21D1     		bne	.L142
 823:Middlewares/ST/STM32_USB_Device_Library/Class/MSC/Src/usbd_msc_scsi.c ****   }
 2053              		.loc 1 823 5 is_stmt 1 view .LVU710
 823:Middlewares/ST/STM32_USB_Device_Library/Class/MSC/Src/usbd_msc_scsi.c ****   }
 2054              		.loc 1 823 21 is_stmt 0 view .LVU711
 2055 0090 0223     		movs	r3, #2
 2056 0092 2372     		strb	r3, [r4, #8]
 2057              	.L131:
 825:Middlewares/ST/STM32_USB_Device_Library/Class/MSC/Src/usbd_msc_scsi.c **** 
 2058              		.loc 1 825 3 is_stmt 1 view .LVU712
 825:Middlewares/ST/STM32_USB_Device_Library/Class/MSC/Src/usbd_msc_scsi.c **** 
 2059              		.loc 1 825 25 is_stmt 0 view .LVU713
 2060 0094 4FF40073 		mov	r3, #512
 2061 0098 E360     		str	r3, [r4, #12]
 827:Middlewares/ST/STM32_USB_Device_Library/Class/MSC/Src/usbd_msc_scsi.c **** }
 2062              		.loc 1 827 3 is_stmt 1 view .LVU714
 827:Middlewares/ST/STM32_USB_Device_Library/Class/MSC/Src/usbd_msc_scsi.c **** }
 2063              		.loc 1 827 10 is_stmt 0 view .LVU715
 2064 009a 3946     		mov	r1, r7
 2065 009c 3046     		mov	r0, r6
 2066 009e FFF7FEFF 		bl	SCSI_ProcessRead
 2067              	.LVL195:
 2068              	.L130:
 828:Middlewares/ST/STM32_USB_Device_Library/Class/MSC/Src/usbd_msc_scsi.c **** 
 2069              		.loc 1 828 1 view .LVU716
 2070 00a2 F8BD     		pop	{r3, r4, r5, r6, r7, pc}
 2071              	.LVL196:
 2072              	.L139:
 784:Middlewares/ST/STM32_USB_Device_Library/Class/MSC/Src/usbd_msc_scsi.c ****       return -1;
 2073              		.loc 1 784 7 is_stmt 1 view .LVU717
 2074 00a4 2023     		movs	r3, #32
 2075 00a6 0522     		movs	r2, #5
 2076 00a8 94F81D12 		ldrb	r1, [r4, #541]	@ zero_extendqisi2
ARM GAS  /tmp/cc2SMzdz.s 			page 70


 2077              	.LVL197:
 784:Middlewares/ST/STM32_USB_Device_Library/Class/MSC/Src/usbd_msc_scsi.c ****       return -1;
 2078              		.loc 1 784 7 is_stmt 0 view .LVU718
 2079 00ac FFF7FEFF 		bl	SCSI_SenseCode
 2080              	.LVL198:
 785:Middlewares/ST/STM32_USB_Device_Library/Class/MSC/Src/usbd_msc_scsi.c ****     }
 2081              		.loc 1 785 7 is_stmt 1 view .LVU719
 785:Middlewares/ST/STM32_USB_Device_Library/Class/MSC/Src/usbd_msc_scsi.c ****     }
 2082              		.loc 1 785 14 is_stmt 0 view .LVU720
 2083 00b0 4FF0FF30 		mov	r0, #-1
 2084 00b4 F5E7     		b	.L130
 2085              	.LVL199:
 2086              	.L140:
 790:Middlewares/ST/STM32_USB_Device_Library/Class/MSC/Src/usbd_msc_scsi.c ****       return -1;
 2087              		.loc 1 790 7 is_stmt 1 view .LVU721
 2088 00b6 3A23     		movs	r3, #58
 2089 00b8 FFF7FEFF 		bl	SCSI_SenseCode
 2090              	.LVL200:
 791:Middlewares/ST/STM32_USB_Device_Library/Class/MSC/Src/usbd_msc_scsi.c ****     }
 2091              		.loc 1 791 7 view .LVU722
 791:Middlewares/ST/STM32_USB_Device_Library/Class/MSC/Src/usbd_msc_scsi.c ****     }
 2092              		.loc 1 791 14 is_stmt 0 view .LVU723
 2093 00bc 4FF0FF30 		mov	r0, #-1
 2094 00c0 EFE7     		b	.L130
 2095              	.L141:
 796:Middlewares/ST/STM32_USB_Device_Library/Class/MSC/Src/usbd_msc_scsi.c ****       return -1;
 2096              		.loc 1 796 7 is_stmt 1 view .LVU724
 2097 00c2 3A23     		movs	r3, #58
 2098 00c4 0222     		movs	r2, #2
 2099 00c6 3946     		mov	r1, r7
 2100 00c8 3046     		mov	r0, r6
 2101 00ca FFF7FEFF 		bl	SCSI_SenseCode
 2102              	.LVL201:
 797:Middlewares/ST/STM32_USB_Device_Library/Class/MSC/Src/usbd_msc_scsi.c ****     }
 2103              		.loc 1 797 7 view .LVU725
 797:Middlewares/ST/STM32_USB_Device_Library/Class/MSC/Src/usbd_msc_scsi.c ****     }
 2104              		.loc 1 797 14 is_stmt 0 view .LVU726
 2105 00ce 4FF0FF30 		mov	r0, #-1
 2106 00d2 E6E7     		b	.L130
 2107              	.L142:
 819:Middlewares/ST/STM32_USB_Device_Library/Class/MSC/Src/usbd_msc_scsi.c ****       return -1;
 2108              		.loc 1 819 7 is_stmt 1 view .LVU727
 2109 00d4 2023     		movs	r3, #32
 2110 00d6 0522     		movs	r2, #5
 2111 00d8 94F81D12 		ldrb	r1, [r4, #541]	@ zero_extendqisi2
 2112 00dc 3046     		mov	r0, r6
 2113 00de FFF7FEFF 		bl	SCSI_SenseCode
 2114              	.LVL202:
 820:Middlewares/ST/STM32_USB_Device_Library/Class/MSC/Src/usbd_msc_scsi.c ****     }
 2115              		.loc 1 820 7 view .LVU728
 820:Middlewares/ST/STM32_USB_Device_Library/Class/MSC/Src/usbd_msc_scsi.c ****     }
 2116              		.loc 1 820 14 is_stmt 0 view .LVU729
 2117 00e2 4FF0FF30 		mov	r0, #-1
 2118 00e6 DCE7     		b	.L130
 2119              	.LVL203:
 2120              	.L136:
 776:Middlewares/ST/STM32_USB_Device_Library/Class/MSC/Src/usbd_msc_scsi.c ****   }
ARM GAS  /tmp/cc2SMzdz.s 			page 71


 2121              		.loc 1 776 12 view .LVU730
 2122 00e8 4FF0FF30 		mov	r0, #-1
 2123              	.LVL204:
 776:Middlewares/ST/STM32_USB_Device_Library/Class/MSC/Src/usbd_msc_scsi.c ****   }
 2124              		.loc 1 776 12 view .LVU731
 2125 00ec D9E7     		b	.L130
 2126              	.LVL205:
 2127              	.L137:
 813:Middlewares/ST/STM32_USB_Device_Library/Class/MSC/Src/usbd_msc_scsi.c ****     }
 2128              		.loc 1 813 14 view .LVU732
 2129 00ee 4FF0FF30 		mov	r0, #-1
 2130 00f2 D6E7     		b	.L130
 2131              		.cfi_endproc
 2132              	.LFE153:
 2134              		.section	.text.SCSI_ProcessWrite,"ax",%progbits
 2135              		.align	1
 2136              		.syntax unified
 2137              		.thumb
 2138              		.thumb_func
 2139              		.fpu fpv4-sp-d16
 2141              	SCSI_ProcessWrite:
 2142              	.LVL206:
 2143              	.LFB159:
1129:Middlewares/ST/STM32_USB_Device_Library/Class/MSC/Src/usbd_msc_scsi.c ****   USBD_MSC_BOT_HandleTypeDef *hmsc = (USBD_MSC_BOT_HandleTypeDef *)pdev->pClassDataCmsit[pdev->clas
 2144              		.loc 1 1129 1 is_stmt 1 view -0
 2145              		.cfi_startproc
 2146              		@ args = 0, pretend = 0, frame = 0
 2147              		@ frame_needed = 0, uses_anonymous_args = 0
1129:Middlewares/ST/STM32_USB_Device_Library/Class/MSC/Src/usbd_msc_scsi.c ****   USBD_MSC_BOT_HandleTypeDef *hmsc = (USBD_MSC_BOT_HandleTypeDef *)pdev->pClassDataCmsit[pdev->clas
 2148              		.loc 1 1129 1 is_stmt 0 view .LVU734
 2149 0000 2DE9F843 		push	{r3, r4, r5, r6, r7, r8, r9, lr}
 2150              	.LCFI17:
 2151              		.cfi_def_cfa_offset 32
 2152              		.cfi_offset 3, -32
 2153              		.cfi_offset 4, -28
 2154              		.cfi_offset 5, -24
 2155              		.cfi_offset 6, -20
 2156              		.cfi_offset 7, -16
 2157              		.cfi_offset 8, -12
 2158              		.cfi_offset 9, -8
 2159              		.cfi_offset 14, -4
1130:Middlewares/ST/STM32_USB_Device_Library/Class/MSC/Src/usbd_msc_scsi.c ****   uint32_t len;
 2160              		.loc 1 1130 3 is_stmt 1 view .LVU735
1130:Middlewares/ST/STM32_USB_Device_Library/Class/MSC/Src/usbd_msc_scsi.c ****   uint32_t len;
 2161              		.loc 1 1130 94 is_stmt 0 view .LVU736
 2162 0004 D0F8D422 		ldr	r2, [r0, #724]
1130:Middlewares/ST/STM32_USB_Device_Library/Class/MSC/Src/usbd_msc_scsi.c ****   uint32_t len;
 2163              		.loc 1 1130 31 view .LVU737
 2164 0008 02F1B003 		add	r3, r2, #176
 2165 000c 50F82340 		ldr	r4, [r0, r3, lsl #2]
 2166              	.LVL207:
1131:Middlewares/ST/STM32_USB_Device_Library/Class/MSC/Src/usbd_msc_scsi.c **** 
 2167              		.loc 1 1131 3 is_stmt 1 view .LVU738
1133:Middlewares/ST/STM32_USB_Device_Library/Class/MSC/Src/usbd_msc_scsi.c ****   {
 2168              		.loc 1 1133 3 view .LVU739
1133:Middlewares/ST/STM32_USB_Device_Library/Class/MSC/Src/usbd_msc_scsi.c ****   {
 2169              		.loc 1 1133 6 is_stmt 0 view .LVU740
ARM GAS  /tmp/cc2SMzdz.s 			page 72


 2170 0010 002C     		cmp	r4, #0
 2171 0012 51D0     		beq	.L147
 2172 0014 0646     		mov	r6, r0
 2173 0016 0F46     		mov	r7, r1
1138:Middlewares/ST/STM32_USB_Device_Library/Class/MSC/Src/usbd_msc_scsi.c **** 
 2174              		.loc 1 1138 3 is_stmt 1 view .LVU741
1138:Middlewares/ST/STM32_USB_Device_Library/Class/MSC/Src/usbd_msc_scsi.c **** 
 2175              		.loc 1 1138 13 is_stmt 0 view .LVU742
 2176 0018 D4F87052 		ldr	r5, [r4, #624]
1138:Middlewares/ST/STM32_USB_Device_Library/Class/MSC/Src/usbd_msc_scsi.c **** 
 2177              		.loc 1 1138 34 view .LVU743
 2178 001c B4F86432 		ldrh	r3, [r4, #612]
1138:Middlewares/ST/STM32_USB_Device_Library/Class/MSC/Src/usbd_msc_scsi.c **** 
 2179              		.loc 1 1138 7 view .LVU744
 2180 0020 03FB05F5 		mul	r5, r3, r5
 2181              	.LVL208:
1145:Middlewares/ST/STM32_USB_Device_Library/Class/MSC/Src/usbd_msc_scsi.c **** 
 2182              		.loc 1 1145 3 is_stmt 1 view .LVU745
1145:Middlewares/ST/STM32_USB_Device_Library/Class/MSC/Src/usbd_msc_scsi.c **** 
 2183              		.loc 1 1145 7 is_stmt 0 view .LVU746
 2184 0024 B5F5007F 		cmp	r5, #512
 2185 0028 28BF     		it	cs
 2186 002a 4FF40075 		movcs	r5, #512
 2187              	.LVL209:
1147:Middlewares/ST/STM32_USB_Device_Library/Class/MSC/Src/usbd_msc_scsi.c ****                                                                      hmsc->scsi_blk_addr,
 2188              		.loc 1 1147 3 is_stmt 1 view .LVU747
1147:Middlewares/ST/STM32_USB_Device_Library/Class/MSC/Src/usbd_msc_scsi.c ****                                                                      hmsc->scsi_blk_addr,
 2189              		.loc 1 1147 46 is_stmt 0 view .LVU748
 2190 002e B032     		adds	r2, r2, #176
 2191 0030 00EB8202 		add	r2, r0, r2, lsl #2
 2192 0034 5268     		ldr	r2, [r2, #4]
1147:Middlewares/ST/STM32_USB_Device_Library/Class/MSC/Src/usbd_msc_scsi.c ****                                                                      hmsc->scsi_blk_addr,
 2193              		.loc 1 1147 62 view .LVU749
 2194 0036 D2F81490 		ldr	r9, [r2, #20]
1147:Middlewares/ST/STM32_USB_Device_Library/Class/MSC/Src/usbd_msc_scsi.c ****                                                                      hmsc->scsi_blk_addr,
 2195              		.loc 1 1147 79 view .LVU750
 2196 003a 04F11008 		add	r8, r4, #16
1149:Middlewares/ST/STM32_USB_Device_Library/Class/MSC/Src/usbd_msc_scsi.c ****   {
 2197              		.loc 1 1149 75 view .LVU751
 2198 003e B5FBF3F3 		udiv	r3, r5, r3
1147:Middlewares/ST/STM32_USB_Device_Library/Class/MSC/Src/usbd_msc_scsi.c ****                                                                      hmsc->scsi_blk_addr,
 2199              		.loc 1 1147 8 view .LVU752
 2200 0042 9BB2     		uxth	r3, r3
 2201 0044 D4F86C22 		ldr	r2, [r4, #620]
 2202 0048 4146     		mov	r1, r8
 2203              	.LVL210:
1147:Middlewares/ST/STM32_USB_Device_Library/Class/MSC/Src/usbd_msc_scsi.c ****                                                                      hmsc->scsi_blk_addr,
 2204              		.loc 1 1147 8 view .LVU753
 2205 004a 3846     		mov	r0, r7
 2206              	.LVL211:
1147:Middlewares/ST/STM32_USB_Device_Library/Class/MSC/Src/usbd_msc_scsi.c ****                                                                      hmsc->scsi_blk_addr,
 2207              		.loc 1 1147 8 view .LVU754
 2208 004c C847     		blx	r9
 2209              	.LVL212:
1147:Middlewares/ST/STM32_USB_Device_Library/Class/MSC/Src/usbd_msc_scsi.c ****                                                                      hmsc->scsi_blk_addr,
 2210              		.loc 1 1147 6 view .LVU755
 2211 004e 0028     		cmp	r0, #0
ARM GAS  /tmp/cc2SMzdz.s 			page 73


 2212 0050 1ADB     		blt	.L149
1155:Middlewares/ST/STM32_USB_Device_Library/Class/MSC/Src/usbd_msc_scsi.c ****   hmsc->scsi_blk_len -= (len / hmsc->scsi_blk_size);
 2213              		.loc 1 1155 3 is_stmt 1 view .LVU756
1155:Middlewares/ST/STM32_USB_Device_Library/Class/MSC/Src/usbd_msc_scsi.c ****   hmsc->scsi_blk_len -= (len / hmsc->scsi_blk_size);
 2214              		.loc 1 1155 37 is_stmt 0 view .LVU757
 2215 0052 B4F86412 		ldrh	r1, [r4, #612]
1155:Middlewares/ST/STM32_USB_Device_Library/Class/MSC/Src/usbd_msc_scsi.c ****   hmsc->scsi_blk_len -= (len / hmsc->scsi_blk_size);
 2216              		.loc 1 1155 31 view .LVU758
 2217 0056 B5FBF1F0 		udiv	r0, r5, r1
1155:Middlewares/ST/STM32_USB_Device_Library/Class/MSC/Src/usbd_msc_scsi.c ****   hmsc->scsi_blk_len -= (len / hmsc->scsi_blk_size);
 2218              		.loc 1 1155 23 view .LVU759
 2219 005a D4F86C22 		ldr	r2, [r4, #620]
 2220 005e 0244     		add	r2, r2, r0
 2221 0060 C4F86C22 		str	r2, [r4, #620]
1156:Middlewares/ST/STM32_USB_Device_Library/Class/MSC/Src/usbd_msc_scsi.c **** 
 2222              		.loc 1 1156 3 is_stmt 1 view .LVU760
1156:Middlewares/ST/STM32_USB_Device_Library/Class/MSC/Src/usbd_msc_scsi.c **** 
 2223              		.loc 1 1156 22 is_stmt 0 view .LVU761
 2224 0064 D4F87032 		ldr	r3, [r4, #624]
 2225 0068 1B1A     		subs	r3, r3, r0
 2226 006a C4F87032 		str	r3, [r4, #624]
1159:Middlewares/ST/STM32_USB_Device_Library/Class/MSC/Src/usbd_msc_scsi.c **** 
 2227              		.loc 1 1159 3 is_stmt 1 view .LVU762
1159:Middlewares/ST/STM32_USB_Device_Library/Class/MSC/Src/usbd_msc_scsi.c **** 
 2228              		.loc 1 1159 26 is_stmt 0 view .LVU763
 2229 006e D4F83822 		ldr	r2, [r4, #568]
 2230 0072 521B     		subs	r2, r2, r5
 2231 0074 C4F83822 		str	r2, [r4, #568]
1161:Middlewares/ST/STM32_USB_Device_Library/Class/MSC/Src/usbd_msc_scsi.c ****   {
 2232              		.loc 1 1161 3 is_stmt 1 view .LVU764
1161:Middlewares/ST/STM32_USB_Device_Library/Class/MSC/Src/usbd_msc_scsi.c ****   {
 2233              		.loc 1 1161 6 is_stmt 0 view .LVU765
 2234 0078 7BB9     		cbnz	r3, .L146
1163:Middlewares/ST/STM32_USB_Device_Library/Class/MSC/Src/usbd_msc_scsi.c ****   }
 2235              		.loc 1 1163 5 is_stmt 1 view .LVU766
 2236 007a 0021     		movs	r1, #0
 2237 007c 3046     		mov	r0, r6
 2238 007e FFF7FEFF 		bl	MSC_BOT_SendCSW
 2239              	.LVL213:
1173:Middlewares/ST/STM32_USB_Device_Library/Class/MSC/Src/usbd_msc_scsi.c **** }
 2240              		.loc 1 1173 10 is_stmt 0 view .LVU767
 2241 0082 0020     		movs	r0, #0
 2242              	.LVL214:
 2243              	.L144:
1174:Middlewares/ST/STM32_USB_Device_Library/Class/MSC/Src/usbd_msc_scsi.c **** 
 2244              		.loc 1 1174 1 view .LVU768
 2245 0084 BDE8F883 		pop	{r3, r4, r5, r6, r7, r8, r9, pc}
 2246              	.LVL215:
 2247              	.L149:
1151:Middlewares/ST/STM32_USB_Device_Library/Class/MSC/Src/usbd_msc_scsi.c ****     return -1;
 2248              		.loc 1 1151 5 is_stmt 1 view .LVU769
 2249 0088 0323     		movs	r3, #3
 2250 008a 0422     		movs	r2, #4
 2251 008c 3946     		mov	r1, r7
 2252 008e 3046     		mov	r0, r6
 2253 0090 FFF7FEFF 		bl	SCSI_SenseCode
 2254              	.LVL216:
ARM GAS  /tmp/cc2SMzdz.s 			page 74


1152:Middlewares/ST/STM32_USB_Device_Library/Class/MSC/Src/usbd_msc_scsi.c ****   }
 2255              		.loc 1 1152 5 view .LVU770
1152:Middlewares/ST/STM32_USB_Device_Library/Class/MSC/Src/usbd_msc_scsi.c ****   }
 2256              		.loc 1 1152 12 is_stmt 0 view .LVU771
 2257 0094 4FF0FF30 		mov	r0, #-1
 2258 0098 F4E7     		b	.L144
 2259              	.L146:
1167:Middlewares/ST/STM32_USB_Device_Library/Class/MSC/Src/usbd_msc_scsi.c **** 
 2260              		.loc 1 1167 5 is_stmt 1 view .LVU772
1167:Middlewares/ST/STM32_USB_Device_Library/Class/MSC/Src/usbd_msc_scsi.c **** 
 2261              		.loc 1 1167 11 is_stmt 0 view .LVU773
 2262 009a 01FB03F3 		mul	r3, r1, r3
 2263              	.LVL217:
1170:Middlewares/ST/STM32_USB_Device_Library/Class/MSC/Src/usbd_msc_scsi.c ****   }
 2264              		.loc 1 1170 5 is_stmt 1 view .LVU774
1170:Middlewares/ST/STM32_USB_Device_Library/Class/MSC/Src/usbd_msc_scsi.c ****   }
 2265              		.loc 1 1170 11 is_stmt 0 view .LVU775
 2266 009e B3F5007F 		cmp	r3, #512
 2267 00a2 28BF     		it	cs
 2268 00a4 4FF40073 		movcs	r3, #512
 2269              	.LVL218:
1170:Middlewares/ST/STM32_USB_Device_Library/Class/MSC/Src/usbd_msc_scsi.c ****   }
 2270              		.loc 1 1170 11 view .LVU776
 2271 00a8 4246     		mov	r2, r8
 2272 00aa 0549     		ldr	r1, .L150
 2273              	.LVL219:
1170:Middlewares/ST/STM32_USB_Device_Library/Class/MSC/Src/usbd_msc_scsi.c ****   }
 2274              		.loc 1 1170 11 view .LVU777
 2275 00ac 0978     		ldrb	r1, [r1]	@ zero_extendqisi2
 2276 00ae 3046     		mov	r0, r6
 2277 00b0 FFF7FEFF 		bl	USBD_LL_PrepareReceive
 2278              	.LVL220:
1173:Middlewares/ST/STM32_USB_Device_Library/Class/MSC/Src/usbd_msc_scsi.c **** }
 2279              		.loc 1 1173 10 view .LVU778
 2280 00b4 0020     		movs	r0, #0
 2281 00b6 E5E7     		b	.L144
 2282              	.LVL221:
 2283              	.L147:
1135:Middlewares/ST/STM32_USB_Device_Library/Class/MSC/Src/usbd_msc_scsi.c ****   }
 2284              		.loc 1 1135 12 view .LVU779
 2285 00b8 4FF0FF30 		mov	r0, #-1
 2286              	.LVL222:
1135:Middlewares/ST/STM32_USB_Device_Library/Class/MSC/Src/usbd_msc_scsi.c ****   }
 2287              		.loc 1 1135 12 view .LVU780
 2288 00bc E2E7     		b	.L144
 2289              	.L151:
 2290 00be 00BF     		.align	2
 2291              	.L150:
 2292 00c0 00000000 		.word	MSCOutEpAdd
 2293              		.cfi_endproc
 2294              	.LFE159:
 2296              		.section	.text.SCSI_Write10,"ax",%progbits
 2297              		.align	1
 2298              		.syntax unified
 2299              		.thumb
 2300              		.thumb_func
 2301              		.fpu fpv4-sp-d16
ARM GAS  /tmp/cc2SMzdz.s 			page 75


 2303              	SCSI_Write10:
 2304              	.LVL223:
 2305              	.LFB154:
 839:Middlewares/ST/STM32_USB_Device_Library/Class/MSC/Src/usbd_msc_scsi.c ****   USBD_MSC_BOT_HandleTypeDef *hmsc = (USBD_MSC_BOT_HandleTypeDef *)pdev->pClassDataCmsit[pdev->clas
 2306              		.loc 1 839 1 is_stmt 1 view -0
 2307              		.cfi_startproc
 2308              		@ args = 0, pretend = 0, frame = 0
 2309              		@ frame_needed = 0, uses_anonymous_args = 0
 839:Middlewares/ST/STM32_USB_Device_Library/Class/MSC/Src/usbd_msc_scsi.c ****   USBD_MSC_BOT_HandleTypeDef *hmsc = (USBD_MSC_BOT_HandleTypeDef *)pdev->pClassDataCmsit[pdev->clas
 2310              		.loc 1 839 1 is_stmt 0 view .LVU782
 2311 0000 2DE9F041 		push	{r4, r5, r6, r7, r8, lr}
 2312              	.LCFI18:
 2313              		.cfi_def_cfa_offset 24
 2314              		.cfi_offset 4, -24
 2315              		.cfi_offset 5, -20
 2316              		.cfi_offset 6, -16
 2317              		.cfi_offset 7, -12
 2318              		.cfi_offset 8, -8
 2319              		.cfi_offset 14, -4
 2320 0004 1646     		mov	r6, r2
 840:Middlewares/ST/STM32_USB_Device_Library/Class/MSC/Src/usbd_msc_scsi.c ****   uint32_t len;
 2321              		.loc 1 840 3 is_stmt 1 view .LVU783
 840:Middlewares/ST/STM32_USB_Device_Library/Class/MSC/Src/usbd_msc_scsi.c ****   uint32_t len;
 2322              		.loc 1 840 94 is_stmt 0 view .LVU784
 2323 0006 D0F8D432 		ldr	r3, [r0, #724]
 840:Middlewares/ST/STM32_USB_Device_Library/Class/MSC/Src/usbd_msc_scsi.c ****   uint32_t len;
 2324              		.loc 1 840 31 view .LVU785
 2325 000a 03F1B002 		add	r2, r3, #176
 2326              	.LVL224:
 840:Middlewares/ST/STM32_USB_Device_Library/Class/MSC/Src/usbd_msc_scsi.c ****   uint32_t len;
 2327              		.loc 1 840 31 view .LVU786
 2328 000e 50F82240 		ldr	r4, [r0, r2, lsl #2]
 2329              	.LVL225:
 841:Middlewares/ST/STM32_USB_Device_Library/Class/MSC/Src/usbd_msc_scsi.c **** 
 2330              		.loc 1 841 3 is_stmt 1 view .LVU787
 843:Middlewares/ST/STM32_USB_Device_Library/Class/MSC/Src/usbd_msc_scsi.c ****   {
 2331              		.loc 1 843 3 view .LVU788
 843:Middlewares/ST/STM32_USB_Device_Library/Class/MSC/Src/usbd_msc_scsi.c ****   {
 2332              		.loc 1 843 6 is_stmt 0 view .LVU789
 2333 0012 002C     		cmp	r4, #0
 2334 0014 00F08780 		beq	.L160
 2335 0018 0546     		mov	r5, r0
 2336 001a 0F46     		mov	r7, r1
 853:Middlewares/ST/STM32_USB_Device_Library/Class/MSC/Src/usbd_msc_scsi.c ****   {
 2337              		.loc 1 853 3 is_stmt 1 view .LVU790
 853:Middlewares/ST/STM32_USB_Device_Library/Class/MSC/Src/usbd_msc_scsi.c ****   {
 2338              		.loc 1 853 11 is_stmt 0 view .LVU791
 2339 001c 227A     		ldrb	r2, [r4, #8]	@ zero_extendqisi2
 853:Middlewares/ST/STM32_USB_Device_Library/Class/MSC/Src/usbd_msc_scsi.c ****   {
 2340              		.loc 1 853 6 view .LVU792
 2341 001e 002A     		cmp	r2, #0
 2342 0020 7DD1     		bne	.L154
 855:Middlewares/ST/STM32_USB_Device_Library/Class/MSC/Src/usbd_msc_scsi.c ****     {
 2343              		.loc 1 855 5 is_stmt 1 view .LVU793
 855:Middlewares/ST/STM32_USB_Device_Library/Class/MSC/Src/usbd_msc_scsi.c ****     {
 2344              		.loc 1 855 18 is_stmt 0 view .LVU794
 2345 0022 D4F81822 		ldr	r2, [r4, #536]
ARM GAS  /tmp/cc2SMzdz.s 			page 76


 855:Middlewares/ST/STM32_USB_Device_Library/Class/MSC/Src/usbd_msc_scsi.c ****     {
 2346              		.loc 1 855 8 view .LVU795
 2347 0026 002A     		cmp	r2, #0
 2348 0028 4BD0     		beq	.L163
 862:Middlewares/ST/STM32_USB_Device_Library/Class/MSC/Src/usbd_msc_scsi.c ****     {
 2349              		.loc 1 862 5 is_stmt 1 view .LVU796
 862:Middlewares/ST/STM32_USB_Device_Library/Class/MSC/Src/usbd_msc_scsi.c ****     {
 2350              		.loc 1 862 37 is_stmt 0 view .LVU797
 2351 002a 94F91C22 		ldrsb	r2, [r4, #540]
 862:Middlewares/ST/STM32_USB_Device_Library/Class/MSC/Src/usbd_msc_scsi.c ****     {
 2352              		.loc 1 862 8 view .LVU798
 2353 002e 002A     		cmp	r2, #0
 2354 0030 50DB     		blt	.L164
 869:Middlewares/ST/STM32_USB_Device_Library/Class/MSC/Src/usbd_msc_scsi.c ****     {
 2355              		.loc 1 869 5 is_stmt 1 view .LVU799
 869:Middlewares/ST/STM32_USB_Device_Library/Class/MSC/Src/usbd_msc_scsi.c ****     {
 2356              		.loc 1 869 48 is_stmt 0 view .LVU800
 2357 0032 B033     		adds	r3, r3, #176
 2358 0034 00EB8303 		add	r3, r0, r3, lsl #2
 2359 0038 5B68     		ldr	r3, [r3, #4]
 869:Middlewares/ST/STM32_USB_Device_Library/Class/MSC/Src/usbd_msc_scsi.c ****     {
 2360              		.loc 1 869 64 view .LVU801
 2361 003a 9B68     		ldr	r3, [r3, #8]
 869:Middlewares/ST/STM32_USB_Device_Library/Class/MSC/Src/usbd_msc_scsi.c ****     {
 2362              		.loc 1 869 10 view .LVU802
 2363 003c 0846     		mov	r0, r1
 2364              	.LVL226:
 869:Middlewares/ST/STM32_USB_Device_Library/Class/MSC/Src/usbd_msc_scsi.c ****     {
 2365              		.loc 1 869 10 view .LVU803
 2366 003e 9847     		blx	r3
 2367              	.LVL227:
 869:Middlewares/ST/STM32_USB_Device_Library/Class/MSC/Src/usbd_msc_scsi.c ****     {
 2368              		.loc 1 869 8 view .LVU804
 2369 0040 0028     		cmp	r0, #0
 2370 0042 50D1     		bne	.L165
 876:Middlewares/ST/STM32_USB_Device_Library/Class/MSC/Src/usbd_msc_scsi.c ****     {
 2371              		.loc 1 876 5 is_stmt 1 view .LVU805
 876:Middlewares/ST/STM32_USB_Device_Library/Class/MSC/Src/usbd_msc_scsi.c ****     {
 2372              		.loc 1 876 53 is_stmt 0 view .LVU806
 2373 0044 D5F8D432 		ldr	r3, [r5, #724]
 876:Middlewares/ST/STM32_USB_Device_Library/Class/MSC/Src/usbd_msc_scsi.c ****     {
 2374              		.loc 1 876 48 view .LVU807
 2375 0048 B033     		adds	r3, r3, #176
 2376 004a 05EB8303 		add	r3, r5, r3, lsl #2
 2377 004e 5B68     		ldr	r3, [r3, #4]
 876:Middlewares/ST/STM32_USB_Device_Library/Class/MSC/Src/usbd_msc_scsi.c ****     {
 2378              		.loc 1 876 64 view .LVU808
 2379 0050 DB68     		ldr	r3, [r3, #12]
 876:Middlewares/ST/STM32_USB_Device_Library/Class/MSC/Src/usbd_msc_scsi.c ****     {
 2380              		.loc 1 876 10 view .LVU809
 2381 0052 3846     		mov	r0, r7
 2382 0054 9847     		blx	r3
 2383              	.LVL228:
 876:Middlewares/ST/STM32_USB_Device_Library/Class/MSC/Src/usbd_msc_scsi.c ****     {
 2384              		.loc 1 876 8 view .LVU810
 2385 0056 8046     		mov	r8, r0
 2386 0058 0028     		cmp	r0, #0
ARM GAS  /tmp/cc2SMzdz.s 			page 77


 2387 005a 4DD1     		bne	.L166
 882:Middlewares/ST/STM32_USB_Device_Library/Class/MSC/Src/usbd_msc_scsi.c ****                           ((uint32_t)params[3] << 16) |
 2388              		.loc 1 882 5 is_stmt 1 view .LVU811
 882:Middlewares/ST/STM32_USB_Device_Library/Class/MSC/Src/usbd_msc_scsi.c ****                           ((uint32_t)params[3] << 16) |
 2389              		.loc 1 882 44 is_stmt 0 view .LVU812
 2390 005c B278     		ldrb	r2, [r6, #2]	@ zero_extendqisi2
 883:Middlewares/ST/STM32_USB_Device_Library/Class/MSC/Src/usbd_msc_scsi.c ****                           ((uint32_t)params[4] << 8) |
 2391              		.loc 1 883 44 view .LVU813
 2392 005e F378     		ldrb	r3, [r6, #3]	@ zero_extendqisi2
 883:Middlewares/ST/STM32_USB_Device_Library/Class/MSC/Src/usbd_msc_scsi.c ****                           ((uint32_t)params[4] << 8) |
 2393              		.loc 1 883 48 view .LVU814
 2394 0060 1B04     		lsls	r3, r3, #16
 882:Middlewares/ST/STM32_USB_Device_Library/Class/MSC/Src/usbd_msc_scsi.c ****                           ((uint32_t)params[3] << 16) |
 2395              		.loc 1 882 55 view .LVU815
 2396 0062 43EA0263 		orr	r3, r3, r2, lsl #24
 884:Middlewares/ST/STM32_USB_Device_Library/Class/MSC/Src/usbd_msc_scsi.c ****                           (uint32_t)params[5];
 2397              		.loc 1 884 44 view .LVU816
 2398 0066 3279     		ldrb	r2, [r6, #4]	@ zero_extendqisi2
 883:Middlewares/ST/STM32_USB_Device_Library/Class/MSC/Src/usbd_msc_scsi.c ****                           ((uint32_t)params[4] << 8) |
 2399              		.loc 1 883 55 view .LVU817
 2400 0068 43EA0223 		orr	r3, r3, r2, lsl #8
 885:Middlewares/ST/STM32_USB_Device_Library/Class/MSC/Src/usbd_msc_scsi.c **** 
 2401              		.loc 1 885 43 view .LVU818
 2402 006c 7279     		ldrb	r2, [r6, #5]	@ zero_extendqisi2
 884:Middlewares/ST/STM32_USB_Device_Library/Class/MSC/Src/usbd_msc_scsi.c ****                           (uint32_t)params[5];
 2403              		.loc 1 884 54 view .LVU819
 2404 006e 1A43     		orrs	r2, r2, r3
 882:Middlewares/ST/STM32_USB_Device_Library/Class/MSC/Src/usbd_msc_scsi.c ****                           ((uint32_t)params[3] << 16) |
 2405              		.loc 1 882 25 view .LVU820
 2406 0070 C4F86C22 		str	r2, [r4, #620]
 887:Middlewares/ST/STM32_USB_Device_Library/Class/MSC/Src/usbd_msc_scsi.c ****                          (uint32_t)params[8];
 2407              		.loc 1 887 5 is_stmt 1 view .LVU821
 887:Middlewares/ST/STM32_USB_Device_Library/Class/MSC/Src/usbd_msc_scsi.c ****                          (uint32_t)params[8];
 2408              		.loc 1 887 43 is_stmt 0 view .LVU822
 2409 0074 F179     		ldrb	r1, [r6, #7]	@ zero_extendqisi2
 888:Middlewares/ST/STM32_USB_Device_Library/Class/MSC/Src/usbd_msc_scsi.c **** 
 2410              		.loc 1 888 42 view .LVU823
 2411 0076 337A     		ldrb	r3, [r6, #8]	@ zero_extendqisi2
 887:Middlewares/ST/STM32_USB_Device_Library/Class/MSC/Src/usbd_msc_scsi.c ****                          (uint32_t)params[8];
 2412              		.loc 1 887 53 view .LVU824
 2413 0078 43EA0123 		orr	r3, r3, r1, lsl #8
 887:Middlewares/ST/STM32_USB_Device_Library/Class/MSC/Src/usbd_msc_scsi.c ****                          (uint32_t)params[8];
 2414              		.loc 1 887 24 view .LVU825
 2415 007c C4F87032 		str	r3, [r4, #624]
 891:Middlewares/ST/STM32_USB_Device_Library/Class/MSC/Src/usbd_msc_scsi.c ****                                hmsc->scsi_blk_len) < 0)
 2416              		.loc 1 891 5 is_stmt 1 view .LVU826
 891:Middlewares/ST/STM32_USB_Device_Library/Class/MSC/Src/usbd_msc_scsi.c ****                                hmsc->scsi_blk_len) < 0)
 2417              		.loc 1 891 9 is_stmt 0 view .LVU827
 2418 0080 3946     		mov	r1, r7
 2419 0082 2846     		mov	r0, r5
 2420 0084 FFF7FEFF 		bl	SCSI_CheckAddressRange
 2421              	.LVL229:
 891:Middlewares/ST/STM32_USB_Device_Library/Class/MSC/Src/usbd_msc_scsi.c ****                                hmsc->scsi_blk_len) < 0)
 2422              		.loc 1 891 8 view .LVU828
 2423 0088 0028     		cmp	r0, #0
 2424 008a 4FDB     		blt	.L161
 897:Middlewares/ST/STM32_USB_Device_Library/Class/MSC/Src/usbd_msc_scsi.c **** 
ARM GAS  /tmp/cc2SMzdz.s 			page 78


 2425              		.loc 1 897 5 is_stmt 1 view .LVU829
 897:Middlewares/ST/STM32_USB_Device_Library/Class/MSC/Src/usbd_msc_scsi.c **** 
 2426              		.loc 1 897 15 is_stmt 0 view .LVU830
 2427 008c D4F87032 		ldr	r3, [r4, #624]
 897:Middlewares/ST/STM32_USB_Device_Library/Class/MSC/Src/usbd_msc_scsi.c **** 
 2428              		.loc 1 897 36 view .LVU831
 2429 0090 B4F86422 		ldrh	r2, [r4, #612]
 897:Middlewares/ST/STM32_USB_Device_Library/Class/MSC/Src/usbd_msc_scsi.c **** 
 2430              		.loc 1 897 9 view .LVU832
 2431 0094 02FB03F3 		mul	r3, r2, r3
 2432              	.LVL230:
 900:Middlewares/ST/STM32_USB_Device_Library/Class/MSC/Src/usbd_msc_scsi.c ****     {
 2433              		.loc 1 900 5 is_stmt 1 view .LVU833
 900:Middlewares/ST/STM32_USB_Device_Library/Class/MSC/Src/usbd_msc_scsi.c ****     {
 2434              		.loc 1 900 18 is_stmt 0 view .LVU834
 2435 0098 D4F81822 		ldr	r2, [r4, #536]
 900:Middlewares/ST/STM32_USB_Device_Library/Class/MSC/Src/usbd_msc_scsi.c ****     {
 2436              		.loc 1 900 8 view .LVU835
 2437 009c 9A42     		cmp	r2, r3
 2438 009e 34D1     		bne	.L167
 906:Middlewares/ST/STM32_USB_Device_Library/Class/MSC/Src/usbd_msc_scsi.c **** 
 2439              		.loc 1 906 5 is_stmt 1 view .LVU836
 2440              	.LVL231:
 909:Middlewares/ST/STM32_USB_Device_Library/Class/MSC/Src/usbd_msc_scsi.c ****     (void)USBD_LL_PrepareReceive(pdev, MSCOutEpAdd, hmsc->bot_data, len);
 2441              		.loc 1 909 5 view .LVU837
 909:Middlewares/ST/STM32_USB_Device_Library/Class/MSC/Src/usbd_msc_scsi.c ****     (void)USBD_LL_PrepareReceive(pdev, MSCOutEpAdd, hmsc->bot_data, len);
 2442              		.loc 1 909 21 is_stmt 0 view .LVU838
 2443 00a0 0122     		movs	r2, #1
 2444 00a2 2272     		strb	r2, [r4, #8]
 910:Middlewares/ST/STM32_USB_Device_Library/Class/MSC/Src/usbd_msc_scsi.c ****   }
 2445              		.loc 1 910 5 is_stmt 1 view .LVU839
 910:Middlewares/ST/STM32_USB_Device_Library/Class/MSC/Src/usbd_msc_scsi.c ****   }
 2446              		.loc 1 910 11 is_stmt 0 view .LVU840
 2447 00a4 B3F5007F 		cmp	r3, #512
 2448 00a8 28BF     		it	cs
 2449 00aa 4FF40073 		movcs	r3, #512
 2450              	.LVL232:
 910:Middlewares/ST/STM32_USB_Device_Library/Class/MSC/Src/usbd_msc_scsi.c ****   }
 2451              		.loc 1 910 11 view .LVU841
 2452 00ae 04F11002 		add	r2, r4, #16
 2453 00b2 2049     		ldr	r1, .L168
 2454 00b4 0978     		ldrb	r1, [r1]	@ zero_extendqisi2
 2455 00b6 2846     		mov	r0, r5
 2456 00b8 FFF7FEFF 		bl	USBD_LL_PrepareReceive
 2457              	.LVL233:
 917:Middlewares/ST/STM32_USB_Device_Library/Class/MSC/Src/usbd_msc_scsi.c **** }
 2458              		.loc 1 917 3 is_stmt 1 view .LVU842
 2459              	.L153:
 918:Middlewares/ST/STM32_USB_Device_Library/Class/MSC/Src/usbd_msc_scsi.c **** 
 2460              		.loc 1 918 1 is_stmt 0 view .LVU843
 2461 00bc 4046     		mov	r0, r8
 2462 00be BDE8F081 		pop	{r4, r5, r6, r7, r8, pc}
 2463              	.LVL234:
 2464              	.L163:
 857:Middlewares/ST/STM32_USB_Device_Library/Class/MSC/Src/usbd_msc_scsi.c ****       return -1;
 2465              		.loc 1 857 7 is_stmt 1 view .LVU844
 2466 00c2 2023     		movs	r3, #32
ARM GAS  /tmp/cc2SMzdz.s 			page 79


 2467 00c4 0522     		movs	r2, #5
 2468 00c6 94F81D12 		ldrb	r1, [r4, #541]	@ zero_extendqisi2
 2469              	.LVL235:
 857:Middlewares/ST/STM32_USB_Device_Library/Class/MSC/Src/usbd_msc_scsi.c ****       return -1;
 2470              		.loc 1 857 7 is_stmt 0 view .LVU845
 2471 00ca FFF7FEFF 		bl	SCSI_SenseCode
 2472              	.LVL236:
 858:Middlewares/ST/STM32_USB_Device_Library/Class/MSC/Src/usbd_msc_scsi.c ****     }
 2473              		.loc 1 858 7 is_stmt 1 view .LVU846
 858:Middlewares/ST/STM32_USB_Device_Library/Class/MSC/Src/usbd_msc_scsi.c ****     }
 2474              		.loc 1 858 14 is_stmt 0 view .LVU847
 2475 00ce 4FF0FF38 		mov	r8, #-1
 2476 00d2 F3E7     		b	.L153
 2477              	.LVL237:
 2478              	.L164:
 864:Middlewares/ST/STM32_USB_Device_Library/Class/MSC/Src/usbd_msc_scsi.c ****       return -1;
 2479              		.loc 1 864 7 is_stmt 1 view .LVU848
 2480 00d4 2023     		movs	r3, #32
 2481 00d6 0522     		movs	r2, #5
 2482 00d8 94F81D12 		ldrb	r1, [r4, #541]	@ zero_extendqisi2
 2483              	.LVL238:
 864:Middlewares/ST/STM32_USB_Device_Library/Class/MSC/Src/usbd_msc_scsi.c ****       return -1;
 2484              		.loc 1 864 7 is_stmt 0 view .LVU849
 2485 00dc FFF7FEFF 		bl	SCSI_SenseCode
 2486              	.LVL239:
 865:Middlewares/ST/STM32_USB_Device_Library/Class/MSC/Src/usbd_msc_scsi.c ****     }
 2487              		.loc 1 865 7 is_stmt 1 view .LVU850
 865:Middlewares/ST/STM32_USB_Device_Library/Class/MSC/Src/usbd_msc_scsi.c ****     }
 2488              		.loc 1 865 14 is_stmt 0 view .LVU851
 2489 00e0 4FF0FF38 		mov	r8, #-1
 2490 00e4 EAE7     		b	.L153
 2491              	.L165:
 871:Middlewares/ST/STM32_USB_Device_Library/Class/MSC/Src/usbd_msc_scsi.c ****       return -1;
 2492              		.loc 1 871 7 is_stmt 1 view .LVU852
 2493 00e6 3A23     		movs	r3, #58
 2494 00e8 0222     		movs	r2, #2
 2495 00ea 3946     		mov	r1, r7
 2496 00ec 2846     		mov	r0, r5
 2497 00ee FFF7FEFF 		bl	SCSI_SenseCode
 2498              	.LVL240:
 872:Middlewares/ST/STM32_USB_Device_Library/Class/MSC/Src/usbd_msc_scsi.c ****     }
 2499              		.loc 1 872 7 view .LVU853
 872:Middlewares/ST/STM32_USB_Device_Library/Class/MSC/Src/usbd_msc_scsi.c ****     }
 2500              		.loc 1 872 14 is_stmt 0 view .LVU854
 2501 00f2 4FF0FF38 		mov	r8, #-1
 2502 00f6 E1E7     		b	.L153
 2503              	.L166:
 878:Middlewares/ST/STM32_USB_Device_Library/Class/MSC/Src/usbd_msc_scsi.c ****       return -1;
 2504              		.loc 1 878 7 is_stmt 1 view .LVU855
 2505 00f8 2723     		movs	r3, #39
 2506 00fa 0222     		movs	r2, #2
 2507 00fc 3946     		mov	r1, r7
 2508 00fe 2846     		mov	r0, r5
 2509 0100 FFF7FEFF 		bl	SCSI_SenseCode
 2510              	.LVL241:
 879:Middlewares/ST/STM32_USB_Device_Library/Class/MSC/Src/usbd_msc_scsi.c ****     }
 2511              		.loc 1 879 7 view .LVU856
ARM GAS  /tmp/cc2SMzdz.s 			page 80


 879:Middlewares/ST/STM32_USB_Device_Library/Class/MSC/Src/usbd_msc_scsi.c ****     }
 2512              		.loc 1 879 14 is_stmt 0 view .LVU857
 2513 0104 4FF0FF38 		mov	r8, #-1
 2514 0108 D8E7     		b	.L153
 2515              	.LVL242:
 2516              	.L167:
 902:Middlewares/ST/STM32_USB_Device_Library/Class/MSC/Src/usbd_msc_scsi.c ****       return -1;
 2517              		.loc 1 902 7 is_stmt 1 view .LVU858
 2518 010a 2023     		movs	r3, #32
 2519              	.LVL243:
 902:Middlewares/ST/STM32_USB_Device_Library/Class/MSC/Src/usbd_msc_scsi.c ****       return -1;
 2520              		.loc 1 902 7 is_stmt 0 view .LVU859
 2521 010c 0522     		movs	r2, #5
 2522 010e 94F81D12 		ldrb	r1, [r4, #541]	@ zero_extendqisi2
 2523 0112 2846     		mov	r0, r5
 2524 0114 FFF7FEFF 		bl	SCSI_SenseCode
 2525              	.LVL244:
 903:Middlewares/ST/STM32_USB_Device_Library/Class/MSC/Src/usbd_msc_scsi.c ****     }
 2526              		.loc 1 903 7 is_stmt 1 view .LVU860
 903:Middlewares/ST/STM32_USB_Device_Library/Class/MSC/Src/usbd_msc_scsi.c ****     }
 2527              		.loc 1 903 14 is_stmt 0 view .LVU861
 2528 0118 4FF0FF38 		mov	r8, #-1
 2529 011c CEE7     		b	.L153
 2530              	.LVL245:
 2531              	.L154:
 914:Middlewares/ST/STM32_USB_Device_Library/Class/MSC/Src/usbd_msc_scsi.c ****   }
 2532              		.loc 1 914 5 is_stmt 1 view .LVU862
 914:Middlewares/ST/STM32_USB_Device_Library/Class/MSC/Src/usbd_msc_scsi.c ****   }
 2533              		.loc 1 914 12 is_stmt 0 view .LVU863
 2534 011e FFF7FEFF 		bl	SCSI_ProcessWrite
 2535              	.LVL246:
 914:Middlewares/ST/STM32_USB_Device_Library/Class/MSC/Src/usbd_msc_scsi.c ****   }
 2536              		.loc 1 914 12 view .LVU864
 2537 0122 8046     		mov	r8, r0
 2538 0124 CAE7     		b	.L153
 2539              	.LVL247:
 2540              	.L160:
 845:Middlewares/ST/STM32_USB_Device_Library/Class/MSC/Src/usbd_msc_scsi.c ****   }
 2541              		.loc 1 845 12 view .LVU865
 2542 0126 4FF0FF38 		mov	r8, #-1
 2543 012a C7E7     		b	.L153
 2544              	.LVL248:
 2545              	.L161:
 894:Middlewares/ST/STM32_USB_Device_Library/Class/MSC/Src/usbd_msc_scsi.c ****     }
 2546              		.loc 1 894 14 view .LVU866
 2547 012c 4FF0FF38 		mov	r8, #-1
 2548 0130 C4E7     		b	.L153
 2549              	.L169:
 2550 0132 00BF     		.align	2
 2551              	.L168:
 2552 0134 00000000 		.word	MSCOutEpAdd
 2553              		.cfi_endproc
 2554              	.LFE154:
 2556              		.section	.text.SCSI_Write12,"ax",%progbits
 2557              		.align	1
 2558              		.syntax unified
 2559              		.thumb
ARM GAS  /tmp/cc2SMzdz.s 			page 81


 2560              		.thumb_func
 2561              		.fpu fpv4-sp-d16
 2563              	SCSI_Write12:
 2564              	.LVL249:
 2565              	.LFB155:
 929:Middlewares/ST/STM32_USB_Device_Library/Class/MSC/Src/usbd_msc_scsi.c ****   USBD_MSC_BOT_HandleTypeDef *hmsc = (USBD_MSC_BOT_HandleTypeDef *)pdev->pClassDataCmsit[pdev->clas
 2566              		.loc 1 929 1 is_stmt 1 view -0
 2567              		.cfi_startproc
 2568              		@ args = 0, pretend = 0, frame = 0
 2569              		@ frame_needed = 0, uses_anonymous_args = 0
 929:Middlewares/ST/STM32_USB_Device_Library/Class/MSC/Src/usbd_msc_scsi.c ****   USBD_MSC_BOT_HandleTypeDef *hmsc = (USBD_MSC_BOT_HandleTypeDef *)pdev->pClassDataCmsit[pdev->clas
 2570              		.loc 1 929 1 is_stmt 0 view .LVU868
 2571 0000 2DE9F041 		push	{r4, r5, r6, r7, r8, lr}
 2572              	.LCFI19:
 2573              		.cfi_def_cfa_offset 24
 2574              		.cfi_offset 4, -24
 2575              		.cfi_offset 5, -20
 2576              		.cfi_offset 6, -16
 2577              		.cfi_offset 7, -12
 2578              		.cfi_offset 8, -8
 2579              		.cfi_offset 14, -4
 2580 0004 1546     		mov	r5, r2
 930:Middlewares/ST/STM32_USB_Device_Library/Class/MSC/Src/usbd_msc_scsi.c ****   uint32_t len;
 2581              		.loc 1 930 3 is_stmt 1 view .LVU869
 930:Middlewares/ST/STM32_USB_Device_Library/Class/MSC/Src/usbd_msc_scsi.c ****   uint32_t len;
 2582              		.loc 1 930 94 is_stmt 0 view .LVU870
 2583 0006 D0F8D432 		ldr	r3, [r0, #724]
 930:Middlewares/ST/STM32_USB_Device_Library/Class/MSC/Src/usbd_msc_scsi.c ****   uint32_t len;
 2584              		.loc 1 930 31 view .LVU871
 2585 000a 03F1B002 		add	r2, r3, #176
 2586              	.LVL250:
 930:Middlewares/ST/STM32_USB_Device_Library/Class/MSC/Src/usbd_msc_scsi.c ****   uint32_t len;
 2587              		.loc 1 930 31 view .LVU872
 2588 000e 50F82240 		ldr	r4, [r0, r2, lsl #2]
 2589              	.LVL251:
 931:Middlewares/ST/STM32_USB_Device_Library/Class/MSC/Src/usbd_msc_scsi.c **** 
 2590              		.loc 1 931 3 is_stmt 1 view .LVU873
 933:Middlewares/ST/STM32_USB_Device_Library/Class/MSC/Src/usbd_msc_scsi.c ****   {
 2591              		.loc 1 933 3 view .LVU874
 933:Middlewares/ST/STM32_USB_Device_Library/Class/MSC/Src/usbd_msc_scsi.c ****   {
 2592              		.loc 1 933 6 is_stmt 0 view .LVU875
 2593 0012 002C     		cmp	r4, #0
 2594 0014 00F09280 		beq	.L178
 2595 0018 0646     		mov	r6, r0
 2596 001a 0F46     		mov	r7, r1
 942:Middlewares/ST/STM32_USB_Device_Library/Class/MSC/Src/usbd_msc_scsi.c ****   {
 2597              		.loc 1 942 3 is_stmt 1 view .LVU876
 942:Middlewares/ST/STM32_USB_Device_Library/Class/MSC/Src/usbd_msc_scsi.c ****   {
 2598              		.loc 1 942 11 is_stmt 0 view .LVU877
 2599 001c 227A     		ldrb	r2, [r4, #8]	@ zero_extendqisi2
 942:Middlewares/ST/STM32_USB_Device_Library/Class/MSC/Src/usbd_msc_scsi.c ****   {
 2600              		.loc 1 942 6 view .LVU878
 2601 001e 002A     		cmp	r2, #0
 2602 0020 40F08880 		bne	.L172
 944:Middlewares/ST/STM32_USB_Device_Library/Class/MSC/Src/usbd_msc_scsi.c ****     {
 2603              		.loc 1 944 5 is_stmt 1 view .LVU879
 944:Middlewares/ST/STM32_USB_Device_Library/Class/MSC/Src/usbd_msc_scsi.c ****     {
ARM GAS  /tmp/cc2SMzdz.s 			page 82


 2604              		.loc 1 944 18 is_stmt 0 view .LVU880
 2605 0024 D4F81822 		ldr	r2, [r4, #536]
 944:Middlewares/ST/STM32_USB_Device_Library/Class/MSC/Src/usbd_msc_scsi.c ****     {
 2606              		.loc 1 944 8 view .LVU881
 2607 0028 002A     		cmp	r2, #0
 2608 002a 51D0     		beq	.L181
 951:Middlewares/ST/STM32_USB_Device_Library/Class/MSC/Src/usbd_msc_scsi.c ****     {
 2609              		.loc 1 951 5 is_stmt 1 view .LVU882
 951:Middlewares/ST/STM32_USB_Device_Library/Class/MSC/Src/usbd_msc_scsi.c ****     {
 2610              		.loc 1 951 37 is_stmt 0 view .LVU883
 2611 002c 94F91C22 		ldrsb	r2, [r4, #540]
 951:Middlewares/ST/STM32_USB_Device_Library/Class/MSC/Src/usbd_msc_scsi.c ****     {
 2612              		.loc 1 951 8 view .LVU884
 2613 0030 002A     		cmp	r2, #0
 2614 0032 56DB     		blt	.L182
 958:Middlewares/ST/STM32_USB_Device_Library/Class/MSC/Src/usbd_msc_scsi.c ****     {
 2615              		.loc 1 958 5 is_stmt 1 view .LVU885
 958:Middlewares/ST/STM32_USB_Device_Library/Class/MSC/Src/usbd_msc_scsi.c ****     {
 2616              		.loc 1 958 48 is_stmt 0 view .LVU886
 2617 0034 B033     		adds	r3, r3, #176
 2618 0036 00EB8303 		add	r3, r0, r3, lsl #2
 2619 003a 5B68     		ldr	r3, [r3, #4]
 958:Middlewares/ST/STM32_USB_Device_Library/Class/MSC/Src/usbd_msc_scsi.c ****     {
 2620              		.loc 1 958 64 view .LVU887
 2621 003c 9B68     		ldr	r3, [r3, #8]
 958:Middlewares/ST/STM32_USB_Device_Library/Class/MSC/Src/usbd_msc_scsi.c ****     {
 2622              		.loc 1 958 10 view .LVU888
 2623 003e 0846     		mov	r0, r1
 2624              	.LVL252:
 958:Middlewares/ST/STM32_USB_Device_Library/Class/MSC/Src/usbd_msc_scsi.c ****     {
 2625              		.loc 1 958 10 view .LVU889
 2626 0040 9847     		blx	r3
 2627              	.LVL253:
 958:Middlewares/ST/STM32_USB_Device_Library/Class/MSC/Src/usbd_msc_scsi.c ****     {
 2628              		.loc 1 958 8 view .LVU890
 2629 0042 0028     		cmp	r0, #0
 2630 0044 56D1     		bne	.L183
 966:Middlewares/ST/STM32_USB_Device_Library/Class/MSC/Src/usbd_msc_scsi.c ****     {
 2631              		.loc 1 966 5 is_stmt 1 view .LVU891
 966:Middlewares/ST/STM32_USB_Device_Library/Class/MSC/Src/usbd_msc_scsi.c ****     {
 2632              		.loc 1 966 53 is_stmt 0 view .LVU892
 2633 0046 D6F8D432 		ldr	r3, [r6, #724]
 966:Middlewares/ST/STM32_USB_Device_Library/Class/MSC/Src/usbd_msc_scsi.c ****     {
 2634              		.loc 1 966 48 view .LVU893
 2635 004a B033     		adds	r3, r3, #176
 2636 004c 06EB8303 		add	r3, r6, r3, lsl #2
 2637 0050 5B68     		ldr	r3, [r3, #4]
 966:Middlewares/ST/STM32_USB_Device_Library/Class/MSC/Src/usbd_msc_scsi.c ****     {
 2638              		.loc 1 966 64 view .LVU894
 2639 0052 DB68     		ldr	r3, [r3, #12]
 966:Middlewares/ST/STM32_USB_Device_Library/Class/MSC/Src/usbd_msc_scsi.c ****     {
 2640              		.loc 1 966 10 view .LVU895
 2641 0054 3846     		mov	r0, r7
 2642 0056 9847     		blx	r3
 2643              	.LVL254:
 966:Middlewares/ST/STM32_USB_Device_Library/Class/MSC/Src/usbd_msc_scsi.c ****     {
 2644              		.loc 1 966 8 view .LVU896
ARM GAS  /tmp/cc2SMzdz.s 			page 83


 2645 0058 8046     		mov	r8, r0
 2646 005a 0028     		cmp	r0, #0
 2647 005c 55D1     		bne	.L184
 973:Middlewares/ST/STM32_USB_Device_Library/Class/MSC/Src/usbd_msc_scsi.c ****                           ((uint32_t)params[3] << 16) |
 2648              		.loc 1 973 5 is_stmt 1 view .LVU897
 973:Middlewares/ST/STM32_USB_Device_Library/Class/MSC/Src/usbd_msc_scsi.c ****                           ((uint32_t)params[3] << 16) |
 2649              		.loc 1 973 44 is_stmt 0 view .LVU898
 2650 005e AB78     		ldrb	r3, [r5, #2]	@ zero_extendqisi2
 974:Middlewares/ST/STM32_USB_Device_Library/Class/MSC/Src/usbd_msc_scsi.c ****                           ((uint32_t)params[4] << 8) |
 2651              		.loc 1 974 44 view .LVU899
 2652 0060 EA78     		ldrb	r2, [r5, #3]	@ zero_extendqisi2
 974:Middlewares/ST/STM32_USB_Device_Library/Class/MSC/Src/usbd_msc_scsi.c ****                           ((uint32_t)params[4] << 8) |
 2653              		.loc 1 974 48 view .LVU900
 2654 0062 1204     		lsls	r2, r2, #16
 973:Middlewares/ST/STM32_USB_Device_Library/Class/MSC/Src/usbd_msc_scsi.c ****                           ((uint32_t)params[3] << 16) |
 2655              		.loc 1 973 55 view .LVU901
 2656 0064 42EA0362 		orr	r2, r2, r3, lsl #24
 975:Middlewares/ST/STM32_USB_Device_Library/Class/MSC/Src/usbd_msc_scsi.c ****                           (uint32_t)params[5];
 2657              		.loc 1 975 44 view .LVU902
 2658 0068 2B79     		ldrb	r3, [r5, #4]	@ zero_extendqisi2
 974:Middlewares/ST/STM32_USB_Device_Library/Class/MSC/Src/usbd_msc_scsi.c ****                           ((uint32_t)params[4] << 8) |
 2659              		.loc 1 974 55 view .LVU903
 2660 006a 42EA0322 		orr	r2, r2, r3, lsl #8
 976:Middlewares/ST/STM32_USB_Device_Library/Class/MSC/Src/usbd_msc_scsi.c **** 
 2661              		.loc 1 976 43 view .LVU904
 2662 006e 6B79     		ldrb	r3, [r5, #5]	@ zero_extendqisi2
 975:Middlewares/ST/STM32_USB_Device_Library/Class/MSC/Src/usbd_msc_scsi.c ****                           (uint32_t)params[5];
 2663              		.loc 1 975 54 view .LVU905
 2664 0070 1A43     		orrs	r2, r2, r3
 973:Middlewares/ST/STM32_USB_Device_Library/Class/MSC/Src/usbd_msc_scsi.c ****                           ((uint32_t)params[3] << 16) |
 2665              		.loc 1 973 25 view .LVU906
 2666 0072 C4F86C22 		str	r2, [r4, #620]
 978:Middlewares/ST/STM32_USB_Device_Library/Class/MSC/Src/usbd_msc_scsi.c ****                          ((uint32_t)params[7] << 16) |
 2667              		.loc 1 978 5 is_stmt 1 view .LVU907
 978:Middlewares/ST/STM32_USB_Device_Library/Class/MSC/Src/usbd_msc_scsi.c ****                          ((uint32_t)params[7] << 16) |
 2668              		.loc 1 978 43 is_stmt 0 view .LVU908
 2669 0076 A979     		ldrb	r1, [r5, #6]	@ zero_extendqisi2
 979:Middlewares/ST/STM32_USB_Device_Library/Class/MSC/Src/usbd_msc_scsi.c ****                          ((uint32_t)params[8] << 8) |
 2670              		.loc 1 979 43 view .LVU909
 2671 0078 EB79     		ldrb	r3, [r5, #7]	@ zero_extendqisi2
 979:Middlewares/ST/STM32_USB_Device_Library/Class/MSC/Src/usbd_msc_scsi.c ****                          ((uint32_t)params[8] << 8) |
 2672              		.loc 1 979 47 view .LVU910
 2673 007a 1B04     		lsls	r3, r3, #16
 978:Middlewares/ST/STM32_USB_Device_Library/Class/MSC/Src/usbd_msc_scsi.c ****                          ((uint32_t)params[7] << 16) |
 2674              		.loc 1 978 54 view .LVU911
 2675 007c 43EA0163 		orr	r3, r3, r1, lsl #24
 980:Middlewares/ST/STM32_USB_Device_Library/Class/MSC/Src/usbd_msc_scsi.c ****                          (uint32_t)params[9];
 2676              		.loc 1 980 43 view .LVU912
 2677 0080 297A     		ldrb	r1, [r5, #8]	@ zero_extendqisi2
 979:Middlewares/ST/STM32_USB_Device_Library/Class/MSC/Src/usbd_msc_scsi.c ****                          ((uint32_t)params[8] << 8) |
 2678              		.loc 1 979 54 view .LVU913
 2679 0082 43EA0123 		orr	r3, r3, r1, lsl #8
 981:Middlewares/ST/STM32_USB_Device_Library/Class/MSC/Src/usbd_msc_scsi.c **** 
 2680              		.loc 1 981 42 view .LVU914
 2681 0086 697A     		ldrb	r1, [r5, #9]	@ zero_extendqisi2
 980:Middlewares/ST/STM32_USB_Device_Library/Class/MSC/Src/usbd_msc_scsi.c ****                          (uint32_t)params[9];
 2682              		.loc 1 980 53 view .LVU915
ARM GAS  /tmp/cc2SMzdz.s 			page 84


 2683 0088 0B43     		orrs	r3, r3, r1
 978:Middlewares/ST/STM32_USB_Device_Library/Class/MSC/Src/usbd_msc_scsi.c ****                          ((uint32_t)params[7] << 16) |
 2684              		.loc 1 978 24 view .LVU916
 2685 008a C4F87032 		str	r3, [r4, #624]
 984:Middlewares/ST/STM32_USB_Device_Library/Class/MSC/Src/usbd_msc_scsi.c ****                                hmsc->scsi_blk_len) < 0)
 2686              		.loc 1 984 5 is_stmt 1 view .LVU917
 984:Middlewares/ST/STM32_USB_Device_Library/Class/MSC/Src/usbd_msc_scsi.c ****                                hmsc->scsi_blk_len) < 0)
 2687              		.loc 1 984 9 is_stmt 0 view .LVU918
 2688 008e 3946     		mov	r1, r7
 2689 0090 3046     		mov	r0, r6
 2690 0092 FFF7FEFF 		bl	SCSI_CheckAddressRange
 2691              	.LVL255:
 984:Middlewares/ST/STM32_USB_Device_Library/Class/MSC/Src/usbd_msc_scsi.c ****                                hmsc->scsi_blk_len) < 0)
 2692              		.loc 1 984 8 view .LVU919
 2693 0096 0028     		cmp	r0, #0
 2694 0098 53DB     		blt	.L179
 990:Middlewares/ST/STM32_USB_Device_Library/Class/MSC/Src/usbd_msc_scsi.c **** 
 2695              		.loc 1 990 5 is_stmt 1 view .LVU920
 990:Middlewares/ST/STM32_USB_Device_Library/Class/MSC/Src/usbd_msc_scsi.c **** 
 2696              		.loc 1 990 15 is_stmt 0 view .LVU921
 2697 009a D4F87032 		ldr	r3, [r4, #624]
 990:Middlewares/ST/STM32_USB_Device_Library/Class/MSC/Src/usbd_msc_scsi.c **** 
 2698              		.loc 1 990 36 view .LVU922
 2699 009e B4F86422 		ldrh	r2, [r4, #612]
 990:Middlewares/ST/STM32_USB_Device_Library/Class/MSC/Src/usbd_msc_scsi.c **** 
 2700              		.loc 1 990 9 view .LVU923
 2701 00a2 02FB03F3 		mul	r3, r2, r3
 2702              	.LVL256:
 993:Middlewares/ST/STM32_USB_Device_Library/Class/MSC/Src/usbd_msc_scsi.c ****     {
 2703              		.loc 1 993 5 is_stmt 1 view .LVU924
 993:Middlewares/ST/STM32_USB_Device_Library/Class/MSC/Src/usbd_msc_scsi.c ****     {
 2704              		.loc 1 993 18 is_stmt 0 view .LVU925
 2705 00a6 D4F81822 		ldr	r2, [r4, #536]
 993:Middlewares/ST/STM32_USB_Device_Library/Class/MSC/Src/usbd_msc_scsi.c ****     {
 2706              		.loc 1 993 8 view .LVU926
 2707 00aa 9A42     		cmp	r2, r3
 2708 00ac 38D1     		bne	.L185
 999:Middlewares/ST/STM32_USB_Device_Library/Class/MSC/Src/usbd_msc_scsi.c **** 
 2709              		.loc 1 999 5 is_stmt 1 view .LVU927
 2710              	.LVL257:
1002:Middlewares/ST/STM32_USB_Device_Library/Class/MSC/Src/usbd_msc_scsi.c ****     (void)USBD_LL_PrepareReceive(pdev, MSCOutEpAdd, hmsc->bot_data, len);
 2711              		.loc 1 1002 5 view .LVU928
1002:Middlewares/ST/STM32_USB_Device_Library/Class/MSC/Src/usbd_msc_scsi.c ****     (void)USBD_LL_PrepareReceive(pdev, MSCOutEpAdd, hmsc->bot_data, len);
 2712              		.loc 1 1002 21 is_stmt 0 view .LVU929
 2713 00ae 0122     		movs	r2, #1
 2714 00b0 2272     		strb	r2, [r4, #8]
1003:Middlewares/ST/STM32_USB_Device_Library/Class/MSC/Src/usbd_msc_scsi.c ****   }
 2715              		.loc 1 1003 5 is_stmt 1 view .LVU930
1003:Middlewares/ST/STM32_USB_Device_Library/Class/MSC/Src/usbd_msc_scsi.c ****   }
 2716              		.loc 1 1003 11 is_stmt 0 view .LVU931
 2717 00b2 B3F5007F 		cmp	r3, #512
 2718 00b6 28BF     		it	cs
 2719 00b8 4FF40073 		movcs	r3, #512
 2720              	.LVL258:
1003:Middlewares/ST/STM32_USB_Device_Library/Class/MSC/Src/usbd_msc_scsi.c ****   }
 2721              		.loc 1 1003 11 view .LVU932
 2722 00bc 04F11002 		add	r2, r4, #16
ARM GAS  /tmp/cc2SMzdz.s 			page 85


 2723 00c0 2149     		ldr	r1, .L186
 2724 00c2 0978     		ldrb	r1, [r1]	@ zero_extendqisi2
 2725 00c4 3046     		mov	r0, r6
 2726 00c6 FFF7FEFF 		bl	USBD_LL_PrepareReceive
 2727              	.LVL259:
1010:Middlewares/ST/STM32_USB_Device_Library/Class/MSC/Src/usbd_msc_scsi.c **** }
 2728              		.loc 1 1010 3 is_stmt 1 view .LVU933
 2729              	.L171:
1011:Middlewares/ST/STM32_USB_Device_Library/Class/MSC/Src/usbd_msc_scsi.c **** 
 2730              		.loc 1 1011 1 is_stmt 0 view .LVU934
 2731 00ca 4046     		mov	r0, r8
 2732 00cc BDE8F081 		pop	{r4, r5, r6, r7, r8, pc}
 2733              	.LVL260:
 2734              	.L181:
 946:Middlewares/ST/STM32_USB_Device_Library/Class/MSC/Src/usbd_msc_scsi.c ****       return -1;
 2735              		.loc 1 946 7 is_stmt 1 view .LVU935
 2736 00d0 2023     		movs	r3, #32
 2737 00d2 0522     		movs	r2, #5
 2738 00d4 94F81D12 		ldrb	r1, [r4, #541]	@ zero_extendqisi2
 2739              	.LVL261:
 946:Middlewares/ST/STM32_USB_Device_Library/Class/MSC/Src/usbd_msc_scsi.c ****       return -1;
 2740              		.loc 1 946 7 is_stmt 0 view .LVU936
 2741 00d8 FFF7FEFF 		bl	SCSI_SenseCode
 2742              	.LVL262:
 947:Middlewares/ST/STM32_USB_Device_Library/Class/MSC/Src/usbd_msc_scsi.c ****     }
 2743              		.loc 1 947 7 is_stmt 1 view .LVU937
 947:Middlewares/ST/STM32_USB_Device_Library/Class/MSC/Src/usbd_msc_scsi.c ****     }
 2744              		.loc 1 947 14 is_stmt 0 view .LVU938
 2745 00dc 4FF0FF38 		mov	r8, #-1
 2746 00e0 F3E7     		b	.L171
 2747              	.LVL263:
 2748              	.L182:
 953:Middlewares/ST/STM32_USB_Device_Library/Class/MSC/Src/usbd_msc_scsi.c ****       return -1;
 2749              		.loc 1 953 7 is_stmt 1 view .LVU939
 2750 00e2 2023     		movs	r3, #32
 2751 00e4 0522     		movs	r2, #5
 2752 00e6 94F81D12 		ldrb	r1, [r4, #541]	@ zero_extendqisi2
 2753              	.LVL264:
 953:Middlewares/ST/STM32_USB_Device_Library/Class/MSC/Src/usbd_msc_scsi.c ****       return -1;
 2754              		.loc 1 953 7 is_stmt 0 view .LVU940
 2755 00ea FFF7FEFF 		bl	SCSI_SenseCode
 2756              	.LVL265:
 954:Middlewares/ST/STM32_USB_Device_Library/Class/MSC/Src/usbd_msc_scsi.c ****     }
 2757              		.loc 1 954 7 is_stmt 1 view .LVU941
 954:Middlewares/ST/STM32_USB_Device_Library/Class/MSC/Src/usbd_msc_scsi.c ****     }
 2758              		.loc 1 954 14 is_stmt 0 view .LVU942
 2759 00ee 4FF0FF38 		mov	r8, #-1
 2760 00f2 EAE7     		b	.L171
 2761              	.L183:
 960:Middlewares/ST/STM32_USB_Device_Library/Class/MSC/Src/usbd_msc_scsi.c ****       hmsc->bot_state = USBD_BOT_NO_DATA;
 2762              		.loc 1 960 7 is_stmt 1 view .LVU943
 2763 00f4 3A23     		movs	r3, #58
 2764 00f6 0222     		movs	r2, #2
 2765 00f8 3946     		mov	r1, r7
 2766 00fa 3046     		mov	r0, r6
 2767 00fc FFF7FEFF 		bl	SCSI_SenseCode
 2768              	.LVL266:
ARM GAS  /tmp/cc2SMzdz.s 			page 86


 961:Middlewares/ST/STM32_USB_Device_Library/Class/MSC/Src/usbd_msc_scsi.c ****       return -1;
 2769              		.loc 1 961 7 view .LVU944
 961:Middlewares/ST/STM32_USB_Device_Library/Class/MSC/Src/usbd_msc_scsi.c ****       return -1;
 2770              		.loc 1 961 23 is_stmt 0 view .LVU945
 2771 0100 0523     		movs	r3, #5
 2772 0102 2372     		strb	r3, [r4, #8]
 962:Middlewares/ST/STM32_USB_Device_Library/Class/MSC/Src/usbd_msc_scsi.c ****     }
 2773              		.loc 1 962 7 is_stmt 1 view .LVU946
 962:Middlewares/ST/STM32_USB_Device_Library/Class/MSC/Src/usbd_msc_scsi.c ****     }
 2774              		.loc 1 962 14 is_stmt 0 view .LVU947
 2775 0104 4FF0FF38 		mov	r8, #-1
 2776 0108 DFE7     		b	.L171
 2777              	.L184:
 968:Middlewares/ST/STM32_USB_Device_Library/Class/MSC/Src/usbd_msc_scsi.c ****       hmsc->bot_state = USBD_BOT_NO_DATA;
 2778              		.loc 1 968 7 is_stmt 1 view .LVU948
 2779 010a 2723     		movs	r3, #39
 2780 010c 0222     		movs	r2, #2
 2781 010e 3946     		mov	r1, r7
 2782 0110 3046     		mov	r0, r6
 2783 0112 FFF7FEFF 		bl	SCSI_SenseCode
 2784              	.LVL267:
 969:Middlewares/ST/STM32_USB_Device_Library/Class/MSC/Src/usbd_msc_scsi.c ****       return -1;
 2785              		.loc 1 969 7 view .LVU949
 969:Middlewares/ST/STM32_USB_Device_Library/Class/MSC/Src/usbd_msc_scsi.c ****       return -1;
 2786              		.loc 1 969 23 is_stmt 0 view .LVU950
 2787 0116 0523     		movs	r3, #5
 2788 0118 2372     		strb	r3, [r4, #8]
 970:Middlewares/ST/STM32_USB_Device_Library/Class/MSC/Src/usbd_msc_scsi.c ****     }
 2789              		.loc 1 970 7 is_stmt 1 view .LVU951
 970:Middlewares/ST/STM32_USB_Device_Library/Class/MSC/Src/usbd_msc_scsi.c ****     }
 2790              		.loc 1 970 14 is_stmt 0 view .LVU952
 2791 011a 4FF0FF38 		mov	r8, #-1
 2792 011e D4E7     		b	.L171
 2793              	.LVL268:
 2794              	.L185:
 995:Middlewares/ST/STM32_USB_Device_Library/Class/MSC/Src/usbd_msc_scsi.c ****       return -1;
 2795              		.loc 1 995 7 is_stmt 1 view .LVU953
 2796 0120 2023     		movs	r3, #32
 2797              	.LVL269:
 995:Middlewares/ST/STM32_USB_Device_Library/Class/MSC/Src/usbd_msc_scsi.c ****       return -1;
 2798              		.loc 1 995 7 is_stmt 0 view .LVU954
 2799 0122 0522     		movs	r2, #5
 2800 0124 94F81D12 		ldrb	r1, [r4, #541]	@ zero_extendqisi2
 2801 0128 3046     		mov	r0, r6
 2802 012a FFF7FEFF 		bl	SCSI_SenseCode
 2803              	.LVL270:
 996:Middlewares/ST/STM32_USB_Device_Library/Class/MSC/Src/usbd_msc_scsi.c ****     }
 2804              		.loc 1 996 7 is_stmt 1 view .LVU955
 996:Middlewares/ST/STM32_USB_Device_Library/Class/MSC/Src/usbd_msc_scsi.c ****     }
 2805              		.loc 1 996 14 is_stmt 0 view .LVU956
 2806 012e 4FF0FF38 		mov	r8, #-1
 2807 0132 CAE7     		b	.L171
 2808              	.LVL271:
 2809              	.L172:
1007:Middlewares/ST/STM32_USB_Device_Library/Class/MSC/Src/usbd_msc_scsi.c ****   }
 2810              		.loc 1 1007 5 is_stmt 1 view .LVU957
1007:Middlewares/ST/STM32_USB_Device_Library/Class/MSC/Src/usbd_msc_scsi.c ****   }
ARM GAS  /tmp/cc2SMzdz.s 			page 87


 2811              		.loc 1 1007 12 is_stmt 0 view .LVU958
 2812 0134 FFF7FEFF 		bl	SCSI_ProcessWrite
 2813              	.LVL272:
1007:Middlewares/ST/STM32_USB_Device_Library/Class/MSC/Src/usbd_msc_scsi.c ****   }
 2814              		.loc 1 1007 12 view .LVU959
 2815 0138 8046     		mov	r8, r0
 2816 013a C6E7     		b	.L171
 2817              	.LVL273:
 2818              	.L178:
 935:Middlewares/ST/STM32_USB_Device_Library/Class/MSC/Src/usbd_msc_scsi.c ****   }
 2819              		.loc 1 935 12 view .LVU960
 2820 013c 4FF0FF38 		mov	r8, #-1
 2821 0140 C3E7     		b	.L171
 2822              	.LVL274:
 2823              	.L179:
 987:Middlewares/ST/STM32_USB_Device_Library/Class/MSC/Src/usbd_msc_scsi.c ****     }
 2824              		.loc 1 987 14 view .LVU961
 2825 0142 4FF0FF38 		mov	r8, #-1
 2826 0146 C0E7     		b	.L171
 2827              	.L187:
 2828              		.align	2
 2829              	.L186:
 2830 0148 00000000 		.word	MSCOutEpAdd
 2831              		.cfi_endproc
 2832              	.LFE155:
 2834              		.section	.text.SCSI_Verify10,"ax",%progbits
 2835              		.align	1
 2836              		.syntax unified
 2837              		.thumb
 2838              		.thumb_func
 2839              		.fpu fpv4-sp-d16
 2841              	SCSI_Verify10:
 2842              	.LVL275:
 2843              	.LFB156:
1022:Middlewares/ST/STM32_USB_Device_Library/Class/MSC/Src/usbd_msc_scsi.c ****   USBD_MSC_BOT_HandleTypeDef *hmsc = (USBD_MSC_BOT_HandleTypeDef *)pdev->pClassDataCmsit[pdev->clas
 2844              		.loc 1 1022 1 is_stmt 1 view -0
 2845              		.cfi_startproc
 2846              		@ args = 0, pretend = 0, frame = 0
 2847              		@ frame_needed = 0, uses_anonymous_args = 0
1022:Middlewares/ST/STM32_USB_Device_Library/Class/MSC/Src/usbd_msc_scsi.c ****   USBD_MSC_BOT_HandleTypeDef *hmsc = (USBD_MSC_BOT_HandleTypeDef *)pdev->pClassDataCmsit[pdev->clas
 2848              		.loc 1 1022 1 is_stmt 0 view .LVU963
 2849 0000 10B5     		push	{r4, lr}
 2850              	.LCFI20:
 2851              		.cfi_def_cfa_offset 8
 2852              		.cfi_offset 4, -8
 2853              		.cfi_offset 14, -4
1023:Middlewares/ST/STM32_USB_Device_Library/Class/MSC/Src/usbd_msc_scsi.c **** 
 2854              		.loc 1 1023 3 is_stmt 1 view .LVU964
1023:Middlewares/ST/STM32_USB_Device_Library/Class/MSC/Src/usbd_msc_scsi.c **** 
 2855              		.loc 1 1023 94 is_stmt 0 view .LVU965
 2856 0002 D0F8D432 		ldr	r3, [r0, #724]
1023:Middlewares/ST/STM32_USB_Device_Library/Class/MSC/Src/usbd_msc_scsi.c **** 
 2857              		.loc 1 1023 31 view .LVU966
 2858 0006 B033     		adds	r3, r3, #176
 2859 0008 50F82340 		ldr	r4, [r0, r3, lsl #2]
 2860              	.LVL276:
1025:Middlewares/ST/STM32_USB_Device_Library/Class/MSC/Src/usbd_msc_scsi.c ****   {
ARM GAS  /tmp/cc2SMzdz.s 			page 88


 2861              		.loc 1 1025 3 is_stmt 1 view .LVU967
1025:Middlewares/ST/STM32_USB_Device_Library/Class/MSC/Src/usbd_msc_scsi.c ****   {
 2862              		.loc 1 1025 6 is_stmt 0 view .LVU968
 2863 000c ACB1     		cbz	r4, .L191
1030:Middlewares/ST/STM32_USB_Device_Library/Class/MSC/Src/usbd_msc_scsi.c ****   {
 2864              		.loc 1 1030 3 is_stmt 1 view .LVU969
1030:Middlewares/ST/STM32_USB_Device_Library/Class/MSC/Src/usbd_msc_scsi.c ****   {
 2865              		.loc 1 1030 14 is_stmt 0 view .LVU970
 2866 000e 5378     		ldrb	r3, [r2, #1]	@ zero_extendqisi2
1030:Middlewares/ST/STM32_USB_Device_Library/Class/MSC/Src/usbd_msc_scsi.c ****   {
 2867              		.loc 1 1030 6 view .LVU971
 2868 0010 13F0020F 		tst	r3, #2
 2869 0014 0AD1     		bne	.L194
1036:Middlewares/ST/STM32_USB_Device_Library/Class/MSC/Src/usbd_msc_scsi.c ****   {
 2870              		.loc 1 1036 3 is_stmt 1 view .LVU972
1036:Middlewares/ST/STM32_USB_Device_Library/Class/MSC/Src/usbd_msc_scsi.c ****   {
 2871              		.loc 1 1036 7 is_stmt 0 view .LVU973
 2872 0016 D4F87032 		ldr	r3, [r4, #624]
 2873 001a D4F86C22 		ldr	r2, [r4, #620]
 2874              	.LVL277:
1036:Middlewares/ST/STM32_USB_Device_Library/Class/MSC/Src/usbd_msc_scsi.c ****   {
 2875              		.loc 1 1036 7 view .LVU974
 2876 001e FFF7FEFF 		bl	SCSI_CheckAddressRange
 2877              	.LVL278:
1036:Middlewares/ST/STM32_USB_Device_Library/Class/MSC/Src/usbd_msc_scsi.c ****   {
 2878              		.loc 1 1036 6 view .LVU975
 2879 0022 0028     		cmp	r0, #0
 2880 0024 0CDB     		blt	.L192
1041:Middlewares/ST/STM32_USB_Device_Library/Class/MSC/Src/usbd_msc_scsi.c **** 
 2881              		.loc 1 1041 3 is_stmt 1 view .LVU976
1041:Middlewares/ST/STM32_USB_Device_Library/Class/MSC/Src/usbd_msc_scsi.c **** 
 2882              		.loc 1 1041 25 is_stmt 0 view .LVU977
 2883 0026 0020     		movs	r0, #0
 2884 0028 E060     		str	r0, [r4, #12]
1043:Middlewares/ST/STM32_USB_Device_Library/Class/MSC/Src/usbd_msc_scsi.c **** }
 2885              		.loc 1 1043 3 is_stmt 1 view .LVU978
 2886              	.L189:
1044:Middlewares/ST/STM32_USB_Device_Library/Class/MSC/Src/usbd_msc_scsi.c **** 
 2887              		.loc 1 1044 1 is_stmt 0 view .LVU979
 2888 002a 10BD     		pop	{r4, pc}
 2889              	.LVL279:
 2890              	.L194:
1032:Middlewares/ST/STM32_USB_Device_Library/Class/MSC/Src/usbd_msc_scsi.c ****     return -1; /* Error, Verify Mode Not supported*/
 2891              		.loc 1 1032 5 is_stmt 1 view .LVU980
 2892 002c 2423     		movs	r3, #36
 2893 002e 0522     		movs	r2, #5
 2894              	.LVL280:
1032:Middlewares/ST/STM32_USB_Device_Library/Class/MSC/Src/usbd_msc_scsi.c ****     return -1; /* Error, Verify Mode Not supported*/
 2895              		.loc 1 1032 5 is_stmt 0 view .LVU981
 2896 0030 FFF7FEFF 		bl	SCSI_SenseCode
 2897              	.LVL281:
1033:Middlewares/ST/STM32_USB_Device_Library/Class/MSC/Src/usbd_msc_scsi.c ****   }
 2898              		.loc 1 1033 5 is_stmt 1 view .LVU982
1033:Middlewares/ST/STM32_USB_Device_Library/Class/MSC/Src/usbd_msc_scsi.c ****   }
 2899              		.loc 1 1033 12 is_stmt 0 view .LVU983
 2900 0034 4FF0FF30 		mov	r0, #-1
 2901 0038 F7E7     		b	.L189
ARM GAS  /tmp/cc2SMzdz.s 			page 89


 2902              	.LVL282:
 2903              	.L191:
1027:Middlewares/ST/STM32_USB_Device_Library/Class/MSC/Src/usbd_msc_scsi.c ****   }
 2904              		.loc 1 1027 12 view .LVU984
 2905 003a 4FF0FF30 		mov	r0, #-1
 2906              	.LVL283:
1027:Middlewares/ST/STM32_USB_Device_Library/Class/MSC/Src/usbd_msc_scsi.c ****   }
 2907              		.loc 1 1027 12 view .LVU985
 2908 003e F4E7     		b	.L189
 2909              	.LVL284:
 2910              	.L192:
1038:Middlewares/ST/STM32_USB_Device_Library/Class/MSC/Src/usbd_msc_scsi.c ****   }
 2911              		.loc 1 1038 12 view .LVU986
 2912 0040 4FF0FF30 		mov	r0, #-1
 2913 0044 F1E7     		b	.L189
 2914              		.cfi_endproc
 2915              	.LFE156:
 2917              		.section	.text.SCSI_ProcessCmd,"ax",%progbits
 2918              		.align	1
 2919              		.global	SCSI_ProcessCmd
 2920              		.syntax unified
 2921              		.thumb
 2922              		.thumb_func
 2923              		.fpu fpv4-sp-d16
 2925              	SCSI_ProcessCmd:
 2926              	.LVL285:
 2927              	.LFB140:
 122:Middlewares/ST/STM32_USB_Device_Library/Class/MSC/Src/usbd_msc_scsi.c ****   int8_t ret;
 2928              		.loc 1 122 1 is_stmt 1 view -0
 2929              		.cfi_startproc
 2930              		@ args = 0, pretend = 0, frame = 0
 2931              		@ frame_needed = 0, uses_anonymous_args = 0
 122:Middlewares/ST/STM32_USB_Device_Library/Class/MSC/Src/usbd_msc_scsi.c ****   int8_t ret;
 2932              		.loc 1 122 1 is_stmt 0 view .LVU988
 2933 0000 10B5     		push	{r4, lr}
 2934              	.LCFI21:
 2935              		.cfi_def_cfa_offset 8
 2936              		.cfi_offset 4, -8
 2937              		.cfi_offset 14, -4
 123:Middlewares/ST/STM32_USB_Device_Library/Class/MSC/Src/usbd_msc_scsi.c ****   USBD_MSC_BOT_HandleTypeDef *hmsc = (USBD_MSC_BOT_HandleTypeDef *)pdev->pClassDataCmsit[pdev->clas
 2938              		.loc 1 123 3 is_stmt 1 view .LVU989
 124:Middlewares/ST/STM32_USB_Device_Library/Class/MSC/Src/usbd_msc_scsi.c **** 
 2939              		.loc 1 124 3 view .LVU990
 124:Middlewares/ST/STM32_USB_Device_Library/Class/MSC/Src/usbd_msc_scsi.c **** 
 2940              		.loc 1 124 94 is_stmt 0 view .LVU991
 2941 0002 D0F8D432 		ldr	r3, [r0, #724]
 124:Middlewares/ST/STM32_USB_Device_Library/Class/MSC/Src/usbd_msc_scsi.c **** 
 2942              		.loc 1 124 31 view .LVU992
 2943 0006 B033     		adds	r3, r3, #176
 2944 0008 50F82340 		ldr	r4, [r0, r3, lsl #2]
 2945              	.LVL286:
 126:Middlewares/ST/STM32_USB_Device_Library/Class/MSC/Src/usbd_msc_scsi.c ****   {
 2946              		.loc 1 126 3 is_stmt 1 view .LVU993
 126:Middlewares/ST/STM32_USB_Device_Library/Class/MSC/Src/usbd_msc_scsi.c ****   {
 2947              		.loc 1 126 6 is_stmt 0 view .LVU994
 2948 000c 002C     		cmp	r4, #0
 2949 000e 70D0     		beq	.L215
ARM GAS  /tmp/cc2SMzdz.s 			page 90


 131:Middlewares/ST/STM32_USB_Device_Library/Class/MSC/Src/usbd_msc_scsi.c ****   {
 2950              		.loc 1 131 3 is_stmt 1 view .LVU995
 131:Middlewares/ST/STM32_USB_Device_Library/Class/MSC/Src/usbd_msc_scsi.c ****   {
 2951              		.loc 1 131 14 is_stmt 0 view .LVU996
 2952 0010 1378     		ldrb	r3, [r2]	@ zero_extendqisi2
 131:Middlewares/ST/STM32_USB_Device_Library/Class/MSC/Src/usbd_msc_scsi.c ****   {
 2953              		.loc 1 131 3 view .LVU997
 2954 0012 5A2B     		cmp	r3, #90
 2955 0014 31D8     		bhi	.L197
 2956 0016 5A2B     		cmp	r3, #90
 2957 0018 62D8     		bhi	.L198
 2958 001a DFE803F0 		tbb	[pc, r3]
 2959              	.L200:
 2960 001e 3A       		.byte	(.L211-.L200)/2
 2961 001f 61       		.byte	(.L198-.L200)/2
 2962 0020 61       		.byte	(.L198-.L200)/2
 2963 0021 3D       		.byte	(.L210-.L200)/2
 2964 0022 61       		.byte	(.L198-.L200)/2
 2965 0023 61       		.byte	(.L198-.L200)/2
 2966 0024 61       		.byte	(.L198-.L200)/2
 2967 0025 61       		.byte	(.L198-.L200)/2
 2968 0026 61       		.byte	(.L198-.L200)/2
 2969 0027 61       		.byte	(.L198-.L200)/2
 2970 0028 61       		.byte	(.L198-.L200)/2
 2971 0029 61       		.byte	(.L198-.L200)/2
 2972 002a 61       		.byte	(.L198-.L200)/2
 2973 002b 61       		.byte	(.L198-.L200)/2
 2974 002c 61       		.byte	(.L198-.L200)/2
 2975 002d 61       		.byte	(.L198-.L200)/2
 2976 002e 61       		.byte	(.L198-.L200)/2
 2977 002f 61       		.byte	(.L198-.L200)/2
 2978 0030 40       		.byte	(.L209-.L200)/2
 2979 0031 61       		.byte	(.L198-.L200)/2
 2980 0032 61       		.byte	(.L198-.L200)/2
 2981 0033 61       		.byte	(.L198-.L200)/2
 2982 0034 61       		.byte	(.L198-.L200)/2
 2983 0035 61       		.byte	(.L198-.L200)/2
 2984 0036 61       		.byte	(.L198-.L200)/2
 2985 0037 61       		.byte	(.L198-.L200)/2
 2986 0038 49       		.byte	(.L208-.L200)/2
 2987 0039 43       		.byte	(.L207-.L200)/2
 2988 003a 61       		.byte	(.L198-.L200)/2
 2989 003b 61       		.byte	(.L198-.L200)/2
 2990 003c 46       		.byte	(.L206-.L200)/2
 2991 003d 61       		.byte	(.L198-.L200)/2
 2992 003e 61       		.byte	(.L198-.L200)/2
 2993 003f 61       		.byte	(.L198-.L200)/2
 2994 0040 61       		.byte	(.L198-.L200)/2
 2995 0041 4F       		.byte	(.L205-.L200)/2
 2996 0042 61       		.byte	(.L198-.L200)/2
 2997 0043 52       		.byte	(.L204-.L200)/2
 2998 0044 61       		.byte	(.L198-.L200)/2
 2999 0045 61       		.byte	(.L198-.L200)/2
 3000 0046 55       		.byte	(.L203-.L200)/2
 3001 0047 61       		.byte	(.L198-.L200)/2
 3002 0048 5B       		.byte	(.L202-.L200)/2
 3003 0049 61       		.byte	(.L198-.L200)/2
ARM GAS  /tmp/cc2SMzdz.s 			page 91


 3004 004a 61       		.byte	(.L198-.L200)/2
 3005 004b 61       		.byte	(.L198-.L200)/2
 3006 004c 61       		.byte	(.L198-.L200)/2
 3007 004d 5E       		.byte	(.L201-.L200)/2
 3008 004e 61       		.byte	(.L198-.L200)/2
 3009 004f 61       		.byte	(.L198-.L200)/2
 3010 0050 61       		.byte	(.L198-.L200)/2
 3011 0051 61       		.byte	(.L198-.L200)/2
 3012 0052 61       		.byte	(.L198-.L200)/2
 3013 0053 61       		.byte	(.L198-.L200)/2
 3014 0054 61       		.byte	(.L198-.L200)/2
 3015 0055 61       		.byte	(.L198-.L200)/2
 3016 0056 61       		.byte	(.L198-.L200)/2
 3017 0057 61       		.byte	(.L198-.L200)/2
 3018 0058 61       		.byte	(.L198-.L200)/2
 3019 0059 61       		.byte	(.L198-.L200)/2
 3020 005a 61       		.byte	(.L198-.L200)/2
 3021 005b 61       		.byte	(.L198-.L200)/2
 3022 005c 61       		.byte	(.L198-.L200)/2
 3023 005d 61       		.byte	(.L198-.L200)/2
 3024 005e 61       		.byte	(.L198-.L200)/2
 3025 005f 61       		.byte	(.L198-.L200)/2
 3026 0060 61       		.byte	(.L198-.L200)/2
 3027 0061 61       		.byte	(.L198-.L200)/2
 3028 0062 61       		.byte	(.L198-.L200)/2
 3029 0063 61       		.byte	(.L198-.L200)/2
 3030 0064 61       		.byte	(.L198-.L200)/2
 3031 0065 61       		.byte	(.L198-.L200)/2
 3032 0066 61       		.byte	(.L198-.L200)/2
 3033 0067 61       		.byte	(.L198-.L200)/2
 3034 0068 61       		.byte	(.L198-.L200)/2
 3035 0069 61       		.byte	(.L198-.L200)/2
 3036 006a 61       		.byte	(.L198-.L200)/2
 3037 006b 61       		.byte	(.L198-.L200)/2
 3038 006c 61       		.byte	(.L198-.L200)/2
 3039 006d 61       		.byte	(.L198-.L200)/2
 3040 006e 61       		.byte	(.L198-.L200)/2
 3041 006f 61       		.byte	(.L198-.L200)/2
 3042 0070 61       		.byte	(.L198-.L200)/2
 3043 0071 61       		.byte	(.L198-.L200)/2
 3044 0072 61       		.byte	(.L198-.L200)/2
 3045 0073 61       		.byte	(.L198-.L200)/2
 3046 0074 61       		.byte	(.L198-.L200)/2
 3047 0075 61       		.byte	(.L198-.L200)/2
 3048 0076 61       		.byte	(.L198-.L200)/2
 3049 0077 61       		.byte	(.L198-.L200)/2
 3050 0078 4C       		.byte	(.L199-.L200)/2
 3051 0079 00       		.p2align 1
 3052              	.L197:
 3053 007a A82B     		cmp	r3, #168
 3054 007c 27D0     		beq	.L212
 3055 007e AA2B     		cmp	r3, #170
 3056 0080 02D1     		bne	.L217
 186:Middlewares/ST/STM32_USB_Device_Library/Class/MSC/Src/usbd_msc_scsi.c ****       break;
 3057              		.loc 1 186 7 is_stmt 1 view .LVU998
 186:Middlewares/ST/STM32_USB_Device_Library/Class/MSC/Src/usbd_msc_scsi.c ****       break;
 3058              		.loc 1 186 13 is_stmt 0 view .LVU999
ARM GAS  /tmp/cc2SMzdz.s 			page 92


 3059 0082 FFF7FEFF 		bl	SCSI_Write12
 3060              	.LVL287:
 187:Middlewares/ST/STM32_USB_Device_Library/Class/MSC/Src/usbd_msc_scsi.c **** 
 3061              		.loc 1 187 7 is_stmt 1 view .LVU1000
 3062 0086 06E0     		b	.L196
 3063              	.LVL288:
 3064              	.L217:
 131:Middlewares/ST/STM32_USB_Device_Library/Class/MSC/Src/usbd_msc_scsi.c ****   {
 3065              		.loc 1 131 3 is_stmt 0 view .LVU1001
 3066 0088 9E2B     		cmp	r3, #158
 3067 008a 29D1     		bne	.L198
 170:Middlewares/ST/STM32_USB_Device_Library/Class/MSC/Src/usbd_msc_scsi.c ****       break;
 3068              		.loc 1 170 7 is_stmt 1 view .LVU1002
 170:Middlewares/ST/STM32_USB_Device_Library/Class/MSC/Src/usbd_msc_scsi.c ****       break;
 3069              		.loc 1 170 13 is_stmt 0 view .LVU1003
 3070 008c FFF7FEFF 		bl	SCSI_ReadCapacity16
 3071              	.LVL289:
 171:Middlewares/ST/STM32_USB_Device_Library/Class/MSC/Src/usbd_msc_scsi.c **** 
 3072              		.loc 1 171 7 is_stmt 1 view .LVU1004
 3073 0090 01E0     		b	.L196
 3074              	.LVL290:
 3075              	.L211:
 134:Middlewares/ST/STM32_USB_Device_Library/Class/MSC/Src/usbd_msc_scsi.c ****       break;
 3076              		.loc 1 134 7 view .LVU1005
 134:Middlewares/ST/STM32_USB_Device_Library/Class/MSC/Src/usbd_msc_scsi.c ****       break;
 3077              		.loc 1 134 13 is_stmt 0 view .LVU1006
 3078 0092 FFF7FEFF 		bl	SCSI_TestUnitReady
 3079              	.LVL291:
 135:Middlewares/ST/STM32_USB_Device_Library/Class/MSC/Src/usbd_msc_scsi.c **** 
 3080              		.loc 1 135 7 is_stmt 1 view .LVU1007
 3081              	.L196:
 201:Middlewares/ST/STM32_USB_Device_Library/Class/MSC/Src/usbd_msc_scsi.c **** 
 3082              		.loc 1 201 1 is_stmt 0 view .LVU1008
 3083 0096 10BD     		pop	{r4, pc}
 3084              	.LVL292:
 3085              	.L210:
 138:Middlewares/ST/STM32_USB_Device_Library/Class/MSC/Src/usbd_msc_scsi.c ****       break;
 3086              		.loc 1 138 7 is_stmt 1 view .LVU1009
 138:Middlewares/ST/STM32_USB_Device_Library/Class/MSC/Src/usbd_msc_scsi.c ****       break;
 3087              		.loc 1 138 13 is_stmt 0 view .LVU1010
 3088 0098 FFF7FEFF 		bl	SCSI_RequestSense
 3089              	.LVL293:
 139:Middlewares/ST/STM32_USB_Device_Library/Class/MSC/Src/usbd_msc_scsi.c **** 
 3090              		.loc 1 139 7 is_stmt 1 view .LVU1011
 3091 009c FBE7     		b	.L196
 3092              	.LVL294:
 3093              	.L209:
 142:Middlewares/ST/STM32_USB_Device_Library/Class/MSC/Src/usbd_msc_scsi.c ****       break;
 3094              		.loc 1 142 7 view .LVU1012
 142:Middlewares/ST/STM32_USB_Device_Library/Class/MSC/Src/usbd_msc_scsi.c ****       break;
 3095              		.loc 1 142 13 is_stmt 0 view .LVU1013
 3096 009e FFF7FEFF 		bl	SCSI_Inquiry
 3097              	.LVL295:
 143:Middlewares/ST/STM32_USB_Device_Library/Class/MSC/Src/usbd_msc_scsi.c **** 
 3098              		.loc 1 143 7 is_stmt 1 view .LVU1014
 3099 00a2 F8E7     		b	.L196
 3100              	.LVL296:
ARM GAS  /tmp/cc2SMzdz.s 			page 93


 3101              	.L207:
 146:Middlewares/ST/STM32_USB_Device_Library/Class/MSC/Src/usbd_msc_scsi.c ****       break;
 3102              		.loc 1 146 7 view .LVU1015
 146:Middlewares/ST/STM32_USB_Device_Library/Class/MSC/Src/usbd_msc_scsi.c ****       break;
 3103              		.loc 1 146 13 is_stmt 0 view .LVU1016
 3104 00a4 FFF7FEFF 		bl	SCSI_StartStopUnit
 3105              	.LVL297:
 147:Middlewares/ST/STM32_USB_Device_Library/Class/MSC/Src/usbd_msc_scsi.c **** 
 3106              		.loc 1 147 7 is_stmt 1 view .LVU1017
 3107 00a8 F5E7     		b	.L196
 3108              	.LVL298:
 3109              	.L206:
 150:Middlewares/ST/STM32_USB_Device_Library/Class/MSC/Src/usbd_msc_scsi.c ****       break;
 3110              		.loc 1 150 7 view .LVU1018
 150:Middlewares/ST/STM32_USB_Device_Library/Class/MSC/Src/usbd_msc_scsi.c ****       break;
 3111              		.loc 1 150 13 is_stmt 0 view .LVU1019
 3112 00aa FFF7FEFF 		bl	SCSI_AllowPreventRemovable
 3113              	.LVL299:
 151:Middlewares/ST/STM32_USB_Device_Library/Class/MSC/Src/usbd_msc_scsi.c **** 
 3114              		.loc 1 151 7 is_stmt 1 view .LVU1020
 3115 00ae F2E7     		b	.L196
 3116              	.LVL300:
 3117              	.L208:
 154:Middlewares/ST/STM32_USB_Device_Library/Class/MSC/Src/usbd_msc_scsi.c ****       break;
 3118              		.loc 1 154 7 view .LVU1021
 154:Middlewares/ST/STM32_USB_Device_Library/Class/MSC/Src/usbd_msc_scsi.c ****       break;
 3119              		.loc 1 154 13 is_stmt 0 view .LVU1022
 3120 00b0 FFF7FEFF 		bl	SCSI_ModeSense6
 3121              	.LVL301:
 155:Middlewares/ST/STM32_USB_Device_Library/Class/MSC/Src/usbd_msc_scsi.c **** 
 3122              		.loc 1 155 7 is_stmt 1 view .LVU1023
 3123 00b4 EFE7     		b	.L196
 3124              	.LVL302:
 3125              	.L199:
 158:Middlewares/ST/STM32_USB_Device_Library/Class/MSC/Src/usbd_msc_scsi.c ****       break;
 3126              		.loc 1 158 7 view .LVU1024
 158:Middlewares/ST/STM32_USB_Device_Library/Class/MSC/Src/usbd_msc_scsi.c ****       break;
 3127              		.loc 1 158 13 is_stmt 0 view .LVU1025
 3128 00b6 FFF7FEFF 		bl	SCSI_ModeSense10
 3129              	.LVL303:
 159:Middlewares/ST/STM32_USB_Device_Library/Class/MSC/Src/usbd_msc_scsi.c **** 
 3130              		.loc 1 159 7 is_stmt 1 view .LVU1026
 3131 00ba ECE7     		b	.L196
 3132              	.LVL304:
 3133              	.L205:
 162:Middlewares/ST/STM32_USB_Device_Library/Class/MSC/Src/usbd_msc_scsi.c ****       break;
 3134              		.loc 1 162 7 view .LVU1027
 162:Middlewares/ST/STM32_USB_Device_Library/Class/MSC/Src/usbd_msc_scsi.c ****       break;
 3135              		.loc 1 162 13 is_stmt 0 view .LVU1028
 3136 00bc FFF7FEFF 		bl	SCSI_ReadFormatCapacity
 3137              	.LVL305:
 163:Middlewares/ST/STM32_USB_Device_Library/Class/MSC/Src/usbd_msc_scsi.c **** 
 3138              		.loc 1 163 7 is_stmt 1 view .LVU1029
 3139 00c0 E9E7     		b	.L196
 3140              	.LVL306:
 3141              	.L204:
 166:Middlewares/ST/STM32_USB_Device_Library/Class/MSC/Src/usbd_msc_scsi.c ****       break;
ARM GAS  /tmp/cc2SMzdz.s 			page 94


 3142              		.loc 1 166 7 view .LVU1030
 166:Middlewares/ST/STM32_USB_Device_Library/Class/MSC/Src/usbd_msc_scsi.c ****       break;
 3143              		.loc 1 166 13 is_stmt 0 view .LVU1031
 3144 00c2 FFF7FEFF 		bl	SCSI_ReadCapacity10
 3145              	.LVL307:
 167:Middlewares/ST/STM32_USB_Device_Library/Class/MSC/Src/usbd_msc_scsi.c **** 
 3146              		.loc 1 167 7 is_stmt 1 view .LVU1032
 3147 00c6 E6E7     		b	.L196
 3148              	.LVL308:
 3149              	.L203:
 174:Middlewares/ST/STM32_USB_Device_Library/Class/MSC/Src/usbd_msc_scsi.c ****       break;
 3150              		.loc 1 174 7 view .LVU1033
 174:Middlewares/ST/STM32_USB_Device_Library/Class/MSC/Src/usbd_msc_scsi.c ****       break;
 3151              		.loc 1 174 13 is_stmt 0 view .LVU1034
 3152 00c8 FFF7FEFF 		bl	SCSI_Read10
 3153              	.LVL309:
 175:Middlewares/ST/STM32_USB_Device_Library/Class/MSC/Src/usbd_msc_scsi.c **** 
 3154              		.loc 1 175 7 is_stmt 1 view .LVU1035
 3155 00cc E3E7     		b	.L196
 3156              	.LVL310:
 3157              	.L212:
 178:Middlewares/ST/STM32_USB_Device_Library/Class/MSC/Src/usbd_msc_scsi.c ****       break;
 3158              		.loc 1 178 7 view .LVU1036
 178:Middlewares/ST/STM32_USB_Device_Library/Class/MSC/Src/usbd_msc_scsi.c ****       break;
 3159              		.loc 1 178 13 is_stmt 0 view .LVU1037
 3160 00ce FFF7FEFF 		bl	SCSI_Read12
 3161              	.LVL311:
 179:Middlewares/ST/STM32_USB_Device_Library/Class/MSC/Src/usbd_msc_scsi.c **** 
 3162              		.loc 1 179 7 is_stmt 1 view .LVU1038
 3163 00d2 E0E7     		b	.L196
 3164              	.LVL312:
 3165              	.L202:
 182:Middlewares/ST/STM32_USB_Device_Library/Class/MSC/Src/usbd_msc_scsi.c ****       break;
 3166              		.loc 1 182 7 view .LVU1039
 182:Middlewares/ST/STM32_USB_Device_Library/Class/MSC/Src/usbd_msc_scsi.c ****       break;
 3167              		.loc 1 182 13 is_stmt 0 view .LVU1040
 3168 00d4 FFF7FEFF 		bl	SCSI_Write10
 3169              	.LVL313:
 183:Middlewares/ST/STM32_USB_Device_Library/Class/MSC/Src/usbd_msc_scsi.c **** 
 3170              		.loc 1 183 7 is_stmt 1 view .LVU1041
 3171 00d8 DDE7     		b	.L196
 3172              	.LVL314:
 3173              	.L201:
 190:Middlewares/ST/STM32_USB_Device_Library/Class/MSC/Src/usbd_msc_scsi.c ****       break;
 3174              		.loc 1 190 7 view .LVU1042
 190:Middlewares/ST/STM32_USB_Device_Library/Class/MSC/Src/usbd_msc_scsi.c ****       break;
 3175              		.loc 1 190 13 is_stmt 0 view .LVU1043
 3176 00da FFF7FEFF 		bl	SCSI_Verify10
 3177              	.LVL315:
 191:Middlewares/ST/STM32_USB_Device_Library/Class/MSC/Src/usbd_msc_scsi.c **** 
 3178              		.loc 1 191 7 is_stmt 1 view .LVU1044
 3179 00de DAE7     		b	.L196
 3180              	.LVL316:
 3181              	.L198:
 194:Middlewares/ST/STM32_USB_Device_Library/Class/MSC/Src/usbd_msc_scsi.c ****       hmsc->bot_status = USBD_BOT_STATUS_ERROR;
 3182              		.loc 1 194 7 view .LVU1045
 3183 00e0 2023     		movs	r3, #32
ARM GAS  /tmp/cc2SMzdz.s 			page 95


 3184 00e2 0522     		movs	r2, #5
 3185              	.LVL317:
 194:Middlewares/ST/STM32_USB_Device_Library/Class/MSC/Src/usbd_msc_scsi.c ****       hmsc->bot_status = USBD_BOT_STATUS_ERROR;
 3186              		.loc 1 194 7 is_stmt 0 view .LVU1046
 3187 00e4 FFF7FEFF 		bl	SCSI_SenseCode
 3188              	.LVL318:
 195:Middlewares/ST/STM32_USB_Device_Library/Class/MSC/Src/usbd_msc_scsi.c ****       ret = -1;
 3189              		.loc 1 195 7 is_stmt 1 view .LVU1047
 195:Middlewares/ST/STM32_USB_Device_Library/Class/MSC/Src/usbd_msc_scsi.c ****       ret = -1;
 3190              		.loc 1 195 24 is_stmt 0 view .LVU1048
 3191 00e8 0223     		movs	r3, #2
 3192 00ea 6372     		strb	r3, [r4, #9]
 196:Middlewares/ST/STM32_USB_Device_Library/Class/MSC/Src/usbd_msc_scsi.c ****       break;
 3193              		.loc 1 196 7 is_stmt 1 view .LVU1049
 3194              	.LVL319:
 197:Middlewares/ST/STM32_USB_Device_Library/Class/MSC/Src/usbd_msc_scsi.c ****   }
 3195              		.loc 1 197 7 view .LVU1050
 196:Middlewares/ST/STM32_USB_Device_Library/Class/MSC/Src/usbd_msc_scsi.c ****       break;
 3196              		.loc 1 196 11 is_stmt 0 view .LVU1051
 3197 00ec 4FF0FF30 		mov	r0, #-1
 197:Middlewares/ST/STM32_USB_Device_Library/Class/MSC/Src/usbd_msc_scsi.c ****   }
 3198              		.loc 1 197 7 view .LVU1052
 3199 00f0 D1E7     		b	.L196
 3200              	.LVL320:
 3201              	.L215:
 128:Middlewares/ST/STM32_USB_Device_Library/Class/MSC/Src/usbd_msc_scsi.c ****   }
 3202              		.loc 1 128 12 view .LVU1053
 3203 00f2 4FF0FF30 		mov	r0, #-1
 3204              	.LVL321:
 128:Middlewares/ST/STM32_USB_Device_Library/Class/MSC/Src/usbd_msc_scsi.c ****   }
 3205              		.loc 1 128 12 view .LVU1054
 3206 00f6 CEE7     		b	.L196
 3207              		.cfi_endproc
 3208              	.LFE140:
 3210              		.text
 3211              	.Letext0:
 3212              		.file 2 "/usr/include/newlib/machine/_default_types.h"
 3213              		.file 3 "/usr/include/newlib/sys/_stdint.h"
 3214              		.file 4 "Middlewares/ST/STM32_USB_Device_Library/Core/Inc/usbd_def.h"
 3215              		.file 5 "Middlewares/ST/STM32_USB_Device_Library/Class/MSC/Inc/usbd_msc_bot.h"
 3216              		.file 6 "Middlewares/ST/STM32_USB_Device_Library/Class/MSC/Inc/usbd_msc_scsi.h"
 3217              		.file 7 "Middlewares/ST/STM32_USB_Device_Library/Class/MSC/Inc/usbd_msc.h"
 3218              		.file 8 "Middlewares/ST/STM32_USB_Device_Library/Class/MSC/Inc/usbd_msc_data.h"
 3219              		.file 9 "Middlewares/ST/STM32_USB_Device_Library/Core/Inc/usbd_core.h"
ARM GAS  /tmp/cc2SMzdz.s 			page 96


DEFINED SYMBOLS
                            *ABS*:0000000000000000 usbd_msc_scsi.c
     /tmp/cc2SMzdz.s:18     .text.SCSI_AllowPreventRemovable:0000000000000000 $t
     /tmp/cc2SMzdz.s:25     .text.SCSI_AllowPreventRemovable:0000000000000000 SCSI_AllowPreventRemovable
     /tmp/cc2SMzdz.s:82     .text.SCSI_UpdateBotData:0000000000000000 $t
     /tmp/cc2SMzdz.s:88     .text.SCSI_UpdateBotData:0000000000000000 SCSI_UpdateBotData
     /tmp/cc2SMzdz.s:140    .text.SCSI_ModeSense6:0000000000000000 $t
     /tmp/cc2SMzdz.s:146    .text.SCSI_ModeSense6:0000000000000000 SCSI_ModeSense6
     /tmp/cc2SMzdz.s:231    .text.SCSI_ModeSense6:0000000000000048 $d
     /tmp/cc2SMzdz.s:236    .text.SCSI_ModeSense10:0000000000000000 $t
     /tmp/cc2SMzdz.s:242    .text.SCSI_ModeSense10:0000000000000000 SCSI_ModeSense10
     /tmp/cc2SMzdz.s:327    .text.SCSI_ModeSense10:0000000000000048 $d
     /tmp/cc2SMzdz.s:332    .text.SCSI_SenseCode:0000000000000000 $t
     /tmp/cc2SMzdz.s:339    .text.SCSI_SenseCode:0000000000000000 SCSI_SenseCode
     /tmp/cc2SMzdz.s:401    .text.SCSI_TestUnitReady:0000000000000000 $t
     /tmp/cc2SMzdz.s:407    .text.SCSI_TestUnitReady:0000000000000000 SCSI_TestUnitReady
     /tmp/cc2SMzdz.s:527    .text.SCSI_RequestSense:0000000000000000 $t
     /tmp/cc2SMzdz.s:533    .text.SCSI_RequestSense:0000000000000000 SCSI_RequestSense
     /tmp/cc2SMzdz.s:688    .text.SCSI_Inquiry:0000000000000000 $t
     /tmp/cc2SMzdz.s:694    .text.SCSI_Inquiry:0000000000000000 SCSI_Inquiry
     /tmp/cc2SMzdz.s:866    .text.SCSI_Inquiry:000000000000009c $d
     /tmp/cc2SMzdz.s:872    .text.SCSI_StartStopUnit:0000000000000000 $t
     /tmp/cc2SMzdz.s:878    .text.SCSI_StartStopUnit:0000000000000000 SCSI_StartStopUnit
     /tmp/cc2SMzdz.s:982    .text.SCSI_ReadFormatCapacity:0000000000000000 $t
     /tmp/cc2SMzdz.s:988    .text.SCSI_ReadFormatCapacity:0000000000000000 SCSI_ReadFormatCapacity
     /tmp/cc2SMzdz.s:1161   .text.SCSI_ReadCapacity10:0000000000000000 $t
     /tmp/cc2SMzdz.s:1167   .text.SCSI_ReadCapacity10:0000000000000000 SCSI_ReadCapacity10
     /tmp/cc2SMzdz.s:1299   .text.SCSI_ReadCapacity16:0000000000000000 $t
     /tmp/cc2SMzdz.s:1305   .text.SCSI_ReadCapacity16:0000000000000000 SCSI_ReadCapacity16
     /tmp/cc2SMzdz.s:1499   .text.SCSI_CheckAddressRange:0000000000000000 $t
     /tmp/cc2SMzdz.s:1505   .text.SCSI_CheckAddressRange:0000000000000000 SCSI_CheckAddressRange
     /tmp/cc2SMzdz.s:1565   .text.SCSI_ProcessRead:0000000000000000 $t
     /tmp/cc2SMzdz.s:1571   .text.SCSI_ProcessRead:0000000000000000 SCSI_ProcessRead
     /tmp/cc2SMzdz.s:1713   .text.SCSI_ProcessRead:00000000000000b0 $d
     /tmp/cc2SMzdz.s:1718   .text.SCSI_Read10:0000000000000000 $t
     /tmp/cc2SMzdz.s:1724   .text.SCSI_Read10:0000000000000000 SCSI_Read10
     /tmp/cc2SMzdz.s:1921   .text.SCSI_Read12:0000000000000000 $t
     /tmp/cc2SMzdz.s:1927   .text.SCSI_Read12:0000000000000000 SCSI_Read12
     /tmp/cc2SMzdz.s:2135   .text.SCSI_ProcessWrite:0000000000000000 $t
     /tmp/cc2SMzdz.s:2141   .text.SCSI_ProcessWrite:0000000000000000 SCSI_ProcessWrite
     /tmp/cc2SMzdz.s:2292   .text.SCSI_ProcessWrite:00000000000000c0 $d
     /tmp/cc2SMzdz.s:2297   .text.SCSI_Write10:0000000000000000 $t
     /tmp/cc2SMzdz.s:2303   .text.SCSI_Write10:0000000000000000 SCSI_Write10
     /tmp/cc2SMzdz.s:2552   .text.SCSI_Write10:0000000000000134 $d
     /tmp/cc2SMzdz.s:2557   .text.SCSI_Write12:0000000000000000 $t
     /tmp/cc2SMzdz.s:2563   .text.SCSI_Write12:0000000000000000 SCSI_Write12
     /tmp/cc2SMzdz.s:2830   .text.SCSI_Write12:0000000000000148 $d
     /tmp/cc2SMzdz.s:2835   .text.SCSI_Verify10:0000000000000000 $t
     /tmp/cc2SMzdz.s:2841   .text.SCSI_Verify10:0000000000000000 SCSI_Verify10
     /tmp/cc2SMzdz.s:2918   .text.SCSI_ProcessCmd:0000000000000000 $t
     /tmp/cc2SMzdz.s:2925   .text.SCSI_ProcessCmd:0000000000000000 SCSI_ProcessCmd
     /tmp/cc2SMzdz.s:2960   .text.SCSI_ProcessCmd:000000000000001e $d
     /tmp/cc2SMzdz.s:3051   .text.SCSI_ProcessCmd:0000000000000079 $d
     /tmp/cc2SMzdz.s:3051   .text.SCSI_ProcessCmd:000000000000007a $t

UNDEFINED SYMBOLS
MSC_Mode_Sense6_data
ARM GAS  /tmp/cc2SMzdz.s 			page 97


MSC_Mode_Sense10_data
MSC_Page80_Inquiry_Data
MSC_Page00_Inquiry_Data
USBD_LL_Transmit
MSCInEpAdd
MSC_BOT_SendCSW
USBD_LL_PrepareReceive
MSCOutEpAdd
