ARM GAS  /tmp/cceNXdBx.s 			page 1


   1              		.cpu cortex-m4
   2              		.eabi_attribute 27, 1
   3              		.eabi_attribute 28, 1
   4              		.eabi_attribute 20, 1
   5              		.eabi_attribute 21, 1
   6              		.eabi_attribute 23, 3
   7              		.eabi_attribute 24, 1
   8              		.eabi_attribute 25, 1
   9              		.eabi_attribute 26, 1
  10              		.eabi_attribute 30, 1
  11              		.eabi_attribute 34, 1
  12              		.eabi_attribute 18, 4
  13              		.file	"w25q.c"
  14              		.text
  15              	.Ltext0:
  16              		.cfi_sections	.debug_frame
  17              		.section	.text.W25Q_Init,"ax",%progbits
  18              		.align	1
  19              		.global	W25Q_Init
  20              		.arch armv7e-m
  21              		.syntax unified
  22              		.thumb
  23              		.thumb_func
  24              		.fpu fpv4-sp-d16
  26              	W25Q_Init:
  27              	.LVL0:
  28              	.LFB135:
  29              		.file 1 "app/drivers/w25q/w25q.c"
   1:app/drivers/w25q/w25q.c **** /*!
   2:app/drivers/w25q/w25q.c ****  * @file w25q.c
   3:app/drivers/w25q/w25q.c ****  * @brief implementation of w25q
   4:app/drivers/w25q/w25q.c ****  *
   5:app/drivers/w25q/w25q.c ****  * Detailed description of the implementation file.
   6:app/drivers/w25q/w25q.c ****  *
   7:app/drivers/w25q/w25q.c ****  * @date 19/08/2024
   8:app/drivers/w25q/w25q.c ****  * @author artempolisskyi
   9:app/drivers/w25q/w25q.c ****  */
  10:app/drivers/w25q/w25q.c **** 
  11:app/drivers/w25q/w25q.c **** #include "w25q.h"
  12:app/drivers/w25q/w25q.c **** #include "cmsis_os2.h"
  13:app/drivers/w25q/w25q.c **** 
  14:app/drivers/w25q/w25q.c **** static HAL_StatusTypeDef W25Q_WaitBusy(W25Q_HandleTypeDef *hflash);
  15:app/drivers/w25q/w25q.c **** 
  16:app/drivers/w25q/w25q.c **** HAL_StatusTypeDef W25Q_Init(W25Q_HandleTypeDef *hflash) {
  30              		.loc 1 16 57 view -0
  31              		.cfi_startproc
  32              		@ args = 0, pretend = 0, frame = 0
  33              		@ frame_needed = 0, uses_anonymous_args = 0
  34              		@ link register save eliminated.
  17:app/drivers/w25q/w25q.c ****   // TODO implement if needed
  18:app/drivers/w25q/w25q.c **** 
  19:app/drivers/w25q/w25q.c ****   return osOK;
  35              		.loc 1 19 3 view .LVU1
  20:app/drivers/w25q/w25q.c **** }
  36              		.loc 1 20 1 is_stmt 0 view .LVU2
  37 0000 0020     		movs	r0, #0
  38              	.LVL1:
ARM GAS  /tmp/cceNXdBx.s 			page 2


  39              		.loc 1 20 1 view .LVU3
  40 0002 7047     		bx	lr
  41              		.cfi_endproc
  42              	.LFE135:
  44              		.section	.text.W25Q_ReadStatusReg,"ax",%progbits
  45              		.align	1
  46              		.global	W25Q_ReadStatusReg
  47              		.syntax unified
  48              		.thumb
  49              		.thumb_func
  50              		.fpu fpv4-sp-d16
  52              	W25Q_ReadStatusReg:
  53              	.LVL2:
  54              	.LFB141:
  21:app/drivers/w25q/w25q.c **** 
  22:app/drivers/w25q/w25q.c **** /**
  23:app/drivers/w25q/w25q.c ****  * @brief
  24:app/drivers/w25q/w25q.c ****  *
  25:app/drivers/w25q/w25q.c ****  * @note size should be less than page size (256 bytes)
  26:app/drivers/w25q/w25q.c ****  *
  27:app/drivers/w25q/w25q.c ****  * @param hflash
  28:app/drivers/w25q/w25q.c ****  * @param dataBuffer [out]
  29:app/drivers/w25q/w25q.c ****  * @param address [in]
  30:app/drivers/w25q/w25q.c ****  * @param size [in]
  31:app/drivers/w25q/w25q.c ****  * @return
  32:app/drivers/w25q/w25q.c ****  */
  33:app/drivers/w25q/w25q.c **** HAL_StatusTypeDef W25Q_ReadData(W25Q_HandleTypeDef *hflash, uint8_t *const dataBuffer, uint32_t add
  34:app/drivers/w25q/w25q.c ****   QSPI_CommandTypeDef sCommand;
  35:app/drivers/w25q/w25q.c **** 
  36:app/drivers/w25q/w25q.c ****   HAL_StatusTypeDef status = W25Q_WaitBusy(hflash);
  37:app/drivers/w25q/w25q.c ****   if (status != HAL_OK)
  38:app/drivers/w25q/w25q.c ****     return status;
  39:app/drivers/w25q/w25q.c **** 
  40:app/drivers/w25q/w25q.c ****   // Set up the QSPI command
  41:app/drivers/w25q/w25q.c ****   sCommand.InstructionMode   = QSPI_INSTRUCTION_1_LINE;
  42:app/drivers/w25q/w25q.c ****   sCommand.Instruction       = W25Q_CMD_FAST_READ;
  43:app/drivers/w25q/w25q.c **** 
  44:app/drivers/w25q/w25q.c ****   sCommand.AddressMode       = QSPI_ADDRESS_4_LINES;
  45:app/drivers/w25q/w25q.c ****   sCommand.AddressSize       = QSPI_ADDRESS_24_BITS;
  46:app/drivers/w25q/w25q.c ****   sCommand.Address           = address;
  47:app/drivers/w25q/w25q.c **** 
  48:app/drivers/w25q/w25q.c ****   sCommand.AlternateByteMode  = QSPI_ALTERNATE_BYTES_NONE;
  49:app/drivers/w25q/w25q.c **** 
  50:app/drivers/w25q/w25q.c ****   sCommand.DataMode          = QSPI_DATA_4_LINES;
  51:app/drivers/w25q/w25q.c ****   sCommand.DummyCycles       = 8;
  52:app/drivers/w25q/w25q.c ****   sCommand.NbData            = size;
  53:app/drivers/w25q/w25q.c **** 
  54:app/drivers/w25q/w25q.c ****   sCommand.DdrMode           = QSPI_DDR_MODE_DISABLE;
  55:app/drivers/w25q/w25q.c ****   sCommand.DdrHoldHalfCycle  = QSPI_DDR_HHC_ANALOG_DELAY;
  56:app/drivers/w25q/w25q.c ****   sCommand.SIOOMode          = QSPI_SIOO_INST_EVERY_CMD;
  57:app/drivers/w25q/w25q.c **** 
  58:app/drivers/w25q/w25q.c ****   // TODO check: The Quad Enable bit (QE) of Status Register-2 must be set to enable the Fast Read 
  59:app/drivers/w25q/w25q.c **** 
  60:app/drivers/w25q/w25q.c ****   // Send the command
  61:app/drivers/w25q/w25q.c ****   status = HAL_QSPI_Command(hflash->hqspi, &sCommand, W25Q_TIMEOUT_DEFAULT);
  62:app/drivers/w25q/w25q.c ****   if (status != HAL_OK)
  63:app/drivers/w25q/w25q.c ****     return status;
ARM GAS  /tmp/cceNXdBx.s 			page 3


  64:app/drivers/w25q/w25q.c **** 
  65:app/drivers/w25q/w25q.c ****   // Receive the data
  66:app/drivers/w25q/w25q.c ****   status = HAL_QSPI_Receive(hflash->hqspi, dataBuffer, W25Q_TIMEOUT_DEFAULT);
  67:app/drivers/w25q/w25q.c ****   if (status != HAL_OK)
  68:app/drivers/w25q/w25q.c ****     return status;
  69:app/drivers/w25q/w25q.c **** 
  70:app/drivers/w25q/w25q.c ****   return status;
  71:app/drivers/w25q/w25q.c **** }
  72:app/drivers/w25q/w25q.c **** 
  73:app/drivers/w25q/w25q.c **** HAL_StatusTypeDef W25Q_WriteData(W25Q_HandleTypeDef *hflash, const uint8_t *dataBuffer, uint32_t ad
  74:app/drivers/w25q/w25q.c ****   QSPI_CommandTypeDef sCommand;
  75:app/drivers/w25q/w25q.c **** 
  76:app/drivers/w25q/w25q.c ****   HAL_StatusTypeDef status = W25Q_WaitBusy(hflash);
  77:app/drivers/w25q/w25q.c ****   if (status != HAL_OK)
  78:app/drivers/w25q/w25q.c ****     return status;
  79:app/drivers/w25q/w25q.c **** 
  80:app/drivers/w25q/w25q.c ****   status = W25Q_EnableWright(hflash);
  81:app/drivers/w25q/w25q.c ****   if (status != HAL_OK)
  82:app/drivers/w25q/w25q.c ****     return status;
  83:app/drivers/w25q/w25q.c **** 
  84:app/drivers/w25q/w25q.c ****   // Set up the QSPI command
  85:app/drivers/w25q/w25q.c ****   sCommand.InstructionMode   = QSPI_INSTRUCTION_1_LINE;
  86:app/drivers/w25q/w25q.c ****   sCommand.Instruction       = W25Q_CMD_PAGE_PROGRAM;
  87:app/drivers/w25q/w25q.c **** 
  88:app/drivers/w25q/w25q.c ****   sCommand.AddressMode       = QSPI_ADDRESS_1_LINE;
  89:app/drivers/w25q/w25q.c ****   sCommand.AddressSize       = QSPI_ADDRESS_24_BITS;
  90:app/drivers/w25q/w25q.c ****   sCommand.Address           = address;
  91:app/drivers/w25q/w25q.c **** 
  92:app/drivers/w25q/w25q.c ****   sCommand.AlternateByteMode  = QSPI_ALTERNATE_BYTES_NONE;
  93:app/drivers/w25q/w25q.c **** 
  94:app/drivers/w25q/w25q.c ****   sCommand.DataMode          = QSPI_DATA_1_LINE;
  95:app/drivers/w25q/w25q.c ****   sCommand.DummyCycles       = 0;
  96:app/drivers/w25q/w25q.c ****   sCommand.NbData            = size;
  97:app/drivers/w25q/w25q.c **** 
  98:app/drivers/w25q/w25q.c ****   sCommand.DdrMode           = QSPI_DDR_MODE_DISABLE;
  99:app/drivers/w25q/w25q.c ****   sCommand.DdrHoldHalfCycle  = QSPI_DDR_HHC_ANALOG_DELAY;
 100:app/drivers/w25q/w25q.c ****   sCommand.SIOOMode          = QSPI_SIOO_INST_EVERY_CMD;
 101:app/drivers/w25q/w25q.c **** 
 102:app/drivers/w25q/w25q.c ****   // Send the page program command
 103:app/drivers/w25q/w25q.c ****   status = HAL_QSPI_Command(hflash->hqspi, &sCommand, HAL_QSPI_TIMEOUT_DEFAULT_VALUE);
 104:app/drivers/w25q/w25q.c ****   if (status != HAL_OK)
 105:app/drivers/w25q/w25q.c ****     return status;
 106:app/drivers/w25q/w25q.c **** 
 107:app/drivers/w25q/w25q.c ****   // Transmit the data
 108:app/drivers/w25q/w25q.c ****   status = HAL_QSPI_Transmit(hflash->hqspi, (uint8_t *)dataBuffer, HAL_QSPI_TIMEOUT_DEFAULT_VALUE);
 109:app/drivers/w25q/w25q.c ****   if (status != HAL_OK)
 110:app/drivers/w25q/w25q.c ****     return status;
 111:app/drivers/w25q/w25q.c **** 
 112:app/drivers/w25q/w25q.c ****   return status;
 113:app/drivers/w25q/w25q.c **** }
 114:app/drivers/w25q/w25q.c **** 
 115:app/drivers/w25q/w25q.c **** HAL_StatusTypeDef W25Q_EraseSector(W25Q_HandleTypeDef *hflash, uint32_t address) {
 116:app/drivers/w25q/w25q.c ****   QSPI_CommandTypeDef sCommand;
 117:app/drivers/w25q/w25q.c **** 
 118:app/drivers/w25q/w25q.c ****   HAL_StatusTypeDef status = W25Q_WaitBusy(hflash);
 119:app/drivers/w25q/w25q.c ****   if (status != HAL_OK)
 120:app/drivers/w25q/w25q.c ****     return status;
ARM GAS  /tmp/cceNXdBx.s 			page 4


 121:app/drivers/w25q/w25q.c **** 
 122:app/drivers/w25q/w25q.c ****   status = W25Q_EnableWright(hflash);
 123:app/drivers/w25q/w25q.c ****   if (status != HAL_OK)
 124:app/drivers/w25q/w25q.c ****     return status;
 125:app/drivers/w25q/w25q.c **** 
 126:app/drivers/w25q/w25q.c ****   // Set up the QSPI command
 127:app/drivers/w25q/w25q.c ****   sCommand.InstructionMode = QSPI_INSTRUCTION_1_LINE;
 128:app/drivers/w25q/w25q.c ****   sCommand.Instruction = W25Q_CMD_SECTOR_ERASE;
 129:app/drivers/w25q/w25q.c **** 
 130:app/drivers/w25q/w25q.c ****   sCommand.AddressMode = QSPI_ADDRESS_1_LINE;
 131:app/drivers/w25q/w25q.c ****   sCommand.AddressSize = QSPI_ADDRESS_24_BITS;
 132:app/drivers/w25q/w25q.c ****   sCommand.Address = address;
 133:app/drivers/w25q/w25q.c **** 
 134:app/drivers/w25q/w25q.c ****   sCommand.AlternateByteMode = QSPI_ALTERNATE_BYTES_NONE;
 135:app/drivers/w25q/w25q.c **** 
 136:app/drivers/w25q/w25q.c ****   sCommand.DataMode = QSPI_DATA_NONE;
 137:app/drivers/w25q/w25q.c ****   sCommand.DummyCycles = 0;
 138:app/drivers/w25q/w25q.c ****   sCommand.NbData = 0;
 139:app/drivers/w25q/w25q.c **** 
 140:app/drivers/w25q/w25q.c ****   sCommand.DdrMode = QSPI_DDR_MODE_DISABLE;
 141:app/drivers/w25q/w25q.c ****   sCommand.DdrHoldHalfCycle = QSPI_DDR_HHC_ANALOG_DELAY;
 142:app/drivers/w25q/w25q.c ****   sCommand.SIOOMode = QSPI_SIOO_INST_EVERY_CMD;
 143:app/drivers/w25q/w25q.c **** 
 144:app/drivers/w25q/w25q.c ****   // Send the command
 145:app/drivers/w25q/w25q.c ****   status = HAL_QSPI_Command(hflash->hqspi, &sCommand, HAL_QSPI_TIMEOUT_DEFAULT_VALUE);
 146:app/drivers/w25q/w25q.c ****   if (status != HAL_OK)
 147:app/drivers/w25q/w25q.c ****     return status;
 148:app/drivers/w25q/w25q.c **** 
 149:app/drivers/w25q/w25q.c ****   return status;
 150:app/drivers/w25q/w25q.c **** }
 151:app/drivers/w25q/w25q.c **** 
 152:app/drivers/w25q/w25q.c **** HAL_StatusTypeDef W25Q_EraseChip(W25Q_HandleTypeDef *hflash);
 153:app/drivers/w25q/w25q.c **** 
 154:app/drivers/w25q/w25q.c **** HAL_StatusTypeDef W25Q_Sleep(W25Q_HandleTypeDef *hflash) {
 155:app/drivers/w25q/w25q.c ****   QSPI_CommandTypeDef sCommand;
 156:app/drivers/w25q/w25q.c **** 
 157:app/drivers/w25q/w25q.c ****   HAL_StatusTypeDef status = W25Q_WaitBusy(hflash);
 158:app/drivers/w25q/w25q.c ****   if (status != HAL_OK)
 159:app/drivers/w25q/w25q.c ****     return status;
 160:app/drivers/w25q/w25q.c **** 
 161:app/drivers/w25q/w25q.c ****   // Set up the QSPI command
 162:app/drivers/w25q/w25q.c ****   sCommand.InstructionMode   = QSPI_INSTRUCTION_1_LINE;
 163:app/drivers/w25q/w25q.c ****   sCommand.Instruction       = W25Q_CMD_POWER_DOWN;
 164:app/drivers/w25q/w25q.c **** 
 165:app/drivers/w25q/w25q.c ****   sCommand.AddressMode       = QSPI_ADDRESS_NONE;
 166:app/drivers/w25q/w25q.c **** 
 167:app/drivers/w25q/w25q.c ****   sCommand.AlternateByteMode  = QSPI_ALTERNATE_BYTES_NONE;
 168:app/drivers/w25q/w25q.c ****   sCommand.AlternateBytes     = QSPI_ALTERNATE_BYTES_8_BITS;
 169:app/drivers/w25q/w25q.c ****   sCommand.AlternateBytesSize = QSPI_ALTERNATE_BYTES_8_BITS;
 170:app/drivers/w25q/w25q.c **** 
 171:app/drivers/w25q/w25q.c ****   sCommand.DataMode          = QSPI_DATA_NONE;
 172:app/drivers/w25q/w25q.c ****   sCommand.DummyCycles       = 0;
 173:app/drivers/w25q/w25q.c ****   sCommand.NbData            = 0;
 174:app/drivers/w25q/w25q.c **** 
 175:app/drivers/w25q/w25q.c ****   sCommand.DdrMode           = QSPI_DDR_MODE_DISABLE;
 176:app/drivers/w25q/w25q.c ****   sCommand.DdrHoldHalfCycle  = QSPI_DDR_HHC_ANALOG_DELAY;
 177:app/drivers/w25q/w25q.c ****   sCommand.SIOOMode          = QSPI_SIOO_INST_EVERY_CMD;
ARM GAS  /tmp/cceNXdBx.s 			page 5


 178:app/drivers/w25q/w25q.c **** 
 179:app/drivers/w25q/w25q.c ****   // Send the command
 180:app/drivers/w25q/w25q.c ****   status = HAL_QSPI_Command(hflash->hqspi, &sCommand, W25Q_TIMEOUT_DEFAULT);
 181:app/drivers/w25q/w25q.c ****   if (status != HAL_OK)
 182:app/drivers/w25q/w25q.c ****     return status;
 183:app/drivers/w25q/w25q.c **** 
 184:app/drivers/w25q/w25q.c ****   return HAL_OK;
 185:app/drivers/w25q/w25q.c **** }
 186:app/drivers/w25q/w25q.c **** 
 187:app/drivers/w25q/w25q.c **** /**
 188:app/drivers/w25q/w25q.c ****  * @brief Read the W25Q device ID
 189:app/drivers/w25q/w25q.c ****  *
 190:app/drivers/w25q/w25q.c ****  * The instruction is initiated by driving the /CS pin low and shifting the instruction code “94h
 191:app/drivers/w25q/w25q.c ****  * four clock dummy cycles and then a 24-bit address (A23-A0) of 000000h, but with the capability t
 192:app/drivers/w25q/w25q.c ****  * Address bits four bits per clock. After which, the Manufacturer ID for Winbond (EFh) and the Dev
 193:app/drivers/w25q/w25q.c ****  *
 194:app/drivers/w25q/w25q.c ****  * @param hflash [in]
 195:app/drivers/w25q/w25q.c ****  * @param ID [out]
 196:app/drivers/w25q/w25q.c ****  */
 197:app/drivers/w25q/w25q.c **** HAL_StatusTypeDef W25Q_ReadID(W25Q_HandleTypeDef *hflash, uint8_t ID[W25Q_ID_SIZE]) {
 198:app/drivers/w25q/w25q.c ****   QSPI_CommandTypeDef sCommand;
 199:app/drivers/w25q/w25q.c **** 
 200:app/drivers/w25q/w25q.c ****   HAL_StatusTypeDef status = W25Q_WaitBusy(hflash);
 201:app/drivers/w25q/w25q.c ****   if (status != HAL_OK)
 202:app/drivers/w25q/w25q.c ****     return status;
 203:app/drivers/w25q/w25q.c **** 
 204:app/drivers/w25q/w25q.c ****   // Set up the QSPI command
 205:app/drivers/w25q/w25q.c ****   sCommand.InstructionMode   = QSPI_INSTRUCTION_1_LINE;
 206:app/drivers/w25q/w25q.c ****   sCommand.Instruction       = W25Q_CMD_READ_ID;
 207:app/drivers/w25q/w25q.c **** 
 208:app/drivers/w25q/w25q.c ****   sCommand.AddressMode       = QSPI_ADDRESS_4_LINES;
 209:app/drivers/w25q/w25q.c ****   sCommand.AddressSize       = QSPI_ADDRESS_24_BITS;
 210:app/drivers/w25q/w25q.c ****   sCommand.Address           = 0x000000;
 211:app/drivers/w25q/w25q.c **** 
 212:app/drivers/w25q/w25q.c ****   sCommand.AlternateByteMode  = QSPI_ALTERNATE_BYTES_NONE;
 213:app/drivers/w25q/w25q.c **** 
 214:app/drivers/w25q/w25q.c ****   sCommand.DataMode          = QSPI_DATA_4_LINES;
 215:app/drivers/w25q/w25q.c ****   sCommand.DummyCycles       = 6; // 2 cycles per byte
 216:app/drivers/w25q/w25q.c ****   sCommand.NbData            = W25Q_ID_SIZE;
 217:app/drivers/w25q/w25q.c **** 
 218:app/drivers/w25q/w25q.c ****   sCommand.DdrMode           = QSPI_DDR_MODE_DISABLE;
 219:app/drivers/w25q/w25q.c ****   sCommand.DdrHoldHalfCycle  = QSPI_DDR_HHC_ANALOG_DELAY;
 220:app/drivers/w25q/w25q.c ****   sCommand.SIOOMode          = QSPI_SIOO_INST_EVERY_CMD;
 221:app/drivers/w25q/w25q.c **** 
 222:app/drivers/w25q/w25q.c ****   // Send the command
 223:app/drivers/w25q/w25q.c ****   status = HAL_QSPI_Command(hflash->hqspi, &sCommand, W25Q_TIMEOUT_DEFAULT);
 224:app/drivers/w25q/w25q.c ****   if (status != HAL_OK)
 225:app/drivers/w25q/w25q.c ****     return status;
 226:app/drivers/w25q/w25q.c **** 
 227:app/drivers/w25q/w25q.c ****   // Receive the data
 228:app/drivers/w25q/w25q.c ****   status = HAL_QSPI_Receive(hflash->hqspi, ID, W25Q_TIMEOUT_DEFAULT);
 229:app/drivers/w25q/w25q.c ****   if (status != HAL_OK)
 230:app/drivers/w25q/w25q.c ****     return status;
 231:app/drivers/w25q/w25q.c **** 
 232:app/drivers/w25q/w25q.c ****   return status;
 233:app/drivers/w25q/w25q.c **** }
 234:app/drivers/w25q/w25q.c **** 
ARM GAS  /tmp/cceNXdBx.s 			page 6


 235:app/drivers/w25q/w25q.c **** HAL_StatusTypeDef W25Q_ReadStatusReg(W25Q_HandleTypeDef *hflash) {
  55              		.loc 1 235 66 is_stmt 1 view -0
  56              		.cfi_startproc
  57              		@ args = 0, pretend = 0, frame = 56
  58              		@ frame_needed = 0, uses_anonymous_args = 0
  59              		.loc 1 235 66 is_stmt 0 view .LVU5
  60 0000 10B5     		push	{r4, lr}
  61              	.LCFI0:
  62              		.cfi_def_cfa_offset 8
  63              		.cfi_offset 4, -8
  64              		.cfi_offset 14, -4
  65 0002 8EB0     		sub	sp, sp, #56
  66              	.LCFI1:
  67              		.cfi_def_cfa_offset 64
  68 0004 0446     		mov	r4, r0
 236:app/drivers/w25q/w25q.c ****   QSPI_CommandTypeDef sCommand;
  69              		.loc 1 236 3 is_stmt 1 view .LVU6
 237:app/drivers/w25q/w25q.c ****   HAL_StatusTypeDef status;
  70              		.loc 1 237 3 view .LVU7
 238:app/drivers/w25q/w25q.c **** 
 239:app/drivers/w25q/w25q.c ****   // Initialize the QSPI command structure
 240:app/drivers/w25q/w25q.c ****   sCommand.InstructionMode   = QSPI_INSTRUCTION_1_LINE;   // Instruction sent on 1 line
  71              		.loc 1 240 3 view .LVU8
  72              		.loc 1 240 30 is_stmt 0 view .LVU9
  73 0006 4FF48073 		mov	r3, #256
  74 000a 0693     		str	r3, [sp, #24]
 241:app/drivers/w25q/w25q.c ****   sCommand.Instruction       = W25Q_CMD_READ_STATUS_REG1; // Read status register 1
  75              		.loc 1 241 3 is_stmt 1 view .LVU10
  76              		.loc 1 241 30 is_stmt 0 view .LVU11
  77 000c 0523     		movs	r3, #5
  78 000e 0093     		str	r3, [sp]
 242:app/drivers/w25q/w25q.c **** 
 243:app/drivers/w25q/w25q.c ****   sCommand.AddressMode       = QSPI_ADDRESS_NONE;        // No address needed for this command
  79              		.loc 1 243 3 is_stmt 1 view .LVU12
  80              		.loc 1 243 30 is_stmt 0 view .LVU13
  81 0010 0023     		movs	r3, #0
  82 0012 0793     		str	r3, [sp, #28]
 244:app/drivers/w25q/w25q.c ****   sCommand.AlternateByteMode = QSPI_ALTERNATE_BYTES_NONE;// No alternate bytes
  83              		.loc 1 244 3 is_stmt 1 view .LVU14
  84              		.loc 1 244 30 is_stmt 0 view .LVU15
  85 0014 0893     		str	r3, [sp, #32]
 245:app/drivers/w25q/w25q.c ****   sCommand.DataMode          = QSPI_DATA_1_LINE;         // Data received on 1 line
  86              		.loc 1 245 3 is_stmt 1 view .LVU16
  87              		.loc 1 245 30 is_stmt 0 view .LVU17
  88 0016 4FF08072 		mov	r2, #16777216
  89 001a 0992     		str	r2, [sp, #36]
 246:app/drivers/w25q/w25q.c ****   sCommand.DummyCycles       = 0;                        // No dummy cycles needed
  90              		.loc 1 246 3 is_stmt 1 view .LVU18
  91              		.loc 1 246 30 is_stmt 0 view .LVU19
  92 001c 0593     		str	r3, [sp, #20]
 247:app/drivers/w25q/w25q.c ****   sCommand.NbData            = 1;                        // We expect to receive 1 byte (the status
  93              		.loc 1 247 3 is_stmt 1 view .LVU20
  94              		.loc 1 247 30 is_stmt 0 view .LVU21
  95 001e 0122     		movs	r2, #1
  96 0020 0A92     		str	r2, [sp, #40]
 248:app/drivers/w25q/w25q.c **** 
 249:app/drivers/w25q/w25q.c ****   sCommand.DdrMode           = QSPI_DDR_MODE_DISABLE;    // No DDR mode
ARM GAS  /tmp/cceNXdBx.s 			page 7


  97              		.loc 1 249 3 is_stmt 1 view .LVU22
  98              		.loc 1 249 30 is_stmt 0 view .LVU23
  99 0022 0B93     		str	r3, [sp, #44]
 250:app/drivers/w25q/w25q.c ****   sCommand.DdrHoldHalfCycle  = QSPI_DDR_HHC_ANALOG_DELAY;// No DDR hold
 100              		.loc 1 250 3 is_stmt 1 view .LVU24
 101              		.loc 1 250 30 is_stmt 0 view .LVU25
 102 0024 0C93     		str	r3, [sp, #48]
 251:app/drivers/w25q/w25q.c ****   sCommand.SIOOMode          = QSPI_SIOO_INST_EVERY_CMD; // Send instruction every time
 103              		.loc 1 251 3 is_stmt 1 view .LVU26
 104              		.loc 1 251 30 is_stmt 0 view .LVU27
 105 0026 0D93     		str	r3, [sp, #52]
 252:app/drivers/w25q/w25q.c **** 
 253:app/drivers/w25q/w25q.c ****   // Send the command
 254:app/drivers/w25q/w25q.c ****   status = HAL_QSPI_Command(hflash->hqspi, &sCommand, HAL_QSPI_TIMEOUT_DEFAULT_VALUE);
 106              		.loc 1 254 3 is_stmt 1 view .LVU28
 107              		.loc 1 254 12 is_stmt 0 view .LVU29
 108 0028 41F28832 		movw	r2, #5000
 109 002c 6946     		mov	r1, sp
 110 002e 0068     		ldr	r0, [r0]
 111              	.LVL3:
 112              		.loc 1 254 12 view .LVU30
 113 0030 FFF7FEFF 		bl	HAL_QSPI_Command
 114              	.LVL4:
 255:app/drivers/w25q/w25q.c ****   if (status != HAL_OK)
 115              		.loc 1 255 3 is_stmt 1 view .LVU31
 116              		.loc 1 255 6 is_stmt 0 view .LVU32
 117 0034 08B1     		cbz	r0, .L5
 118              	.LVL5:
 119              	.L3:
 256:app/drivers/w25q/w25q.c ****     return status;
 257:app/drivers/w25q/w25q.c **** 
 258:app/drivers/w25q/w25q.c ****   // Receive the status register value
 259:app/drivers/w25q/w25q.c ****   status = HAL_QSPI_Receive(hflash->hqspi, &hflash->status.status1Reg, HAL_QSPI_TIMEOUT_DEFAULT_VAL
 260:app/drivers/w25q/w25q.c ****   if (status != HAL_OK)
 261:app/drivers/w25q/w25q.c ****     return status;
 262:app/drivers/w25q/w25q.c **** 
 263:app/drivers/w25q/w25q.c ****   return HAL_OK;
 264:app/drivers/w25q/w25q.c **** }
 120              		.loc 1 264 1 view .LVU33
 121 0036 0EB0     		add	sp, sp, #56
 122              	.LCFI2:
 123              		.cfi_remember_state
 124              		.cfi_def_cfa_offset 8
 125              		@ sp needed
 126 0038 10BD     		pop	{r4, pc}
 127              	.LVL6:
 128              	.L5:
 129              	.LCFI3:
 130              		.cfi_restore_state
 259:app/drivers/w25q/w25q.c ****   if (status != HAL_OK)
 131              		.loc 1 259 3 is_stmt 1 view .LVU34
 259:app/drivers/w25q/w25q.c ****   if (status != HAL_OK)
 132              		.loc 1 259 12 is_stmt 0 view .LVU35
 133 003a 2146     		mov	r1, r4
 134 003c 51F8240B 		ldr	r0, [r1], #36
 135 0040 41F28832 		movw	r2, #5000
 136 0044 FFF7FEFF 		bl	HAL_QSPI_Receive
ARM GAS  /tmp/cceNXdBx.s 			page 8


 137              	.LVL7:
 260:app/drivers/w25q/w25q.c ****     return status;
 138              		.loc 1 260 3 is_stmt 1 view .LVU36
 139 0048 F5E7     		b	.L3
 140              		.cfi_endproc
 141              	.LFE141:
 143              		.section	.text.W25Q_isBusy,"ax",%progbits
 144              		.align	1
 145              		.global	W25Q_isBusy
 146              		.syntax unified
 147              		.thumb
 148              		.thumb_func
 149              		.fpu fpv4-sp-d16
 151              	W25Q_isBusy:
 152              	.LVL8:
 153              	.LFB142:
 265:app/drivers/w25q/w25q.c **** 
 266:app/drivers/w25q/w25q.c **** HAL_StatusTypeDef W25Q_isBusy(W25Q_HandleTypeDef *hflash) {
 154              		.loc 1 266 59 view -0
 155              		.cfi_startproc
 156              		@ args = 0, pretend = 0, frame = 0
 157              		@ frame_needed = 0, uses_anonymous_args = 0
 158              		.loc 1 266 59 is_stmt 0 view .LVU38
 159 0000 10B5     		push	{r4, lr}
 160              	.LCFI4:
 161              		.cfi_def_cfa_offset 8
 162              		.cfi_offset 4, -8
 163              		.cfi_offset 14, -4
 164 0002 0446     		mov	r4, r0
 267:app/drivers/w25q/w25q.c ****   // Read the status register
 268:app/drivers/w25q/w25q.c ****   if (W25Q_ReadStatusReg(hflash) != HAL_OK) {
 165              		.loc 1 268 3 is_stmt 1 view .LVU39
 166              		.loc 1 268 7 is_stmt 0 view .LVU40
 167 0004 FFF7FEFF 		bl	W25Q_ReadStatusReg
 168              	.LVL9:
 169              		.loc 1 268 6 view .LVU41
 170 0008 28B9     		cbnz	r0, .L8
 269:app/drivers/w25q/w25q.c ****     return HAL_ERROR;
 270:app/drivers/w25q/w25q.c ****   }
 271:app/drivers/w25q/w25q.c **** 
 272:app/drivers/w25q/w25q.c ****   // Check the busy flag
 273:app/drivers/w25q/w25q.c ****   if (hflash->status.status1RegBits.busy) {
 171              		.loc 1 273 3 is_stmt 1 view .LVU42
 172              		.loc 1 273 7 is_stmt 0 view .LVU43
 173 000a 94F82400 		ldrb	r0, [r4, #36]	@ zero_extendqisi2
 174              		.loc 1 273 6 view .LVU44
 175 000e 10F00100 		ands	r0, r0, #1
 176 0012 02D1     		bne	.L11
 177              	.L7:
 274:app/drivers/w25q/w25q.c ****     return HAL_BUSY;
 275:app/drivers/w25q/w25q.c ****   }
 276:app/drivers/w25q/w25q.c **** 
 277:app/drivers/w25q/w25q.c ****   return HAL_OK;
 278:app/drivers/w25q/w25q.c **** }
 178              		.loc 1 278 1 view .LVU45
 179 0014 10BD     		pop	{r4, pc}
 180              	.LVL10:
ARM GAS  /tmp/cceNXdBx.s 			page 9


 181              	.L8:
 269:app/drivers/w25q/w25q.c ****     return HAL_ERROR;
 182              		.loc 1 269 12 view .LVU46
 183 0016 0120     		movs	r0, #1
 184 0018 FCE7     		b	.L7
 185              	.L11:
 274:app/drivers/w25q/w25q.c ****     return HAL_BUSY;
 186              		.loc 1 274 12 view .LVU47
 187 001a 0220     		movs	r0, #2
 188 001c FAE7     		b	.L7
 189              		.cfi_endproc
 190              	.LFE142:
 192              		.section	.text.W25Q_WaitBusy,"ax",%progbits
 193              		.align	1
 194              		.syntax unified
 195              		.thumb
 196              		.thumb_func
 197              		.fpu fpv4-sp-d16
 199              	W25Q_WaitBusy:
 200              	.LVL11:
 201              	.LFB144:
 279:app/drivers/w25q/w25q.c **** 
 280:app/drivers/w25q/w25q.c **** HAL_StatusTypeDef W25Q_EnableWright(W25Q_HandleTypeDef *hflash) {
 281:app/drivers/w25q/w25q.c ****   QSPI_CommandTypeDef sCommand;
 282:app/drivers/w25q/w25q.c **** 
 283:app/drivers/w25q/w25q.c ****   HAL_StatusTypeDef status = W25Q_WaitBusy(hflash);
 284:app/drivers/w25q/w25q.c ****   if (status != HAL_OK)
 285:app/drivers/w25q/w25q.c ****     return status;
 286:app/drivers/w25q/w25q.c **** 
 287:app/drivers/w25q/w25q.c ****   // Set up the QSPI command
 288:app/drivers/w25q/w25q.c ****   sCommand.InstructionMode   = QSPI_INSTRUCTION_1_LINE;
 289:app/drivers/w25q/w25q.c ****   sCommand.Instruction       = W25Q_CMD_WRITE_ENABLE;
 290:app/drivers/w25q/w25q.c **** 
 291:app/drivers/w25q/w25q.c ****   sCommand.AddressMode       = QSPI_ADDRESS_NONE;
 292:app/drivers/w25q/w25q.c **** 
 293:app/drivers/w25q/w25q.c ****   sCommand.AlternateByteMode  = QSPI_ALTERNATE_BYTES_NONE;
 294:app/drivers/w25q/w25q.c **** 
 295:app/drivers/w25q/w25q.c ****   sCommand.DataMode          = QSPI_DATA_NONE;
 296:app/drivers/w25q/w25q.c ****   sCommand.DummyCycles       = 0;
 297:app/drivers/w25q/w25q.c ****   sCommand.NbData            = 0;
 298:app/drivers/w25q/w25q.c **** 
 299:app/drivers/w25q/w25q.c ****   sCommand.DdrMode           = QSPI_DDR_MODE_DISABLE;
 300:app/drivers/w25q/w25q.c ****   sCommand.DdrHoldHalfCycle  = QSPI_DDR_HHC_ANALOG_DELAY;
 301:app/drivers/w25q/w25q.c ****   sCommand.SIOOMode          = QSPI_SIOO_INST_EVERY_CMD;
 302:app/drivers/w25q/w25q.c **** 
 303:app/drivers/w25q/w25q.c ****   // Send the enable wright command
 304:app/drivers/w25q/w25q.c ****   status = HAL_QSPI_Command(hflash->hqspi, &sCommand, HAL_QSPI_TIMEOUT_DEFAULT_VALUE);
 305:app/drivers/w25q/w25q.c **** 
 306:app/drivers/w25q/w25q.c ****   if (status != HAL_OK)
 307:app/drivers/w25q/w25q.c ****     return status;
 308:app/drivers/w25q/w25q.c **** 
 309:app/drivers/w25q/w25q.c ****   status = W25Q_WaitBusy(hflash);
 310:app/drivers/w25q/w25q.c ****   if (status != HAL_OK)
 311:app/drivers/w25q/w25q.c ****     return status;
 312:app/drivers/w25q/w25q.c **** 
 313:app/drivers/w25q/w25q.c ****   return status;
 314:app/drivers/w25q/w25q.c **** }
ARM GAS  /tmp/cceNXdBx.s 			page 10


 315:app/drivers/w25q/w25q.c **** 
 316:app/drivers/w25q/w25q.c **** static HAL_StatusTypeDef W25Q_WaitBusy(W25Q_HandleTypeDef *hflash) {
 202              		.loc 1 316 68 is_stmt 1 view -0
 203              		.cfi_startproc
 204              		@ args = 0, pretend = 0, frame = 0
 205              		@ frame_needed = 0, uses_anonymous_args = 0
 206              		.loc 1 316 68 is_stmt 0 view .LVU49
 207 0000 10B5     		push	{r4, lr}
 208              	.LCFI5:
 209              		.cfi_def_cfa_offset 8
 210              		.cfi_offset 4, -8
 211              		.cfi_offset 14, -4
 212 0002 0446     		mov	r4, r0
 317:app/drivers/w25q/w25q.c ****   hflash->busyWaitCycles = FLASH_BUSY_WAIT_CYCLES; // refresh the counter
 213              		.loc 1 317 3 is_stmt 1 view .LVU50
 214              		.loc 1 317 26 is_stmt 0 view .LVU51
 215 0004 0523     		movs	r3, #5
 216 0006 80F82530 		strb	r3, [r0, #37]
 318:app/drivers/w25q/w25q.c **** 
 319:app/drivers/w25q/w25q.c ****   while (W25Q_isBusy(hflash) == HAL_BUSY && hflash->busyWaitCycles-- > NO_FLASH_BUSY_WAIT_CYCLES_LE
 217              		.loc 1 319 3 is_stmt 1 view .LVU52
 218              		.loc 1 319 9 is_stmt 0 view .LVU53
 219 000a 02E0     		b	.L13
 220              	.LVL12:
 221              	.L15:
 320:app/drivers/w25q/w25q.c ****     osDelay(1);
 222              		.loc 1 320 5 is_stmt 1 view .LVU54
 223 000c 0120     		movs	r0, #1
 224 000e FFF7FEFF 		bl	osDelay
 225              	.LVL13:
 226              	.L13:
 319:app/drivers/w25q/w25q.c ****     osDelay(1);
 227              		.loc 1 319 9 view .LVU55
 319:app/drivers/w25q/w25q.c ****     osDelay(1);
 228              		.loc 1 319 10 is_stmt 0 view .LVU56
 229 0012 2046     		mov	r0, r4
 230 0014 FFF7FEFF 		bl	W25Q_isBusy
 231              	.LVL14:
 319:app/drivers/w25q/w25q.c ****     osDelay(1);
 232              		.loc 1 319 9 view .LVU57
 233 0018 0228     		cmp	r0, #2
 234 001a 06D1     		bne	.L14
 319:app/drivers/w25q/w25q.c ****     osDelay(1);
 235              		.loc 1 319 51 discriminator 1 view .LVU58
 236 001c 94F82530 		ldrb	r3, [r4, #37]	@ zero_extendqisi2
 319:app/drivers/w25q/w25q.c ****     osDelay(1);
 237              		.loc 1 319 67 discriminator 1 view .LVU59
 238 0020 5A1E     		subs	r2, r3, #1
 239 0022 84F82520 		strb	r2, [r4, #37]
 319:app/drivers/w25q/w25q.c ****     osDelay(1);
 240              		.loc 1 319 42 discriminator 1 view .LVU60
 241 0026 002B     		cmp	r3, #0
 242 0028 F0D1     		bne	.L15
 243              	.L14:
 321:app/drivers/w25q/w25q.c **** 
 322:app/drivers/w25q/w25q.c ****   if (hflash->busyWaitCycles <= NO_FLASH_BUSY_WAIT_CYCLES_LEFT)
 244              		.loc 1 322 3 is_stmt 1 view .LVU61
ARM GAS  /tmp/cceNXdBx.s 			page 11


 245              		.loc 1 322 13 is_stmt 0 view .LVU62
 246 002a 94F82530 		ldrb	r3, [r4, #37]	@ zero_extendqisi2
 247              		.loc 1 322 6 view .LVU63
 248 002e 0BB1     		cbz	r3, .L17
 323:app/drivers/w25q/w25q.c ****     return HAL_TIMEOUT;
 324:app/drivers/w25q/w25q.c **** 
 325:app/drivers/w25q/w25q.c ****   return HAL_OK;
 249              		.loc 1 325 10 view .LVU64
 250 0030 0020     		movs	r0, #0
 251              	.L16:
 326:app/drivers/w25q/w25q.c **** }...
 252              		.loc 1 326 1 view .LVU65
 253 0032 10BD     		pop	{r4, pc}
 254              	.LVL15:
 255              	.L17:
 323:app/drivers/w25q/w25q.c ****     return HAL_TIMEOUT;
 256              		.loc 1 323 12 view .LVU66
 257 0034 0320     		movs	r0, #3
 258 0036 FCE7     		b	.L16
 259              		.cfi_endproc
 260              	.LFE144:
 262              		.section	.text.W25Q_ReadData,"ax",%progbits
 263              		.align	1
 264              		.global	W25Q_ReadData
 265              		.syntax unified
 266              		.thumb
 267              		.thumb_func
 268              		.fpu fpv4-sp-d16
 270              	W25Q_ReadData:
 271              	.LVL16:
 272              	.LFB136:
  33:app/drivers/w25q/w25q.c **** HAL_StatusTypeDef W25Q_ReadData(W25Q_HandleTypeDef *hflash, uint8_t *const dataBuffer, uint32_t add
 273              		.loc 1 33 121 is_stmt 1 view -0
 274              		.cfi_startproc
 275              		@ args = 0, pretend = 0, frame = 56
 276              		@ frame_needed = 0, uses_anonymous_args = 0
  33:app/drivers/w25q/w25q.c **** HAL_StatusTypeDef W25Q_ReadData(W25Q_HandleTypeDef *hflash, uint8_t *const dataBuffer, uint32_t add
 277              		.loc 1 33 121 is_stmt 0 view .LVU68
 278 0000 F0B5     		push	{r4, r5, r6, r7, lr}
 279              	.LCFI6:
 280              		.cfi_def_cfa_offset 20
 281              		.cfi_offset 4, -20
 282              		.cfi_offset 5, -16
 283              		.cfi_offset 6, -12
 284              		.cfi_offset 7, -8
 285              		.cfi_offset 14, -4
 286 0002 8FB0     		sub	sp, sp, #60
 287              	.LCFI7:
 288              		.cfi_def_cfa_offset 80
 289 0004 0446     		mov	r4, r0
 290 0006 0E46     		mov	r6, r1
 291 0008 1746     		mov	r7, r2
 292 000a 1D46     		mov	r5, r3
  34:app/drivers/w25q/w25q.c ****   QSPI_CommandTypeDef sCommand;
 293              		.loc 1 34 3 is_stmt 1 view .LVU69
  36:app/drivers/w25q/w25q.c ****   HAL_StatusTypeDef status = W25Q_WaitBusy(hflash);
 294              		.loc 1 36 3 view .LVU70
ARM GAS  /tmp/cceNXdBx.s 			page 12


  36:app/drivers/w25q/w25q.c ****   HAL_StatusTypeDef status = W25Q_WaitBusy(hflash);
 295              		.loc 1 36 30 is_stmt 0 view .LVU71
 296 000c FFF7FEFF 		bl	W25Q_WaitBusy
 297              	.LVL17:
  37:app/drivers/w25q/w25q.c ****   if (status != HAL_OK)
 298              		.loc 1 37 3 is_stmt 1 view .LVU72
  37:app/drivers/w25q/w25q.c ****   if (status != HAL_OK)
 299              		.loc 1 37 6 is_stmt 0 view .LVU73
 300 0010 8446     		mov	ip, r0
 301 0012 10B1     		cbz	r0, .L22
 302              	.LVL18:
 303              	.L20:
  71:app/drivers/w25q/w25q.c **** }
 304              		.loc 1 71 1 view .LVU74
 305 0014 6046     		mov	r0, ip
 306 0016 0FB0     		add	sp, sp, #60
 307              	.LCFI8:
 308              		.cfi_remember_state
 309              		.cfi_def_cfa_offset 20
 310              		@ sp needed
 311 0018 F0BD     		pop	{r4, r5, r6, r7, pc}
 312              	.LVL19:
 313              	.L22:
 314              	.LCFI9:
 315              		.cfi_restore_state
  41:app/drivers/w25q/w25q.c ****   sCommand.InstructionMode   = QSPI_INSTRUCTION_1_LINE;
 316              		.loc 1 41 3 is_stmt 1 view .LVU75
  41:app/drivers/w25q/w25q.c ****   sCommand.InstructionMode   = QSPI_INSTRUCTION_1_LINE;
 317              		.loc 1 41 30 is_stmt 0 view .LVU76
 318 001a 4FF48073 		mov	r3, #256
 319 001e 0693     		str	r3, [sp, #24]
  42:app/drivers/w25q/w25q.c ****   sCommand.Instruction       = W25Q_CMD_FAST_READ;
 320              		.loc 1 42 3 is_stmt 1 view .LVU77
  42:app/drivers/w25q/w25q.c ****   sCommand.Instruction       = W25Q_CMD_FAST_READ;
 321              		.loc 1 42 30 is_stmt 0 view .LVU78
 322 0020 EB23     		movs	r3, #235
 323 0022 0093     		str	r3, [sp]
  44:app/drivers/w25q/w25q.c ****   sCommand.AddressMode       = QSPI_ADDRESS_4_LINES;
 324              		.loc 1 44 3 is_stmt 1 view .LVU79
  44:app/drivers/w25q/w25q.c ****   sCommand.AddressMode       = QSPI_ADDRESS_4_LINES;
 325              		.loc 1 44 30 is_stmt 0 view .LVU80
 326 0024 4FF44063 		mov	r3, #3072
 327 0028 0793     		str	r3, [sp, #28]
  45:app/drivers/w25q/w25q.c ****   sCommand.AddressSize       = QSPI_ADDRESS_24_BITS;
 328              		.loc 1 45 3 is_stmt 1 view .LVU81
  45:app/drivers/w25q/w25q.c ****   sCommand.AddressSize       = QSPI_ADDRESS_24_BITS;
 329              		.loc 1 45 30 is_stmt 0 view .LVU82
 330 002a 4FF40053 		mov	r3, #8192
 331 002e 0393     		str	r3, [sp, #12]
  46:app/drivers/w25q/w25q.c ****   sCommand.Address           = address;
 332              		.loc 1 46 3 is_stmt 1 view .LVU83
  46:app/drivers/w25q/w25q.c ****   sCommand.Address           = address;
 333              		.loc 1 46 30 is_stmt 0 view .LVU84
 334 0030 0197     		str	r7, [sp, #4]
  48:app/drivers/w25q/w25q.c ****   sCommand.AlternateByteMode  = QSPI_ALTERNATE_BYTES_NONE;
 335              		.loc 1 48 3 is_stmt 1 view .LVU85
  48:app/drivers/w25q/w25q.c ****   sCommand.AlternateByteMode  = QSPI_ALTERNATE_BYTES_NONE;
ARM GAS  /tmp/cceNXdBx.s 			page 13


 336              		.loc 1 48 31 is_stmt 0 view .LVU86
 337 0032 0022     		movs	r2, #0
 338 0034 0892     		str	r2, [sp, #32]
  50:app/drivers/w25q/w25q.c ****   sCommand.DataMode          = QSPI_DATA_4_LINES;
 339              		.loc 1 50 3 is_stmt 1 view .LVU87
  50:app/drivers/w25q/w25q.c ****   sCommand.DataMode          = QSPI_DATA_4_LINES;
 340              		.loc 1 50 30 is_stmt 0 view .LVU88
 341 0036 4FF04073 		mov	r3, #50331648
 342 003a 0993     		str	r3, [sp, #36]
  51:app/drivers/w25q/w25q.c ****   sCommand.DummyCycles       = 8;
 343              		.loc 1 51 3 is_stmt 1 view .LVU89
  51:app/drivers/w25q/w25q.c ****   sCommand.DummyCycles       = 8;
 344              		.loc 1 51 30 is_stmt 0 view .LVU90
 345 003c 0823     		movs	r3, #8
 346 003e 0593     		str	r3, [sp, #20]
  52:app/drivers/w25q/w25q.c ****   sCommand.NbData            = size;
 347              		.loc 1 52 3 is_stmt 1 view .LVU91
  52:app/drivers/w25q/w25q.c ****   sCommand.NbData            = size;
 348              		.loc 1 52 30 is_stmt 0 view .LVU92
 349 0040 0A95     		str	r5, [sp, #40]
  54:app/drivers/w25q/w25q.c ****   sCommand.DdrMode           = QSPI_DDR_MODE_DISABLE;
 350              		.loc 1 54 3 is_stmt 1 view .LVU93
  54:app/drivers/w25q/w25q.c ****   sCommand.DdrMode           = QSPI_DDR_MODE_DISABLE;
 351              		.loc 1 54 30 is_stmt 0 view .LVU94
 352 0042 0B92     		str	r2, [sp, #44]
  55:app/drivers/w25q/w25q.c ****   sCommand.DdrHoldHalfCycle  = QSPI_DDR_HHC_ANALOG_DELAY;
 353              		.loc 1 55 3 is_stmt 1 view .LVU95
  55:app/drivers/w25q/w25q.c ****   sCommand.DdrHoldHalfCycle  = QSPI_DDR_HHC_ANALOG_DELAY;
 354              		.loc 1 55 30 is_stmt 0 view .LVU96
 355 0044 0C92     		str	r2, [sp, #48]
  56:app/drivers/w25q/w25q.c ****   sCommand.SIOOMode          = QSPI_SIOO_INST_EVERY_CMD;
 356              		.loc 1 56 3 is_stmt 1 view .LVU97
  56:app/drivers/w25q/w25q.c ****   sCommand.SIOOMode          = QSPI_SIOO_INST_EVERY_CMD;
 357              		.loc 1 56 30 is_stmt 0 view .LVU98
 358 0046 0D92     		str	r2, [sp, #52]
  61:app/drivers/w25q/w25q.c ****   status = HAL_QSPI_Command(hflash->hqspi, &sCommand, W25Q_TIMEOUT_DEFAULT);
 359              		.loc 1 61 3 is_stmt 1 view .LVU99
  61:app/drivers/w25q/w25q.c ****   status = HAL_QSPI_Command(hflash->hqspi, &sCommand, W25Q_TIMEOUT_DEFAULT);
 360              		.loc 1 61 12 is_stmt 0 view .LVU100
 361 0048 4FF47A72 		mov	r2, #1000
 362 004c 6946     		mov	r1, sp
 363 004e 2068     		ldr	r0, [r4]
 364              	.LVL20:
  61:app/drivers/w25q/w25q.c ****   status = HAL_QSPI_Command(hflash->hqspi, &sCommand, W25Q_TIMEOUT_DEFAULT);
 365              		.loc 1 61 12 view .LVU101
 366 0050 FFF7FEFF 		bl	HAL_QSPI_Command
 367              	.LVL21:
  62:app/drivers/w25q/w25q.c ****   if (status != HAL_OK)
 368              		.loc 1 62 3 is_stmt 1 view .LVU102
  62:app/drivers/w25q/w25q.c ****   if (status != HAL_OK)
 369              		.loc 1 62 6 is_stmt 0 view .LVU103
 370 0054 8446     		mov	ip, r0
 371 0056 0028     		cmp	r0, #0
 372 0058 DCD1     		bne	.L20
  66:app/drivers/w25q/w25q.c ****   status = HAL_QSPI_Receive(hflash->hqspi, dataBuffer, W25Q_TIMEOUT_DEFAULT);
 373              		.loc 1 66 3 is_stmt 1 view .LVU104
  66:app/drivers/w25q/w25q.c ****   status = HAL_QSPI_Receive(hflash->hqspi, dataBuffer, W25Q_TIMEOUT_DEFAULT);
ARM GAS  /tmp/cceNXdBx.s 			page 14


 374              		.loc 1 66 12 is_stmt 0 view .LVU105
 375 005a 4FF47A72 		mov	r2, #1000
 376 005e 3146     		mov	r1, r6
 377 0060 2068     		ldr	r0, [r4]
 378              	.LVL22:
  66:app/drivers/w25q/w25q.c ****   status = HAL_QSPI_Receive(hflash->hqspi, dataBuffer, W25Q_TIMEOUT_DEFAULT);
 379              		.loc 1 66 12 view .LVU106
 380 0062 FFF7FEFF 		bl	HAL_QSPI_Receive
 381              	.LVL23:
 382 0066 8446     		mov	ip, r0
 383              	.LVL24:
  67:app/drivers/w25q/w25q.c ****   if (status != HAL_OK)
 384              		.loc 1 67 3 is_stmt 1 view .LVU107
 385 0068 D4E7     		b	.L20
 386              		.cfi_endproc
 387              	.LFE136:
 389              		.section	.text.W25Q_Sleep,"ax",%progbits
 390              		.align	1
 391              		.global	W25Q_Sleep
 392              		.syntax unified
 393              		.thumb
 394              		.thumb_func
 395              		.fpu fpv4-sp-d16
 397              	W25Q_Sleep:
 398              	.LVL25:
 399              	.LFB139:
 154:app/drivers/w25q/w25q.c **** HAL_StatusTypeDef W25Q_Sleep(W25Q_HandleTypeDef *hflash) {
 400              		.loc 1 154 58 view -0
 401              		.cfi_startproc
 402              		@ args = 0, pretend = 0, frame = 56
 403              		@ frame_needed = 0, uses_anonymous_args = 0
 154:app/drivers/w25q/w25q.c **** HAL_StatusTypeDef W25Q_Sleep(W25Q_HandleTypeDef *hflash) {
 404              		.loc 1 154 58 is_stmt 0 view .LVU109
 405 0000 10B5     		push	{r4, lr}
 406              	.LCFI10:
 407              		.cfi_def_cfa_offset 8
 408              		.cfi_offset 4, -8
 409              		.cfi_offset 14, -4
 410 0002 8EB0     		sub	sp, sp, #56
 411              	.LCFI11:
 412              		.cfi_def_cfa_offset 64
 413 0004 0446     		mov	r4, r0
 155:app/drivers/w25q/w25q.c ****   QSPI_CommandTypeDef sCommand;
 414              		.loc 1 155 3 is_stmt 1 view .LVU110
 157:app/drivers/w25q/w25q.c ****   HAL_StatusTypeDef status = W25Q_WaitBusy(hflash);
 415              		.loc 1 157 3 view .LVU111
 157:app/drivers/w25q/w25q.c ****   HAL_StatusTypeDef status = W25Q_WaitBusy(hflash);
 416              		.loc 1 157 30 is_stmt 0 view .LVU112
 417 0006 FFF7FEFF 		bl	W25Q_WaitBusy
 418              	.LVL26:
 158:app/drivers/w25q/w25q.c ****   if (status != HAL_OK)
 419              		.loc 1 158 3 is_stmt 1 view .LVU113
 158:app/drivers/w25q/w25q.c ****   if (status != HAL_OK)
 420              		.loc 1 158 6 is_stmt 0 view .LVU114
 421 000a 08B1     		cbz	r0, .L26
 422              	.L24:
 185:app/drivers/w25q/w25q.c **** }
ARM GAS  /tmp/cceNXdBx.s 			page 15


 423              		.loc 1 185 1 view .LVU115
 424 000c 0EB0     		add	sp, sp, #56
 425              	.LCFI12:
 426              		.cfi_remember_state
 427              		.cfi_def_cfa_offset 8
 428              		@ sp needed
 429 000e 10BD     		pop	{r4, pc}
 430              	.LVL27:
 431              	.L26:
 432              	.LCFI13:
 433              		.cfi_restore_state
 162:app/drivers/w25q/w25q.c ****   sCommand.InstructionMode   = QSPI_INSTRUCTION_1_LINE;
 434              		.loc 1 162 3 is_stmt 1 view .LVU116
 162:app/drivers/w25q/w25q.c ****   sCommand.InstructionMode   = QSPI_INSTRUCTION_1_LINE;
 435              		.loc 1 162 30 is_stmt 0 view .LVU117
 436 0010 4FF48073 		mov	r3, #256
 437 0014 0693     		str	r3, [sp, #24]
 163:app/drivers/w25q/w25q.c ****   sCommand.Instruction       = W25Q_CMD_POWER_DOWN;
 438              		.loc 1 163 3 is_stmt 1 view .LVU118
 163:app/drivers/w25q/w25q.c ****   sCommand.Instruction       = W25Q_CMD_POWER_DOWN;
 439              		.loc 1 163 30 is_stmt 0 view .LVU119
 440 0016 B923     		movs	r3, #185
 441 0018 0093     		str	r3, [sp]
 165:app/drivers/w25q/w25q.c ****   sCommand.AddressMode       = QSPI_ADDRESS_NONE;
 442              		.loc 1 165 3 is_stmt 1 view .LVU120
 165:app/drivers/w25q/w25q.c ****   sCommand.AddressMode       = QSPI_ADDRESS_NONE;
 443              		.loc 1 165 30 is_stmt 0 view .LVU121
 444 001a 0023     		movs	r3, #0
 445 001c 0793     		str	r3, [sp, #28]
 167:app/drivers/w25q/w25q.c ****   sCommand.AlternateByteMode  = QSPI_ALTERNATE_BYTES_NONE;
 446              		.loc 1 167 3 is_stmt 1 view .LVU122
 167:app/drivers/w25q/w25q.c ****   sCommand.AlternateByteMode  = QSPI_ALTERNATE_BYTES_NONE;
 447              		.loc 1 167 31 is_stmt 0 view .LVU123
 448 001e 0893     		str	r3, [sp, #32]
 168:app/drivers/w25q/w25q.c ****   sCommand.AlternateBytes     = QSPI_ALTERNATE_BYTES_8_BITS;
 449              		.loc 1 168 3 is_stmt 1 view .LVU124
 168:app/drivers/w25q/w25q.c ****   sCommand.AlternateBytes     = QSPI_ALTERNATE_BYTES_8_BITS;
 450              		.loc 1 168 31 is_stmt 0 view .LVU125
 451 0020 0293     		str	r3, [sp, #8]
 169:app/drivers/w25q/w25q.c ****   sCommand.AlternateBytesSize = QSPI_ALTERNATE_BYTES_8_BITS;
 452              		.loc 1 169 3 is_stmt 1 view .LVU126
 169:app/drivers/w25q/w25q.c ****   sCommand.AlternateBytesSize = QSPI_ALTERNATE_BYTES_8_BITS;
 453              		.loc 1 169 31 is_stmt 0 view .LVU127
 454 0022 0493     		str	r3, [sp, #16]
 171:app/drivers/w25q/w25q.c ****   sCommand.DataMode          = QSPI_DATA_NONE;
 455              		.loc 1 171 3 is_stmt 1 view .LVU128
 171:app/drivers/w25q/w25q.c ****   sCommand.DataMode          = QSPI_DATA_NONE;
 456              		.loc 1 171 30 is_stmt 0 view .LVU129
 457 0024 0993     		str	r3, [sp, #36]
 172:app/drivers/w25q/w25q.c ****   sCommand.DummyCycles       = 0;
 458              		.loc 1 172 3 is_stmt 1 view .LVU130
 172:app/drivers/w25q/w25q.c ****   sCommand.DummyCycles       = 0;
 459              		.loc 1 172 30 is_stmt 0 view .LVU131
 460 0026 0593     		str	r3, [sp, #20]
 173:app/drivers/w25q/w25q.c ****   sCommand.NbData            = 0;
 461              		.loc 1 173 3 is_stmt 1 view .LVU132
 173:app/drivers/w25q/w25q.c ****   sCommand.NbData            = 0;
ARM GAS  /tmp/cceNXdBx.s 			page 16


 462              		.loc 1 173 30 is_stmt 0 view .LVU133
 463 0028 0A93     		str	r3, [sp, #40]
 175:app/drivers/w25q/w25q.c ****   sCommand.DdrMode           = QSPI_DDR_MODE_DISABLE;
 464              		.loc 1 175 3 is_stmt 1 view .LVU134
 175:app/drivers/w25q/w25q.c ****   sCommand.DdrMode           = QSPI_DDR_MODE_DISABLE;
 465              		.loc 1 175 30 is_stmt 0 view .LVU135
 466 002a 0B93     		str	r3, [sp, #44]
 176:app/drivers/w25q/w25q.c ****   sCommand.DdrHoldHalfCycle  = QSPI_DDR_HHC_ANALOG_DELAY;
 467              		.loc 1 176 3 is_stmt 1 view .LVU136
 176:app/drivers/w25q/w25q.c ****   sCommand.DdrHoldHalfCycle  = QSPI_DDR_HHC_ANALOG_DELAY;
 468              		.loc 1 176 30 is_stmt 0 view .LVU137
 469 002c 0C93     		str	r3, [sp, #48]
 177:app/drivers/w25q/w25q.c ****   sCommand.SIOOMode          = QSPI_SIOO_INST_EVERY_CMD;
 470              		.loc 1 177 3 is_stmt 1 view .LVU138
 177:app/drivers/w25q/w25q.c ****   sCommand.SIOOMode          = QSPI_SIOO_INST_EVERY_CMD;
 471              		.loc 1 177 30 is_stmt 0 view .LVU139
 472 002e 0D93     		str	r3, [sp, #52]
 180:app/drivers/w25q/w25q.c ****   status = HAL_QSPI_Command(hflash->hqspi, &sCommand, W25Q_TIMEOUT_DEFAULT);
 473              		.loc 1 180 3 is_stmt 1 view .LVU140
 180:app/drivers/w25q/w25q.c ****   status = HAL_QSPI_Command(hflash->hqspi, &sCommand, W25Q_TIMEOUT_DEFAULT);
 474              		.loc 1 180 12 is_stmt 0 view .LVU141
 475 0030 4FF47A72 		mov	r2, #1000
 476 0034 6946     		mov	r1, sp
 477 0036 2068     		ldr	r0, [r4]
 478 0038 FFF7FEFF 		bl	HAL_QSPI_Command
 479              	.LVL28:
 181:app/drivers/w25q/w25q.c ****   if (status != HAL_OK)
 480              		.loc 1 181 3 is_stmt 1 view .LVU142
 481 003c E6E7     		b	.L24
 482              		.cfi_endproc
 483              	.LFE139:
 485              		.section	.text.W25Q_ReadID,"ax",%progbits
 486              		.align	1
 487              		.global	W25Q_ReadID
 488              		.syntax unified
 489              		.thumb
 490              		.thumb_func
 491              		.fpu fpv4-sp-d16
 493              	W25Q_ReadID:
 494              	.LVL29:
 495              	.LFB140:
 197:app/drivers/w25q/w25q.c **** HAL_StatusTypeDef W25Q_ReadID(W25Q_HandleTypeDef *hflash, uint8_t ID[W25Q_ID_SIZE]) {
 496              		.loc 1 197 85 view -0
 497              		.cfi_startproc
 498              		@ args = 0, pretend = 0, frame = 56
 499              		@ frame_needed = 0, uses_anonymous_args = 0
 197:app/drivers/w25q/w25q.c **** HAL_StatusTypeDef W25Q_ReadID(W25Q_HandleTypeDef *hflash, uint8_t ID[W25Q_ID_SIZE]) {
 500              		.loc 1 197 85 is_stmt 0 view .LVU144
 501 0000 30B5     		push	{r4, r5, lr}
 502              	.LCFI14:
 503              		.cfi_def_cfa_offset 12
 504              		.cfi_offset 4, -12
 505              		.cfi_offset 5, -8
 506              		.cfi_offset 14, -4
 507 0002 8FB0     		sub	sp, sp, #60
 508              	.LCFI15:
 509              		.cfi_def_cfa_offset 72
ARM GAS  /tmp/cceNXdBx.s 			page 17


 510 0004 0546     		mov	r5, r0
 511 0006 0C46     		mov	r4, r1
 198:app/drivers/w25q/w25q.c ****   QSPI_CommandTypeDef sCommand;
 512              		.loc 1 198 3 is_stmt 1 view .LVU145
 200:app/drivers/w25q/w25q.c ****   HAL_StatusTypeDef status = W25Q_WaitBusy(hflash);
 513              		.loc 1 200 3 view .LVU146
 200:app/drivers/w25q/w25q.c ****   HAL_StatusTypeDef status = W25Q_WaitBusy(hflash);
 514              		.loc 1 200 30 is_stmt 0 view .LVU147
 515 0008 FFF7FEFF 		bl	W25Q_WaitBusy
 516              	.LVL30:
 201:app/drivers/w25q/w25q.c ****   if (status != HAL_OK)
 517              		.loc 1 201 3 is_stmt 1 view .LVU148
 201:app/drivers/w25q/w25q.c ****   if (status != HAL_OK)
 518              		.loc 1 201 6 is_stmt 0 view .LVU149
 519 000c 0346     		mov	r3, r0
 520 000e 10B1     		cbz	r0, .L30
 521              	.LVL31:
 522              	.L28:
 233:app/drivers/w25q/w25q.c **** }
 523              		.loc 1 233 1 view .LVU150
 524 0010 1846     		mov	r0, r3
 525 0012 0FB0     		add	sp, sp, #60
 526              	.LCFI16:
 527              		.cfi_remember_state
 528              		.cfi_def_cfa_offset 12
 529              		@ sp needed
 530 0014 30BD     		pop	{r4, r5, pc}
 531              	.LVL32:
 532              	.L30:
 533              	.LCFI17:
 534              		.cfi_restore_state
 205:app/drivers/w25q/w25q.c ****   sCommand.InstructionMode   = QSPI_INSTRUCTION_1_LINE;
 535              		.loc 1 205 3 is_stmt 1 view .LVU151
 205:app/drivers/w25q/w25q.c ****   sCommand.InstructionMode   = QSPI_INSTRUCTION_1_LINE;
 536              		.loc 1 205 30 is_stmt 0 view .LVU152
 537 0016 4FF48073 		mov	r3, #256
 538 001a 0693     		str	r3, [sp, #24]
 206:app/drivers/w25q/w25q.c ****   sCommand.Instruction       = W25Q_CMD_READ_ID;
 539              		.loc 1 206 3 is_stmt 1 view .LVU153
 206:app/drivers/w25q/w25q.c ****   sCommand.Instruction       = W25Q_CMD_READ_ID;
 540              		.loc 1 206 30 is_stmt 0 view .LVU154
 541 001c 9423     		movs	r3, #148
 542 001e 0093     		str	r3, [sp]
 208:app/drivers/w25q/w25q.c ****   sCommand.AddressMode       = QSPI_ADDRESS_4_LINES;
 543              		.loc 1 208 3 is_stmt 1 view .LVU155
 208:app/drivers/w25q/w25q.c ****   sCommand.AddressMode       = QSPI_ADDRESS_4_LINES;
 544              		.loc 1 208 30 is_stmt 0 view .LVU156
 545 0020 4FF44063 		mov	r3, #3072
 546 0024 0793     		str	r3, [sp, #28]
 209:app/drivers/w25q/w25q.c ****   sCommand.AddressSize       = QSPI_ADDRESS_24_BITS;
 547              		.loc 1 209 3 is_stmt 1 view .LVU157
 209:app/drivers/w25q/w25q.c ****   sCommand.AddressSize       = QSPI_ADDRESS_24_BITS;
 548              		.loc 1 209 30 is_stmt 0 view .LVU158
 549 0026 4FF40053 		mov	r3, #8192
 550 002a 0393     		str	r3, [sp, #12]
 210:app/drivers/w25q/w25q.c ****   sCommand.Address           = 0x000000;
 551              		.loc 1 210 3 is_stmt 1 view .LVU159
ARM GAS  /tmp/cceNXdBx.s 			page 18


 210:app/drivers/w25q/w25q.c ****   sCommand.Address           = 0x000000;
 552              		.loc 1 210 30 is_stmt 0 view .LVU160
 553 002c 0023     		movs	r3, #0
 554 002e 0193     		str	r3, [sp, #4]
 212:app/drivers/w25q/w25q.c ****   sCommand.AlternateByteMode  = QSPI_ALTERNATE_BYTES_NONE;
 555              		.loc 1 212 3 is_stmt 1 view .LVU161
 212:app/drivers/w25q/w25q.c ****   sCommand.AlternateByteMode  = QSPI_ALTERNATE_BYTES_NONE;
 556              		.loc 1 212 31 is_stmt 0 view .LVU162
 557 0030 0893     		str	r3, [sp, #32]
 214:app/drivers/w25q/w25q.c ****   sCommand.DataMode          = QSPI_DATA_4_LINES;
 558              		.loc 1 214 3 is_stmt 1 view .LVU163
 214:app/drivers/w25q/w25q.c ****   sCommand.DataMode          = QSPI_DATA_4_LINES;
 559              		.loc 1 214 30 is_stmt 0 view .LVU164
 560 0032 4FF04072 		mov	r2, #50331648
 561 0036 0992     		str	r2, [sp, #36]
 215:app/drivers/w25q/w25q.c ****   sCommand.DummyCycles       = 6; // 2 cycles per byte
 562              		.loc 1 215 3 is_stmt 1 view .LVU165
 215:app/drivers/w25q/w25q.c ****   sCommand.DummyCycles       = 6; // 2 cycles per byte
 563              		.loc 1 215 30 is_stmt 0 view .LVU166
 564 0038 0622     		movs	r2, #6
 565 003a 0592     		str	r2, [sp, #20]
 216:app/drivers/w25q/w25q.c ****   sCommand.NbData            = W25Q_ID_SIZE;
 566              		.loc 1 216 3 is_stmt 1 view .LVU167
 216:app/drivers/w25q/w25q.c ****   sCommand.NbData            = W25Q_ID_SIZE;
 567              		.loc 1 216 30 is_stmt 0 view .LVU168
 568 003c 0222     		movs	r2, #2
 569 003e 0A92     		str	r2, [sp, #40]
 218:app/drivers/w25q/w25q.c ****   sCommand.DdrMode           = QSPI_DDR_MODE_DISABLE;
 570              		.loc 1 218 3 is_stmt 1 view .LVU169
 218:app/drivers/w25q/w25q.c ****   sCommand.DdrMode           = QSPI_DDR_MODE_DISABLE;
 571              		.loc 1 218 30 is_stmt 0 view .LVU170
 572 0040 0B93     		str	r3, [sp, #44]
 219:app/drivers/w25q/w25q.c ****   sCommand.DdrHoldHalfCycle  = QSPI_DDR_HHC_ANALOG_DELAY;
 573              		.loc 1 219 3 is_stmt 1 view .LVU171
 219:app/drivers/w25q/w25q.c ****   sCommand.DdrHoldHalfCycle  = QSPI_DDR_HHC_ANALOG_DELAY;
 574              		.loc 1 219 30 is_stmt 0 view .LVU172
 575 0042 0C93     		str	r3, [sp, #48]
 220:app/drivers/w25q/w25q.c ****   sCommand.SIOOMode          = QSPI_SIOO_INST_EVERY_CMD;
 576              		.loc 1 220 3 is_stmt 1 view .LVU173
 220:app/drivers/w25q/w25q.c ****   sCommand.SIOOMode          = QSPI_SIOO_INST_EVERY_CMD;
 577              		.loc 1 220 30 is_stmt 0 view .LVU174
 578 0044 0D93     		str	r3, [sp, #52]
 223:app/drivers/w25q/w25q.c ****   status = HAL_QSPI_Command(hflash->hqspi, &sCommand, W25Q_TIMEOUT_DEFAULT);
 579              		.loc 1 223 3 is_stmt 1 view .LVU175
 223:app/drivers/w25q/w25q.c ****   status = HAL_QSPI_Command(hflash->hqspi, &sCommand, W25Q_TIMEOUT_DEFAULT);
 580              		.loc 1 223 12 is_stmt 0 view .LVU176
 581 0046 4FF47A72 		mov	r2, #1000
 582 004a 6946     		mov	r1, sp
 583 004c 2868     		ldr	r0, [r5]
 584              	.LVL33:
 223:app/drivers/w25q/w25q.c ****   status = HAL_QSPI_Command(hflash->hqspi, &sCommand, W25Q_TIMEOUT_DEFAULT);
 585              		.loc 1 223 12 view .LVU177
 586 004e FFF7FEFF 		bl	HAL_QSPI_Command
 587              	.LVL34:
 224:app/drivers/w25q/w25q.c ****   if (status != HAL_OK)
 588              		.loc 1 224 3 is_stmt 1 view .LVU178
 224:app/drivers/w25q/w25q.c ****   if (status != HAL_OK)
ARM GAS  /tmp/cceNXdBx.s 			page 19


 589              		.loc 1 224 6 is_stmt 0 view .LVU179
 590 0052 0346     		mov	r3, r0
 591 0054 0028     		cmp	r0, #0
 592 0056 DBD1     		bne	.L28
 228:app/drivers/w25q/w25q.c ****   status = HAL_QSPI_Receive(hflash->hqspi, ID, W25Q_TIMEOUT_DEFAULT);
 593              		.loc 1 228 3 is_stmt 1 view .LVU180
 228:app/drivers/w25q/w25q.c ****   status = HAL_QSPI_Receive(hflash->hqspi, ID, W25Q_TIMEOUT_DEFAULT);
 594              		.loc 1 228 12 is_stmt 0 view .LVU181
 595 0058 4FF47A72 		mov	r2, #1000
 596 005c 2146     		mov	r1, r4
 597 005e 2868     		ldr	r0, [r5]
 598              	.LVL35:
 228:app/drivers/w25q/w25q.c ****   status = HAL_QSPI_Receive(hflash->hqspi, ID, W25Q_TIMEOUT_DEFAULT);
 599              		.loc 1 228 12 view .LVU182
 600 0060 FFF7FEFF 		bl	HAL_QSPI_Receive
 601              	.LVL36:
 602 0064 0346     		mov	r3, r0
 603              	.LVL37:
 229:app/drivers/w25q/w25q.c ****   if (status != HAL_OK)
 604              		.loc 1 229 3 is_stmt 1 view .LVU183
 605 0066 D3E7     		b	.L28
 606              		.cfi_endproc
 607              	.LFE140:
 609              		.section	.text.W25Q_EnableWright,"ax",%progbits
 610              		.align	1
 611              		.global	W25Q_EnableWright
 612              		.syntax unified
 613              		.thumb
 614              		.thumb_func
 615              		.fpu fpv4-sp-d16
 617              	W25Q_EnableWright:
 618              	.LVL38:
 619              	.LFB143:
 280:app/drivers/w25q/w25q.c **** HAL_StatusTypeDef W25Q_EnableWright(W25Q_HandleTypeDef *hflash) {
 620              		.loc 1 280 65 view -0
 621              		.cfi_startproc
 622              		@ args = 0, pretend = 0, frame = 56
 623              		@ frame_needed = 0, uses_anonymous_args = 0
 280:app/drivers/w25q/w25q.c **** HAL_StatusTypeDef W25Q_EnableWright(W25Q_HandleTypeDef *hflash) {
 624              		.loc 1 280 65 is_stmt 0 view .LVU185
 625 0000 10B5     		push	{r4, lr}
 626              	.LCFI18:
 627              		.cfi_def_cfa_offset 8
 628              		.cfi_offset 4, -8
 629              		.cfi_offset 14, -4
 630 0002 8EB0     		sub	sp, sp, #56
 631              	.LCFI19:
 632              		.cfi_def_cfa_offset 64
 633 0004 0446     		mov	r4, r0
 281:app/drivers/w25q/w25q.c ****   QSPI_CommandTypeDef sCommand;
 634              		.loc 1 281 3 is_stmt 1 view .LVU186
 283:app/drivers/w25q/w25q.c ****   HAL_StatusTypeDef status = W25Q_WaitBusy(hflash);
 635              		.loc 1 283 3 view .LVU187
 283:app/drivers/w25q/w25q.c ****   HAL_StatusTypeDef status = W25Q_WaitBusy(hflash);
 636              		.loc 1 283 30 is_stmt 0 view .LVU188
 637 0006 FFF7FEFF 		bl	W25Q_WaitBusy
 638              	.LVL39:
ARM GAS  /tmp/cceNXdBx.s 			page 20


 284:app/drivers/w25q/w25q.c ****   if (status != HAL_OK)
 639              		.loc 1 284 3 is_stmt 1 view .LVU189
 284:app/drivers/w25q/w25q.c ****   if (status != HAL_OK)
 640              		.loc 1 284 6 is_stmt 0 view .LVU190
 641 000a 0346     		mov	r3, r0
 642 000c 10B1     		cbz	r0, .L34
 643              	.LVL40:
 644              	.L32:
 314:app/drivers/w25q/w25q.c **** }
 645              		.loc 1 314 1 view .LVU191
 646 000e 1846     		mov	r0, r3
 647 0010 0EB0     		add	sp, sp, #56
 648              	.LCFI20:
 649              		.cfi_remember_state
 650              		.cfi_def_cfa_offset 8
 651              		@ sp needed
 652 0012 10BD     		pop	{r4, pc}
 653              	.LVL41:
 654              	.L34:
 655              	.LCFI21:
 656              		.cfi_restore_state
 288:app/drivers/w25q/w25q.c ****   sCommand.InstructionMode   = QSPI_INSTRUCTION_1_LINE;
 657              		.loc 1 288 3 is_stmt 1 view .LVU192
 288:app/drivers/w25q/w25q.c ****   sCommand.InstructionMode   = QSPI_INSTRUCTION_1_LINE;
 658              		.loc 1 288 30 is_stmt 0 view .LVU193
 659 0014 4FF48073 		mov	r3, #256
 660 0018 0693     		str	r3, [sp, #24]
 289:app/drivers/w25q/w25q.c ****   sCommand.Instruction       = W25Q_CMD_WRITE_ENABLE;
 661              		.loc 1 289 3 is_stmt 1 view .LVU194
 289:app/drivers/w25q/w25q.c ****   sCommand.Instruction       = W25Q_CMD_WRITE_ENABLE;
 662              		.loc 1 289 30 is_stmt 0 view .LVU195
 663 001a 0623     		movs	r3, #6
 664 001c 0093     		str	r3, [sp]
 291:app/drivers/w25q/w25q.c ****   sCommand.AddressMode       = QSPI_ADDRESS_NONE;
 665              		.loc 1 291 3 is_stmt 1 view .LVU196
 291:app/drivers/w25q/w25q.c ****   sCommand.AddressMode       = QSPI_ADDRESS_NONE;
 666              		.loc 1 291 30 is_stmt 0 view .LVU197
 667 001e 0023     		movs	r3, #0
 668 0020 0793     		str	r3, [sp, #28]
 293:app/drivers/w25q/w25q.c ****   sCommand.AlternateByteMode  = QSPI_ALTERNATE_BYTES_NONE;
 669              		.loc 1 293 3 is_stmt 1 view .LVU198
 293:app/drivers/w25q/w25q.c ****   sCommand.AlternateByteMode  = QSPI_ALTERNATE_BYTES_NONE;
 670              		.loc 1 293 31 is_stmt 0 view .LVU199
 671 0022 0893     		str	r3, [sp, #32]
 295:app/drivers/w25q/w25q.c ****   sCommand.DataMode          = QSPI_DATA_NONE;
 672              		.loc 1 295 3 is_stmt 1 view .LVU200
 295:app/drivers/w25q/w25q.c ****   sCommand.DataMode          = QSPI_DATA_NONE;
 673              		.loc 1 295 30 is_stmt 0 view .LVU201
 674 0024 0993     		str	r3, [sp, #36]
 296:app/drivers/w25q/w25q.c ****   sCommand.DummyCycles       = 0;
 675              		.loc 1 296 3 is_stmt 1 view .LVU202
 296:app/drivers/w25q/w25q.c ****   sCommand.DummyCycles       = 0;
 676              		.loc 1 296 30 is_stmt 0 view .LVU203
 677 0026 0593     		str	r3, [sp, #20]
 297:app/drivers/w25q/w25q.c ****   sCommand.NbData            = 0;
 678              		.loc 1 297 3 is_stmt 1 view .LVU204
 297:app/drivers/w25q/w25q.c ****   sCommand.NbData            = 0;
ARM GAS  /tmp/cceNXdBx.s 			page 21


 679              		.loc 1 297 30 is_stmt 0 view .LVU205
 680 0028 0A93     		str	r3, [sp, #40]
 299:app/drivers/w25q/w25q.c ****   sCommand.DdrMode           = QSPI_DDR_MODE_DISABLE;
 681              		.loc 1 299 3 is_stmt 1 view .LVU206
 299:app/drivers/w25q/w25q.c ****   sCommand.DdrMode           = QSPI_DDR_MODE_DISABLE;
 682              		.loc 1 299 30 is_stmt 0 view .LVU207
 683 002a 0B93     		str	r3, [sp, #44]
 300:app/drivers/w25q/w25q.c ****   sCommand.DdrHoldHalfCycle  = QSPI_DDR_HHC_ANALOG_DELAY;
 684              		.loc 1 300 3 is_stmt 1 view .LVU208
 300:app/drivers/w25q/w25q.c ****   sCommand.DdrHoldHalfCycle  = QSPI_DDR_HHC_ANALOG_DELAY;
 685              		.loc 1 300 30 is_stmt 0 view .LVU209
 686 002c 0C93     		str	r3, [sp, #48]
 301:app/drivers/w25q/w25q.c ****   sCommand.SIOOMode          = QSPI_SIOO_INST_EVERY_CMD;
 687              		.loc 1 301 3 is_stmt 1 view .LVU210
 301:app/drivers/w25q/w25q.c ****   sCommand.SIOOMode          = QSPI_SIOO_INST_EVERY_CMD;
 688              		.loc 1 301 30 is_stmt 0 view .LVU211
 689 002e 0D93     		str	r3, [sp, #52]
 304:app/drivers/w25q/w25q.c ****   status = HAL_QSPI_Command(hflash->hqspi, &sCommand, HAL_QSPI_TIMEOUT_DEFAULT_VALUE);
 690              		.loc 1 304 3 is_stmt 1 view .LVU212
 304:app/drivers/w25q/w25q.c ****   status = HAL_QSPI_Command(hflash->hqspi, &sCommand, HAL_QSPI_TIMEOUT_DEFAULT_VALUE);
 691              		.loc 1 304 12 is_stmt 0 view .LVU213
 692 0030 41F28832 		movw	r2, #5000
 693 0034 6946     		mov	r1, sp
 694 0036 2068     		ldr	r0, [r4]
 695              	.LVL42:
 304:app/drivers/w25q/w25q.c ****   status = HAL_QSPI_Command(hflash->hqspi, &sCommand, HAL_QSPI_TIMEOUT_DEFAULT_VALUE);
 696              		.loc 1 304 12 view .LVU214
 697 0038 FFF7FEFF 		bl	HAL_QSPI_Command
 698              	.LVL43:
 306:app/drivers/w25q/w25q.c ****   if (status != HAL_OK)
 699              		.loc 1 306 3 is_stmt 1 view .LVU215
 306:app/drivers/w25q/w25q.c ****   if (status != HAL_OK)
 700              		.loc 1 306 6 is_stmt 0 view .LVU216
 701 003c 0346     		mov	r3, r0
 702 003e 0028     		cmp	r0, #0
 703 0040 E5D1     		bne	.L32
 309:app/drivers/w25q/w25q.c ****   status = W25Q_WaitBusy(hflash);
 704              		.loc 1 309 3 is_stmt 1 view .LVU217
 309:app/drivers/w25q/w25q.c ****   status = W25Q_WaitBusy(hflash);
 705              		.loc 1 309 12 is_stmt 0 view .LVU218
 706 0042 2046     		mov	r0, r4
 707              	.LVL44:
 309:app/drivers/w25q/w25q.c ****   status = W25Q_WaitBusy(hflash);
 708              		.loc 1 309 12 view .LVU219
 709 0044 FFF7FEFF 		bl	W25Q_WaitBusy
 710              	.LVL45:
 711 0048 0346     		mov	r3, r0
 712              	.LVL46:
 310:app/drivers/w25q/w25q.c ****   if (status != HAL_OK)
 713              		.loc 1 310 3 is_stmt 1 view .LVU220
 714 004a E0E7     		b	.L32
 715              		.cfi_endproc
 716              	.LFE143:
 718              		.section	.text.W25Q_WriteData,"ax",%progbits
 719              		.align	1
 720              		.global	W25Q_WriteData
 721              		.syntax unified
ARM GAS  /tmp/cceNXdBx.s 			page 22


 722              		.thumb
 723              		.thumb_func
 724              		.fpu fpv4-sp-d16
 726              	W25Q_WriteData:
 727              	.LVL47:
 728              	.LFB137:
  73:app/drivers/w25q/w25q.c **** HAL_StatusTypeDef W25Q_WriteData(W25Q_HandleTypeDef *hflash, const uint8_t *dataBuffer, uint32_t ad
 729              		.loc 1 73 122 view -0
 730              		.cfi_startproc
 731              		@ args = 0, pretend = 0, frame = 56
 732              		@ frame_needed = 0, uses_anonymous_args = 0
  73:app/drivers/w25q/w25q.c **** HAL_StatusTypeDef W25Q_WriteData(W25Q_HandleTypeDef *hflash, const uint8_t *dataBuffer, uint32_t ad
 733              		.loc 1 73 122 is_stmt 0 view .LVU222
 734 0000 F0B5     		push	{r4, r5, r6, r7, lr}
 735              	.LCFI22:
 736              		.cfi_def_cfa_offset 20
 737              		.cfi_offset 4, -20
 738              		.cfi_offset 5, -16
 739              		.cfi_offset 6, -12
 740              		.cfi_offset 7, -8
 741              		.cfi_offset 14, -4
 742 0002 8FB0     		sub	sp, sp, #60
 743              	.LCFI23:
 744              		.cfi_def_cfa_offset 80
 745 0004 0446     		mov	r4, r0
 746 0006 0F46     		mov	r7, r1
 747 0008 1646     		mov	r6, r2
 748 000a 1D46     		mov	r5, r3
  74:app/drivers/w25q/w25q.c ****   QSPI_CommandTypeDef sCommand;
 749              		.loc 1 74 3 is_stmt 1 view .LVU223
  76:app/drivers/w25q/w25q.c ****   HAL_StatusTypeDef status = W25Q_WaitBusy(hflash);
 750              		.loc 1 76 3 view .LVU224
  76:app/drivers/w25q/w25q.c ****   HAL_StatusTypeDef status = W25Q_WaitBusy(hflash);
 751              		.loc 1 76 30 is_stmt 0 view .LVU225
 752 000c FFF7FEFF 		bl	W25Q_WaitBusy
 753              	.LVL48:
  77:app/drivers/w25q/w25q.c ****   if (status != HAL_OK)
 754              		.loc 1 77 3 is_stmt 1 view .LVU226
  77:app/drivers/w25q/w25q.c ****   if (status != HAL_OK)
 755              		.loc 1 77 6 is_stmt 0 view .LVU227
 756 0010 8446     		mov	ip, r0
 757 0012 10B1     		cbz	r0, .L38
 758              	.LVL49:
 759              	.L36:
 113:app/drivers/w25q/w25q.c **** }
 760              		.loc 1 113 1 view .LVU228
 761 0014 6046     		mov	r0, ip
 762 0016 0FB0     		add	sp, sp, #60
 763              	.LCFI24:
 764              		.cfi_remember_state
 765              		.cfi_def_cfa_offset 20
 766              		@ sp needed
 767 0018 F0BD     		pop	{r4, r5, r6, r7, pc}
 768              	.LVL50:
 769              	.L38:
 770              	.LCFI25:
 771              		.cfi_restore_state
ARM GAS  /tmp/cceNXdBx.s 			page 23


  80:app/drivers/w25q/w25q.c ****   status = W25Q_EnableWright(hflash);
 772              		.loc 1 80 3 is_stmt 1 view .LVU229
  80:app/drivers/w25q/w25q.c ****   status = W25Q_EnableWright(hflash);
 773              		.loc 1 80 12 is_stmt 0 view .LVU230
 774 001a 2046     		mov	r0, r4
 775              	.LVL51:
  80:app/drivers/w25q/w25q.c ****   status = W25Q_EnableWright(hflash);
 776              		.loc 1 80 12 view .LVU231
 777 001c FFF7FEFF 		bl	W25Q_EnableWright
 778              	.LVL52:
  81:app/drivers/w25q/w25q.c ****   if (status != HAL_OK)
 779              		.loc 1 81 3 is_stmt 1 view .LVU232
  81:app/drivers/w25q/w25q.c ****   if (status != HAL_OK)
 780              		.loc 1 81 6 is_stmt 0 view .LVU233
 781 0020 8446     		mov	ip, r0
 782 0022 0028     		cmp	r0, #0
 783 0024 F6D1     		bne	.L36
  85:app/drivers/w25q/w25q.c ****   sCommand.InstructionMode   = QSPI_INSTRUCTION_1_LINE;
 784              		.loc 1 85 3 is_stmt 1 view .LVU234
  85:app/drivers/w25q/w25q.c ****   sCommand.InstructionMode   = QSPI_INSTRUCTION_1_LINE;
 785              		.loc 1 85 30 is_stmt 0 view .LVU235
 786 0026 4FF48073 		mov	r3, #256
 787 002a 0693     		str	r3, [sp, #24]
  86:app/drivers/w25q/w25q.c ****   sCommand.Instruction       = W25Q_CMD_PAGE_PROGRAM;
 788              		.loc 1 86 3 is_stmt 1 view .LVU236
  86:app/drivers/w25q/w25q.c ****   sCommand.Instruction       = W25Q_CMD_PAGE_PROGRAM;
 789              		.loc 1 86 30 is_stmt 0 view .LVU237
 790 002c 0223     		movs	r3, #2
 791 002e 0093     		str	r3, [sp]
  88:app/drivers/w25q/w25q.c ****   sCommand.AddressMode       = QSPI_ADDRESS_1_LINE;
 792              		.loc 1 88 3 is_stmt 1 view .LVU238
  88:app/drivers/w25q/w25q.c ****   sCommand.AddressMode       = QSPI_ADDRESS_1_LINE;
 793              		.loc 1 88 30 is_stmt 0 view .LVU239
 794 0030 4FF48063 		mov	r3, #1024
 795 0034 0793     		str	r3, [sp, #28]
  89:app/drivers/w25q/w25q.c ****   sCommand.AddressSize       = QSPI_ADDRESS_24_BITS;
 796              		.loc 1 89 3 is_stmt 1 view .LVU240
  89:app/drivers/w25q/w25q.c ****   sCommand.AddressSize       = QSPI_ADDRESS_24_BITS;
 797              		.loc 1 89 30 is_stmt 0 view .LVU241
 798 0036 4FF40053 		mov	r3, #8192
 799 003a 0393     		str	r3, [sp, #12]
  90:app/drivers/w25q/w25q.c ****   sCommand.Address           = address;
 800              		.loc 1 90 3 is_stmt 1 view .LVU242
  90:app/drivers/w25q/w25q.c ****   sCommand.Address           = address;
 801              		.loc 1 90 30 is_stmt 0 view .LVU243
 802 003c 0196     		str	r6, [sp, #4]
  92:app/drivers/w25q/w25q.c ****   sCommand.AlternateByteMode  = QSPI_ALTERNATE_BYTES_NONE;
 803              		.loc 1 92 3 is_stmt 1 view .LVU244
  92:app/drivers/w25q/w25q.c ****   sCommand.AlternateByteMode  = QSPI_ALTERNATE_BYTES_NONE;
 804              		.loc 1 92 31 is_stmt 0 view .LVU245
 805 003e 0023     		movs	r3, #0
 806 0040 0893     		str	r3, [sp, #32]
  94:app/drivers/w25q/w25q.c ****   sCommand.DataMode          = QSPI_DATA_1_LINE;
 807              		.loc 1 94 3 is_stmt 1 view .LVU246
  94:app/drivers/w25q/w25q.c ****   sCommand.DataMode          = QSPI_DATA_1_LINE;
 808              		.loc 1 94 30 is_stmt 0 view .LVU247
 809 0042 4FF08072 		mov	r2, #16777216
ARM GAS  /tmp/cceNXdBx.s 			page 24


 810 0046 0992     		str	r2, [sp, #36]
  95:app/drivers/w25q/w25q.c ****   sCommand.DummyCycles       = 0;
 811              		.loc 1 95 3 is_stmt 1 view .LVU248
  95:app/drivers/w25q/w25q.c ****   sCommand.DummyCycles       = 0;
 812              		.loc 1 95 30 is_stmt 0 view .LVU249
 813 0048 0593     		str	r3, [sp, #20]
  96:app/drivers/w25q/w25q.c ****   sCommand.NbData            = size;
 814              		.loc 1 96 3 is_stmt 1 view .LVU250
  96:app/drivers/w25q/w25q.c ****   sCommand.NbData            = size;
 815              		.loc 1 96 30 is_stmt 0 view .LVU251
 816 004a 0A95     		str	r5, [sp, #40]
  98:app/drivers/w25q/w25q.c ****   sCommand.DdrMode           = QSPI_DDR_MODE_DISABLE;
 817              		.loc 1 98 3 is_stmt 1 view .LVU252
  98:app/drivers/w25q/w25q.c ****   sCommand.DdrMode           = QSPI_DDR_MODE_DISABLE;
 818              		.loc 1 98 30 is_stmt 0 view .LVU253
 819 004c 0B93     		str	r3, [sp, #44]
  99:app/drivers/w25q/w25q.c ****   sCommand.DdrHoldHalfCycle  = QSPI_DDR_HHC_ANALOG_DELAY;
 820              		.loc 1 99 3 is_stmt 1 view .LVU254
  99:app/drivers/w25q/w25q.c ****   sCommand.DdrHoldHalfCycle  = QSPI_DDR_HHC_ANALOG_DELAY;
 821              		.loc 1 99 30 is_stmt 0 view .LVU255
 822 004e 0C93     		str	r3, [sp, #48]
 100:app/drivers/w25q/w25q.c ****   sCommand.SIOOMode          = QSPI_SIOO_INST_EVERY_CMD;
 823              		.loc 1 100 3 is_stmt 1 view .LVU256
 100:app/drivers/w25q/w25q.c ****   sCommand.SIOOMode          = QSPI_SIOO_INST_EVERY_CMD;
 824              		.loc 1 100 30 is_stmt 0 view .LVU257
 825 0050 0D93     		str	r3, [sp, #52]
 103:app/drivers/w25q/w25q.c ****   status = HAL_QSPI_Command(hflash->hqspi, &sCommand, HAL_QSPI_TIMEOUT_DEFAULT_VALUE);
 826              		.loc 1 103 3 is_stmt 1 view .LVU258
 103:app/drivers/w25q/w25q.c ****   status = HAL_QSPI_Command(hflash->hqspi, &sCommand, HAL_QSPI_TIMEOUT_DEFAULT_VALUE);
 827              		.loc 1 103 12 is_stmt 0 view .LVU259
 828 0052 41F28832 		movw	r2, #5000
 829 0056 6946     		mov	r1, sp
 830 0058 2068     		ldr	r0, [r4]
 831              	.LVL53:
 103:app/drivers/w25q/w25q.c ****   status = HAL_QSPI_Command(hflash->hqspi, &sCommand, HAL_QSPI_TIMEOUT_DEFAULT_VALUE);
 832              		.loc 1 103 12 view .LVU260
 833 005a FFF7FEFF 		bl	HAL_QSPI_Command
 834              	.LVL54:
 104:app/drivers/w25q/w25q.c ****   if (status != HAL_OK)
 835              		.loc 1 104 3 is_stmt 1 view .LVU261
 104:app/drivers/w25q/w25q.c ****   if (status != HAL_OK)
 836              		.loc 1 104 6 is_stmt 0 view .LVU262
 837 005e 8446     		mov	ip, r0
 838 0060 0028     		cmp	r0, #0
 839 0062 D7D1     		bne	.L36
 108:app/drivers/w25q/w25q.c ****   status = HAL_QSPI_Transmit(hflash->hqspi, (uint8_t *)dataBuffer, HAL_QSPI_TIMEOUT_DEFAULT_VALUE);
 840              		.loc 1 108 3 is_stmt 1 view .LVU263
 108:app/drivers/w25q/w25q.c ****   status = HAL_QSPI_Transmit(hflash->hqspi, (uint8_t *)dataBuffer, HAL_QSPI_TIMEOUT_DEFAULT_VALUE);
 841              		.loc 1 108 12 is_stmt 0 view .LVU264
 842 0064 41F28832 		movw	r2, #5000
 843 0068 3946     		mov	r1, r7
 844 006a 2068     		ldr	r0, [r4]
 845              	.LVL55:
 108:app/drivers/w25q/w25q.c ****   status = HAL_QSPI_Transmit(hflash->hqspi, (uint8_t *)dataBuffer, HAL_QSPI_TIMEOUT_DEFAULT_VALUE);
 846              		.loc 1 108 12 view .LVU265
 847 006c FFF7FEFF 		bl	HAL_QSPI_Transmit
 848              	.LVL56:
ARM GAS  /tmp/cceNXdBx.s 			page 25


 849 0070 8446     		mov	ip, r0
 850              	.LVL57:
 109:app/drivers/w25q/w25q.c ****   if (status != HAL_OK)
 851              		.loc 1 109 3 is_stmt 1 view .LVU266
 852 0072 CFE7     		b	.L36
 853              		.cfi_endproc
 854              	.LFE137:
 856              		.section	.text.W25Q_EraseSector,"ax",%progbits
 857              		.align	1
 858              		.global	W25Q_EraseSector
 859              		.syntax unified
 860              		.thumb
 861              		.thumb_func
 862              		.fpu fpv4-sp-d16
 864              	W25Q_EraseSector:
 865              	.LVL58:
 866              	.LFB138:
 115:app/drivers/w25q/w25q.c **** HAL_StatusTypeDef W25Q_EraseSector(W25Q_HandleTypeDef *hflash, uint32_t address) {
 867              		.loc 1 115 82 view -0
 868              		.cfi_startproc
 869              		@ args = 0, pretend = 0, frame = 56
 870              		@ frame_needed = 0, uses_anonymous_args = 0
 115:app/drivers/w25q/w25q.c **** HAL_StatusTypeDef W25Q_EraseSector(W25Q_HandleTypeDef *hflash, uint32_t address) {
 871              		.loc 1 115 82 is_stmt 0 view .LVU268
 872 0000 30B5     		push	{r4, r5, lr}
 873              	.LCFI26:
 874              		.cfi_def_cfa_offset 12
 875              		.cfi_offset 4, -12
 876              		.cfi_offset 5, -8
 877              		.cfi_offset 14, -4
 878 0002 8FB0     		sub	sp, sp, #60
 879              	.LCFI27:
 880              		.cfi_def_cfa_offset 72
 881 0004 0546     		mov	r5, r0
 882 0006 0C46     		mov	r4, r1
 116:app/drivers/w25q/w25q.c ****   QSPI_CommandTypeDef sCommand;
 883              		.loc 1 116 3 is_stmt 1 view .LVU269
 118:app/drivers/w25q/w25q.c ****   HAL_StatusTypeDef status = W25Q_WaitBusy(hflash);
 884              		.loc 1 118 3 view .LVU270
 118:app/drivers/w25q/w25q.c ****   HAL_StatusTypeDef status = W25Q_WaitBusy(hflash);
 885              		.loc 1 118 30 is_stmt 0 view .LVU271
 886 0008 FFF7FEFF 		bl	W25Q_WaitBusy
 887              	.LVL59:
 119:app/drivers/w25q/w25q.c ****   if (status != HAL_OK)
 888              		.loc 1 119 3 is_stmt 1 view .LVU272
 119:app/drivers/w25q/w25q.c ****   if (status != HAL_OK)
 889              		.loc 1 119 6 is_stmt 0 view .LVU273
 890 000c 0346     		mov	r3, r0
 891 000e 10B1     		cbz	r0, .L42
 892              	.LVL60:
 893              	.L40:
 150:app/drivers/w25q/w25q.c **** }
 894              		.loc 1 150 1 view .LVU274
 895 0010 1846     		mov	r0, r3
 896 0012 0FB0     		add	sp, sp, #60
 897              	.LCFI28:
 898              		.cfi_remember_state
ARM GAS  /tmp/cceNXdBx.s 			page 26


 899              		.cfi_def_cfa_offset 12
 900              		@ sp needed
 901 0014 30BD     		pop	{r4, r5, pc}
 902              	.LVL61:
 903              	.L42:
 904              	.LCFI29:
 905              		.cfi_restore_state
 122:app/drivers/w25q/w25q.c ****   status = W25Q_EnableWright(hflash);
 906              		.loc 1 122 3 is_stmt 1 view .LVU275
 122:app/drivers/w25q/w25q.c ****   status = W25Q_EnableWright(hflash);
 907              		.loc 1 122 12 is_stmt 0 view .LVU276
 908 0016 2846     		mov	r0, r5
 909              	.LVL62:
 122:app/drivers/w25q/w25q.c ****   status = W25Q_EnableWright(hflash);
 910              		.loc 1 122 12 view .LVU277
 911 0018 FFF7FEFF 		bl	W25Q_EnableWright
 912              	.LVL63:
 123:app/drivers/w25q/w25q.c ****   if (status != HAL_OK)
 913              		.loc 1 123 3 is_stmt 1 view .LVU278
 123:app/drivers/w25q/w25q.c ****   if (status != HAL_OK)
 914              		.loc 1 123 6 is_stmt 0 view .LVU279
 915 001c 0346     		mov	r3, r0
 916 001e 0028     		cmp	r0, #0
 917 0020 F6D1     		bne	.L40
 127:app/drivers/w25q/w25q.c ****   sCommand.InstructionMode = QSPI_INSTRUCTION_1_LINE;
 918              		.loc 1 127 3 is_stmt 1 view .LVU280
 127:app/drivers/w25q/w25q.c ****   sCommand.InstructionMode = QSPI_INSTRUCTION_1_LINE;
 919              		.loc 1 127 28 is_stmt 0 view .LVU281
 920 0022 4FF48073 		mov	r3, #256
 921 0026 0693     		str	r3, [sp, #24]
 128:app/drivers/w25q/w25q.c ****   sCommand.Instruction = W25Q_CMD_SECTOR_ERASE;
 922              		.loc 1 128 3 is_stmt 1 view .LVU282
 128:app/drivers/w25q/w25q.c ****   sCommand.Instruction = W25Q_CMD_SECTOR_ERASE;
 923              		.loc 1 128 24 is_stmt 0 view .LVU283
 924 0028 2023     		movs	r3, #32
 925 002a 0093     		str	r3, [sp]
 130:app/drivers/w25q/w25q.c ****   sCommand.AddressMode = QSPI_ADDRESS_1_LINE;
 926              		.loc 1 130 3 is_stmt 1 view .LVU284
 130:app/drivers/w25q/w25q.c ****   sCommand.AddressMode = QSPI_ADDRESS_1_LINE;
 927              		.loc 1 130 24 is_stmt 0 view .LVU285
 928 002c 4FF48063 		mov	r3, #1024
 929 0030 0793     		str	r3, [sp, #28]
 131:app/drivers/w25q/w25q.c ****   sCommand.AddressSize = QSPI_ADDRESS_24_BITS;
 930              		.loc 1 131 3 is_stmt 1 view .LVU286
 131:app/drivers/w25q/w25q.c ****   sCommand.AddressSize = QSPI_ADDRESS_24_BITS;
 931              		.loc 1 131 24 is_stmt 0 view .LVU287
 932 0032 4FF40053 		mov	r3, #8192
 933 0036 0393     		str	r3, [sp, #12]
 132:app/drivers/w25q/w25q.c ****   sCommand.Address = address;
 934              		.loc 1 132 3 is_stmt 1 view .LVU288
 132:app/drivers/w25q/w25q.c ****   sCommand.Address = address;
 935              		.loc 1 132 20 is_stmt 0 view .LVU289
 936 0038 0194     		str	r4, [sp, #4]
 134:app/drivers/w25q/w25q.c ****   sCommand.AlternateByteMode = QSPI_ALTERNATE_BYTES_NONE;
 937              		.loc 1 134 3 is_stmt 1 view .LVU290
 134:app/drivers/w25q/w25q.c ****   sCommand.AlternateByteMode = QSPI_ALTERNATE_BYTES_NONE;
 938              		.loc 1 134 30 is_stmt 0 view .LVU291
ARM GAS  /tmp/cceNXdBx.s 			page 27


 939 003a 0023     		movs	r3, #0
 940 003c 0893     		str	r3, [sp, #32]
 136:app/drivers/w25q/w25q.c ****   sCommand.DataMode = QSPI_DATA_NONE;
 941              		.loc 1 136 3 is_stmt 1 view .LVU292
 136:app/drivers/w25q/w25q.c ****   sCommand.DataMode = QSPI_DATA_NONE;
 942              		.loc 1 136 21 is_stmt 0 view .LVU293
 943 003e 0993     		str	r3, [sp, #36]
 137:app/drivers/w25q/w25q.c ****   sCommand.DummyCycles = 0;
 944              		.loc 1 137 3 is_stmt 1 view .LVU294
 137:app/drivers/w25q/w25q.c ****   sCommand.DummyCycles = 0;
 945              		.loc 1 137 24 is_stmt 0 view .LVU295
 946 0040 0593     		str	r3, [sp, #20]
 138:app/drivers/w25q/w25q.c ****   sCommand.NbData = 0;
 947              		.loc 1 138 3 is_stmt 1 view .LVU296
 138:app/drivers/w25q/w25q.c ****   sCommand.NbData = 0;
 948              		.loc 1 138 19 is_stmt 0 view .LVU297
 949 0042 0A93     		str	r3, [sp, #40]
 140:app/drivers/w25q/w25q.c ****   sCommand.DdrMode = QSPI_DDR_MODE_DISABLE;
 950              		.loc 1 140 3 is_stmt 1 view .LVU298
 140:app/drivers/w25q/w25q.c ****   sCommand.DdrMode = QSPI_DDR_MODE_DISABLE;
 951              		.loc 1 140 20 is_stmt 0 view .LVU299
 952 0044 0B93     		str	r3, [sp, #44]
 141:app/drivers/w25q/w25q.c ****   sCommand.DdrHoldHalfCycle = QSPI_DDR_HHC_ANALOG_DELAY;
 953              		.loc 1 141 3 is_stmt 1 view .LVU300
 141:app/drivers/w25q/w25q.c ****   sCommand.DdrHoldHalfCycle = QSPI_DDR_HHC_ANALOG_DELAY;
 954              		.loc 1 141 29 is_stmt 0 view .LVU301
 955 0046 0C93     		str	r3, [sp, #48]
 142:app/drivers/w25q/w25q.c ****   sCommand.SIOOMode = QSPI_SIOO_INST_EVERY_CMD;
 956              		.loc 1 142 3 is_stmt 1 view .LVU302
 142:app/drivers/w25q/w25q.c ****   sCommand.SIOOMode = QSPI_SIOO_INST_EVERY_CMD;
 957              		.loc 1 142 21 is_stmt 0 view .LVU303
 958 0048 0D93     		str	r3, [sp, #52]
 145:app/drivers/w25q/w25q.c ****   status = HAL_QSPI_Command(hflash->hqspi, &sCommand, HAL_QSPI_TIMEOUT_DEFAULT_VALUE);
 959              		.loc 1 145 3 is_stmt 1 view .LVU304
 145:app/drivers/w25q/w25q.c ****   status = HAL_QSPI_Command(hflash->hqspi, &sCommand, HAL_QSPI_TIMEOUT_DEFAULT_VALUE);
 960              		.loc 1 145 12 is_stmt 0 view .LVU305
 961 004a 41F28832 		movw	r2, #5000
 962 004e 6946     		mov	r1, sp
 963 0050 2868     		ldr	r0, [r5]
 964              	.LVL64:
 145:app/drivers/w25q/w25q.c ****   status = HAL_QSPI_Command(hflash->hqspi, &sCommand, HAL_QSPI_TIMEOUT_DEFAULT_VALUE);
 965              		.loc 1 145 12 view .LVU306
 966 0052 FFF7FEFF 		bl	HAL_QSPI_Command
 967              	.LVL65:
 968 0056 0346     		mov	r3, r0
 969              	.LVL66:
 146:app/drivers/w25q/w25q.c ****   if (status != HAL_OK)
 970              		.loc 1 146 3 is_stmt 1 view .LVU307
 971 0058 DAE7     		b	.L40
 972              		.cfi_endproc
 973              	.LFE138:
 975              		.text
 976              	.Letext0:
 977              		.file 2 "/usr/include/newlib/machine/_default_types.h"
 978              		.file 3 "/usr/include/newlib/sys/_stdint.h"
 979              		.file 4 "Drivers/CMSIS/Device/ST/STM32L4xx/Include/stm32l412xx.h"
 980              		.file 5 "Drivers/STM32L4xx_HAL_Driver/Inc/stm32l4xx_hal_def.h"
ARM GAS  /tmp/cceNXdBx.s 			page 28


 981              		.file 6 "Drivers/STM32L4xx_HAL_Driver/Inc/stm32l4xx_hal_dma.h"
 982              		.file 7 "Drivers/STM32L4xx_HAL_Driver/Inc/stm32l4xx_hal_qspi.h"
 983              		.file 8 "app/drivers/w25q/w25q.h"
 984              		.file 9 "Middlewares/Third_Party/FreeRTOS/Source/CMSIS_RTOS_V2/cmsis_os2.h"
ARM GAS  /tmp/cceNXdBx.s 			page 29


DEFINED SYMBOLS
                            *ABS*:0000000000000000 w25q.c
     /tmp/cceNXdBx.s:18     .text.W25Q_Init:0000000000000000 $t
     /tmp/cceNXdBx.s:26     .text.W25Q_Init:0000000000000000 W25Q_Init
     /tmp/cceNXdBx.s:45     .text.W25Q_ReadStatusReg:0000000000000000 $t
     /tmp/cceNXdBx.s:52     .text.W25Q_ReadStatusReg:0000000000000000 W25Q_ReadStatusReg
     /tmp/cceNXdBx.s:144    .text.W25Q_isBusy:0000000000000000 $t
     /tmp/cceNXdBx.s:151    .text.W25Q_isBusy:0000000000000000 W25Q_isBusy
     /tmp/cceNXdBx.s:193    .text.W25Q_WaitBusy:0000000000000000 $t
     /tmp/cceNXdBx.s:199    .text.W25Q_WaitBusy:0000000000000000 W25Q_WaitBusy
     /tmp/cceNXdBx.s:263    .text.W25Q_ReadData:0000000000000000 $t
     /tmp/cceNXdBx.s:270    .text.W25Q_ReadData:0000000000000000 W25Q_ReadData
     /tmp/cceNXdBx.s:390    .text.W25Q_Sleep:0000000000000000 $t
     /tmp/cceNXdBx.s:397    .text.W25Q_Sleep:0000000000000000 W25Q_Sleep
     /tmp/cceNXdBx.s:486    .text.W25Q_ReadID:0000000000000000 $t
     /tmp/cceNXdBx.s:493    .text.W25Q_ReadID:0000000000000000 W25Q_ReadID
     /tmp/cceNXdBx.s:610    .text.W25Q_EnableWright:0000000000000000 $t
     /tmp/cceNXdBx.s:617    .text.W25Q_EnableWright:0000000000000000 W25Q_EnableWright
     /tmp/cceNXdBx.s:719    .text.W25Q_WriteData:0000000000000000 $t
     /tmp/cceNXdBx.s:726    .text.W25Q_WriteData:0000000000000000 W25Q_WriteData
     /tmp/cceNXdBx.s:857    .text.W25Q_EraseSector:0000000000000000 $t
     /tmp/cceNXdBx.s:864    .text.W25Q_EraseSector:0000000000000000 W25Q_EraseSector

UNDEFINED SYMBOLS
HAL_QSPI_Command
HAL_QSPI_Receive
osDelay
HAL_QSPI_Transmit
